__Unwind_Resume U 0 0
__Z11qt_assert_xPKcS0_S0_i U 0 0
__Z21qRegisterResourceDataiPKhS0_S0_ U 0 0
__Z23qUnregisterResourceDataiPKhS0_S0_ U 0 0
__Z5qHash6QPointm U 0 0
__Z9qBadAllocv U 0 0
__Z9qt_assertPKcS0_i U 0 0
__ZN10Droidcraft16DroidcraftPlugin11qt_metacallEN11QMetaObject4CallEiPPv T 95f0 0
__ZN10Droidcraft16DroidcraftPlugin11qt_metacastEPKc T 9560 0
__ZN10Droidcraft16DroidcraftPlugin16staticMetaObjectE S 1b1d8 0
__ZN10Droidcraft16DroidcraftPlugin4readERK7QString T 3ff0 0
__ZN10Droidcraft16DroidcraftPlugin5writeEPKN5Tiled3MapERK7QString6QFlagsINS1_10FileFormat6OptionEE T 4cc0 0
__ZN10Droidcraft16DroidcraftPluginC1Ev T 3fd0 0
__ZN10Droidcraft16DroidcraftPluginC2Ev T 3f30 0
__ZN10QArrayData10deallocateEPS_xx U 0 0
__ZN10QArrayData19reallocateUnalignedEPS_PvxxNS_16AllocationOptionE U 0 0
__ZN10QArrayData8allocateEPPS_xxxNS_16AllocationOptionE U 0 0
__ZN10QByteArray11reallocDataExN10QArrayData16AllocationOptionE U 0 0
__ZN10QByteArrayC1Exc U 0 0
__ZN11QFileDevice5closeEv U 0 0
__ZN15QtSharedPointer20ExternalRefCountData9getAndRefEPK7QObject U 0 0
__ZN16QCoreApplication9translateEPKcS1_S1_i U 0 0
__ZN4QUrlC1ERK7QStringNS_11ParsingModeE U 0 0
__ZN4QUrlD1Ev U 0 0
__ZN5QFile4openE6QFlagsIN13QIODeviceBase12OpenModeFlagEE U 0 0
__ZN5QFileC1ERK7QString U 0 0
__ZN5QFileD1Ev U 0 0
__ZN5Tiled10FileFormatC2EP7QObject U 0 0
__ZN5Tiled10decompressERK10QByteArrayiNS_17CompressionMethodE U 0 0
__ZN5Tiled3Map10addTilesetERK14QSharedPointerINS_7TilesetEE U 0 0
__ZN5Tiled3Map8addLayerEPNS_5LayerE U 0 0
__ZN5Tiled3MapC1ERKNS0_10ParametersE U 0 0
__ZN5Tiled4Cell5emptyE U 0 0
__ZN5Tiled5Layer11asTileLayerEv U 0 0
__ZN5Tiled7Tileset13loadFromImageERK6QImageRK4QUrl U 0 0
__ZN5Tiled7TilesetC1E7QStringiiii U 0 0
__ZN5Tiled7TilesetD1Ev U 0 0
__ZN5Tiled8SaveFile6commitEv U 0 0
__ZN5Tiled8SaveFileC1ERK7QString U 0 0
__ZN5Tiled8compressERK10QByteArrayNS_17CompressionMethodEi U 0 0
__ZN5Tiled9MapFormat11qt_metacallEN11QMetaObject4CallEiPPv U 0 0
__ZN5Tiled9MapFormat11qt_metacastEPKc U 0 0
__ZN5Tiled9MapFormat16staticMetaObjectE U 0 0
__ZN5Tiled9TileLayer7setCellEiiRKNS_4CellE U 0 0
__ZN5Tiled9TileLayerC1ERK7QStringiiii U 0 0
__ZN6QImageC1ERK7QStringPKc U 0 0
__ZN6QImageD1Ev U 0 0
__ZN7QObject10childEventEP11QChildEvent U 0 0
__ZN7QObject10timerEventEP11QTimerEvent U 0 0
__ZN7QObject11customEventEP6QEvent U 0 0
__ZN7QObject11eventFilterEPS_P6QEvent U 0 0
__ZN7QObject13connectNotifyERK11QMetaMethod U 0 0
__ZN7QObject16disconnectNotifyERK11QMetaMethod U 0 0
__ZN7QObject5eventEP6QEvent U 0 0
__ZN7QObjectD2Ev U 0 0
__ZN7QString8fromUtf8E14QByteArrayView U 0 0
__ZN9QIODevice5writeERK10QByteArray U 0 0
__ZN9QIODevice7readAllEv U 0 0
__ZNK10Droidcraft16DroidcraftPlugin10metaObjectEv T 94e0 0
__ZNK10Droidcraft16DroidcraftPlugin10nameFilterEv T 5440 0
__ZNK10Droidcraft16DroidcraftPlugin11errorStringEv T 5560 0
__ZNK10Droidcraft16DroidcraftPlugin12supportsFileERK7QString T 4c40 0
__ZNK10Droidcraft16DroidcraftPlugin9shortNameEv T 5480 0
__ZNK11QMetaObject2trEPKcS1_i U 0 0
__ZNK11QObjectData17dynamicMetaObjectEv U 0 0
__ZNK5Tiled10FileFormat12capabilitiesEv U 0 0
__ZNK7QString8endsWithE13QLatin1StringN2Qt15CaseSensitivityE U 0 0
__ZNK9QIODevice11errorStringEv U 0 0
__ZSt9terminatev U 0 0
__ZTIN10Droidcraft16DroidcraftPluginE S 1b2c0 0
__ZTIN5Tiled9MapFormatE U 0 0
__ZTSN10Droidcraft16DroidcraftPluginE S 1a68e 0
__ZTVN10Droidcraft16DroidcraftPluginE S 1b210 0
__ZTVN10__cxxabiv120__si_class_type_infoE U 0 0
__ZTVN5Tiled9MapFormatE U 0 0
__ZdlPv U 0 0
__Znwm U 0 0
___cxa_atexit U 0 0
___cxa_begin_catch U 0 0
___cxa_guard_acquire U 0 0
___cxa_guard_release U 0 0
___gxx_personality_v0 U 0 0
_memmove U 0 0
_qt_plugin_instance T 96c0 0
_qt_plugin_query_metadata_v2 T 9630 0
_qt_version_tag_6_11 U 0 0
_strcmp U 0 0
===
__ZN10Droidcraft16DroidcraftPlugin11qt_metacallEN11QMetaObject4CallEiPPv T 95f0 0
__ZN10Droidcraft16DroidcraftPlugin11qt_metacastEPKc T 9560 0
__ZN10Droidcraft16DroidcraftPlugin16staticMetaObjectE S 1b1d8 0
__ZN10Droidcraft16DroidcraftPlugin4readERK7QString T 3ff0 0
__ZN10Droidcraft16DroidcraftPlugin5writeEPKN5Tiled3MapERK7QString6QFlagsINS1_10FileFormat6OptionEE T 4cc0 0
__ZN10Droidcraft16DroidcraftPluginC1Ev T 3fd0 0
__ZN10Droidcraft16DroidcraftPluginC2Ev T 3f30 0
__ZNK10Droidcraft16DroidcraftPlugin10metaObjectEv T 94e0 0
__ZNK10Droidcraft16DroidcraftPlugin10nameFilterEv T 5440 0
__ZNK10Droidcraft16DroidcraftPlugin11errorStringEv T 5560 0
__ZNK10Droidcraft16DroidcraftPlugin12supportsFileERK7QString T 4c40 0
__ZNK10Droidcraft16DroidcraftPlugin9shortNameEv T 5480 0
__ZTIN10Droidcraft16DroidcraftPluginE S 1b2c0 0
__ZTSN10Droidcraft16DroidcraftPluginE S 1a68e 0
__ZTVN10Droidcraft16DroidcraftPluginE S 1b210 0
_qt_plugin_instance T 96c0 0
_qt_plugin_query_metadata_v2 T 9630 0
