__Unwind_Resume U 0 0
__Z11qt_assert_xPKcS0_S0_i U 0 0
__Z5qHash6QPointm U 0 0
__Z9qBadAllocv U 0 0
__Z9qt_assertPKcS0_i U 0 0
__ZN10QArrayData10deallocateEPS_xx U 0 0
__ZN10QArrayData19reallocateUnalignedEPS_PvxxNS_16AllocationOptionE U 0 0
__ZN10QArrayData8allocateEPPS_xxxNS_16AllocationOptionE U 0 0
__ZN11QTextStream8readLineEx U 0 0
__ZN11QTextStreamC1EP9QIODevice U 0 0
__ZN11QTextStreamD1Ev U 0 0
__ZN11QTextStreamlsEPKc U 0 0
__ZN11QTextStreamlsERK7QString U 0 0
__ZN11QTextStreamlsEi U 0 0
__ZN15QtSharedPointer20ExternalRefCountData9getAndRefEPK7QObject U 0 0
__ZN16QCoreApplication9translateEPKcS1_S1_i U 0 0
__ZN4QDir14isRelativePathERK7QString U 0 0
__ZN5Flare11FlarePlugin11qt_metacallEN11QMetaObject4CallEiPPv T 164f0 0
__ZN5Flare11FlarePlugin11qt_metacastEPKc T 16460 0
__ZN5Flare11FlarePlugin15writePropertiesER11QTextStreamRK4QMapI7QString8QVariantERKN5Tiled13ExportContextE T 8c80 0
__ZN5Flare11FlarePlugin16staticMetaObjectE S 1a388 0
__ZN5Flare11FlarePlugin4readERK7QString T 3f90 0
__ZN5Flare11FlarePlugin5writeEPKN5Tiled3MapERK7QString6QFlagsINS1_10FileFormat6OptionEE T 79a0 0
__ZN5Flare11FlarePluginC1Ev T 3f70 0
__ZN5Flare11FlarePluginC2Ev T 3ed0 0
__ZN5QFile4openE6QFlagsIN13QIODeviceBase12OpenModeFlagEE U 0 0
__ZN5QFileC1ERK7QString U 0 0
__ZN5QFileD1Ev U 0 0
__ZN5Tiled10FileFormatC2EP7QObject U 0 0
__ZN5Tiled11ObjectGroup9addObjectEPNS_9MapObjectE U 0 0
__ZN5Tiled11ObjectGroupC1ERK7QStringii U 0 0
__ZN5Tiled13ExportContextC1ERK7QString U 0 0
__ZN5Tiled15toFileReferenceERK4QUrlRK7QString U 0 0
__ZN5Tiled19orientationToStringENS_3Map11OrientationE U 0 0
__ZN5Tiled21orientationFromStringERK7QString U 0 0
__ZN5Tiled3Map10addTilesetERK14QSharedPointerINS_7TilesetEE U 0 0
__ZN5Tiled3Map8addLayerEPNS_5LayerE U 0 0
__ZN5Tiled3MapC1ERKNS0_10ParametersE U 0 0
__ZN5Tiled4Cell5emptyE U 0 0
__ZN5Tiled5Layer11asTileLayerEv U 0 0
__ZN5Tiled5Layer13asObjectGroupEv U 0 0
__ZN5Tiled7Tileset13loadFromImageERK7QString U 0 0
__ZN5Tiled7TilesetC1E7QStringiiii U 0 0
__ZN5Tiled7TilesetD1Ev U 0 0
__ZN5Tiled8SaveFile6commitEv U 0 0
__ZN5Tiled8SaveFileC1ERK7QString U 0 0
__ZN5Tiled9GidMapperC1ERK5QListI14QSharedPointerINS_7TilesetEEE U 0 0
__ZN5Tiled9GidMapperC1Ev U 0 0
__ZN5Tiled9MapFormat11qt_metacallEN11QMetaObject4CallEiPPv U 0 0
__ZN5Tiled9MapFormat11qt_metacastEPKc U 0 0
__ZN5Tiled9MapFormat16staticMetaObjectE U 0 0
__ZN5Tiled9MapObjectC1ERK7QStringS3_RK7QPointFRK6QSizeF U 0 0
__ZN5Tiled9TileLayer7setCellEiiRKNS_4CellE U 0 0
__ZN5Tiled9TileLayerC1ERK7QStringiiii U 0 0
__ZN6QColor6setRedEi U 0 0
__ZN6QColor7setBlueEi U 0 0
__ZN6QColor8setAlphaEi U 0 0
__ZN6QColor8setGreenEi U 0 0
__ZN7QObject10childEventEP11QChildEvent U 0 0
__ZN7QObject10timerEventEP11QTimerEvent U 0 0
__ZN7QObject11customEventEP6QEvent U 0 0
__ZN7QObject11eventFilterEPS_P6QEvent U 0 0
__ZN7QObject13connectNotifyERK11QMetaMethod U 0 0
__ZN7QObject16disconnectNotifyERK11QMetaMethod U 0 0
__ZN7QObject5eventEP6QEvent U 0 0
__ZN7QObjectD2Ev U 0 0
__ZN7QString17toIntegral_helperE11QStringViewPbi U 0 0
__ZN7QString6appendE5QChar U 0 0
__ZN7QString6appendERKS_ U 0 0
__ZN7QStringC1EPK5QCharx U 0 0
__ZN7QStringaSERKS_ U 0 0
__ZN8QVariantC1ERK7QString U 0 0
__ZN8QVariantC1ERKS_ U 0 0
__ZN8QVariantD1Ev U 0 0
__ZN8QVariantaSERKS_ U 0 0
__ZN9QFileInfoC1ERK11QFileDevice U 0 0
__ZN9QFileInfoC1ERK7QString U 0 0
__ZN9QFileInfoD1Ev U 0 0
__ZN9QtPrivate12argToQStringE14QAnyStringViewmPPKNS_7ArgBaseE U 0 0
__ZN9QtPrivate12equalStringsE11QStringView13QLatin1String U 0 0
__ZN9QtPrivate12equalStringsE13QLatin1String11QStringView U 0 0
__ZN9QtPrivate12qustrcasechrE11QStringViewDs U 0 0
__ZN9QtPrivate14compareStringsE11QStringViewS0_N2Qt15CaseSensitivityE U 0 0
__ZN9QtPrivate7trimmedE11QStringView U 0 0
__ZN9QtPrivate8qustrchrE11QStringViewDs U 0 0
__ZNK11QMetaObject2trEPKcS1_i U 0 0
__ZNK11QObjectData17dynamicMetaObjectEv U 0 0
__ZNK11QStringView5splitE5QChar6QFlagsIN2Qt18SplitBehaviorFlagsEENS2_15CaseSensitivityE U 0 0
__ZNK11QStringView8toDoubleEPb U 0 0
__ZNK11QTextStream5atEndEv U 0 0
__ZNK5Flare11FlarePlugin10metaObjectEv T 163e0 0
__ZNK5Flare11FlarePlugin10nameFilterEv T 7820 0
__ZNK5Flare11FlarePlugin11errorStringEv T 7940 0
__ZNK5Flare11FlarePlugin12supportsFileERK7QString T 77d0 0
__ZNK5Flare11FlarePlugin9shortNameEv T 7860 0
__ZNK5Tiled10FileFormat12capabilitiesEv U 0 0
__ZNK5Tiled13ExportContext13toExportValueERK8QVariant U 0 0
__ZNK5Tiled3Map9findLayerERK7QStringi U 0 0
__ZNK5Tiled9GidMapper9cellToGidERKNS_4CellE U 0 0
__ZNK5Tiled9GidMapper9gidToCellEjRb U 0 0
__ZNK6QColor3redEv U 0 0
__ZNK6QColor4blueEv U 0 0
__ZNK6QColor5alphaEv U 0 0
__ZNK6QColor5greenEv U 0 0
__ZNK7QString5splitE5QChar6QFlagsIN2Qt18SplitBehaviorFlagsEENS2_15CaseSensitivityE U 0 0
__ZNK7QString8arg_implExii5QChar U 0 0
__ZNK7QString8endsWithE13QLatin1StringN2Qt15CaseSensitivityE U 0 0
__ZNK8QVariant8toStringEv U 0 0
__ZNK9QFileInfo12absolutePathEv U 0 0
__ZNK9QFileInfo8fileNameEv U 0 0
__ZNK9QIODevice11errorStringEv U 0 0
__ZNKR7QString3midExx U 0 0
__ZNSt20bad_array_new_lengthC1Ev U 0 0
__ZNSt20bad_array_new_lengthD1Ev U 0 0
__ZSt9terminatev U 0 0
__ZTIN5Flare11FlarePluginE S 1a470 0
__ZTIN5Tiled9MapFormatE U 0 0
__ZTISt20bad_array_new_length U 0 0
__ZTSN5Flare11FlarePluginE S 18bd9 0
__ZTVN10__cxxabiv120__si_class_type_infoE U 0 0
__ZTVN5Flare11FlarePluginE S 1a3c0 0
__ZTVN5Tiled9MapFormatE U 0 0
__ZdlPv U 0 0
__ZdlPvSt11align_val_t U 0 0
__Znwm U 0 0
__ZnwmSt11align_val_t U 0 0
___cxa_allocate_exception U 0 0
___cxa_atexit U 0 0
___cxa_begin_catch U 0 0
___cxa_guard_acquire U 0 0
___cxa_guard_release U 0 0
___cxa_throw U 0 0
___gxx_personality_v0 U 0 0
___stack_chk_fail U 0 0
___stack_chk_guard U 0 0
_memcpy U 0 0
_memmove U 0 0
_memset U 0 0
_qt_plugin_instance T 165c0 0
_qt_plugin_query_metadata_v2 T 16530 0
_qt_version_tag_6_11 U 0 0
_strcmp U 0 0
===
__ZN5Flare11FlarePlugin11qt_metacallEN11QMetaObject4CallEiPPv T 164f0 0
__ZN5Flare11FlarePlugin11qt_metacastEPKc T 16460 0
__ZN5Flare11FlarePlugin15writePropertiesER11QTextStreamRK4QMapI7QString8QVariantERKN5Tiled13ExportContextE T 8c80 0
__ZN5Flare11FlarePlugin16staticMetaObjectE S 1a388 0
__ZN5Flare11FlarePlugin4readERK7QString T 3f90 0
__ZN5Flare11FlarePlugin5writeEPKN5Tiled3MapERK7QString6QFlagsINS1_10FileFormat6OptionEE T 79a0 0
__ZN5Flare11FlarePluginC1Ev T 3f70 0
__ZN5Flare11FlarePluginC2Ev T 3ed0 0
__ZNK5Flare11FlarePlugin10metaObjectEv T 163e0 0
__ZNK5Flare11FlarePlugin10nameFilterEv T 7820 0
__ZNK5Flare11FlarePlugin11errorStringEv T 7940 0
__ZNK5Flare11FlarePlugin12supportsFileERK7QString T 77d0 0
__ZNK5Flare11FlarePlugin9shortNameEv T 7860 0
__ZTIN5Flare11FlarePluginE S 1a470 0
__ZTSN5Flare11FlarePluginE S 18bd9 0
__ZTVN5Flare11FlarePluginE S 1a3c0 0
_qt_plugin_instance T 165c0 0
_qt_plugin_query_metadata_v2 T 16530 0
