---
triple:          'x86_64-apple-darwin'
binary-path:     '/Users/dz0400621/Documents/project/tiled/debug/rpd.ea011b79/librpd.dylib'
relocations:
  - { offset: 0x3F, size: 0x8, addend: 0x0, symName: _qt_version_tag_6_11_use, symObjAddr: 0x68E8, symBinAddr: 0x21000, symSize: 0x0 }
  - { offset: 0x1E95, size: 0x8, addend: 0x0, symName: __ZN9QtPrivateL19lengthHelperPointerIcEExPKT_, symObjAddr: 0x3620, symBinAddr: 0x7540, symSize: 0x50 }
  - { offset: 0x1ED8, size: 0x8, addend: 0x0, symName: __ZN9QtPrivateL30checkTypeIsSuitableForMetaTypeIxEEbv, symObjAddr: 0x63C0, symBinAddr: 0xA2E0, symSize: 0x10 }
  - { offset: 0x1F00, size: 0x8, addend: 0x0, symName: __ZN9QtPrivate25qMetaTypeInterfaceForTypeIxEEPKNS_18QMetaTypeInterfaceEv, symObjAddr: 0x63D0, symBinAddr: 0xA2F0, symSize: 0x10 }
  - { offset: 0x1F28, size: 0x8, addend: 0x0, symName: __ZN9QtPrivateL30checkTypeIsSuitableForMetaTypeI7QStringEEbv, symObjAddr: 0x6410, symBinAddr: 0xA330, symSize: 0x10 }
  - { offset: 0x1F50, size: 0x8, addend: 0x0, symName: __ZN9QtPrivate25qMetaTypeInterfaceForTypeI7QStringEEPKNS_18QMetaTypeInterfaceEv, symObjAddr: 0x6420, symBinAddr: 0xA340, symSize: 0x10 }
  - { offset: 0xE0FF, size: 0x8, addend: 0x0, symName: __ZNSt3__117__cxx_atomic_loadB9nqe210106IiEET_PKNS_22__cxx_atomic_base_implIS1_EENS_12memory_orderE, symObjAddr: 0x30D0, symBinAddr: 0x6FF0, symSize: 0x50 }
  - { offset: 0xE528, size: 0x8, addend: 0x0, symName: __ZNSt3__14swapB9nqe210106IxEENS_9enable_ifIXaasr21is_move_constructibleIT_EE5valuesr18is_move_assignableIS2_EE5valueEvE4typeERS2_S5_, symObjAddr: 0x2EF0, symBinAddr: 0x6E10, symSize: 0x40 }
  - { offset: 0xE579, size: 0x8, addend: 0x0, symName: __ZNSt3__122__cxx_atomic_fetch_subB9nqe210106IiEET_PNS_22__cxx_atomic_base_implIS1_EES1_NS_12memory_orderE, symObjAddr: 0x3410, symBinAddr: 0x7330, symSize: 0xC0 }
  - { offset: 0xE5CA, size: 0x8, addend: 0x0, symName: __ZNSt3__17destroyB9nqe210106IP8QVariantEEvT_S3_, symObjAddr: 0x34D0, symBinAddr: 0x73F0, symSize: 0x30 }
  - { offset: 0xE609, size: 0x8, addend: 0x0, symName: __ZNSt3__19__destroyB9nqe210106IP8QVariantEET_S3_S3_, symObjAddr: 0x3550, symBinAddr: 0x7470, symSize: 0x40 }
  - { offset: 0xE64C, size: 0x8, addend: 0x0, symName: __ZNSt3__112__destroy_atB9nqe210106I8QVariantLi0EEEvPT_, symObjAddr: 0x3590, symBinAddr: 0x74B0, symSize: 0x20 }
  - { offset: 0xE683, size: 0x8, addend: 0x0, symName: __ZNSt3__18exchangeB9nqe210106IP15QTypedArrayDataIDsEDnEET_RS4_OT0_, symObjAddr: 0x3790, symBinAddr: 0x76B0, symSize: 0x30 }
  - { offset: 0xE6DD, size: 0x8, addend: 0x0, symName: __ZNSt3__18exchangeB9nqe210106IPDsDnEET_RS2_OT0_, symObjAddr: 0x37C0, symBinAddr: 0x76E0, symSize: 0x30 }
  - { offset: 0xE737, size: 0x8, addend: 0x0, symName: __ZNSt3__18exchangeB9nqe210106IxiEET_RS1_OT0_, symObjAddr: 0x37F0, symBinAddr: 0x7710, symSize: 0x30 }
  - { offset: 0xE822, size: 0x8, addend: 0x0, symName: __ZNSt3__112__destroy_atB9nqe210106INS_4pairIK7QString8QVariantEELi0EEEvPT_, symObjAddr: 0x43B0, symBinAddr: 0x82D0, symSize: 0x20 }
  - { offset: 0xE859, size: 0x8, addend: 0x0, symName: __ZNSt3__119__libcpp_deallocateB9nqe210106INS_11__tree_nodeINS_12__value_typeI7QString8QVariantEEPvEEEEvPNS_15__type_identityIT_E4typeENS_15__element_countEm, symObjAddr: 0x4450, symBinAddr: 0x8370, symSize: 0x50 }
  - { offset: 0xE8B4, size: 0x8, addend: 0x0, symName: __ZNSt3__124__is_overaligned_for_newB9nqe210106Em, symObjAddr: 0x44A0, symBinAddr: 0x83C0, symSize: 0x20 }
  - { offset: 0xE913, size: 0x8, addend: 0x0, symName: __ZNSt3__122__cxx_atomic_fetch_addB9nqe210106IiEET_PNS_22__cxx_atomic_base_implIS1_EES1_NS_12memory_orderE, symObjAddr: 0x49E0, symBinAddr: 0x8900, symSize: 0xB0 }
  - { offset: 0xE964, size: 0x8, addend: 0x0, symName: __ZNSt3__13getB9nqe210106ILm0EP15QTypedArrayDataI8QVariantEPS2_EEONS_13tuple_elementIXT_ENS_4pairIT0_T1_EEE4typeEOSA_, symObjAddr: 0x5720, symBinAddr: 0x9640, symSize: 0x20 }
  - { offset: 0xE9AE, size: 0x8, addend: 0x0, symName: __ZNSt3__13getB9nqe210106ILm1EP15QTypedArrayDataI8QVariantEPS2_EEONS_13tuple_elementIXT_ENS_4pairIT0_T1_EEE4typeEOSA_, symObjAddr: 0x5740, symBinAddr: 0x9660, symSize: 0x20 }
  - { offset: 0xEA72, size: 0x8, addend: 0x0, symName: __ZNSt3__1neB9nqe210106ERKNS_20__map_const_iteratorINS_21__tree_const_iteratorINS_12__value_typeI7QString8QVariantEEPNS_11__tree_nodeIS5_PvEElEEEESD_, symObjAddr: 0x60F0, symBinAddr: 0xA010, symSize: 0x30 }
  - { offset: 0xEAAF, size: 0x8, addend: 0x0, symName: __ZNSt3__1neB9nqe210106ERKNS_21__tree_const_iteratorINS_12__value_typeI7QString8QVariantEEPNS_11__tree_nodeIS4_PvEElEESB_, symObjAddr: 0x6120, symBinAddr: 0xA040, symSize: 0x30 }
  - { offset: 0xEAEC, size: 0x8, addend: 0x0, symName: __ZNSt3__1eqB9nqe210106ERKNS_21__tree_const_iteratorINS_12__value_typeI7QString8QVariantEEPNS_11__tree_nodeIS4_PvEElEESB_, symObjAddr: 0x6150, symBinAddr: 0xA070, symSize: 0x30 }
  - { offset: 0xEB29, size: 0x8, addend: 0x0, symName: __ZNSt3__116__tree_next_iterB9nqe210106IPNS_15__tree_end_nodeIPNS_16__tree_node_baseIPvEEEES5_EET_T0_, symObjAddr: 0x61E0, symBinAddr: 0xA100, symSize: 0x80 }
  - { offset: 0xEB67, size: 0x8, addend: 0x0, symName: __ZNSt3__110__tree_minB9nqe210106IPNS_16__tree_node_baseIPvEEEET_S5_, symObjAddr: 0x6260, symBinAddr: 0xA180, symSize: 0x30 }
  - { offset: 0xEB9C, size: 0x8, addend: 0x0, symName: __ZNSt3__120__tree_is_left_childB9nqe210106IPNS_16__tree_node_baseIPvEEEEbT_, symObjAddr: 0x6290, symBinAddr: 0xA1B0, symSize: 0x20 }
  - { offset: 0x2A2BD, size: 0x8, addend: 0x0, symName: __ZN10JsonWriterC2Ev, symObjAddr: 0x0, symBinAddr: 0x3F20, symSize: 0xB0 }
  - { offset: 0x2A2E9, size: 0x8, addend: 0x0, symName: __ZN7QStringC1Ev, symObjAddr: 0xB0, symBinAddr: 0x3FD0, symSize: 0x20 }
  - { offset: 0x2A315, size: 0x8, addend: 0x0, symName: __ZN11QLatin1CharC1Ec, symObjAddr: 0xD0, symBinAddr: 0x3FF0, symSize: 0x30 }
  - { offset: 0x2A34D, size: 0x8, addend: 0x0, symName: __ZN5QCharC1I11QLatin1CharLb1EEET_, symObjAddr: 0x100, symBinAddr: 0x4020, symSize: 0x30 }
  - { offset: 0x2A394, size: 0x8, addend: 0x0, symName: __ZN7QStringD1Ev, symObjAddr: 0x130, symBinAddr: 0x4050, symSize: 0x20 }
  - { offset: 0x2A3C0, size: 0x8, addend: 0x0, symName: __ZN10JsonWriterC1Ev, symObjAddr: 0x150, symBinAddr: 0x4070, symSize: 0x20 }
  - { offset: 0x2A3EC, size: 0x8, addend: 0x0, symName: __ZN10JsonWriterD2Ev, symObjAddr: 0x170, symBinAddr: 0x4090, symSize: 0x40 }
  - { offset: 0x2A418, size: 0x8, addend: 0x0, symName: __ZN10JsonWriterD1Ev, symObjAddr: 0x1B0, symBinAddr: 0x40D0, symSize: 0x20 }
  - { offset: 0x2A444, size: 0x8, addend: 0x0, symName: __ZN10JsonWriter17setAutoFormattingEb, symObjAddr: 0x1D0, symBinAddr: 0x40F0, symSize: 0x20 }
  - { offset: 0x2A47A, size: 0x8, addend: 0x0, symName: __ZNK10JsonWriter14autoFormattingEv, symObjAddr: 0x1F0, symBinAddr: 0x4110, symSize: 0x20 }
  - { offset: 0x2A4A2, size: 0x8, addend: 0x0, symName: __ZN10JsonWriter23setAutoFormattingIndentEi, symObjAddr: 0x210, symBinAddr: 0x4130, symSize: 0x90 }
  - { offset: 0x2A4D7, size: 0x8, addend: 0x0, symName: __Z4qAbsIiET_RKS0_, symObjAddr: 0x2A0, symBinAddr: 0x41C0, symSize: 0x70 }
  - { offset: 0x2A50F, size: 0x8, addend: 0x0, symName: __ZN7QStringaSEOS_, symObjAddr: 0x310, symBinAddr: 0x4230, symSize: 0x30 }
  - { offset: 0x2A544, size: 0x8, addend: 0x0, symName: __ZNK10JsonWriter20autoFormattingIndentEv, symObjAddr: 0x340, symBinAddr: 0x4260, symSize: 0xA0 }
  - { offset: 0x2A56C, size: 0x8, addend: 0x0, symName: __ZN10JsonWriter31setAutoFormattingWrapArrayCountEi, symObjAddr: 0x3E0, symBinAddr: 0x4300, symSize: 0x20 }
  - { offset: 0x2A5A7, size: 0x8, addend: 0x0, symName: __ZN10JsonWriter9stringifyERK8QVarianti, symObjAddr: 0x400, symBinAddr: 0x4320, symSize: 0x1760 }
  - { offset: 0x2A6E6, size: 0x8, addend: 0x0, symName: __ZNK8QVariant4typeEv, symObjAddr: 0x1B60, symBinAddr: 0x5A80, symSize: 0x50 }
  - { offset: 0x2A71C, size: 0x8, addend: 0x0, symName: __ZN7QStringpLE5QChar, symObjAddr: 0x1BB0, symBinAddr: 0x5AD0, symSize: 0x30 }
  - { offset: 0x2A751, size: 0x8, addend: 0x0, symName: __ZNK5QListI8QVariantE5countEv, symObjAddr: 0x1BE0, symBinAddr: 0x5B00, symSize: 0x20 }
  - { offset: 0x2A777, size: 0x8, addend: 0x0, symName: __ZN7QStringpLERKS_, symObjAddr: 0x1C00, symBinAddr: 0x5B20, symSize: 0x30 }
  - { offset: 0x2A7AC, size: 0x8, addend: 0x0, symName: __ZN5QListI8QVariantEixEx, symObjAddr: 0x1C30, symBinAddr: 0x5B50, symSize: 0x70 }
  - { offset: 0x2A7E1, size: 0x8, addend: 0x0, symName: __ZN5QListI8QVariantED1Ev, symObjAddr: 0x1CA0, symBinAddr: 0x5BC0, symSize: 0x20 }
  - { offset: 0x2A80D, size: 0x8, addend: 0x0, symName: __ZN13QLatin1StringC1EPKc, symObjAddr: 0x1CC0, symBinAddr: 0x5BE0, symSize: 0x30 }
  - { offset: 0x2A845, size: 0x8, addend: 0x0, symName: __ZN7QStringpLE13QLatin1String, symObjAddr: 0x1CF0, symBinAddr: 0x5C10, symSize: 0x40 }
  - { offset: 0x2A87A, size: 0x8, addend: 0x0, symName: __ZNK4QMapI7QString8QVariantE10constBeginEv, symObjAddr: 0x1D30, symBinAddr: 0x5C50, symSize: 0x30 }
  - { offset: 0x2A89F, size: 0x8, addend: 0x0, symName: __ZneRKN4QMapI7QString8QVariantE14const_iteratorES5_, symObjAddr: 0x1D60, symBinAddr: 0x5C80, symSize: 0x30 }
  - { offset: 0x2A8DD, size: 0x8, addend: 0x0, symName: __ZNK4QMapI7QString8QVariantE8constEndEv, symObjAddr: 0x1D90, symBinAddr: 0x5CB0, symSize: 0x30 }
  - { offset: 0x2A902, size: 0x8, addend: 0x0, symName: __ZplRK7QString5QChar, symObjAddr: 0x1DC0, symBinAddr: 0x5CE0, symSize: 0x90 }
  - { offset: 0x2A950, size: 0x8, addend: 0x0, symName: __ZplO7QStringRKS_, symObjAddr: 0x1E50, symBinAddr: 0x5D70, symSize: 0x50 }
  - { offset: 0x2A98D, size: 0x8, addend: 0x0, symName: __Zpl5QCharRK7QString, symObjAddr: 0x1EA0, symBinAddr: 0x5DC0, symSize: 0x90 }
  - { offset: 0x2A9DB, size: 0x8, addend: 0x0, symName: __ZL6escapeRK8QVariant, symObjAddr: 0x1F30, symBinAddr: 0x5E50, symSize: 0x700 }
  - { offset: 0x2AA3A, size: 0x8, addend: 0x0, symName: __ZNK4QMapI7QString8QVariantE14const_iterator3keyEv, symObjAddr: 0x2630, symBinAddr: 0x6550, symSize: 0x20 }
  - { offset: 0x2AA60, size: 0x8, addend: 0x0, symName: __ZN7QStringC1E13QLatin1String, symObjAddr: 0x2650, symBinAddr: 0x6570, symSize: 0x60 }
  - { offset: 0x2AA9B, size: 0x8, addend: 0x0, symName: __ZNK4QMapI7QString8QVariantE14const_iterator5valueEv, symObjAddr: 0x26B0, symBinAddr: 0x65D0, symSize: 0x20 }
  - { offset: 0x2AAC1, size: 0x8, addend: 0x0, symName: __ZN4QMapI7QString8QVariantE14const_iteratorppEv, symObjAddr: 0x26D0, symBinAddr: 0x65F0, symSize: 0x30 }
  - { offset: 0x2AAE7, size: 0x8, addend: 0x0, symName: __ZN4QMapI7QString8QVariantED1Ev, symObjAddr: 0x2700, symBinAddr: 0x6620, symSize: 0x20 }
  - { offset: 0x2AB12, size: 0x8, addend: 0x0, symName: __ZplO7QString5QChar, symObjAddr: 0x2720, symBinAddr: 0x6640, symSize: 0x50 }
  - { offset: 0x2AB50, size: 0x8, addend: 0x0, symName: __ZN5QChar7unicodeEv, symObjAddr: 0x2770, symBinAddr: 0x6690, symSize: 0x10 }
  - { offset: 0x2AB76, size: 0x8, addend: 0x0, symName: __ZNK8QVariant10canConvertIxEEbv, symObjAddr: 0x2780, symBinAddr: 0x66A0, symSize: 0x40 }
  - { offset: 0x2ABA5, size: 0x8, addend: 0x0, symName: __ZNK8QVariant10canConvertI7QStringEEbv, symObjAddr: 0x27C0, symBinAddr: 0x66E0, symSize: 0x40 }
  - { offset: 0x2ABD4, size: 0x8, addend: 0x0, symName: __ZNK7QString7isEmptyEv, symObjAddr: 0x2800, symBinAddr: 0x6720, symSize: 0x30 }
  - { offset: 0x2ABFA, size: 0x8, addend: 0x0, symName: __ZN7QStringC1EO17QArrayDataPointerIDsE, symObjAddr: 0x2830, symBinAddr: 0x6750, symSize: 0x30 }
  - { offset: 0x2AC33, size: 0x8, addend: 0x0, symName: __ZNK7QString3argIS_Lb1EEES_RKT_i5QChar, symObjAddr: 0x2860, symBinAddr: 0x6780, symSize: 0x70 }
  - { offset: 0x2AC95, size: 0x8, addend: 0x0, symName: __ZNK8QVariant8typeNameEv, symObjAddr: 0x28D0, symBinAddr: 0x67F0, symSize: 0x30 }
  - { offset: 0x2ACC2, size: 0x8, addend: 0x0, symName: __ZN14QByteArrayViewC1IPKcLb1EEERKT_, symObjAddr: 0x2900, symBinAddr: 0x6820, symSize: 0x70 }
  - { offset: 0x2AD09, size: 0x8, addend: 0x0, symName: __ZN5QCharC1IDsLb1EEET_, symObjAddr: 0x2970, symBinAddr: 0x6890, symSize: 0x30 }
  - { offset: 0x2AD50, size: 0x8, addend: 0x0, symName: __ZNK7QString3argIiLb1EEES_T_ii5QChar, symObjAddr: 0x29A0, symBinAddr: 0x68C0, symSize: 0x60 }
  - { offset: 0x2ADC1, size: 0x8, addend: 0x0, symName: __ZNK8QVariant8userTypeEv, symObjAddr: 0x2A00, symBinAddr: 0x6920, symSize: 0x20 }
  - { offset: 0x2ADE7, size: 0x8, addend: 0x0, symName: __ZN17QArrayDataPointerIDsED1Ev, symObjAddr: 0x2A20, symBinAddr: 0x6940, symSize: 0x20 }
  - { offset: 0x2B32F, size: 0x8, addend: 0x0, symName: __ZN14QMessageLoggerC1EPKciS1_, symObjAddr: 0x2A40, symBinAddr: 0x6960, symSize: 0x40 }
  - { offset: 0x2B383, size: 0x8, addend: 0x0, symName: __ZN6QDebuglsEPKc, symObjAddr: 0x2A80, symBinAddr: 0x69A0, symSize: 0x90 }
  - { offset: 0x2B3B7, size: 0x8, addend: 0x0, symName: __ZN6QDebuglsERK7QString, symObjAddr: 0x2B10, symBinAddr: 0x6A30, symSize: 0x50 }
  - { offset: 0x2B3EB, size: 0x8, addend: 0x0, symName: __ZN10JsonWriter9stringifyERK8QVariant, symObjAddr: 0x2B60, symBinAddr: 0x6A80, symSize: 0x50 }
  - { offset: 0x2B423, size: 0x8, addend: 0x0, symName: __ZN7QString5clearEv, symObjAddr: 0x2BB0, symBinAddr: 0x6AD0, symSize: 0x50 }
  - { offset: 0x2B44B, size: 0x8, addend: 0x0, symName: __ZNK10JsonWriter6resultEv, symObjAddr: 0x2C00, symBinAddr: 0x6B20, symSize: 0x30 }
  - { offset: 0x2B474, size: 0x8, addend: 0x0, symName: __ZN7QStringC1ERKS_, symObjAddr: 0x2C30, symBinAddr: 0x6B50, symSize: 0x30 }
  - { offset: 0x2B4AF, size: 0x8, addend: 0x0, symName: __ZNK10JsonWriter11errorStringEv, symObjAddr: 0x2C60, symBinAddr: 0x6B80, symSize: 0x30 }
  - { offset: 0x2B4D8, size: 0x8, addend: 0x0, symName: __ZN7QStringC2Ev, symObjAddr: 0x2C90, symBinAddr: 0x6BB0, symSize: 0x20 }
  - { offset: 0x2B504, size: 0x8, addend: 0x0, symName: __ZN17QArrayDataPointerIDsEC1Ev, symObjAddr: 0x2CB0, symBinAddr: 0x6BD0, symSize: 0x20 }
  - { offset: 0x2B52E, size: 0x8, addend: 0x0, symName: __ZN17QArrayDataPointerIDsEC2Ev, symObjAddr: 0x2CD0, symBinAddr: 0x6BF0, symSize: 0x30 }
  - { offset: 0x2B558, size: 0x8, addend: 0x0, symName: __ZN11QLatin1CharC2Ec, symObjAddr: 0x2D00, symBinAddr: 0x6C20, symSize: 0x20 }
  - { offset: 0x2B590, size: 0x8, addend: 0x0, symName: __ZN5QCharC2I11QLatin1CharLb1EEET_, symObjAddr: 0x2D20, symBinAddr: 0x6C40, symSize: 0x40 }
  - { offset: 0x2B5D7, size: 0x8, addend: 0x0, symName: __ZNK11QLatin1CharcvDsEv, symObjAddr: 0x2D60, symBinAddr: 0x6C80, symSize: 0x20 }
  - { offset: 0x2B5FD, size: 0x8, addend: 0x0, symName: __ZNK11QLatin1Char7unicodeEv, symObjAddr: 0x2D80, symBinAddr: 0x6CA0, symSize: 0x20 }
  - { offset: 0x2B623, size: 0x8, addend: 0x0, symName: __ZN7QStringD2Ev, symObjAddr: 0x2DA0, symBinAddr: 0x6CC0, symSize: 0x20 }
  - { offset: 0x2B64F, size: 0x8, addend: 0x0, symName: __ZNSt3__114numeric_limitsIiE3minB9nqe210106Ev, symObjAddr: 0x2DC0, symBinAddr: 0x6CE0, symSize: 0x10 }
  - { offset: 0x2B663, size: 0x8, addend: 0x0, symName: __ZNSt3__123__libcpp_numeric_limitsIiLb1EE3minB9nqe210106Ev, symObjAddr: 0x2DD0, symBinAddr: 0x6CF0, symSize: 0x10 }
  - { offset: 0x2B677, size: 0x8, addend: 0x0, symName: __ZN7QString4swapERS_, symObjAddr: 0x2DE0, symBinAddr: 0x6D00, symSize: 0x30 }
  - { offset: 0x2B6AC, size: 0x8, addend: 0x0, symName: __ZN17QArrayDataPointerIDsE4swapERS0_, symObjAddr: 0x2E10, symBinAddr: 0x6D30, symSize: 0x60 }
  - { offset: 0x2B6DF, size: 0x8, addend: 0x0, symName: __Z11qt_ptr_swapI15QTypedArrayDataIDsEEvRPT_S4_, symObjAddr: 0x2E70, symBinAddr: 0x6D90, symSize: 0x40 }
  - { offset: 0x2B72C, size: 0x8, addend: 0x0, symName: __Z11qt_ptr_swapIDsEvRPT_S2_, symObjAddr: 0x2EB0, symBinAddr: 0x6DD0, symSize: 0x40 }
  - { offset: 0x2B77A, size: 0x8, addend: 0x0, symName: __ZNK8QVariant7Private4typeEv, symObjAddr: 0x2F30, symBinAddr: 0x6E50, symSize: 0x30 }
  - { offset: 0x2B7A0, size: 0x8, addend: 0x0, symName: __ZNK9QMetaType2idEi, symObjAddr: 0x2F60, symBinAddr: 0x6E80, symSize: 0x20 }
  - { offset: 0x2B7D2, size: 0x8, addend: 0x0, symName: __ZNK8QVariant7Private13typeInterfaceEv, symObjAddr: 0x2F80, symBinAddr: 0x6EA0, symSize: 0x20 }
  - { offset: 0x2B7F8, size: 0x8, addend: 0x0, symName: __ZN9QMetaTypeC1EPKN9QtPrivate18QMetaTypeInterfaceE, symObjAddr: 0x2FA0, symBinAddr: 0x6EC0, symSize: 0x30 }
  - { offset: 0x2B831, size: 0x8, addend: 0x0, symName: __ZN9QMetaTypeC2EPKN9QtPrivate18QMetaTypeInterfaceE, symObjAddr: 0x2FD0, symBinAddr: 0x6EF0, symSize: 0x20 }
  - { offset: 0x2B86A, size: 0x8, addend: 0x0, symName: __ZNK9QMetaType14registerHelperEv, symObjAddr: 0x2FF0, symBinAddr: 0x6F10, symSize: 0x70 }
  - { offset: 0x2B8AF, size: 0x8, addend: 0x0, symName: __ZNK19QBasicAtomicIntegerIiE11loadRelaxedEv, symObjAddr: 0x3060, symBinAddr: 0x6F80, symSize: 0x20 }
  - { offset: 0x2B8D5, size: 0x8, addend: 0x0, symName: __ZN10QAtomicOpsIiE11loadRelaxedIiEET_RKNSt3__16atomicIS2_EE, symObjAddr: 0x3080, symBinAddr: 0x6FA0, symSize: 0x20 }
  - { offset: 0x2B901, size: 0x8, addend: 0x0, symName: __ZNKSt3__113__atomic_baseIiLb0EE4loadB9nqe210106ENS_12memory_orderE, symObjAddr: 0x30A0, symBinAddr: 0x6FC0, symSize: 0x30 }
  - { offset: 0x2B935, size: 0x8, addend: 0x0, symName: __ZNK5QListI8QVariantE4sizeEv, symObjAddr: 0x3120, symBinAddr: 0x7040, symSize: 0x50 }
  - { offset: 0x2B99F, size: 0x8, addend: 0x0, symName: __ZZNK5QListI8QVariantE4sizeEvENKUlvE_clEv, symObjAddr: 0x3170, symBinAddr: 0x7090, symSize: 0x50 }
  - { offset: 0x2B9C9, size: 0x8, addend: 0x0, symName: __ZN5QListI8QVariantED2Ev, symObjAddr: 0x31D0, symBinAddr: 0x70F0, symSize: 0x20 }
  - { offset: 0x2B9F5, size: 0x8, addend: 0x0, symName: __ZN17QArrayDataPointerI8QVariantED1Ev, symObjAddr: 0x31F0, symBinAddr: 0x7110, symSize: 0x20 }
  - { offset: 0x2BA1F, size: 0x8, addend: 0x0, symName: __ZN17QArrayDataPointerI8QVariantED2Ev, symObjAddr: 0x3210, symBinAddr: 0x7130, symSize: 0x50 }
  - { offset: 0x2BA49, size: 0x8, addend: 0x0, symName: __ZN17QArrayDataPointerI8QVariantE5derefEv, symObjAddr: 0x3260, symBinAddr: 0x7180, symSize: 0x40 }
  - { offset: 0x2BA6F, size: 0x8, addend: 0x0, symName: __ZN17QArrayDataPointerI8QVariantEptEv, symObjAddr: 0x32A0, symBinAddr: 0x71C0, symSize: 0x10 }
  - { offset: 0x2BA95, size: 0x8, addend: 0x0, symName: __ZN9QtPrivate16QGenericArrayOpsI8QVariantE10destroyAllEv, symObjAddr: 0x32B0, symBinAddr: 0x71D0, symSize: 0x90 }
  - { offset: 0x2BABB, size: 0x8, addend: 0x0, symName: __ZN15QTypedArrayDataI8QVariantE10deallocateEP10QArrayData, symObjAddr: 0x3340, symBinAddr: 0x7260, symSize: 0x30 }
  - { offset: 0x2BADE, size: 0x8, addend: 0x0, symName: __ZN10QArrayData5derefEv, symObjAddr: 0x3370, symBinAddr: 0x7290, symSize: 0x20 }
  - { offset: 0x2BB04, size: 0x8, addend: 0x0, symName: __ZN19QBasicAtomicIntegerIiE5derefEv, symObjAddr: 0x3390, symBinAddr: 0x72B0, symSize: 0x20 }
  - { offset: 0x2BB2A, size: 0x8, addend: 0x0, symName: __ZN10QAtomicOpsIiE5derefIiEEbRNSt3__16atomicIT_EE, symObjAddr: 0x33B0, symBinAddr: 0x72D0, symSize: 0x30 }
  - { offset: 0x2BB57, size: 0x8, addend: 0x0, symName: __ZNSt3__113__atomic_baseIiLb1EE9fetch_subB9nqe210106EiNS_12memory_orderE, symObjAddr: 0x33E0, symBinAddr: 0x7300, symSize: 0x30 }
  - { offset: 0x2BB99, size: 0x8, addend: 0x0, symName: __ZN17QArrayDataPointerI8QVariantE5beginEv, symObjAddr: 0x3500, symBinAddr: 0x7420, symSize: 0x20 }
  - { offset: 0x2BBBF, size: 0x8, addend: 0x0, symName: __ZN17QArrayDataPointerI8QVariantE3endEv, symObjAddr: 0x3520, symBinAddr: 0x7440, symSize: 0x30 }
  - { offset: 0x2BBE5, size: 0x8, addend: 0x0, symName: __ZN17QArrayDataPointerI8QVariantE4dataEv, symObjAddr: 0x35B0, symBinAddr: 0x74D0, symSize: 0x20 }
  - { offset: 0x2BC0B, size: 0x8, addend: 0x0, symName: __ZN13QLatin1StringC2EPKc, symObjAddr: 0x35D0, symBinAddr: 0x74F0, symSize: 0x50 }
  - { offset: 0x2BC43, size: 0x8, addend: 0x0, symName: __ZN7QStringC1EOS_, symObjAddr: 0x3670, symBinAddr: 0x7590, symSize: 0x30 }
  - { offset: 0x2BC7C, size: 0x8, addend: 0x0, symName: __ZN7QStringC2EOS_, symObjAddr: 0x36A0, symBinAddr: 0x75C0, symSize: 0x30 }
  - { offset: 0x2BCB5, size: 0x8, addend: 0x0, symName: __ZN17QArrayDataPointerIDsEC1EOS0_, symObjAddr: 0x36D0, symBinAddr: 0x75F0, symSize: 0x30 }
  - { offset: 0x2BCED, size: 0x8, addend: 0x0, symName: __ZN17QArrayDataPointerIDsEC2EOS0_, symObjAddr: 0x3700, symBinAddr: 0x7620, symSize: 0x90 }
  - { offset: 0x2BD25, size: 0x8, addend: 0x0, symName: __ZN7QString7reserveEx, symObjAddr: 0x3820, symBinAddr: 0x7740, symSize: 0xB0 }
  - { offset: 0x2BD5C, size: 0x8, addend: 0x0, symName: __ZNK7QString6lengthEv, symObjAddr: 0x38D0, symBinAddr: 0x77F0, symSize: 0x20 }
  - { offset: 0x2BD81, size: 0x8, addend: 0x0, symName: __ZeqRK5QCharS1_, symObjAddr: 0x38F0, symBinAddr: 0x7810, symSize: 0x30 }
  - { offset: 0x2BE04, size: 0x8, addend: 0x0, symName: __ZN7QStringixEx, symObjAddr: 0x3920, symBinAddr: 0x7840, symSize: 0xF0 }
  - { offset: 0x2BE6D, size: 0x8, addend: 0x0, symName: __ZNK17QArrayDataPointerIDsE11needsDetachEv, symObjAddr: 0x3A10, symBinAddr: 0x7930, symSize: 0x40 }
  - { offset: 0x2BE93, size: 0x8, addend: 0x0, symName: __ZNK7QString8capacityEv, symObjAddr: 0x3A50, symBinAddr: 0x7970, symSize: 0x20 }
  - { offset: 0x2BEBB, size: 0x8, addend: 0x0, symName: __ZNK17QArrayDataPointerIDsE16freeSpaceAtBeginEv, symObjAddr: 0x3A70, symBinAddr: 0x7990, symSize: 0x60 }
  - { offset: 0x2BEE0, size: 0x8, addend: 0x0, symName: __Z4qMaxIxERKT_S2_S2_, symObjAddr: 0x3AD0, symBinAddr: 0x79F0, symSize: 0x40 }
  - { offset: 0x2BF24, size: 0x8, addend: 0x0, symName: __ZNK7QString4sizeEv, symObjAddr: 0x3B10, symBinAddr: 0x7A30, symSize: 0x50 }
  - { offset: 0x2BF7F, size: 0x8, addend: 0x0, symName: __ZNK17QArrayDataPointerIDsE22constAllocatedCapacityEv, symObjAddr: 0x3B60, symBinAddr: 0x7A80, symSize: 0x40 }
  - { offset: 0x2BFA5, size: 0x8, addend: 0x0, symName: __ZN17QArrayDataPointerIDsE7setFlagE6QFlagsIN10QArrayData11ArrayOptionEE, symObjAddr: 0x3BA0, symBinAddr: 0x7AC0, symSize: 0x60 }
  - { offset: 0x2BFDA, size: 0x8, addend: 0x0, symName: __ZN6QFlagsIN10QArrayData11ArrayOptionEEC1ES1_, symObjAddr: 0x3C00, symBinAddr: 0x7B20, symSize: 0x30 }
  - { offset: 0x2C012, size: 0x8, addend: 0x0, symName: __ZN10QArrayData11needsDetachEv, symObjAddr: 0x3C30, symBinAddr: 0x7B50, symSize: 0x30 }
  - { offset: 0x2C038, size: 0x8, addend: 0x0, symName: __ZN15QTypedArrayDataIDsE9dataStartEP10QArrayDatax, symObjAddr: 0x3C60, symBinAddr: 0x7B80, symSize: 0x80 }
  - { offset: 0x2C081, size: 0x8, addend: 0x0, symName: __ZZNK7QString4sizeEvENKUlvE_clEv, symObjAddr: 0x3CE0, symBinAddr: 0x7C00, symSize: 0x50 }
  - { offset: 0x2C0AB, size: 0x8, addend: 0x0, symName: __ZNK10QArrayData22constAllocatedCapacityEv, symObjAddr: 0x3D30, symBinAddr: 0x7C50, symSize: 0x20 }
  - { offset: 0x2C0D1, size: 0x8, addend: 0x0, symName: __ZN6QFlagsIN10QArrayData11ArrayOptionEEoRES2_, symObjAddr: 0x3D50, symBinAddr: 0x7C70, symSize: 0x20 }
  - { offset: 0x2C105, size: 0x8, addend: 0x0, symName: __ZN6QFlagsIN10QArrayData11ArrayOptionEEC2ES1_, symObjAddr: 0x3D70, symBinAddr: 0x7C90, symSize: 0x30 }
  - { offset: 0x2C13D, size: 0x8, addend: 0x0, symName: __ZN9QtPrivate19QFlagsStorageHelperIN10QArrayData11ArrayOptionELi4EECI2NS_13QFlagsStorageIS2_EEENSt3__110in_place_tEj, symObjAddr: 0x3DA0, symBinAddr: 0x7CC0, symSize: 0x30 }
  - { offset: 0x2C17B, size: 0x8, addend: 0x0, symName: __ZN9QtPrivate13QFlagsStorageIN10QArrayData11ArrayOptionEEC2ENSt3__110in_place_tEj, symObjAddr: 0x3DD0, symBinAddr: 0x7CF0, symSize: 0x20 }
  - { offset: 0x2C1BD, size: 0x8, addend: 0x0, symName: __Z13comparesEqualRK5QCharS1_, symObjAddr: 0x3DF0, symBinAddr: 0x7D10, symSize: 0x30 }
  - { offset: 0x2C1FB, size: 0x8, addend: 0x0, symName: __ZN7QString4dataEv, symObjAddr: 0x3E20, symBinAddr: 0x7D40, symSize: 0x60 }
  - { offset: 0x2C223, size: 0x8, addend: 0x0, symName: __ZN7QString6detachEv, symObjAddr: 0x3E80, symBinAddr: 0x7DA0, symSize: 0x40 }
  - { offset: 0x2C24B, size: 0x8, addend: 0x0, symName: __ZN17QArrayDataPointerIDsE4dataEv, symObjAddr: 0x3EC0, symBinAddr: 0x7DE0, symSize: 0x20 }
  - { offset: 0x2C271, size: 0x8, addend: 0x0, symName: __ZN7QString10fromLatin1EPKcx, symObjAddr: 0x3EE0, symBinAddr: 0x7E00, symSize: 0x80 }
  - { offset: 0x2C2A4, size: 0x8, addend: 0x0, symName: __ZNK13QLatin1String4dataEv, symObjAddr: 0x3F60, symBinAddr: 0x7E80, symSize: 0x20 }
  - { offset: 0x2C2CA, size: 0x8, addend: 0x0, symName: __ZNK13QLatin1String4sizeEv, symObjAddr: 0x3F80, symBinAddr: 0x7EA0, symSize: 0x20 }
  - { offset: 0x2C2EF, size: 0x8, addend: 0x0, symName: __Z7qstrlenPKc, symObjAddr: 0x3FA0, symBinAddr: 0x7EC0, symSize: 0x40 }
  - { offset: 0x2C31C, size: 0x8, addend: 0x0, symName: __ZN14QByteArrayViewC1IcLb1EEEPKT_x, symObjAddr: 0x3FE0, symBinAddr: 0x7F00, symSize: 0x30 }
  - { offset: 0x2C371, size: 0x8, addend: 0x0, symName: __ZN14QByteArrayViewC2IcLb1EEEPKT_x, symObjAddr: 0x4010, symBinAddr: 0x7F30, symSize: 0x90 }
  - { offset: 0x2C3C6, size: 0x8, addend: 0x0, symName: __ZN14QByteArrayView10castHelperEPKc, symObjAddr: 0x40A0, symBinAddr: 0x7FC0, symSize: 0x10 }
  - { offset: 0x2C3E9, size: 0x8, addend: 0x0, symName: __ZN4QMapI7QString8QVariantED2Ev, symObjAddr: 0x40B0, symBinAddr: 0x7FD0, symSize: 0x20 }
  - { offset: 0x2C415, size: 0x8, addend: 0x0, symName: __ZN9QtPrivate30QExplicitlySharedDataPointerV2I8QMapDataINSt3__13mapI7QString8QVariantNS2_4lessIS4_EENS2_9allocatorINS2_4pairIKS4_S5_EEEEEEEED1Ev, symObjAddr: 0x40D0, symBinAddr: 0x7FF0, symSize: 0x20 }
  - { offset: 0x2C43F, size: 0x8, addend: 0x0, symName: __ZN9QtPrivate30QExplicitlySharedDataPointerV2I8QMapDataINSt3__13mapI7QString8QVariantNS2_4lessIS4_EENS2_9allocatorINS2_4pairIKS4_S5_EEEEEEEED2Ev, symObjAddr: 0x40F0, symBinAddr: 0x8010, symSize: 0x70 }
  - { offset: 0x2C469, size: 0x8, addend: 0x0, symName: __ZNK2Qt23totally_ordered_wrapperIP8QMapDataINSt3__13mapI7QString8QVariantNS2_4lessIS4_EENS2_9allocatorINS2_4pairIKS4_S5_EEEEEEEEcvbEv, symObjAddr: 0x4160, symBinAddr: 0x8080, symSize: 0x30 }
  - { offset: 0x2C48F, size: 0x8, addend: 0x0, symName: __ZNK2Qt23totally_ordered_wrapperIP8QMapDataINSt3__13mapI7QString8QVariantNS2_4lessIS4_EENS2_9allocatorINS2_4pairIKS4_S5_EEEEEEEEptEv, symObjAddr: 0x4190, symBinAddr: 0x80B0, symSize: 0x20 }
  - { offset: 0x2C4B5, size: 0x8, addend: 0x0, symName: __ZNK2Qt23totally_ordered_wrapperIP8QMapDataINSt3__13mapI7QString8QVariantNS2_4lessIS4_EENS2_9allocatorINS2_4pairIKS4_S5_EEEEEEEE3getEv, symObjAddr: 0x41B0, symBinAddr: 0x80D0, symSize: 0x20 }
  - { offset: 0x2C4DB, size: 0x8, addend: 0x0, symName: __ZN8QMapDataINSt3__13mapI7QString8QVariantNS0_4lessIS2_EENS0_9allocatorINS0_4pairIKS2_S3_EEEEEEED1Ev, symObjAddr: 0x41D0, symBinAddr: 0x80F0, symSize: 0x20 }
  - { offset: 0x2C507, size: 0x8, addend: 0x0, symName: __ZN8QMapDataINSt3__13mapI7QString8QVariantNS0_4lessIS2_EENS0_9allocatorINS0_4pairIKS2_S3_EEEEEEED2Ev, symObjAddr: 0x41F0, symBinAddr: 0x8110, symSize: 0x20 }
  - { offset: 0x2C533, size: 0x8, addend: 0x0, symName: __ZNSt3__13mapI7QString8QVariantNS_4lessIS1_EENS_9allocatorINS_4pairIKS1_S2_EEEEED1B9nqe210106Ev, symObjAddr: 0x4210, symBinAddr: 0x8130, symSize: 0x20 }
  - { offset: 0x2C55D, size: 0x8, addend: 0x0, symName: __ZNSt3__13mapI7QString8QVariantNS_4lessIS1_EENS_9allocatorINS_4pairIKS1_S2_EEEEED2B9nqe210106Ev, symObjAddr: 0x4230, symBinAddr: 0x8150, symSize: 0x20 }
  - { offset: 0x2C587, size: 0x8, addend: 0x0, symName: __ZNSt3__16__treeINS_12__value_typeI7QString8QVariantEENS_19__map_value_compareIS2_NS_4pairIKS2_S3_EENS_4lessIS2_EELb1EEENS_9allocatorIS8_EEED1Ev, symObjAddr: 0x4250, symBinAddr: 0x8170, symSize: 0x20 }
  - { offset: 0x2C5B3, size: 0x8, addend: 0x0, symName: __ZNSt3__16__treeINS_12__value_typeI7QString8QVariantEENS_19__map_value_compareIS2_NS_4pairIKS2_S3_EENS_4lessIS2_EELb1EEENS_9allocatorIS8_EEED2Ev, symObjAddr: 0x4270, symBinAddr: 0x8190, symSize: 0x30 }
  - { offset: 0x2C5DF, size: 0x8, addend: 0x0, symName: __ZNSt3__16__treeINS_12__value_typeI7QString8QVariantEENS_19__map_value_compareIS2_NS_4pairIKS2_S3_EENS_4lessIS2_EELb1EEENS_9allocatorIS8_EEE7destroyEPNS_11__tree_nodeIS4_PvEE, symObjAddr: 0x42A0, symBinAddr: 0x81C0, symSize: 0x80 }
  - { offset: 0x2C62D, size: 0x8, addend: 0x0, symName: __ZNKSt3__16__treeINS_12__value_typeI7QString8QVariantEENS_19__map_value_compareIS2_NS_4pairIKS2_S3_EENS_4lessIS2_EELb1EEENS_9allocatorIS8_EEE6__rootB9nqe210106Ev, symObjAddr: 0x4320, symBinAddr: 0x8240, symSize: 0x20 }
  - { offset: 0x2C653, size: 0x8, addend: 0x0, symName: __ZNSt3__16__treeINS_12__value_typeI7QString8QVariantEENS_19__map_value_compareIS2_NS_4pairIKS2_S3_EENS_4lessIS2_EELb1EEENS_9allocatorIS8_EEE12__node_allocB9nqe210106Ev, symObjAddr: 0x4340, symBinAddr: 0x8260, symSize: 0x20 }
  - { offset: 0x2C67E, size: 0x8, addend: 0x0, symName: __ZNSt3__116allocator_traitsINS_9allocatorINS_11__tree_nodeINS_12__value_typeI7QString8QVariantEEPvEEEEE7destroyB9nqe210106INS_4pairIKS4_S5_EELi0EEEvRS9_PT_, symObjAddr: 0x4360, symBinAddr: 0x8280, symSize: 0x20 }
  - { offset: 0x2C6BD, size: 0x8, addend: 0x0, symName: __ZNSt3__116allocator_traitsINS_9allocatorINS_11__tree_nodeINS_12__value_typeI7QString8QVariantEEPvEEEEE10deallocateB9nqe210106ERS9_PS8_m, symObjAddr: 0x4380, symBinAddr: 0x82A0, symSize: 0x30 }
  - { offset: 0x2C6FF, size: 0x8, addend: 0x0, symName: __ZNSt3__14pairIK7QString8QVariantED1Ev, symObjAddr: 0x43D0, symBinAddr: 0x82F0, symSize: 0x20 }
  - { offset: 0x2C72B, size: 0x8, addend: 0x0, symName: __ZNSt3__14pairIK7QString8QVariantED2Ev, symObjAddr: 0x43F0, symBinAddr: 0x8310, symSize: 0x30 }
  - { offset: 0x2C757, size: 0x8, addend: 0x0, symName: __ZNSt3__19allocatorINS_11__tree_nodeINS_12__value_typeI7QString8QVariantEEPvEEE10deallocateB9nqe210106EPS7_m, symObjAddr: 0x4420, symBinAddr: 0x8340, symSize: 0x30 }
  - { offset: 0x2C799, size: 0x8, addend: 0x0, symName: __ZNKSt3__16__treeINS_12__value_typeI7QString8QVariantEENS_19__map_value_compareIS2_NS_4pairIKS2_S3_EENS_4lessIS2_EELb1EEENS_9allocatorIS8_EEE10__end_nodeB9nqe210106Ev, symObjAddr: 0x44C0, symBinAddr: 0x83E0, symSize: 0x20 }
  - { offset: 0x2C7C4, size: 0x8, addend: 0x0, symName: __ZNSt3__114pointer_traitsIPNS_15__tree_end_nodeIPNS_16__tree_node_baseIPvEEEEE10pointer_toB9nqe210106ERS6_, symObjAddr: 0x44E0, symBinAddr: 0x8400, symSize: 0x10 }
  - { offset: 0x2C7E7, size: 0x8, addend: 0x0, symName: __ZN7QStringC2EO17QArrayDataPointerIDsE, symObjAddr: 0x44F0, symBinAddr: 0x8410, symSize: 0x30 }
  - { offset: 0x2C820, size: 0x8, addend: 0x0, symName: __ZNK9QMetaType4nameEv, symObjAddr: 0x4520, symBinAddr: 0x8440, symSize: 0x40 }
  - { offset: 0x2C848, size: 0x8, addend: 0x0, symName: __ZN5QCharC2IDsLb1EEET_, symObjAddr: 0x4560, symBinAddr: 0x8480, symSize: 0x20 }
  - { offset: 0x2C88F, size: 0x8, addend: 0x0, symName: __ZNK8QVariant6typeIdEv, symObjAddr: 0x4580, symBinAddr: 0x84A0, symSize: 0x70 }
  - { offset: 0x2C8FA, size: 0x8, addend: 0x0, symName: __ZNK8QVariant8metaTypeEv, symObjAddr: 0x45F0, symBinAddr: 0x8510, symSize: 0x30 }
  - { offset: 0x2C922, size: 0x8, addend: 0x0, symName: __ZN9QMetaType5ifaceEv, symObjAddr: 0x4620, symBinAddr: 0x8540, symSize: 0x20 }
  - { offset: 0x2C952, size: 0x8, addend: 0x0, symName: __ZZNK8QVariant6typeIdEvENKUlvE_clEv, symObjAddr: 0x4640, symBinAddr: 0x8560, symSize: 0x40 }
  - { offset: 0x2C97C, size: 0x8, addend: 0x0, symName: __ZN14QMessageLoggerC2EPKciS1_, symObjAddr: 0x4680, symBinAddr: 0x85A0, symSize: 0x40 }
  - { offset: 0x2C9D0, size: 0x8, addend: 0x0, symName: __ZN18QMessageLogContextC1EPKciS1_S1_, symObjAddr: 0x46C0, symBinAddr: 0x85E0, symSize: 0x40 }
  - { offset: 0x2CA32, size: 0x8, addend: 0x0, symName: __ZN18QMessageLogContextC2EPKciS1_S1_, symObjAddr: 0x4700, symBinAddr: 0x8620, symSize: 0x50 }
  - { offset: 0x2CA94, size: 0x8, addend: 0x0, symName: __ZN6QDebug10maybeSpaceEv, symObjAddr: 0x4750, symBinAddr: 0x8670, symSize: 0x40 }
  - { offset: 0x2CABA, size: 0x8, addend: 0x0, symName: __ZNK7QString9constDataEv, symObjAddr: 0x4790, symBinAddr: 0x86B0, symSize: 0x20 }
  - { offset: 0x2CAE2, size: 0x8, addend: 0x0, symName: __ZNK7QString4dataEv, symObjAddr: 0x47B0, symBinAddr: 0x86D0, symSize: 0x50 }
  - { offset: 0x2CB0A, size: 0x8, addend: 0x0, symName: __ZNK17QArrayDataPointerIDsE4dataEv, symObjAddr: 0x4800, symBinAddr: 0x8720, symSize: 0x20 }
  - { offset: 0x2CB30, size: 0x8, addend: 0x0, symName: __ZNK7QString6isNullEv, symObjAddr: 0x4820, symBinAddr: 0x8740, symSize: 0x20 }
  - { offset: 0x2CB56, size: 0x8, addend: 0x0, symName: __ZNK17QArrayDataPointerIDsE6isNullEv, symObjAddr: 0x4840, symBinAddr: 0x8760, symSize: 0x20 }
  - { offset: 0x2CB7C, size: 0x8, addend: 0x0, symName: __ZN7QStringC2ERKS_, symObjAddr: 0x4860, symBinAddr: 0x8780, symSize: 0x30 }
  - { offset: 0x2CBB7, size: 0x8, addend: 0x0, symName: __ZN17QArrayDataPointerIDsEC1ERKS0_, symObjAddr: 0x4890, symBinAddr: 0x87B0, symSize: 0x30 }
  - { offset: 0x2CBEF, size: 0x8, addend: 0x0, symName: __ZN17QArrayDataPointerIDsEC2ERKS0_, symObjAddr: 0x48C0, symBinAddr: 0x87E0, symSize: 0x50 }
  - { offset: 0x2CC27, size: 0x8, addend: 0x0, symName: __ZN17QArrayDataPointerIDsE3refEv, symObjAddr: 0x4910, symBinAddr: 0x8830, symSize: 0x30 }
  - { offset: 0x2CC4D, size: 0x8, addend: 0x0, symName: __ZN10QArrayData3refEv, symObjAddr: 0x4940, symBinAddr: 0x8860, symSize: 0x20 }
  - { offset: 0x2CC73, size: 0x8, addend: 0x0, symName: __ZN19QBasicAtomicIntegerIiE10refRelaxedEv, symObjAddr: 0x4960, symBinAddr: 0x8880, symSize: 0x20 }
  - { offset: 0x2CCC3, size: 0x8, addend: 0x0, symName: __ZN10QAtomicOpsIiE18fetchAndAddRelaxedIiEET_RNSt3__16atomicIS2_EEN19QAtomicAdditiveTypeIS2_E9AdditiveTE, symObjAddr: 0x4980, symBinAddr: 0x88A0, symSize: 0x30 }
  - { offset: 0x2CCFF, size: 0x8, addend: 0x0, symName: __ZNSt3__113__atomic_baseIiLb1EE9fetch_addB9nqe210106EiNS_12memory_orderE, symObjAddr: 0x49B0, symBinAddr: 0x88D0, symSize: 0x30 }
  - { offset: 0x2CD41, size: 0x8, addend: 0x0, symName: __ZN17QArrayDataPointerIDsED2Ev, symObjAddr: 0x4A90, symBinAddr: 0x89B0, symSize: 0x40 }
  - { offset: 0x2CD6B, size: 0x8, addend: 0x0, symName: __ZN17QArrayDataPointerIDsE5derefEv, symObjAddr: 0x4AD0, symBinAddr: 0x89F0, symSize: 0x40 }
  - { offset: 0x2CD91, size: 0x8, addend: 0x0, symName: __ZN17QArrayDataPointerIDsEptEv, symObjAddr: 0x4B10, symBinAddr: 0x8A30, symSize: 0x10 }
  - { offset: 0x2CDB7, size: 0x8, addend: 0x0, symName: __ZN9QtPrivate12QPodArrayOpsIDsE10destroyAllEv, symObjAddr: 0x4B20, symBinAddr: 0x8A40, symSize: 0x70 }
  - { offset: 0x2CDDD, size: 0x8, addend: 0x0, symName: __ZN15QTypedArrayDataIDsE10deallocateEP10QArrayData, symObjAddr: 0x4B90, symBinAddr: 0x8AB0, symSize: 0x30 }
  - { offset: 0x2CE00, size: 0x8, addend: 0x0, symName: __ZN5QListI8QVariantE4dataEv, symObjAddr: 0x4BC0, symBinAddr: 0x8AE0, symSize: 0x30 }
  - { offset: 0x2CE26, size: 0x8, addend: 0x0, symName: __ZN5QListI8QVariantE6detachEv, symObjAddr: 0x4BF0, symBinAddr: 0x8B10, symSize: 0x20 }
  - { offset: 0x2CE4C, size: 0x8, addend: 0x0, symName: __ZN17QArrayDataPointerI8QVariantE6detachEPS1_, symObjAddr: 0x4C10, symBinAddr: 0x8B30, symSize: 0x40 }
  - { offset: 0x2CE80, size: 0x8, addend: 0x0, symName: __ZNK17QArrayDataPointerI8QVariantE11needsDetachEv, symObjAddr: 0x4C50, symBinAddr: 0x8B70, symSize: 0x40 }
  - { offset: 0x2CEA6, size: 0x8, addend: 0x0, symName: __ZN17QArrayDataPointerI8QVariantE17reallocateAndGrowEN10QArrayData14GrowthPositionExPS1_, symObjAddr: 0x4C90, symBinAddr: 0x8BB0, symSize: 0x260 }
  - { offset: 0x2CF22, size: 0x8, addend: 0x0, symName: __ZN9QtPrivate16QMovableArrayOpsI8QVariantE10reallocateExN10QArrayData16AllocationOptionE, symObjAddr: 0x4EF0, symBinAddr: 0x8E10, symSize: 0x80 }
  - { offset: 0x2CF76, size: 0x8, addend: 0x0, symName: __ZNK17QArrayDataPointerI8QVariantE22constAllocatedCapacityEv, symObjAddr: 0x4F70, symBinAddr: 0x8E90, symSize: 0x40 }
  - { offset: 0x2CF9C, size: 0x8, addend: 0x0, symName: __ZNK17QArrayDataPointerI8QVariantE14freeSpaceAtEndEv, symObjAddr: 0x4FB0, symBinAddr: 0x8ED0, symSize: 0x60 }
  - { offset: 0x2CFC2, size: 0x8, addend: 0x0, symName: __ZN17QArrayDataPointerI8QVariantE12allocateGrowERKS1_xN10QArrayData14GrowthPositionE, symObjAddr: 0x5010, symBinAddr: 0x8F30, symSize: 0x230 }
  - { offset: 0x2D061, size: 0x8, addend: 0x0, symName: __ZNK17QArrayDataPointerI8QVariantE16freeSpaceAtBeginEv, symObjAddr: 0x5240, symBinAddr: 0x9160, symSize: 0x60 }
  - { offset: 0x2D087, size: 0x8, addend: 0x0, symName: __ZN9QtPrivate16QGenericArrayOpsI8QVariantE10copyAppendEPKS1_S4_, symObjAddr: 0x52A0, symBinAddr: 0x91C0, symSize: 0x150 }
  - { offset: 0x2D0DB, size: 0x8, addend: 0x0, symName: __ZN9QtPrivate16QGenericArrayOpsI8QVariantE10moveAppendEPS1_S3_, symObjAddr: 0x53F0, symBinAddr: 0x9310, symSize: 0x150 }
  - { offset: 0x2D12F, size: 0x8, addend: 0x0, symName: __ZN17QArrayDataPointerI8QVariantE4swapERS1_, symObjAddr: 0x5540, symBinAddr: 0x9460, symSize: 0x60 }
  - { offset: 0x2D163, size: 0x8, addend: 0x0, symName: __ZN15QTypedArrayDataI8QVariantE19reallocateUnalignedEPS1_PS0_xN10QArrayData16AllocationOptionE, symObjAddr: 0x55A0, symBinAddr: 0x94C0, symSize: 0x70 }
  - { offset: 0x2D1C8, size: 0x8, addend: 0x0, symName: __ZNSt3__14pairIP15QTypedArrayDataI8QVariantEPS2_EC1B9nqe210106IS4_S5_Li0EEEOT_OT0_, symObjAddr: 0x5610, symBinAddr: 0x9530, symSize: 0x30 }
  - { offset: 0x2D226, size: 0x8, addend: 0x0, symName: __ZNSt3__14pairIP15QTypedArrayDataI8QVariantEPS2_EC2B9nqe210106IS4_S5_Li0EEEOT_OT0_, symObjAddr: 0x5640, symBinAddr: 0x9560, symSize: 0x30 }
  - { offset: 0x2D284, size: 0x8, addend: 0x0, symName: __ZNK17QArrayDataPointerI8QVariantE14detachCapacityEx, symObjAddr: 0x5670, symBinAddr: 0x9590, symSize: 0x50 }
  - { offset: 0x2D2B9, size: 0x8, addend: 0x0, symName: __ZN15QTypedArrayDataI8QVariantE8allocateExN10QArrayData16AllocationOptionE, symObjAddr: 0x56C0, symBinAddr: 0x95E0, symSize: 0x60 }
  - { offset: 0x2D306, size: 0x8, addend: 0x0, symName: __ZN17QArrayDataPointerI8QVariantEC1EP15QTypedArrayDataIS0_EPS0_x, symObjAddr: 0x5760, symBinAddr: 0x9680, symSize: 0x40 }
  - { offset: 0x2D359, size: 0x8, addend: 0x0, symName: __Z4qMaxIixEN11QTypeTraits6detail8PromotedIT_T0_NSt3__19enable_ifIXaaaaaaaaaaaaaasr3stdE15is_arithmetic_vIS3_Esr3stdE15is_arithmetic_vIS4_Eeqsr3stdE19is_floating_point_vIS3_Esr3stdE19is_floating_point_vIS4_Eeqsr3stdE11is_signed_vIS3_Esr3stdE11is_signed_vIS4_Entsr3stdE9is_same_vIS3_bEntsr3stdE9is_same_vIS4_bEntsr3stdE9is_same_vIS3_cEntsr3stdE9is_same_vIS4_cEEvE4typeEE4typeERKS3_RKS4_, symObjAddr: 0x57A0, symBinAddr: 0x96C0, symSize: 0x50 }
  - { offset: 0x2D3CD, size: 0x8, addend: 0x0, symName: __ZNK17QArrayDataPointerI8QVariantE5flagsEv, symObjAddr: 0x57F0, symBinAddr: 0x9710, symSize: 0x40 }
  - { offset: 0x2D3F3, size: 0x8, addend: 0x0, symName: __ZNK10QArrayData14detachCapacityEx, symObjAddr: 0x5830, symBinAddr: 0x9750, symSize: 0x90 }
  - { offset: 0x2D427, size: 0x8, addend: 0x0, symName: __ZNK6QFlagsIN10QArrayData11ArrayOptionEEanES1_, symObjAddr: 0x58C0, symBinAddr: 0x97E0, symSize: 0x40 }
  - { offset: 0x2D45B, size: 0x8, addend: 0x0, symName: __ZNK6QFlagsIN10QArrayData11ArrayOptionEEcvjEv, symObjAddr: 0x5900, symBinAddr: 0x9820, symSize: 0x10 }
  - { offset: 0x2D481, size: 0x8, addend: 0x0, symName: __ZN6QFlagsIN10QArrayData11ArrayOptionEECI1N9QtPrivate13QFlagsStorageIS1_EEENSt3__110in_place_tEj, symObjAddr: 0x5910, symBinAddr: 0x9830, symSize: 0x30 }
  - { offset: 0x2D4BF, size: 0x8, addend: 0x0, symName: __ZN6QFlagsIN10QArrayData11ArrayOptionEECI2N9QtPrivate13QFlagsStorageIS1_EEENSt3__110in_place_tEj, symObjAddr: 0x5940, symBinAddr: 0x9860, symSize: 0x30 }
  - { offset: 0x2D4FD, size: 0x8, addend: 0x0, symName: __ZNSt3__110__get_pairILm0EE3getB9nqe210106IP15QTypedArrayDataI8QVariantEPS4_EEOT_ONS_4pairIS8_T0_EE, symObjAddr: 0x5970, symBinAddr: 0x9890, symSize: 0x10 }
  - { offset: 0x2D533, size: 0x8, addend: 0x0, symName: __ZNSt3__110__get_pairILm1EE3getB9nqe210106IP15QTypedArrayDataI8QVariantEPS4_EEOT0_ONS_4pairIT_S8_EE, symObjAddr: 0x5980, symBinAddr: 0x98A0, symSize: 0x20 }
  - { offset: 0x2D569, size: 0x8, addend: 0x0, symName: __ZN17QArrayDataPointerI8QVariantEC2EP15QTypedArrayDataIS0_EPS0_x, symObjAddr: 0x59A0, symBinAddr: 0x98C0, symSize: 0x40 }
  - { offset: 0x2D5BD, size: 0x8, addend: 0x0, symName: __ZN15QTypedArrayDataI8QVariantE9dataStartEP10QArrayDatax, symObjAddr: 0x59E0, symBinAddr: 0x9900, symSize: 0x80 }
  - { offset: 0x2D5FC, size: 0x8, addend: 0x0, symName: __ZNK17QArrayDataPointerI8QVariantE9isMutableEv, symObjAddr: 0x5A60, symBinAddr: 0x9980, symSize: 0x20 }
  - { offset: 0x2D622, size: 0x8, addend: 0x0, symName: __ZNK17QArrayDataPointerI8QVariantE8isSharedEv, symObjAddr: 0x5A80, symBinAddr: 0x99A0, symSize: 0x40 }
  - { offset: 0x2D648, size: 0x8, addend: 0x0, symName: __ZNK10QArrayData8isSharedEv, symObjAddr: 0x5AC0, symBinAddr: 0x99E0, symSize: 0x30 }
  - { offset: 0x2D66E, size: 0x8, addend: 0x0, symName: __ZN8QVariantC1EOS_, symObjAddr: 0x5AF0, symBinAddr: 0x9A10, symSize: 0x30 }
  - { offset: 0x2D6A7, size: 0x8, addend: 0x0, symName: __ZN8QVariantC2EOS_, symObjAddr: 0x5B20, symBinAddr: 0x9A40, symSize: 0x90 }
  - { offset: 0x2D6E0, size: 0x8, addend: 0x0, symName: __ZN8QVariant7PrivateC1Ev, symObjAddr: 0x5BB0, symBinAddr: 0x9AD0, symSize: 0x20 }
  - { offset: 0x2D70A, size: 0x8, addend: 0x0, symName: __ZN8QVariant7PrivateC2Ev, symObjAddr: 0x5BD0, symBinAddr: 0x9AF0, symSize: 0x60 }
  - { offset: 0x2D739, size: 0x8, addend: 0x0, symName: __ZN8QVariant7PrivateUt_C1Ev, symObjAddr: 0x5C30, symBinAddr: 0x9B50, symSize: 0x20 }
  - { offset: 0x2D765, size: 0x8, addend: 0x0, symName: __ZN8QVariant7PrivateUt_C2Ev, symObjAddr: 0x5C50, symBinAddr: 0x9B70, symSize: 0x40 }
  - { offset: 0x2D790, size: 0x8, addend: 0x0, symName: __Z11qt_ptr_swapI15QTypedArrayDataI8QVariantEEvRPT_S5_, symObjAddr: 0x5C90, symBinAddr: 0x9BB0, symSize: 0x40 }
  - { offset: 0x2D7DD, size: 0x8, addend: 0x0, symName: __Z11qt_ptr_swapI8QVariantEvRPT_S3_, symObjAddr: 0x5CD0, symBinAddr: 0x9BF0, symSize: 0x40 }
  - { offset: 0x2D82B, size: 0x8, addend: 0x0, symName: __ZNK4QMapI7QString8QVariantE5beginEv, symObjAddr: 0x5D10, symBinAddr: 0x9C30, symSize: 0x70 }
  - { offset: 0x2D851, size: 0x8, addend: 0x0, symName: __ZNK9QtPrivate30QExplicitlySharedDataPointerV2I8QMapDataINSt3__13mapI7QString8QVariantNS2_4lessIS4_EENS2_9allocatorINS2_4pairIKS4_S5_EEEEEEEEcvbEv, symObjAddr: 0x5D80, symBinAddr: 0x9CA0, symSize: 0x30 }
  - { offset: 0x2D877, size: 0x8, addend: 0x0, symName: __ZN4QMapI7QString8QVariantE14const_iteratorC1Ev, symObjAddr: 0x5DB0, symBinAddr: 0x9CD0, symSize: 0x20 }
  - { offset: 0x2D8A1, size: 0x8, addend: 0x0, symName: __ZNK9QtPrivate30QExplicitlySharedDataPointerV2I8QMapDataINSt3__13mapI7QString8QVariantNS2_4lessIS4_EENS2_9allocatorINS2_4pairIKS4_S5_EEEEEEEEptEv, symObjAddr: 0x5DD0, symBinAddr: 0x9CF0, symSize: 0x20 }
  - { offset: 0x2D8C7, size: 0x8, addend: 0x0, symName: __ZNKSt3__13mapI7QString8QVariantNS_4lessIS1_EENS_9allocatorINS_4pairIKS1_S2_EEEEE6cbeginB9nqe210106Ev, symObjAddr: 0x5DF0, symBinAddr: 0x9D10, symSize: 0x30 }
  - { offset: 0x2D8ED, size: 0x8, addend: 0x0, symName: __ZN4QMapI7QString8QVariantE14const_iteratorC1ENSt3__120__map_const_iteratorINS4_21__tree_const_iteratorINS4_12__value_typeIS0_S1_EEPNS4_11__tree_nodeIS8_PvEElEEEE, symObjAddr: 0x5E20, symBinAddr: 0x9D40, symSize: 0x30 }
  - { offset: 0x2D926, size: 0x8, addend: 0x0, symName: __ZN4QMapI7QString8QVariantE14const_iteratorC2Ev, symObjAddr: 0x5E50, symBinAddr: 0x9D70, symSize: 0x20 }
  - { offset: 0x2D950, size: 0x8, addend: 0x0, symName: __ZNSt3__120__map_const_iteratorINS_21__tree_const_iteratorINS_12__value_typeI7QString8QVariantEEPNS_11__tree_nodeIS5_PvEElEEEC1B9nqe210106Ev, symObjAddr: 0x5E70, symBinAddr: 0x9D90, symSize: 0x20 }
  - { offset: 0x2D97A, size: 0x8, addend: 0x0, symName: __ZNSt3__120__map_const_iteratorINS_21__tree_const_iteratorINS_12__value_typeI7QString8QVariantEEPNS_11__tree_nodeIS5_PvEElEEEC2B9nqe210106Ev, symObjAddr: 0x5E90, symBinAddr: 0x9DB0, symSize: 0x20 }
  - { offset: 0x2D9A4, size: 0x8, addend: 0x0, symName: __ZNSt3__121__tree_const_iteratorINS_12__value_typeI7QString8QVariantEEPNS_11__tree_nodeIS4_PvEElEC1B9nqe210106Ev, symObjAddr: 0x5EB0, symBinAddr: 0x9DD0, symSize: 0x20 }
  - { offset: 0x2D9CE, size: 0x8, addend: 0x0, symName: __ZNSt3__121__tree_const_iteratorINS_12__value_typeI7QString8QVariantEEPNS_11__tree_nodeIS4_PvEElEC2B9nqe210106Ev, symObjAddr: 0x5ED0, symBinAddr: 0x9DF0, symSize: 0x20 }
  - { offset: 0x2D9F8, size: 0x8, addend: 0x0, symName: __ZNKSt3__13mapI7QString8QVariantNS_4lessIS1_EENS_9allocatorINS_4pairIKS1_S2_EEEEE5beginB9nqe210106Ev, symObjAddr: 0x5EF0, symBinAddr: 0x9E10, symSize: 0x30 }
  - { offset: 0x2DA1E, size: 0x8, addend: 0x0, symName: __ZNKSt3__16__treeINS_12__value_typeI7QString8QVariantEENS_19__map_value_compareIS2_NS_4pairIKS2_S3_EENS_4lessIS2_EELb1EEENS_9allocatorIS8_EEE5beginB9nqe210106Ev, symObjAddr: 0x5F20, symBinAddr: 0x9E40, symSize: 0x30 }
  - { offset: 0x2DA44, size: 0x8, addend: 0x0, symName: __ZNSt3__120__map_const_iteratorINS_21__tree_const_iteratorINS_12__value_typeI7QString8QVariantEEPNS_11__tree_nodeIS5_PvEElEEEC1B9nqe210106ESA_, symObjAddr: 0x5F50, symBinAddr: 0x9E70, symSize: 0x30 }
  - { offset: 0x2DA7D, size: 0x8, addend: 0x0, symName: __ZNKSt3__16__treeINS_12__value_typeI7QString8QVariantEENS_19__map_value_compareIS2_NS_4pairIKS2_S3_EENS_4lessIS2_EELb1EEENS_9allocatorIS8_EEE12__begin_nodeB9nqe210106Ev, symObjAddr: 0x5F80, symBinAddr: 0x9EA0, symSize: 0x10 }
  - { offset: 0x2DAA3, size: 0x8, addend: 0x0, symName: __ZNSt3__121__tree_const_iteratorINS_12__value_typeI7QString8QVariantEEPNS_11__tree_nodeIS4_PvEElEC1B9nqe210106EPNS_15__tree_end_nodeIPNS_16__tree_node_baseIS6_EEEE, symObjAddr: 0x5F90, symBinAddr: 0x9EB0, symSize: 0x30 }
  - { offset: 0x2DADC, size: 0x8, addend: 0x0, symName: __ZNSt3__121__tree_const_iteratorINS_12__value_typeI7QString8QVariantEEPNS_11__tree_nodeIS4_PvEElEC2B9nqe210106EPNS_15__tree_end_nodeIPNS_16__tree_node_baseIS6_EEEE, symObjAddr: 0x5FC0, symBinAddr: 0x9EE0, symSize: 0x20 }
  - { offset: 0x2DB15, size: 0x8, addend: 0x0, symName: __ZNSt3__120__map_const_iteratorINS_21__tree_const_iteratorINS_12__value_typeI7QString8QVariantEEPNS_11__tree_nodeIS5_PvEElEEEC2B9nqe210106ESA_, symObjAddr: 0x5FE0, symBinAddr: 0x9F00, symSize: 0x20 }
  - { offset: 0x2DB4E, size: 0x8, addend: 0x0, symName: __ZN4QMapI7QString8QVariantE14const_iteratorC2ENSt3__120__map_const_iteratorINS4_21__tree_const_iteratorINS4_12__value_typeIS0_S1_EEPNS4_11__tree_nodeIS8_PvEElEEEE, symObjAddr: 0x6000, symBinAddr: 0x9F20, symSize: 0x20 }
  - { offset: 0x2DB87, size: 0x8, addend: 0x0, symName: __ZNK4QMapI7QString8QVariantE3endEv, symObjAddr: 0x6020, symBinAddr: 0x9F40, symSize: 0x70 }
  - { offset: 0x2DBAD, size: 0x8, addend: 0x0, symName: __ZNKSt3__13mapI7QString8QVariantNS_4lessIS1_EENS_9allocatorINS_4pairIKS1_S2_EEEEE3endB9nqe210106Ev, symObjAddr: 0x6090, symBinAddr: 0x9FB0, symSize: 0x30 }
  - { offset: 0x2DBD3, size: 0x8, addend: 0x0, symName: __ZNKSt3__16__treeINS_12__value_typeI7QString8QVariantEENS_19__map_value_compareIS2_NS_4pairIKS2_S3_EENS_4lessIS2_EELb1EEENS_9allocatorIS8_EEE3endB9nqe210106Ev, symObjAddr: 0x60C0, symBinAddr: 0x9FE0, symSize: 0x30 }
  - { offset: 0x2DBF9, size: 0x8, addend: 0x0, symName: __ZNSt3__120__map_const_iteratorINS_21__tree_const_iteratorINS_12__value_typeI7QString8QVariantEEPNS_11__tree_nodeIS5_PvEElEEEppB9nqe210106Ev, symObjAddr: 0x6180, symBinAddr: 0xA0A0, symSize: 0x30 }
  - { offset: 0x2DC1F, size: 0x8, addend: 0x0, symName: __ZNSt3__121__tree_const_iteratorINS_12__value_typeI7QString8QVariantEEPNS_11__tree_nodeIS4_PvEElEppB9nqe210106Ev, symObjAddr: 0x61B0, symBinAddr: 0xA0D0, symSize: 0x30 }
  - { offset: 0x2DC45, size: 0x8, addend: 0x0, symName: __ZNKSt3__116__tree_node_baseIPvE15__parent_unsafeB9nqe210106Ev, symObjAddr: 0x62B0, symBinAddr: 0xA1D0, symSize: 0x20 }
  - { offset: 0x2DC6B, size: 0x8, addend: 0x0, symName: __ZNKSt3__120__map_const_iteratorINS_21__tree_const_iteratorINS_12__value_typeI7QString8QVariantEEPNS_11__tree_nodeIS5_PvEElEEEptB9nqe210106Ev, symObjAddr: 0x62D0, symBinAddr: 0xA1F0, symSize: 0x30 }
  - { offset: 0x2DC91, size: 0x8, addend: 0x0, symName: __ZNSt3__114pointer_traitsIPKNS_4pairIK7QString8QVariantEEE10pointer_toB9nqe210106ERS6_, symObjAddr: 0x6300, symBinAddr: 0xA220, symSize: 0x10 }
  - { offset: 0x2DCB4, size: 0x8, addend: 0x0, symName: __ZNKSt3__121__tree_const_iteratorINS_12__value_typeI7QString8QVariantEEPNS_11__tree_nodeIS4_PvEElEdeB9nqe210106Ev, symObjAddr: 0x6310, symBinAddr: 0xA230, symSize: 0x20 }
  - { offset: 0x2DCDA, size: 0x8, addend: 0x0, symName: __ZNKSt3__121__tree_const_iteratorINS_12__value_typeI7QString8QVariantEEPNS_11__tree_nodeIS4_PvEElE8__get_npB9nqe210106Ev, symObjAddr: 0x6330, symBinAddr: 0xA250, symSize: 0x20 }
  - { offset: 0x2DD00, size: 0x8, addend: 0x0, symName: __ZNK8QVariant10canConvertE9QMetaType, symObjAddr: 0x6350, symBinAddr: 0xA270, symSize: 0x40 }
  - { offset: 0x2DD35, size: 0x8, addend: 0x0, symName: __ZN9QMetaType8fromTypeIxEES_v, symObjAddr: 0x6390, symBinAddr: 0xA2B0, symSize: 0x30 }
  - { offset: 0x2DD53, size: 0x8, addend: 0x0, symName: __ZN9QMetaType8fromTypeI7QStringEES_v, symObjAddr: 0x63E0, symBinAddr: 0xA300, symSize: 0x30 }
  - { offset: 0x2DD71, size: 0x8, addend: 0x0, symName: __ZN17QArrayDataPointerIDsEC1EP15QTypedArrayDataIDsEPDsx, symObjAddr: 0x6430, symBinAddr: 0xA350, symSize: 0x40 }
  - { offset: 0x2DDC5, size: 0x8, addend: 0x0, symName: __ZN17QArrayDataPointerIDsEC2EP15QTypedArrayDataIDsEPDsx, symObjAddr: 0x6470, symBinAddr: 0xA390, symSize: 0x40 }
  - { offset: 0x2DE19, size: 0x8, addend: 0x0, symName: __ZN14QAnyStringViewC1ERK7QString, symObjAddr: 0x64B0, symBinAddr: 0xA3D0, symSize: 0x50 }
  - { offset: 0x2DE55, size: 0x8, addend: 0x0, symName: __ZNK7QString5beginEv, symObjAddr: 0x6500, symBinAddr: 0xA420, symSize: 0x20 }
  - { offset: 0x2DE7D, size: 0x8, addend: 0x0, symName: __ZN14QAnyStringViewC1I5QCharLb1EEEPKT_x, symObjAddr: 0x6520, symBinAddr: 0xA440, symSize: 0x30 }
  - { offset: 0x2DED2, size: 0x8, addend: 0x0, symName: __ZN14QAnyStringViewC2I5QCharLb1EEEPKT_x, symObjAddr: 0x6550, symBinAddr: 0xA470, symSize: 0x50 }
  - { offset: 0x2DF27, size: 0x8, addend: 0x0, symName: __ZN14QAnyStringView10encodeTypeI5QCharEEmPKT_x, symObjAddr: 0x65A0, symBinAddr: 0xA4C0, symSize: 0xD0 }
  - { offset: 0x2DF61, size: 0x8, addend: 0x0, symName: __ZN14QAnyStringView29isAsciiOnlyCharsAtCompileTimeIK5QCharEEbPT_x, symObjAddr: 0x6670, symBinAddr: 0xA590, symSize: 0x12 }
  - { offset: 0x31DF3, size: 0x8, addend: 0x0, symName: __ZN9QtPrivate16QCheckedIntegerseqERKNS0_11QCheckedIntIiNS0_13SafeCheckImplIiEENS0_18AssertReportPolicyEEES7_, symObjAddr: 0x8F40, symBinAddr: 0x126C0, symSize: 0x40 }
  - { offset: 0x31E47, size: 0x8, addend: 0x0, symName: __ZN9QtPrivate16QCheckedIntegers13comparesEqualENS0_11QCheckedIntIiNS0_13SafeCheckImplIiEENS0_18AssertReportPolicyEEES5_, symObjAddr: 0x8F80, symBinAddr: 0x12700, symSize: 0x20 }
  - { offset: 0x3519A, size: 0x8, addend: 0x0, symName: __ZN9QtPrivateL19lengthHelperPointerIcEExPKT_, symObjAddr: 0x6350, symBinAddr: 0x105F0, symSize: 0x50 }
  - { offset: 0x3520A, size: 0x8, addend: 0x0, symName: __ZN9QtPrivateL30checkTypeIsSuitableForMetaTypeIdEEbv, symObjAddr: 0xC8E0, symBinAddr: 0x15710, symSize: 0x10 }
  - { offset: 0x35232, size: 0x8, addend: 0x0, symName: __ZN9QtPrivate25qMetaTypeInterfaceForTypeIdEEPKNS_18QMetaTypeInterfaceEv, symObjAddr: 0xC8F0, symBinAddr: 0x15720, symSize: 0x10 }
  - { offset: 0x3525A, size: 0x8, addend: 0x0, symName: __ZN9QtPrivateL30checkTypeIsSuitableForMetaTypeI7QStringEEbv, symObjAddr: 0xC930, symBinAddr: 0x15730, symSize: 0x10 }
  - { offset: 0x35282, size: 0x8, addend: 0x0, symName: __ZN9QtPrivate29qCheckedFPConversionToIntegerIidLb1ELb1EEET_T0_, symObjAddr: 0xC950, symBinAddr: 0x15740, symSize: 0xC0 }
  - { offset: 0x352FE, size: 0x8, addend: 0x0, symName: __ZN9QtPrivate20q_relocate_overlap_nI7QStringxEEvPT_T0_S3_, symObjAddr: 0x10A10, symBinAddr: 0x19580, symSize: 0x50 }
  - { offset: 0x35354, size: 0x8, addend: 0x0, symName: __ZN9QtPrivateL19q_points_into_rangeI17QArrayDataPointerI7QStringEPKS2_EEbRKT0_RKT_, symObjAddr: 0x10A60, symBinAddr: 0x195D0, symSize: 0xA0 }
  - { offset: 0x353A0, size: 0x8, addend: 0x0, symName: __ZN9QtPrivateL19q_points_into_rangeI7QStringNSt3__14lessIvEEEEbPKT_S7_S7_T0_, symObjAddr: 0x10B00, symBinAddr: 0x19670, symSize: 0x50 }
  - { offset: 0x35442, size: 0x8, addend: 0x0, symName: __ZN3RpdL11LAYER_LOGICE, symObjAddr: 0x1CB510, symBinAddr: 0x210F0, symSize: 0x0 }
  - { offset: 0x3545C, size: 0x8, addend: 0x0, symName: __ZN3RpdL10LAYER_BASEE, symObjAddr: 0x1CB528, symBinAddr: 0x21108, symSize: 0x0 }
  - { offset: 0x35476, size: 0x8, addend: 0x0, symName: __ZN3RpdL10LAYER_DECOE, symObjAddr: 0x1CB540, symBinAddr: 0x21120, symSize: 0x0 }
  - { offset: 0x35490, size: 0x8, addend: 0x0, symName: __ZN3RpdL11LAYER_DECO2E, symObjAddr: 0x1CB558, symBinAddr: 0x21138, symSize: 0x0 }
  - { offset: 0x354AA, size: 0x8, addend: 0x0, symName: __ZN3RpdL15LAYER_ROOF_BASEE, symObjAddr: 0x1CB570, symBinAddr: 0x21150, symSize: 0x0 }
  - { offset: 0x354C4, size: 0x8, addend: 0x0, symName: __ZN3RpdL15LAYER_ROOF_DECOE, symObjAddr: 0x1CB588, symBinAddr: 0x21168, symSize: 0x0 }
  - { offset: 0x354DE, size: 0x8, addend: 0x0, symName: __ZN3RpdL13LAYER_OBJECTSE, symObjAddr: 0x1CB5A0, symBinAddr: 0x21180, symSize: 0x0 }
  - { offset: 0x354F8, size: 0x8, addend: 0x0, symName: __ZN3RpdL14PROPERTY_TILESE, symObjAddr: 0x1CB5B8, symBinAddr: 0x21198, symSize: 0x0 }
  - { offset: 0x35512, size: 0x8, addend: 0x0, symName: __ZN3RpdL14PROPERTY_WATERE, symObjAddr: 0x1CB5D0, symBinAddr: 0x211B0, symSize: 0x0 }
  - { offset: 0x3552C, size: 0x8, addend: 0x0, symName: __ZN3RpdL23PROPERTY_COMPASS_TARGETE, symObjAddr: 0x1CB5E8, symBinAddr: 0x211C8, symSize: 0x0 }
  - { offset: 0x35546, size: 0x8, addend: 0x0, symName: __ZN3RpdL16OBJECT_CLASS_MOBE, symObjAddr: 0x1CB600, symBinAddr: 0x211E0, symSize: 0x0 }
  - { offset: 0x35560, size: 0x8, addend: 0x0, symName: __ZN3RpdL17OBJECT_CLASS_ITEME, symObjAddr: 0x1CB618, symBinAddr: 0x211F8, symSize: 0x0 }
  - { offset: 0x3557A, size: 0x8, addend: 0x0, symName: __ZN3RpdL19OBJECT_CLASS_OBJECTE, symObjAddr: 0x1CB630, symBinAddr: 0x21210, symSize: 0x0 }
  - { offset: 0x358BF, size: 0x8, addend: 0x0, symName: __ZN3RpdL11packMapDataERKN5Tiled9TileLayerE, symObjAddr: 0x3E20, symBinAddr: 0xE1E0, symSize: 0x160 }
  - { offset: 0x3FBB2, size: 0x8, addend: 0x0, symName: __ZNSt3__17advanceB9nqe210106INS_21__tree_const_iteratorINS_12__value_typeI7QString8QVariantEEPNS_11__tree_nodeIS5_PvEElEEllLi0EEEvRT_T0_, symObjAddr: 0xB850, symBinAddr: 0x14B40, symSize: 0x30 }
  - { offset: 0x3FC48, size: 0x8, addend: 0x0, symName: __ZNSt3__17advanceB9nqe210106INS_21__tree_const_iteratorINS_12__value_typeI7QString10QJsonArrayEEPNS_11__tree_nodeIS5_PvEElEEllLi0EEEvRT_T0_, symObjAddr: 0xE870, symBinAddr: 0x17660, symSize: 0x30 }
  - { offset: 0x401BF, size: 0x8, addend: 0x0, symName: __ZNSt3__1neB9nqe210106ERKNS_14__map_iteratorINS_15__tree_iteratorINS_12__value_typeI7QString8QVariantEEPNS_11__tree_nodeIS5_PvEElEEEESD_, symObjAddr: 0x23F0, symBinAddr: 0xC860, symSize: 0x30 }
  - { offset: 0x401FC, size: 0x8, addend: 0x0, symName: __ZNSt3__13getB9nqe210106ILm0EK7QString8QVariantEERKNS_13tuple_elementIXT_ENS_4pairIT0_T1_EEE4typeERKS8_, symObjAddr: 0x2440, symBinAddr: 0xC8B0, symSize: 0x20 }
  - { offset: 0x40246, size: 0x8, addend: 0x0, symName: __ZNSt3__13getB9nqe210106ILm1EK7QString8QVariantEERKNS_13tuple_elementIXT_ENS_4pairIT0_T1_EEE4typeERKS8_, symObjAddr: 0x2460, symBinAddr: 0xC8D0, symSize: 0x20 }
  - { offset: 0x404AC, size: 0x8, addend: 0x0, symName: __ZNSt3__17destroyB9nqe210106IP7QStringEEvT_S3_, symObjAddr: 0x7940, symBinAddr: 0x11250, symSize: 0x30 }
  - { offset: 0x404EB, size: 0x8, addend: 0x0, symName: __ZNSt3__19__destroyB9nqe210106IP7QStringEET_S3_S3_, symObjAddr: 0x79C0, symBinAddr: 0x112D0, symSize: 0x40 }
  - { offset: 0x4052E, size: 0x8, addend: 0x0, symName: __ZNSt3__112__destroy_atB9nqe210106I7QStringLi0EEEvPT_, symObjAddr: 0x7A00, symBinAddr: 0x11310, symSize: 0x20 }
  - { offset: 0x4062F, size: 0x8, addend: 0x0, symName: __ZNSt3__112__destroy_atB9nqe210106INS_4pairIK7QString10QJsonArrayEELi0EEEvPT_, symObjAddr: 0x8600, symBinAddr: 0x11DB0, symSize: 0x20 }
  - { offset: 0x40666, size: 0x8, addend: 0x0, symName: __ZNSt3__119__libcpp_deallocateB9nqe210106INS_11__tree_nodeINS_12__value_typeI7QString10QJsonArrayEEPvEEEEvPNS_15__type_identityIT_E4typeENS_15__element_countEm, symObjAddr: 0x86A0, symBinAddr: 0x11E50, symSize: 0x50 }
  - { offset: 0x406CA, size: 0x8, addend: 0x0, symName: __ZNSt3__14nextB9nqe210106INS_21__tree_const_iteratorINS_12__value_typeI7QString8QVariantEEPNS_11__tree_nodeIS5_PvEElEELi0EEET_SB_NS_15iterator_traitsISB_E15difference_typeE, symObjAddr: 0xB3D0, symBinAddr: 0x14760, symSize: 0x30 }
  - { offset: 0x40713, size: 0x8, addend: 0x0, symName: __ZNSt3__116__tree_prev_iterB9nqe210106IPNS_16__tree_node_baseIPvEEPNS_15__tree_end_nodeIS4_EEEET_T0_, symObjAddr: 0xB6F0, symBinAddr: 0x14A60, symSize: 0x90 }
  - { offset: 0x4075F, size: 0x8, addend: 0x0, symName: __ZNSt3__110__tree_maxB9nqe210106IPNS_16__tree_node_baseIPvEEEET_S5_, symObjAddr: 0xB780, symBinAddr: 0x14AF0, symSize: 0x30 }
  - { offset: 0x40794, size: 0x8, addend: 0x0, symName: __ZNSt3__121__convert_to_integralB9nqe210106El, symObjAddr: 0xB880, symBinAddr: 0x14B70, symSize: 0x10 }
  - { offset: 0x407C0, size: 0x8, addend: 0x0, symName: __ZNSt3__19__advanceB9nqe210106INS_21__tree_const_iteratorINS_12__value_typeI7QString8QVariantEEPNS_11__tree_nodeIS5_PvEElEEEEvRT_NS_15iterator_traitsISB_E15difference_typeENS_26bidirectional_iterator_tagE, symObjAddr: 0xB890, symBinAddr: 0x14B80, symSize: 0x70 }
  - { offset: 0x40828, size: 0x8, addend: 0x0, symName: __ZNSt3__117__libcpp_allocateB9nqe210106INS_11__tree_nodeINS_12__value_typeI7QString8QVariantEEPvEEEEPT_NS_15__element_countEm, symObjAddr: 0xBBB0, symBinAddr: 0x14DB0, symSize: 0x60 }
  - { offset: 0x4087A, size: 0x8, addend: 0x0, symName: __ZNSt3__127__tree_balance_after_insertB9nqe210106IPNS_16__tree_node_baseIPvEEEEvT_S5_, symObjAddr: 0xBDD0, symBinAddr: 0x14FD0, symSize: 0x210 }
  - { offset: 0x408FA, size: 0x8, addend: 0x0, symName: __ZNSt3__118__tree_left_rotateB9nqe210106IPNS_16__tree_node_baseIPvEEEEvT_, symObjAddr: 0xC000, symBinAddr: 0x15200, symSize: 0xC0 }
  - { offset: 0x40939, size: 0x8, addend: 0x0, symName: __ZNSt3__119__tree_right_rotateB9nqe210106IPNS_16__tree_node_baseIPvEEEEvT_, symObjAddr: 0xC0C0, symBinAddr: 0x152C0, symSize: 0xB0 }
  - { offset: 0x40978, size: 0x8, addend: 0x0, symName: __ZNSt3__1neB9nqe210106ERKNS_15__tree_iteratorINS_12__value_typeI7QString8QVariantEEPNS_11__tree_nodeIS4_PvEElEESB_, symObjAddr: 0xC700, symBinAddr: 0x15610, symSize: 0x30 }
  - { offset: 0x409B5, size: 0x8, addend: 0x0, symName: __ZNSt3__1eqB9nqe210106ERKNS_15__tree_iteratorINS_12__value_typeI7QString8QVariantEEPNS_11__tree_nodeIS4_PvEElEESB_, symObjAddr: 0xC730, symBinAddr: 0x15640, symSize: 0x30 }
  - { offset: 0x409F7, size: 0x8, addend: 0x0, symName: __ZNSt3__16__math5isnanB9nqe210106EUa9enable_ifIXLb1EEEd, symObjAddr: 0xCA10, symBinAddr: 0x15800, symSize: 0x20 }
  - { offset: 0x40AC5, size: 0x8, addend: 0x0, symName: __ZNSt3__1eqB9nqe210106ERKNS_14__map_iteratorINS_15__tree_iteratorINS_12__value_typeI7QString10QJsonArrayEEPNS_11__tree_nodeIS5_PvEElEEEESD_, symObjAddr: 0xD2C0, symBinAddr: 0x160B0, symSize: 0x30 }
  - { offset: 0x40B02, size: 0x8, addend: 0x0, symName: __ZNSt3__1neB9nqe210106ERKNS_20__map_const_iteratorINS_21__tree_const_iteratorINS_12__value_typeI7QString10QJsonArrayEEPNS_11__tree_nodeIS5_PvEElEEEESD_, symObjAddr: 0xDC60, symBinAddr: 0x16A50, symSize: 0x30 }
  - { offset: 0x40B3F, size: 0x8, addend: 0x0, symName: __ZNSt3__1neB9nqe210106ERKNS_21__tree_const_iteratorINS_12__value_typeI7QString10QJsonArrayEEPNS_11__tree_nodeIS4_PvEElEESB_, symObjAddr: 0xDD60, symBinAddr: 0x16B50, symSize: 0x30 }
  - { offset: 0x40B7C, size: 0x8, addend: 0x0, symName: __ZNSt3__1eqB9nqe210106ERKNS_21__tree_const_iteratorINS_12__value_typeI7QString10QJsonArrayEEPNS_11__tree_nodeIS4_PvEElEESB_, symObjAddr: 0xDD90, symBinAddr: 0x16B80, symSize: 0x30 }
  - { offset: 0x40BB9, size: 0x8, addend: 0x0, symName: __ZNSt3__14nextB9nqe210106INS_21__tree_const_iteratorINS_12__value_typeI7QString10QJsonArrayEEPNS_11__tree_nodeIS5_PvEElEELi0EEET_SB_NS_15iterator_traitsISB_E15difference_typeE, symObjAddr: 0xE790, symBinAddr: 0x17580, symSize: 0x30 }
  - { offset: 0x40C02, size: 0x8, addend: 0x0, symName: __ZNSt3__19__advanceB9nqe210106INS_21__tree_const_iteratorINS_12__value_typeI7QString10QJsonArrayEEPNS_11__tree_nodeIS5_PvEElEEEEvRT_NS_15iterator_traitsISB_E15difference_typeENS_26bidirectional_iterator_tagE, symObjAddr: 0xE8A0, symBinAddr: 0x17690, symSize: 0x70 }
  - { offset: 0x40C6A, size: 0x8, addend: 0x0, symName: __ZNSt3__117__libcpp_allocateB9nqe210106INS_11__tree_nodeINS_12__value_typeI7QString10QJsonArrayEEPvEEEEPT_NS_15__element_countEm, symObjAddr: 0xEAC0, symBinAddr: 0x178B0, symSize: 0x60 }
  - { offset: 0x40CBB, size: 0x8, addend: 0x0, symName: __ZNSt3__1neB9nqe210106ERKNS_15__tree_iteratorINS_12__value_typeI7QString10QJsonArrayEEPNS_11__tree_nodeIS4_PvEElEESB_, symObjAddr: 0xF120, symBinAddr: 0x17F10, symSize: 0x30 }
  - { offset: 0x40CF8, size: 0x8, addend: 0x0, symName: __ZNSt3__1eqB9nqe210106ERKNS_15__tree_iteratorINS_12__value_typeI7QString10QJsonArrayEEPNS_11__tree_nodeIS4_PvEElEESB_, symObjAddr: 0xF170, symBinAddr: 0x17F60, symSize: 0x30 }
  - { offset: 0x40D68, size: 0x8, addend: 0x0, symName: __ZNSt3__19transformB9nqe210106INS_20__map_const_iteratorINS_21__tree_const_iteratorINS_12__value_typeI7QString10QJsonArrayEEPNS_11__tree_nodeIS6_PvEElEEEENS_20back_insert_iteratorI5QListIS4_EEEZNK8QMapDataINS_3mapIS4_S5_NS_4lessIS4_EENS_9allocatorINS_4pairIKS4_S5_EEEEEEE4keysEvEUlRKT_E_EET0_SS_SS_SW_T1_, symObjAddr: 0xF960, symBinAddr: 0x18750, symSize: 0xB0 }
  - { offset: 0x40DD9, size: 0x8, addend: 0x0, symName: __ZNSt3__113back_inserterB9nqe210106I5QListI7QStringEEENS_20back_insert_iteratorIT_EERS5_, symObjAddr: 0xFA40, symBinAddr: 0x18830, symSize: 0x30 }
  - { offset: 0x40E0E, size: 0x8, addend: 0x0, symName: __ZNSt3__14dataB9nqe210106I17QArrayDataPointerI7QStringEEEDTcldtfp_4dataEERKT_, symObjAddr: 0x10B50, symBinAddr: 0x196C0, symSize: 0x20 }
  - { offset: 0x40E43, size: 0x8, addend: 0x0, symName: __ZNSt3__18distanceB9nqe210106IPK7QStringEENS_15iterator_traitsIT_E15difference_typeES5_S5_, symObjAddr: 0x10B70, symBinAddr: 0x196E0, symSize: 0x30 }
  - { offset: 0x40E86, size: 0x8, addend: 0x0, symName: __ZNSt3__15beginB9nqe210106I17QArrayDataPointerI7QStringEEEDTcldtfp_5beginEERKT_, symObjAddr: 0x10BA0, symBinAddr: 0x19710, symSize: 0x20 }
  - { offset: 0x40EBB, size: 0x8, addend: 0x0, symName: __ZNSt3__13endB9nqe210106I17QArrayDataPointerI7QStringEEEDTcldtfp_3endEERKT_, symObjAddr: 0x10BC0, symBinAddr: 0x19730, symSize: 0x20 }
  - { offset: 0x40F32, size: 0x8, addend: 0x0, symName: __ZNSt3__110__distanceB9nqe210106IPK7QStringEENS_15iterator_traitsIT_E15difference_typeES5_S5_NS_26random_access_iterator_tagE, symObjAddr: 0x10C30, symBinAddr: 0x197A0, symSize: 0x30 }
  - { offset: 0x40F80, size: 0x8, addend: 0x0, symName: __ZNSt3__13getB9nqe210106ILm0EP15QTypedArrayDataI7QStringEPS2_EEONS_13tuple_elementIXT_ENS_4pairIT0_T1_EEE4typeEOSA_, symObjAddr: 0x11170, symBinAddr: 0x19CE0, symSize: 0x20 }
  - { offset: 0x40FCA, size: 0x8, addend: 0x0, symName: __ZNSt3__13getB9nqe210106ILm1EP15QTypedArrayDataI7QStringEPS2_EEONS_13tuple_elementIXT_ENS_4pairIT0_T1_EEE4typeEOSA_, symObjAddr: 0x11190, symBinAddr: 0x19D00, symSize: 0x20 }
  - { offset: 0x41014, size: 0x8, addend: 0x0, symName: __ZNSt3__1eqB9nqe210106ERKNS_14__map_iteratorINS_15__tree_iteratorINS_12__value_typeI7QString8QVariantEEPNS_11__tree_nodeIS5_PvEElEEEESD_, symObjAddr: 0x12A10, symBinAddr: 0x1B4F0, symSize: 0x30 }
  - { offset: 0x431CE, size: 0x8, addend: 0x0, symName: __ZSt28__throw_bad_array_new_lengthB9nqe210106v, symObjAddr: 0xBB70, symBinAddr: 0x14D70, symSize: 0x40 }
  - { offset: 0x434CD, size: 0x8, addend: 0x0, symName: __ZN2Qt15strong_ordering10equivalentE, symObjAddr: 0x14B7C, symBinAddr: 0x1F01C, symSize: 0x0 }
  - { offset: 0x434E1, size: 0x8, addend: 0x0, symName: __ZN2Qt15strong_ordering4lessE, symObjAddr: 0x14B7D, symBinAddr: 0x1F01D, symSize: 0x0 }
  - { offset: 0x434F5, size: 0x8, addend: 0x0, symName: __ZN2Qt15strong_ordering7greaterE, symObjAddr: 0x14B7E, symBinAddr: 0x1F01E, symSize: 0x0 }
  - { offset: 0x440BD, size: 0x8, addend: 0x0, symName: __ZN2Qt5is_ltENS_15strong_orderingE, symObjAddr: 0xB500, symBinAddr: 0x14870, symSize: 0x50 }
  - { offset: 0x440EB, size: 0x8, addend: 0x0, symName: __ZN2QtltENS_15strong_orderingEN9QtPrivate25CompareAgainstLiteralZeroE, symObjAddr: 0xB5A0, symBinAddr: 0x14910, symSize: 0x20 }
  - { offset: 0x44125, size: 0x8, addend: 0x0, symName: __ZN2Qt15compareThreeWayIiiLb1ELb1EEENS_15strong_orderingET_T0_, symObjAddr: 0xB6B0, symBinAddr: 0x14A20, symSize: 0x40 }
  - { offset: 0x44181, size: 0x8, addend: 0x0, symName: __ZN2Qt11qt_ptr_swapERNS_23totally_ordered_wrapperIP8QMapDataINSt3__13mapI7QString8QVariantNS2_4lessIS4_EENS2_9allocatorINS2_4pairIKS4_S5_EEEEEEEEESH_, symObjAddr: 0xD060, symBinAddr: 0x15E50, symSize: 0x30 }
  - { offset: 0x441BB, size: 0x8, addend: 0x0, symName: __ZN2Qt11qt_ptr_swapERNS_23totally_ordered_wrapperIP8QMapDataINSt3__13mapI7QString10QJsonArrayNS2_4lessIS4_EENS2_9allocatorINS2_4pairIKS4_S5_EEEEEEEEESH_, symObjAddr: 0xEF50, symBinAddr: 0x17D40, symSize: 0x30 }
  - { offset: 0x4FC59, size: 0x8, addend: 0x0, symName: __ZN5Tiled7WARNINGERK7QStringNSt3__18functionIFvvEEEPKv, symObjAddr: 0x15E0, symBinAddr: 0xBA50, symSize: 0x120 }
  - { offset: 0x4FD7F, size: 0x8, addend: 0x0, symName: __ZN5Tiled5ERRORERK7QStringNSt3__18functionIFvvEEEPKv, symObjAddr: 0x5C20, symBinAddr: 0xFFC0, symSize: 0x120 }
  - { offset: 0x4FDC7, size: 0x8, addend: 0x0, symName: __ZN5Tiled6REPORTERKNS_5IssueE, symObjAddr: 0x75D0, symBinAddr: 0x10EE0, symSize: 0x30 }
  - { offset: 0x5E0A1, size: 0x8, addend: 0x0, symName: __ZN12QHashPrivate13calculateHashI6QPointEEmRKT_m, symObjAddr: 0x8BB0, symBinAddr: 0x12330, symSize: 0x30 }
  - { offset: 0x5E0E9, size: 0x8, addend: 0x0, symName: __ZN12QHashPrivate12GrowthPolicy13bucketForHashEmm, symObjAddr: 0x8CC0, symBinAddr: 0x12440, symSize: 0x20 }
  - { offset: 0x5E126, size: 0x8, addend: 0x0, symName: __ZN12QHashPrivate12GrowthPolicy18bucketsForCapacityEm, symObjAddr: 0x118A0, symBinAddr: 0x1A380, symSize: 0x70 }
  - { offset: 0x5E175, size: 0x8, addend: 0x0, symName: __ZN12QHashPrivate13calculateHashI14QSharedPointerIN5Tiled7TilesetEEEEmRKT_m, symObjAddr: 0x11E50, symBinAddr: 0x1A930, symSize: 0x30 }
  - { offset: 0x5E1B8, size: 0x8, addend: 0x0, symName: __ZN12QHashPrivate4hashEmm, symObjAddr: 0x11FF0, symBinAddr: 0x1AAD0, symSize: 0x80 }
  - { offset: 0x9099E, size: 0x8, addend: 0x0, symName: ___cxx_global_var_init, symObjAddr: 0x132F0, symBinAddr: 0x1BC30, symSize: 0x40 }
  - { offset: 0x909B2, size: 0x8, addend: 0x0, symName: __ZN7QStringC1EPKc, symObjAddr: 0x0, symBinAddr: 0xA5B0, symSize: 0x60 }
  - { offset: 0x909EB, size: 0x8, addend: 0x0, symName: ___cxx_global_var_init.1, symObjAddr: 0x13330, symBinAddr: 0x1BC70, symSize: 0x40 }
  - { offset: 0x909FF, size: 0x8, addend: 0x0, symName: ___cxx_global_var_init.3, symObjAddr: 0x13370, symBinAddr: 0x1BCB0, symSize: 0x40 }
  - { offset: 0x90A13, size: 0x8, addend: 0x0, symName: ___cxx_global_var_init.5, symObjAddr: 0x133B0, symBinAddr: 0x1BCF0, symSize: 0x40 }
  - { offset: 0x90A27, size: 0x8, addend: 0x0, symName: ___cxx_global_var_init.7, symObjAddr: 0x133F0, symBinAddr: 0x1BD30, symSize: 0x40 }
  - { offset: 0x90A3B, size: 0x8, addend: 0x0, symName: ___cxx_global_var_init.9, symObjAddr: 0x13430, symBinAddr: 0x1BD70, symSize: 0x40 }
  - { offset: 0x90A4F, size: 0x8, addend: 0x0, symName: ___cxx_global_var_init.11, symObjAddr: 0x13470, symBinAddr: 0x1BDB0, symSize: 0x40 }
  - { offset: 0x90A63, size: 0x8, addend: 0x0, symName: ___cxx_global_var_init.13, symObjAddr: 0x134B0, symBinAddr: 0x1BDF0, symSize: 0x40 }
  - { offset: 0x90A77, size: 0x8, addend: 0x0, symName: ___cxx_global_var_init.15, symObjAddr: 0x134F0, symBinAddr: 0x1BE30, symSize: 0x40 }
  - { offset: 0x90A8B, size: 0x8, addend: 0x0, symName: ___cxx_global_var_init.17, symObjAddr: 0x13530, symBinAddr: 0x1BE70, symSize: 0x40 }
  - { offset: 0x90A9F, size: 0x8, addend: 0x0, symName: ___cxx_global_var_init.19, symObjAddr: 0x13570, symBinAddr: 0x1BEB0, symSize: 0x40 }
  - { offset: 0x90AB3, size: 0x8, addend: 0x0, symName: ___cxx_global_var_init.21, symObjAddr: 0x135B0, symBinAddr: 0x1BEF0, symSize: 0x40 }
  - { offset: 0x90AC7, size: 0x8, addend: 0x0, symName: ___cxx_global_var_init.23, symObjAddr: 0x135F0, symBinAddr: 0x1BF30, symSize: 0x40 }
  - { offset: 0x90AF9, size: 0x8, addend: 0x0, symName: __ZN3Rpd9RpdPlugin10initializeEv, symObjAddr: 0x80, symBinAddr: 0xA610, symSize: 0x70 }
  - { offset: 0x90B58, size: 0x8, addend: 0x0, symName: __ZN3Rpd12RpdMapFormatC1EP7QObject, symObjAddr: 0xF0, symBinAddr: 0xA680, symSize: 0x30 }
  - { offset: 0x90B92, size: 0x8, addend: 0x0, symName: __ZN3Rpd12RpdMapFormatC2EP7QObject, symObjAddr: 0x120, symBinAddr: 0xA6B0, symSize: 0x50 }
  - { offset: 0x90BCC, size: 0x8, addend: 0x0, symName: __ZN5Tiled17WritableMapFormatC2EP7QObject, symObjAddr: 0x170, symBinAddr: 0xA700, symSize: 0x40 }
  - { offset: 0x90C04, size: 0x8, addend: 0x0, symName: __ZNK3Rpd12RpdMapFormat9shortNameEv, symObjAddr: 0x1D0, symBinAddr: 0xA740, symSize: 0x30 }
  - { offset: 0x90C2B, size: 0x8, addend: 0x0, symName: __ZN3Rpd12RpdMapFormat17insertTilesetFileERKN5Tiled5LayerERK7QStringR11QJsonObject, symObjAddr: 0x200, symBinAddr: 0xA770, symSize: 0x4E0 }
  - { offset: 0x90CF0, size: 0x8, addend: 0x0, symName: __ZNK4QSetI14QSharedPointerIN5Tiled7TilesetEEE7isEmptyEv, symObjAddr: 0x6E0, symBinAddr: 0xAC50, symSize: 0x20 }
  - { offset: 0x90D16, size: 0x8, addend: 0x0, symName: __ZN3Rpd12RpdMapFormat8logErrorERK7QString, symObjAddr: 0x700, symBinAddr: 0xAC70, symSize: 0xC0 }
  - { offset: 0x90D50, size: 0x8, addend: 0x0, symName: __ZN3Rpd12RpdMapFormat2trEPKcS2_i, symObjAddr: 0x7C0, symBinAddr: 0xAD30, symSize: 0x40 }
  - { offset: 0x90D8F, size: 0x8, addend: 0x0, symName: __ZNK5Tiled5Layer4nameEv, symObjAddr: 0x870, symBinAddr: 0xAD70, symSize: 0x20 }
  - { offset: 0x90DB5, size: 0x8, addend: 0x0, symName: __ZNK4QSetI14QSharedPointerIN5Tiled7TilesetEEE4sizeEv, symObjAddr: 0x8C0, symBinAddr: 0xAD90, symSize: 0x20 }
  - { offset: 0x90DDB, size: 0x8, addend: 0x0, symName: __ZNK4QSetI14QSharedPointerIN5Tiled7TilesetEEE5beginEv, symObjAddr: 0x8E0, symBinAddr: 0xADB0, symSize: 0x60 }
  - { offset: 0x90E01, size: 0x8, addend: 0x0, symName: __ZNK4QSetI14QSharedPointerIN5Tiled7TilesetEEE3endEv, symObjAddr: 0x940, symBinAddr: 0xAE10, symSize: 0x60 }
  - { offset: 0x90E27, size: 0x8, addend: 0x0, symName: __ZNK4QSetI14QSharedPointerIN5Tiled7TilesetEEE14const_iteratorneERKS5_, symObjAddr: 0x9A0, symBinAddr: 0xAE70, symSize: 0x30 }
  - { offset: 0x90E5B, size: 0x8, addend: 0x0, symName: __ZNK4QSetI14QSharedPointerIN5Tiled7TilesetEEE14const_iteratordeEv, symObjAddr: 0x9D0, symBinAddr: 0xAEA0, symSize: 0x20 }
  - { offset: 0x90E80, size: 0x8, addend: 0x0, symName: __ZplO7QStringPKc, symObjAddr: 0x9F0, symBinAddr: 0xAEC0, symSize: 0x50 }
  - { offset: 0x90EBD, size: 0x8, addend: 0x0, symName: __ZplPKcRK7QString, symObjAddr: 0xA40, symBinAddr: 0xAF10, symSize: 0x90 }
  - { offset: 0x90F0C, size: 0x8, addend: 0x0, symName: __ZNK14QSharedPointerIN5Tiled7TilesetEEptEv, symObjAddr: 0xAD0, symBinAddr: 0xAFA0, symSize: 0x20 }
  - { offset: 0x90F32, size: 0x8, addend: 0x0, symName: __ZNK5Tiled7Tileset4nameEv, symObjAddr: 0xAF0, symBinAddr: 0xAFC0, symSize: 0x20 }
  - { offset: 0x90F5A, size: 0x8, addend: 0x0, symName: __ZN4QSetI14QSharedPointerIN5Tiled7TilesetEEE14const_iteratorppEv, symObjAddr: 0xB40, symBinAddr: 0xAFE0, symSize: 0x30 }
  - { offset: 0x90F7F, size: 0x8, addend: 0x0, symName: __ZplRK7QStringPKc, symObjAddr: 0xB70, symBinAddr: 0xB010, symSize: 0x90 }
  - { offset: 0x90FCE, size: 0x8, addend: 0x0, symName: __ZNK4QSetI14QSharedPointerIN5Tiled7TilesetEEE14const_iteratorptEv, symObjAddr: 0xC00, symBinAddr: 0xB0A0, symSize: 0x20 }
  - { offset: 0x90FF4, size: 0x8, addend: 0x0, symName: __ZNK14QSharedPointerIN5Tiled7TilesetEE4dataEv, symObjAddr: 0xC20, symBinAddr: 0xB0C0, symSize: 0x20 }
  - { offset: 0x9101A, size: 0x8, addend: 0x0, symName: __ZN4QSetI14QSharedPointerIN5Tiled7TilesetEEED1Ev, symObjAddr: 0xC40, symBinAddr: 0xB0E0, symSize: 0x20 }
  - { offset: 0x91046, size: 0x8, addend: 0x0, symName: __ZN3Rpd12RpdMapFormat11validateMapEPKN5Tiled3MapE, symObjAddr: 0xC60, symBinAddr: 0xB100, symSize: 0x790 }
  - { offset: 0x91108, size: 0x8, addend: 0x0, symName: __ZN5QListI7QStringEC1ESt16initializer_listIS0_E, symObjAddr: 0x1420, symBinAddr: 0xB890, symSize: 0x30 }
  - { offset: 0x91141, size: 0x8, addend: 0x0, symName: __ZNK5Tiled3Map6layersEv, symObjAddr: 0x1450, symBinAddr: 0xB8C0, symSize: 0x20 }
  - { offset: 0x91169, size: 0x8, addend: 0x0, symName: __ZNK5QListIPN5Tiled5LayerEE5beginEv, symObjAddr: 0x1470, symBinAddr: 0xB8E0, symSize: 0x40 }
  - { offset: 0x9118F, size: 0x8, addend: 0x0, symName: __ZNK5QListIPN5Tiled5LayerEE3endEv, symObjAddr: 0x14B0, symBinAddr: 0xB920, symSize: 0x40 }
  - { offset: 0x911B5, size: 0x8, addend: 0x0, symName: __ZNK5QListIPN5Tiled5LayerEE14const_iteratorneES4_, symObjAddr: 0x14F0, symBinAddr: 0xB960, symSize: 0x20 }
  - { offset: 0x911E9, size: 0x8, addend: 0x0, symName: __ZNK5QListIPN5Tiled5LayerEE14const_iteratordeEv, symObjAddr: 0x1510, symBinAddr: 0xB980, symSize: 0x20 }
  - { offset: 0x9120F, size: 0x8, addend: 0x0, symName: __ZNK5Tiled5Layer11isTileLayerEv, symObjAddr: 0x1530, symBinAddr: 0xB9A0, symSize: 0x20 }
  - { offset: 0x91234, size: 0x8, addend: 0x0, symName: __ZeqRK7QStringS1_, symObjAddr: 0x1550, symBinAddr: 0xB9C0, symSize: 0x30 }
  - { offset: 0x91289, size: 0x8, addend: 0x0, symName: __ZNK19QListSpecialMethodsI7QStringE8containsERKS0_N2Qt15CaseSensitivityE, symObjAddr: 0x1580, symBinAddr: 0xB9F0, symSize: 0x60 }
  - { offset: 0x912CB, size: 0x8, addend: 0x0, symName: __ZNSt3__18functionIFvvEEC1B9nqe210106Ev, symObjAddr: 0x1700, symBinAddr: 0xBB70, symSize: 0x20 }
  - { offset: 0x912F5, size: 0x8, addend: 0x0, symName: __ZNSt3__18functionIFvvEED1Ev, symObjAddr: 0x1720, symBinAddr: 0xBB90, symSize: 0x20 }
  - { offset: 0x9131F, size: 0x8, addend: 0x0, symName: __ZNK5Tiled5Layer13isObjectGroupEv, symObjAddr: 0x1740, symBinAddr: 0xBBB0, symSize: 0x20 }
  - { offset: 0x91345, size: 0x8, addend: 0x0, symName: __ZN5QListIPN5Tiled5LayerEE14const_iteratorppEv, symObjAddr: 0x1760, symBinAddr: 0xBBD0, symSize: 0x20 }
  - { offset: 0x9136B, size: 0x8, addend: 0x0, symName: __ZN5QListI7QStringED1Ev, symObjAddr: 0x1780, symBinAddr: 0xBBF0, symSize: 0x20 }
  - { offset: 0x91397, size: 0x8, addend: 0x0, symName: __ZN3Rpd12RpdMapFormat26validateAndWritePropertiesEPKN5Tiled3MapER11QJsonObject, symObjAddr: 0x17A0, symBinAddr: 0xBC10, symSize: 0xB70 }
  - { offset: 0x9145F, size: 0x8, addend: 0x0, symName: __ZNK5Tiled6Object10propertiesEv, symObjAddr: 0x2310, symBinAddr: 0xC780, symSize: 0x20 }
  - { offset: 0x91485, size: 0x8, addend: 0x0, symName: __ZNKR4QMapI7QString8QVariantE8toStdMapEv, symObjAddr: 0x2330, symBinAddr: 0xC7A0, symSize: 0x60 }
  - { offset: 0x914AB, size: 0x8, addend: 0x0, symName: __ZNSt3__13mapI7QString8QVariantNS_4lessIS1_EENS_9allocatorINS_4pairIKS1_S2_EEEEE5beginB9nqe210106Ev, symObjAddr: 0x2390, symBinAddr: 0xC800, symSize: 0x30 }
  - { offset: 0x914D1, size: 0x8, addend: 0x0, symName: __ZNSt3__13mapI7QString8QVariantNS_4lessIS1_EENS_9allocatorINS_4pairIKS1_S2_EEEEE3endB9nqe210106Ev, symObjAddr: 0x23C0, symBinAddr: 0xC830, symSize: 0x30 }
  - { offset: 0x914F7, size: 0x8, addend: 0x0, symName: __ZNKSt3__114__map_iteratorINS_15__tree_iteratorINS_12__value_typeI7QString8QVariantEEPNS_11__tree_nodeIS5_PvEElEEEdeB9nqe210106Ev, symObjAddr: 0x2420, symBinAddr: 0xC890, symSize: 0x20 }
  - { offset: 0x9151D, size: 0x8, addend: 0x0, symName: __ZNK8QVariant10canConvertIdEEbv, symObjAddr: 0x2480, symBinAddr: 0xC8F0, symSize: 0x40 }
  - { offset: 0x9154C, size: 0x8, addend: 0x0, symName: __ZNO7QString6toUtf8Ev, symObjAddr: 0x2500, symBinAddr: 0xC930, symSize: 0x30 }
  - { offset: 0x91572, size: 0x8, addend: 0x0, symName: __ZN10QByteArrayD1Ev, symObjAddr: 0x2530, symBinAddr: 0xC960, symSize: 0x20 }
  - { offset: 0x9159E, size: 0x8, addend: 0x0, symName: __ZNSt3__114__map_iteratorINS_15__tree_iteratorINS_12__value_typeI7QString8QVariantEEPNS_11__tree_nodeIS5_PvEElEEEppB9nqe210106Ev, symObjAddr: 0x2550, symBinAddr: 0xC980, symSize: 0x30 }
  - { offset: 0x915C4, size: 0x8, addend: 0x0, symName: __ZN10QJsonValueC1EPKc, symObjAddr: 0x25A0, symBinAddr: 0xC9B0, symSize: 0x80 }
  - { offset: 0x915FC, size: 0x8, addend: 0x0, symName: __ZN3Rpd12RpdMapFormat5writeEPKN5Tiled3MapERK7QString6QFlagsINS1_10FileFormat6OptionEE, symObjAddr: 0x2620, symBinAddr: 0xCA30, symSize: 0xDE0 }
  - { offset: 0x91767, size: 0x8, addend: 0x0, symName: __ZN5Tiled8SaveFile4openE6QFlagsIN13QIODeviceBase12OpenModeFlagEE, symObjAddr: 0x3400, symBinAddr: 0xD810, symSize: 0x40 }
  - { offset: 0x9179B, size: 0x8, addend: 0x0, symName: __ZorN13QIODeviceBase12OpenModeFlagES0_, symObjAddr: 0x3440, symBinAddr: 0xD850, symSize: 0x40 }
  - { offset: 0x917D6, size: 0x8, addend: 0x0, symName: __ZN3Rpd12RpdMapFormat15writeLogicLayerER11QJsonObjectRKN5Tiled9TileLayerE, symObjAddr: 0x34D0, symBinAddr: 0xD890, symSize: 0x950 }
  - { offset: 0x918AE, size: 0x8, addend: 0x0, symName: __ZN3Rpd12RpdMapFormat14writeDecoLayerER11QJsonObjectRKN5Tiled9TileLayerE, symObjAddr: 0x3F80, symBinAddr: 0xE340, symSize: 0x7B0 }
  - { offset: 0x9195B, size: 0x8, addend: 0x0, symName: __ZN3Rpd12RpdMapFormat16writeObjectLayerER11QJsonObjectRKN5Tiled11ObjectGroupE, symObjAddr: 0x4730, symBinAddr: 0xEAF0, symSize: 0xD20 }
  - { offset: 0x91ABA, size: 0x8, addend: 0x0, symName: __ZNK6QFlagsIN5Tiled10FileFormat6OptionEE8testFlagES2_, symObjAddr: 0x5450, symBinAddr: 0xF810, symSize: 0x40 }
  - { offset: 0x91AEE, size: 0x8, addend: 0x0, symName: __ZNK5Tiled8SaveFile6deviceEv, symObjAddr: 0x5490, symBinAddr: 0xF850, symSize: 0x20 }
  - { offset: 0x91B15, size: 0x8, addend: 0x0, symName: __ZNK5Tiled8SaveFile5errorEv, symObjAddr: 0x54B0, symBinAddr: 0xF870, symSize: 0x30 }
  - { offset: 0x91B3C, size: 0x8, addend: 0x0, symName: __ZNK5Tiled8SaveFile11errorStringEv, symObjAddr: 0x54E0, symBinAddr: 0xF8A0, symSize: 0x40 }
  - { offset: 0x91B63, size: 0x8, addend: 0x0, symName: __ZN5Tiled8SaveFileD1Ev, symObjAddr: 0x5520, symBinAddr: 0xF8E0, symSize: 0x20 }
  - { offset: 0x922F9, size: 0x8, addend: 0x0, symName: __ZN4QMapI7QString10QJsonArrayEC1Ev, symObjAddr: 0x5540, symBinAddr: 0xF900, symSize: 0x20 }
  - { offset: 0x92323, size: 0x8, addend: 0x0, symName: __ZNK5Tiled11ObjectGroup7objectsEv, symObjAddr: 0x5560, symBinAddr: 0xF920, symSize: 0x20 }
  - { offset: 0x92349, size: 0x8, addend: 0x0, symName: __ZNK5QListIPN5Tiled9MapObjectEE5beginEv, symObjAddr: 0x5580, symBinAddr: 0xF940, symSize: 0x40 }
  - { offset: 0x9236F, size: 0x8, addend: 0x0, symName: __ZNK5QListIPN5Tiled9MapObjectEE3endEv, symObjAddr: 0x55C0, symBinAddr: 0xF980, symSize: 0x40 }
  - { offset: 0x92395, size: 0x8, addend: 0x0, symName: __ZNK5QListIPN5Tiled9MapObjectEE14const_iteratorneES4_, symObjAddr: 0x5600, symBinAddr: 0xF9C0, symSize: 0x20 }
  - { offset: 0x923C9, size: 0x8, addend: 0x0, symName: __ZNK5QListIPN5Tiled9MapObjectEE14const_iteratordeEv, symObjAddr: 0x5620, symBinAddr: 0xF9E0, symSize: 0x20 }
  - { offset: 0x923EF, size: 0x8, addend: 0x0, symName: __ZNK5Tiled9MapObject4nameEv, symObjAddr: 0x5640, symBinAddr: 0xFA00, symSize: 0x20 }
  - { offset: 0x92416, size: 0x8, addend: 0x0, symName: __Z6qFloorIdEiT_, symObjAddr: 0x5660, symBinAddr: 0xFA20, symSize: 0x30 }
  - { offset: 0x92453, size: 0x8, addend: 0x0, symName: __ZNK5Tiled9MapObject1xEv, symObjAddr: 0x5690, symBinAddr: 0xFA50, symSize: 0x20 }
  - { offset: 0x9247B, size: 0x8, addend: 0x0, symName: __ZNK5Tiled9MapObject1yEv, symObjAddr: 0x56B0, symBinAddr: 0xFA70, symSize: 0x20 }
  - { offset: 0x924A3, size: 0x8, addend: 0x0, symName: __ZN5Tiled6Object10propertiesEv, symObjAddr: 0x56D0, symBinAddr: 0xFA90, symSize: 0x20 }
  - { offset: 0x924C9, size: 0x8, addend: 0x0, symName: __ZN4QMapI7QString8QVariantEC1ERKS2_, symObjAddr: 0x56F0, symBinAddr: 0xFAB0, symSize: 0x30 }
  - { offset: 0x924FE, size: 0x8, addend: 0x0, symName: __ZN4QMapI7QString8QVariantE5beginEv, symObjAddr: 0x5720, symBinAddr: 0xFAE0, symSize: 0x50 }
  - { offset: 0x92523, size: 0x8, addend: 0x0, symName: __ZneRKN4QMapI7QString8QVariantE8iteratorES5_, symObjAddr: 0x5770, symBinAddr: 0xFB30, symSize: 0x30 }
  - { offset: 0x92561, size: 0x8, addend: 0x0, symName: __ZN4QMapI7QString8QVariantE3endEv, symObjAddr: 0x57A0, symBinAddr: 0xFB60, symSize: 0x50 }
  - { offset: 0x92587, size: 0x8, addend: 0x0, symName: __ZNK4QMapI7QString8QVariantE8iterator5valueEv, symObjAddr: 0x57F0, symBinAddr: 0xFBB0, symSize: 0x20 }
  - { offset: 0x925AD, size: 0x8, addend: 0x0, symName: __ZNK4QMapI7QString8QVariantE8iterator3keyEv, symObjAddr: 0x5810, symBinAddr: 0xFBD0, symSize: 0x20 }
  - { offset: 0x925D3, size: 0x8, addend: 0x0, symName: __ZN4QMapI7QString8QVariantE8iteratorppEv, symObjAddr: 0x5830, symBinAddr: 0xFBF0, symSize: 0x30 }
  - { offset: 0x925F9, size: 0x8, addend: 0x0, symName: __ZNK5Tiled9MapObject4typeEv, symObjAddr: 0x5860, symBinAddr: 0xFC20, symSize: 0x20 }
  - { offset: 0x9261F, size: 0x8, addend: 0x0, symName: __ZN4QMapI7QString10QJsonArrayEixERKS0_, symObjAddr: 0x5880, symBinAddr: 0xFC40, symSize: 0x1F0 }
  - { offset: 0x92674, size: 0x8, addend: 0x0, symName: __ZN5QListIPN5Tiled9MapObjectEE14const_iteratorppEv, symObjAddr: 0x5A90, symBinAddr: 0xFE30, symSize: 0x20 }
  - { offset: 0x9269A, size: 0x8, addend: 0x0, symName: __ZNK4QMapI7QString10QJsonArrayE4keysEv, symObjAddr: 0x5AB0, symBinAddr: 0xFE50, symSize: 0x70 }
  - { offset: 0x926C0, size: 0x8, addend: 0x0, symName: __ZN5QListI7QStringE5beginEv, symObjAddr: 0x5B20, symBinAddr: 0xFEC0, symSize: 0x40 }
  - { offset: 0x926E6, size: 0x8, addend: 0x0, symName: __ZN5QListI7QStringE3endEv, symObjAddr: 0x5B60, symBinAddr: 0xFF00, symSize: 0x40 }
  - { offset: 0x9270C, size: 0x8, addend: 0x0, symName: __ZNK5QListI7QStringE8iteratorneES2_, symObjAddr: 0x5BA0, symBinAddr: 0xFF40, symSize: 0x20 }
  - { offset: 0x92740, size: 0x8, addend: 0x0, symName: __ZNK5QListI7QStringE8iteratordeEv, symObjAddr: 0x5BC0, symBinAddr: 0xFF60, symSize: 0x20 }
  - { offset: 0x92766, size: 0x8, addend: 0x0, symName: __ZN5QListI7QStringE8iteratorppEv, symObjAddr: 0x5BE0, symBinAddr: 0xFF80, symSize: 0x20 }
  - { offset: 0x9278C, size: 0x8, addend: 0x0, symName: __ZN4QMapI7QString10QJsonArrayED1Ev, symObjAddr: 0x5C00, symBinAddr: 0xFFA0, symSize: 0x20 }
  - { offset: 0x927B8, size: 0x8, addend: 0x0, symName: __ZN4QSetI14QSharedPointerIN5Tiled7TilesetEEE5beginEv, symObjAddr: 0x5D40, symBinAddr: 0x100E0, symSize: 0x50 }
  - { offset: 0x927DE, size: 0x8, addend: 0x0, symName: __ZNK4QSetI14QSharedPointerIN5Tiled7TilesetEEE8iteratorptEv, symObjAddr: 0x5D90, symBinAddr: 0x10130, symSize: 0x20 }
  - { offset: 0x92804, size: 0x8, addend: 0x0, symName: __ZNK5Tiled7Tileset5tilesEv, symObjAddr: 0x5DB0, symBinAddr: 0x10150, symSize: 0x20 }
  - { offset: 0x9282C, size: 0x8, addend: 0x0, symName: __ZNK5QListIPN5Tiled4TileEE5beginEv, symObjAddr: 0x5DD0, symBinAddr: 0x10170, symSize: 0x40 }
  - { offset: 0x92852, size: 0x8, addend: 0x0, symName: __ZNK5QListIPN5Tiled4TileEE3endEv, symObjAddr: 0x5E10, symBinAddr: 0x101B0, symSize: 0x40 }
  - { offset: 0x92878, size: 0x8, addend: 0x0, symName: __ZNK5QListIPN5Tiled4TileEE14const_iteratorneES4_, symObjAddr: 0x5E50, symBinAddr: 0x101F0, symSize: 0x20 }
  - { offset: 0x928AC, size: 0x8, addend: 0x0, symName: __ZNK5QListIPN5Tiled4TileEE14const_iteratordeEv, symObjAddr: 0x5E70, symBinAddr: 0x10210, symSize: 0x20 }
  - { offset: 0x928D2, size: 0x8, addend: 0x0, symName: __ZN4QMapI7QString8QVariantEixERKS0_, symObjAddr: 0x5E90, symBinAddr: 0x10230, symSize: 0x250 }
  - { offset: 0x9292B, size: 0x8, addend: 0x0, symName: __ZN5QListIPN5Tiled4TileEE14const_iteratorppEv, symObjAddr: 0x60E0, symBinAddr: 0x10480, symSize: 0x20 }
  - { offset: 0x92951, size: 0x8, addend: 0x0, symName: __ZNK5Tiled5Layer3mapEv, symObjAddr: 0x6100, symBinAddr: 0x104A0, symSize: 0x20 }
  - { offset: 0x92977, size: 0x8, addend: 0x0, symName: __ZNK5Tiled3Map5widthEv, symObjAddr: 0x6120, symBinAddr: 0x104C0, symSize: 0x20 }
  - { offset: 0x9299F, size: 0x8, addend: 0x0, symName: __ZNK5Tiled3Map6heightEv, symObjAddr: 0x6140, symBinAddr: 0x104E0, symSize: 0x20 }
  - { offset: 0x929C7, size: 0x8, addend: 0x0, symName: __ZNK5Tiled9TileLayer6cellAtEii, symObjAddr: 0x6160, symBinAddr: 0x10500, symSize: 0x60 }
  - { offset: 0x92A2C, size: 0x8, addend: 0x0, symName: __ZNK5Tiled4Cell6tileIdEv, symObjAddr: 0x61C0, symBinAddr: 0x10560, symSize: 0x20 }
  - { offset: 0x92A52, size: 0x8, addend: 0x0, symName: __ZNK3Rpd12RpdMapFormat10nameFilterEv, symObjAddr: 0x6240, symBinAddr: 0x10580, symSize: 0x40 }
  - { offset: 0x92A7B, size: 0x8, addend: 0x0, symName: __ZNK3Rpd12RpdMapFormat11errorStringEv, symObjAddr: 0x6280, symBinAddr: 0x105C0, symSize: 0x30 }
  - { offset: 0x92AA9, size: 0x8, addend: 0x0, symName: __ZN5Tiled9MapFormatC2EP7QObject, symObjAddr: 0x6990, symBinAddr: 0x10640, symSize: 0x40 }
  - { offset: 0x92AE1, size: 0x8, addend: 0x0, symName: __ZN7QStringpLEPKc, symObjAddr: 0x6A60, symBinAddr: 0x10680, symSize: 0x40 }
  - { offset: 0x92B16, size: 0x8, addend: 0x0, symName: __ZN20QBasicUtf8StringViewILb0EEC1IPKcLb1EEERKT_, symObjAddr: 0x6AA0, symBinAddr: 0x106C0, symSize: 0x50 }
  - { offset: 0x92B5D, size: 0x8, addend: 0x0, symName: __ZN20QBasicUtf8StringViewILb0EEC1IcLb1EEEPKT_x, symObjAddr: 0x6AF0, symBinAddr: 0x10710, symSize: 0x30 }
  - { offset: 0x92BB2, size: 0x8, addend: 0x0, symName: __ZN20QBasicUtf8StringViewILb0EEC2IcLb1EEEPKT_x, symObjAddr: 0x6B20, symBinAddr: 0x10740, symSize: 0xA0 }
  - { offset: 0x92C07, size: 0x8, addend: 0x0, symName: __ZN20QBasicUtf8StringViewILb0EE10castHelperEPKc, symObjAddr: 0x6BC0, symBinAddr: 0x107E0, symSize: 0x10 }
  - { offset: 0x92C2A, size: 0x8, addend: 0x0, symName: __ZN7QStringpLE20QBasicUtf8StringViewILb0EE, symObjAddr: 0x6BD0, symBinAddr: 0x107F0, symSize: 0x40 }
  - { offset: 0x92C5F, size: 0x8, addend: 0x0, symName: __ZN4QSetI14QSharedPointerIN5Tiled7TilesetEEED2Ev, symObjAddr: 0x6C10, symBinAddr: 0x10830, symSize: 0x20 }
  - { offset: 0x92C8B, size: 0x8, addend: 0x0, symName: __ZN5QHashI14QSharedPointerIN5Tiled7TilesetEE15QHashDummyValueED1Ev, symObjAddr: 0x6C30, symBinAddr: 0x10850, symSize: 0x20 }
  - { offset: 0x92CB5, size: 0x8, addend: 0x0, symName: __ZN5QHashI14QSharedPointerIN5Tiled7TilesetEE15QHashDummyValueED2Ev, symObjAddr: 0x6C50, symBinAddr: 0x10870, symSize: 0x60 }
  - { offset: 0x92CDF, size: 0x8, addend: 0x0, symName: __ZN9QtPrivate8RefCount5derefEv, symObjAddr: 0x6CB0, symBinAddr: 0x108D0, symSize: 0x50 }
  - { offset: 0x92D13, size: 0x8, addend: 0x0, symName: __ZN12QHashPrivate4DataINS_4NodeI14QSharedPointerIN5Tiled7TilesetEE15QHashDummyValueEEED1Ev, symObjAddr: 0x6D00, symBinAddr: 0x10920, symSize: 0x20 }
  - { offset: 0x92D3D, size: 0x8, addend: 0x0, symName: __ZN12QHashPrivate4DataINS_4NodeI14QSharedPointerIN5Tiled7TilesetEE15QHashDummyValueEEED2Ev, symObjAddr: 0x6D20, symBinAddr: 0x10940, symSize: 0x80 }
  - { offset: 0x92D67, size: 0x8, addend: 0x0, symName: __ZN12QHashPrivate4SpanINS_4NodeI14QSharedPointerIN5Tiled7TilesetEE15QHashDummyValueEEED1Ev, symObjAddr: 0x6DA0, symBinAddr: 0x109C0, symSize: 0x20 }
  - { offset: 0x92D91, size: 0x8, addend: 0x0, symName: __ZN12QHashPrivate4SpanINS_4NodeI14QSharedPointerIN5Tiled7TilesetEE15QHashDummyValueEEED2Ev, symObjAddr: 0x6DC0, symBinAddr: 0x109E0, symSize: 0x20 }
  - { offset: 0x92DBB, size: 0x8, addend: 0x0, symName: __ZN12QHashPrivate4SpanINS_4NodeI14QSharedPointerIN5Tiled7TilesetEE15QHashDummyValueEEE8freeDataEv, symObjAddr: 0x6DE0, symBinAddr: 0x10A00, symSize: 0xE0 }
  - { offset: 0x92E26, size: 0x8, addend: 0x0, symName: __ZN12QHashPrivate4SpanINS_4NodeI14QSharedPointerIN5Tiled7TilesetEE15QHashDummyValueEEE5Entry4nodeEv, symObjAddr: 0x6EC0, symBinAddr: 0x10AE0, symSize: 0x10 }
  - { offset: 0x92E4C, size: 0x8, addend: 0x0, symName: __ZN12QHashPrivate4NodeI14QSharedPointerIN5Tiled7TilesetEE15QHashDummyValueED1Ev, symObjAddr: 0x6ED0, symBinAddr: 0x10AF0, symSize: 0x20 }
  - { offset: 0x92E78, size: 0x8, addend: 0x0, symName: __ZN12QHashPrivate4NodeI14QSharedPointerIN5Tiled7TilesetEE15QHashDummyValueED2Ev, symObjAddr: 0x6EF0, symBinAddr: 0x10B10, symSize: 0x20 }
  - { offset: 0x92EA4, size: 0x8, addend: 0x0, symName: __ZN14QSharedPointerIN5Tiled7TilesetEED1Ev, symObjAddr: 0x6F10, symBinAddr: 0x10B30, symSize: 0x20 }
  - { offset: 0x92ECE, size: 0x8, addend: 0x0, symName: __ZN14QSharedPointerIN5Tiled7TilesetEED2Ev, symObjAddr: 0x6F30, symBinAddr: 0x10B50, symSize: 0x20 }
  - { offset: 0x92EF8, size: 0x8, addend: 0x0, symName: __ZN14QSharedPointerIN5Tiled7TilesetEE5derefEv, symObjAddr: 0x6F50, symBinAddr: 0x10B70, symSize: 0x20 }
  - { offset: 0x92F1E, size: 0x8, addend: 0x0, symName: __ZN14QSharedPointerIN5Tiled7TilesetEE5derefEPN15QtSharedPointer20ExternalRefCountDataE, symObjAddr: 0x6F70, symBinAddr: 0x10B90, symSize: 0x70 }
  - { offset: 0x92F42, size: 0x8, addend: 0x0, symName: __ZN15QtSharedPointer20ExternalRefCountData7destroyEv, symObjAddr: 0x6FE0, symBinAddr: 0x10C00, symSize: 0x20 }
  - { offset: 0x92F68, size: 0x8, addend: 0x0, symName: __ZN15QtSharedPointer20ExternalRefCountDataD1Ev, symObjAddr: 0x7000, symBinAddr: 0x10C20, symSize: 0x20 }
  - { offset: 0x92F92, size: 0x8, addend: 0x0, symName: __ZN15QtSharedPointer20ExternalRefCountDatadlEPv, symObjAddr: 0x7020, symBinAddr: 0x10C40, symSize: 0x20 }
  - { offset: 0x92FB5, size: 0x8, addend: 0x0, symName: __ZN15QtSharedPointer20ExternalRefCountDataD2Ev, symObjAddr: 0x7040, symBinAddr: 0x10C60, symSize: 0x70 }
  - { offset: 0x92FDE, size: 0x8, addend: 0x0, symName: __Z13comparesEqualRK7QStringS1_, symObjAddr: 0x72E0, symBinAddr: 0x10CD0, symSize: 0x40 }
  - { offset: 0x9301B, size: 0x8, addend: 0x0, symName: __Z13comparesEqualRK11QStringViewS1_, symObjAddr: 0x7320, symBinAddr: 0x10D10, symSize: 0x80 }
  - { offset: 0x93059, size: 0x8, addend: 0x0, symName: __ZN11QStringViewC1I7QStringLb1EEERKT_, symObjAddr: 0x73A0, symBinAddr: 0x10D90, symSize: 0x50 }
  - { offset: 0x930A0, size: 0x8, addend: 0x0, symName: __ZNK11QStringView4sizeEv, symObjAddr: 0x73F0, symBinAddr: 0x10DE0, symSize: 0x20 }
  - { offset: 0x930C6, size: 0x8, addend: 0x0, symName: __ZN11QStringViewC1I5QCharLb1EEEPKT_x, symObjAddr: 0x7480, symBinAddr: 0x10E00, symSize: 0x30 }
  - { offset: 0x9311B, size: 0x8, addend: 0x0, symName: __ZN11QStringViewC2I5QCharLb1EEEPKT_x, symObjAddr: 0x7520, symBinAddr: 0x10E30, symSize: 0x90 }
  - { offset: 0x93170, size: 0x8, addend: 0x0, symName: __ZN11QStringView10castHelperI5QCharEEPKDsPKT_, symObjAddr: 0x75B0, symBinAddr: 0x10EC0, symSize: 0x10 }
  - { offset: 0x9319C, size: 0x8, addend: 0x0, symName: __ZNK23QListSpecialMethodsBaseI7QStringE4selfEv, symObjAddr: 0x75C0, symBinAddr: 0x10ED0, symSize: 0x10 }
  - { offset: 0x931C2, size: 0x8, addend: 0x0, symName: __ZNSt3__18functionIFvvEEC1EOS2_, symObjAddr: 0x7600, symBinAddr: 0x10F10, symSize: 0x30 }
  - { offset: 0x931FB, size: 0x8, addend: 0x0, symName: __ZN5Tiled5IssueD1Ev, symObjAddr: 0x7630, symBinAddr: 0x10F40, symSize: 0x20 }
  - { offset: 0x93227, size: 0x8, addend: 0x0, symName: __ZNSt3__18functionIFvvEEC2EOS2_, symObjAddr: 0x7650, symBinAddr: 0x10F60, symSize: 0x30 }
  - { offset: 0x93260, size: 0x8, addend: 0x0, symName: __ZNSt3__110__function12__value_funcIFvvEEC1B9nqe210106EOS3_, symObjAddr: 0x7680, symBinAddr: 0x10F90, symSize: 0x30 }
  - { offset: 0x93298, size: 0x8, addend: 0x0, symName: __ZNSt3__110__function12__value_funcIFvvEEC2B9nqe210106EOS3_, symObjAddr: 0x76B0, symBinAddr: 0x10FC0, symSize: 0xB0 }
  - { offset: 0x932D0, size: 0x8, addend: 0x0, symName: __ZNSt3__110__function12__value_funcIFvvEE9__as_baseB9nqe210106EPv, symObjAddr: 0x7760, symBinAddr: 0x11070, symSize: 0x10 }
  - { offset: 0x932F3, size: 0x8, addend: 0x0, symName: __ZN5Tiled5IssueD2Ev, symObjAddr: 0x7770, symBinAddr: 0x11080, symSize: 0x30 }
  - { offset: 0x9331F, size: 0x8, addend: 0x0, symName: __ZN5QListI7QStringED2Ev, symObjAddr: 0x77A0, symBinAddr: 0x110B0, symSize: 0x20 }
  - { offset: 0x9334B, size: 0x8, addend: 0x0, symName: __ZN17QArrayDataPointerI7QStringED1Ev, symObjAddr: 0x77C0, symBinAddr: 0x110D0, symSize: 0x20 }
  - { offset: 0x93375, size: 0x8, addend: 0x0, symName: __ZN17QArrayDataPointerI7QStringED2Ev, symObjAddr: 0x77E0, symBinAddr: 0x110F0, symSize: 0x50 }
  - { offset: 0x9339F, size: 0x8, addend: 0x0, symName: __ZN17QArrayDataPointerI7QStringE5derefEv, symObjAddr: 0x7830, symBinAddr: 0x11140, symSize: 0x40 }
  - { offset: 0x933C5, size: 0x8, addend: 0x0, symName: __ZN17QArrayDataPointerI7QStringEptEv, symObjAddr: 0x7870, symBinAddr: 0x11180, symSize: 0x10 }
  - { offset: 0x933EB, size: 0x8, addend: 0x0, symName: __ZN9QtPrivate16QGenericArrayOpsI7QStringE10destroyAllEv, symObjAddr: 0x7880, symBinAddr: 0x11190, symSize: 0x90 }
  - { offset: 0x93411, size: 0x8, addend: 0x0, symName: __ZN15QTypedArrayDataI7QStringE10deallocateEP10QArrayData, symObjAddr: 0x7910, symBinAddr: 0x11220, symSize: 0x30 }
  - { offset: 0x93434, size: 0x8, addend: 0x0, symName: __ZN17QArrayDataPointerI7QStringE5beginEv, symObjAddr: 0x7970, symBinAddr: 0x11280, symSize: 0x20 }
  - { offset: 0x9345A, size: 0x8, addend: 0x0, symName: __ZN17QArrayDataPointerI7QStringE3endEv, symObjAddr: 0x7990, symBinAddr: 0x112A0, symSize: 0x30 }
  - { offset: 0x93480, size: 0x8, addend: 0x0, symName: __ZN17QArrayDataPointerI7QStringE4dataEv, symObjAddr: 0x7A20, symBinAddr: 0x11330, symSize: 0x20 }
  - { offset: 0x934A6, size: 0x8, addend: 0x0, symName: __ZNSt3__110__get_pairILm0EE3getB9nqe210106IK7QString8QVariantEERKT_RKNS_4pairIS6_T0_EE, symObjAddr: 0x7A40, symBinAddr: 0x11350, symSize: 0x10 }
  - { offset: 0x934DC, size: 0x8, addend: 0x0, symName: __ZNSt3__110__get_pairILm1EE3getB9nqe210106IK7QString8QVariantEERKT0_RKNS_4pairIT_S6_EE, symObjAddr: 0x7A50, symBinAddr: 0x11360, symSize: 0x20 }
  - { offset: 0x93512, size: 0x8, addend: 0x0, symName: __ZN10QByteArrayD2Ev, symObjAddr: 0x7A70, symBinAddr: 0x11380, symSize: 0x20 }
  - { offset: 0x9353E, size: 0x8, addend: 0x0, symName: __ZN17QArrayDataPointerIcED1Ev, symObjAddr: 0x7A90, symBinAddr: 0x113A0, symSize: 0x20 }
  - { offset: 0x93568, size: 0x8, addend: 0x0, symName: __ZN17QArrayDataPointerIcED2Ev, symObjAddr: 0x7AB0, symBinAddr: 0x113C0, symSize: 0x40 }
  - { offset: 0x93592, size: 0x8, addend: 0x0, symName: __ZN17QArrayDataPointerIcE5derefEv, symObjAddr: 0x7AF0, symBinAddr: 0x11400, symSize: 0x40 }
  - { offset: 0x935B8, size: 0x8, addend: 0x0, symName: __ZN17QArrayDataPointerIcEptEv, symObjAddr: 0x7B30, symBinAddr: 0x11440, symSize: 0x10 }
  - { offset: 0x935DE, size: 0x8, addend: 0x0, symName: __ZN9QtPrivate12QPodArrayOpsIcE10destroyAllEv, symObjAddr: 0x7B40, symBinAddr: 0x11450, symSize: 0x70 }
  - { offset: 0x93604, size: 0x8, addend: 0x0, symName: __ZN15QTypedArrayDataIcE10deallocateEP10QArrayData, symObjAddr: 0x7BB0, symBinAddr: 0x114C0, symSize: 0x30 }
  - { offset: 0x93627, size: 0x8, addend: 0x0, symName: __ZNKSt3__110unique_ptrI11QFileDeviceNS_14default_deleteIS1_EEEptB9nqe210106Ev, symObjAddr: 0x7BE0, symBinAddr: 0x114F0, symSize: 0x20 }
  - { offset: 0x9364D, size: 0x8, addend: 0x0, symName: __ZN6QFlagsIN13QIODeviceBase12OpenModeFlagEEC1ES1_, symObjAddr: 0x7C00, symBinAddr: 0x11510, symSize: 0x30 }
  - { offset: 0x93685, size: 0x8, addend: 0x0, symName: __ZNK6QFlagsIN13QIODeviceBase12OpenModeFlagEEorES1_, symObjAddr: 0x7C30, symBinAddr: 0x11540, symSize: 0x40 }
  - { offset: 0x936B9, size: 0x8, addend: 0x0, symName: __ZN6QFlagsIN13QIODeviceBase12OpenModeFlagEEC2ES1_, symObjAddr: 0x7C70, symBinAddr: 0x11580, symSize: 0x30 }
  - { offset: 0x936F1, size: 0x8, addend: 0x0, symName: __ZN9QtPrivate19QFlagsStorageHelperIN13QIODeviceBase12OpenModeFlagELi4EECI2NS_13QFlagsStorageIS2_EEENSt3__110in_place_tEj, symObjAddr: 0x7CA0, symBinAddr: 0x115B0, symSize: 0x30 }
  - { offset: 0x9372F, size: 0x8, addend: 0x0, symName: __ZN9QtPrivate13QFlagsStorageIN13QIODeviceBase12OpenModeFlagEEC2ENSt3__110in_place_tEj, symObjAddr: 0x7CD0, symBinAddr: 0x115E0, symSize: 0x20 }
  - { offset: 0x93772, size: 0x8, addend: 0x0, symName: __ZN6QFlagsIN13QIODeviceBase12OpenModeFlagEECI1N9QtPrivate13QFlagsStorageIS1_EEENSt3__110in_place_tEj, symObjAddr: 0x7CF0, symBinAddr: 0x11600, symSize: 0x30 }
  - { offset: 0x937B0, size: 0x8, addend: 0x0, symName: __ZN6QFlagsIN13QIODeviceBase12OpenModeFlagEECI2N9QtPrivate13QFlagsStorageIS1_EEENSt3__110in_place_tEj, symObjAddr: 0x7D20, symBinAddr: 0x11630, symSize: 0x30 }
  - { offset: 0x937EE, size: 0x8, addend: 0x0, symName: __ZNK6QFlagsIN5Tiled10FileFormat6OptionEE9testFlagsES3_, symObjAddr: 0x7D50, symBinAddr: 0x11660, symSize: 0x50 }
  - { offset: 0x93822, size: 0x8, addend: 0x0, symName: __ZN6QFlagsIN5Tiled10FileFormat6OptionEEC1ES2_, symObjAddr: 0x7DA0, symBinAddr: 0x116B0, symSize: 0x30 }
  - { offset: 0x9385A, size: 0x8, addend: 0x0, symName: __ZN6QFlagsIN5Tiled10FileFormat6OptionEEC2ES2_, symObjAddr: 0x7DD0, symBinAddr: 0x116E0, symSize: 0x30 }
  - { offset: 0x93892, size: 0x8, addend: 0x0, symName: __ZN9QtPrivate19QFlagsStorageHelperIN5Tiled10FileFormat6OptionELi4EECI2NS_13QFlagsStorageIS3_EEENSt3__110in_place_tEj, symObjAddr: 0x7E00, symBinAddr: 0x11710, symSize: 0x30 }
  - { offset: 0x938D0, size: 0x8, addend: 0x0, symName: __ZN9QtPrivate13QFlagsStorageIN5Tiled10FileFormat6OptionEEC2ENSt3__110in_place_tEj, symObjAddr: 0x7E30, symBinAddr: 0x11740, symSize: 0x20 }
  - { offset: 0x93913, size: 0x8, addend: 0x0, symName: __ZNKSt3__110unique_ptrI11QFileDeviceNS_14default_deleteIS1_EEE3getB9nqe210106Ev, symObjAddr: 0x7E50, symBinAddr: 0x11760, symSize: 0x20 }
  - { offset: 0x93939, size: 0x8, addend: 0x0, symName: __ZN5Tiled8SaveFileD2Ev, symObjAddr: 0x7E70, symBinAddr: 0x11780, symSize: 0x20 }
  - { offset: 0x93965, size: 0x8, addend: 0x0, symName: __ZNSt3__110unique_ptrI11QFileDeviceNS_14default_deleteIS1_EEED1B9nqe210106Ev, symObjAddr: 0x7E90, symBinAddr: 0x117A0, symSize: 0x20 }
  - { offset: 0x9398F, size: 0x8, addend: 0x0, symName: __ZNSt3__110unique_ptrI11QFileDeviceNS_14default_deleteIS1_EEED2B9nqe210106Ev, symObjAddr: 0x7EB0, symBinAddr: 0x117C0, symSize: 0x20 }
  - { offset: 0x939B9, size: 0x8, addend: 0x0, symName: __ZNSt3__110unique_ptrI11QFileDeviceNS_14default_deleteIS1_EEE5resetB9nqe210106EPS1_, symObjAddr: 0x7ED0, symBinAddr: 0x117E0, symSize: 0x40 }
  - { offset: 0x939FE, size: 0x8, addend: 0x0, symName: __ZNKSt3__114default_deleteI11QFileDeviceEclB9nqe210106EPS1_, symObjAddr: 0x7F10, symBinAddr: 0x11820, symSize: 0x30 }
  - { offset: 0x93A32, size: 0x8, addend: 0x0, symName: __ZN4QMapI7QString10QJsonArrayEC2Ev, symObjAddr: 0x7F40, symBinAddr: 0x11850, symSize: 0x20 }
  - { offset: 0x93A5C, size: 0x8, addend: 0x0, symName: __ZN9QtPrivate30QExplicitlySharedDataPointerV2I8QMapDataINSt3__13mapI7QString10QJsonArrayNS2_4lessIS4_EENS2_9allocatorINS2_4pairIKS4_S5_EEEEEEEEC1Ev, symObjAddr: 0x7F60, symBinAddr: 0x11870, symSize: 0x20 }
  - { offset: 0x93A86, size: 0x8, addend: 0x0, symName: __ZN9QtPrivate30QExplicitlySharedDataPointerV2I8QMapDataINSt3__13mapI7QString10QJsonArrayNS2_4lessIS4_EENS2_9allocatorINS2_4pairIKS4_S5_EEEEEEEEC2Ev, symObjAddr: 0x7F80, symBinAddr: 0x11890, symSize: 0x30 }
  - { offset: 0x93AB0, size: 0x8, addend: 0x0, symName: __ZN2Qt23totally_ordered_wrapperIP8QMapDataINSt3__13mapI7QString10QJsonArrayNS2_4lessIS4_EENS2_9allocatorINS2_4pairIKS4_S5_EEEEEEEEC1EDn, symObjAddr: 0x7FB0, symBinAddr: 0x118C0, symSize: 0x30 }
  - { offset: 0x93AE6, size: 0x8, addend: 0x0, symName: __ZN2Qt23totally_ordered_wrapperIP8QMapDataINSt3__13mapI7QString10QJsonArrayNS2_4lessIS4_EENS2_9allocatorINS2_4pairIKS4_S5_EEEEEEEEC1ESF_, symObjAddr: 0x7FE0, symBinAddr: 0x118F0, symSize: 0x30 }
  - { offset: 0x93B1F, size: 0x8, addend: 0x0, symName: __ZN2Qt23totally_ordered_wrapperIP8QMapDataINSt3__13mapI7QString10QJsonArrayNS2_4lessIS4_EENS2_9allocatorINS2_4pairIKS4_S5_EEEEEEEEC2ESF_, symObjAddr: 0x8010, symBinAddr: 0x11920, symSize: 0x20 }
  - { offset: 0x93B58, size: 0x8, addend: 0x0, symName: __ZNK7QPointF1xEv, symObjAddr: 0x8030, symBinAddr: 0x11940, symSize: 0x20 }
  - { offset: 0x93B80, size: 0x8, addend: 0x0, symName: __ZNK7QPointF1yEv, symObjAddr: 0x8050, symBinAddr: 0x11960, symSize: 0x20 }
  - { offset: 0x93BA8, size: 0x8, addend: 0x0, symName: __ZN4QMapI7QString8QVariantEC2ERKS2_, symObjAddr: 0x8070, symBinAddr: 0x11980, symSize: 0x30 }
  - { offset: 0x93BDD, size: 0x8, addend: 0x0, symName: __ZN9QtPrivate30QExplicitlySharedDataPointerV2I8QMapDataINSt3__13mapI7QString8QVariantNS2_4lessIS4_EENS2_9allocatorINS2_4pairIKS4_S5_EEEEEEEEC1ERKSF_, symObjAddr: 0x80A0, symBinAddr: 0x119B0, symSize: 0x30 }
  - { offset: 0x93C15, size: 0x8, addend: 0x0, symName: __ZN9QtPrivate30QExplicitlySharedDataPointerV2I8QMapDataINSt3__13mapI7QString8QVariantNS2_4lessIS4_EENS2_9allocatorINS2_4pairIKS4_S5_EEEEEEEEC2ERKSF_, symObjAddr: 0x80D0, symBinAddr: 0x119E0, symSize: 0x50 }
  - { offset: 0x93C4D, size: 0x8, addend: 0x0, symName: __ZN19QBasicAtomicIntegerIiE3refEv, symObjAddr: 0x8170, symBinAddr: 0x11A30, symSize: 0x30 }
  - { offset: 0x93C73, size: 0x8, addend: 0x0, symName: __ZN10QAtomicOpsIiE3refIiEEbRNSt3__16atomicIT_EE, symObjAddr: 0x81C0, symBinAddr: 0x11A60, symSize: 0x30 }
  - { offset: 0x93C9F, size: 0x8, addend: 0x0, symName: __ZNK5Tiled6Object9classNameEv, symObjAddr: 0x81F0, symBinAddr: 0x11A90, symSize: 0x20 }
  - { offset: 0x93CC6, size: 0x8, addend: 0x0, symName: __ZN4QMapI7QString10QJsonArrayED2Ev, symObjAddr: 0x8300, symBinAddr: 0x11AB0, symSize: 0x20 }
  - { offset: 0x93CF2, size: 0x8, addend: 0x0, symName: __ZN9QtPrivate30QExplicitlySharedDataPointerV2I8QMapDataINSt3__13mapI7QString10QJsonArrayNS2_4lessIS4_EENS2_9allocatorINS2_4pairIKS4_S5_EEEEEEEED1Ev, symObjAddr: 0x8320, symBinAddr: 0x11AD0, symSize: 0x20 }
  - { offset: 0x93D1C, size: 0x8, addend: 0x0, symName: __ZN9QtPrivate30QExplicitlySharedDataPointerV2I8QMapDataINSt3__13mapI7QString10QJsonArrayNS2_4lessIS4_EENS2_9allocatorINS2_4pairIKS4_S5_EEEEEEEED2Ev, symObjAddr: 0x8340, symBinAddr: 0x11AF0, symSize: 0x70 }
  - { offset: 0x93D46, size: 0x8, addend: 0x0, symName: __ZNK2Qt23totally_ordered_wrapperIP8QMapDataINSt3__13mapI7QString10QJsonArrayNS2_4lessIS4_EENS2_9allocatorINS2_4pairIKS4_S5_EEEEEEEEcvbEv, symObjAddr: 0x83B0, symBinAddr: 0x11B60, symSize: 0x30 }
  - { offset: 0x93D6C, size: 0x8, addend: 0x0, symName: __ZNK2Qt23totally_ordered_wrapperIP8QMapDataINSt3__13mapI7QString10QJsonArrayNS2_4lessIS4_EENS2_9allocatorINS2_4pairIKS4_S5_EEEEEEEEptEv, symObjAddr: 0x83E0, symBinAddr: 0x11B90, symSize: 0x20 }
  - { offset: 0x93D92, size: 0x8, addend: 0x0, symName: __ZNK2Qt23totally_ordered_wrapperIP8QMapDataINSt3__13mapI7QString10QJsonArrayNS2_4lessIS4_EENS2_9allocatorINS2_4pairIKS4_S5_EEEEEEEE3getEv, symObjAddr: 0x8400, symBinAddr: 0x11BB0, symSize: 0x20 }
  - { offset: 0x93DB8, size: 0x8, addend: 0x0, symName: __ZN8QMapDataINSt3__13mapI7QString10QJsonArrayNS0_4lessIS2_EENS0_9allocatorINS0_4pairIKS2_S3_EEEEEEED1Ev, symObjAddr: 0x8420, symBinAddr: 0x11BD0, symSize: 0x20 }
  - { offset: 0x93DE4, size: 0x8, addend: 0x0, symName: __ZN8QMapDataINSt3__13mapI7QString10QJsonArrayNS0_4lessIS2_EENS0_9allocatorINS0_4pairIKS2_S3_EEEEEEED2Ev, symObjAddr: 0x8440, symBinAddr: 0x11BF0, symSize: 0x20 }
  - { offset: 0x93E10, size: 0x8, addend: 0x0, symName: __ZNSt3__13mapI7QString10QJsonArrayNS_4lessIS1_EENS_9allocatorINS_4pairIKS1_S2_EEEEED1B9nqe210106Ev, symObjAddr: 0x8460, symBinAddr: 0x11C10, symSize: 0x20 }
  - { offset: 0x93E3A, size: 0x8, addend: 0x0, symName: __ZNSt3__13mapI7QString10QJsonArrayNS_4lessIS1_EENS_9allocatorINS_4pairIKS1_S2_EEEEED2B9nqe210106Ev, symObjAddr: 0x8480, symBinAddr: 0x11C30, symSize: 0x20 }
  - { offset: 0x93E64, size: 0x8, addend: 0x0, symName: __ZNSt3__16__treeINS_12__value_typeI7QString10QJsonArrayEENS_19__map_value_compareIS2_NS_4pairIKS2_S3_EENS_4lessIS2_EELb1EEENS_9allocatorIS8_EEED1Ev, symObjAddr: 0x84A0, symBinAddr: 0x11C50, symSize: 0x20 }
  - { offset: 0x93E90, size: 0x8, addend: 0x0, symName: __ZNSt3__16__treeINS_12__value_typeI7QString10QJsonArrayEENS_19__map_value_compareIS2_NS_4pairIKS2_S3_EENS_4lessIS2_EELb1EEENS_9allocatorIS8_EEED2Ev, symObjAddr: 0x84C0, symBinAddr: 0x11C70, symSize: 0x30 }
  - { offset: 0x93EBC, size: 0x8, addend: 0x0, symName: __ZNSt3__16__treeINS_12__value_typeI7QString10QJsonArrayEENS_19__map_value_compareIS2_NS_4pairIKS2_S3_EENS_4lessIS2_EELb1EEENS_9allocatorIS8_EEE7destroyEPNS_11__tree_nodeIS4_PvEE, symObjAddr: 0x84F0, symBinAddr: 0x11CA0, symSize: 0x80 }
  - { offset: 0x93F0A, size: 0x8, addend: 0x0, symName: __ZNKSt3__16__treeINS_12__value_typeI7QString10QJsonArrayEENS_19__map_value_compareIS2_NS_4pairIKS2_S3_EENS_4lessIS2_EELb1EEENS_9allocatorIS8_EEE6__rootB9nqe210106Ev, symObjAddr: 0x8570, symBinAddr: 0x11D20, symSize: 0x20 }
  - { offset: 0x93F30, size: 0x8, addend: 0x0, symName: __ZNSt3__16__treeINS_12__value_typeI7QString10QJsonArrayEENS_19__map_value_compareIS2_NS_4pairIKS2_S3_EENS_4lessIS2_EELb1EEENS_9allocatorIS8_EEE12__node_allocB9nqe210106Ev, symObjAddr: 0x8590, symBinAddr: 0x11D40, symSize: 0x20 }
  - { offset: 0x93F56, size: 0x8, addend: 0x0, symName: __ZNSt3__116allocator_traitsINS_9allocatorINS_11__tree_nodeINS_12__value_typeI7QString10QJsonArrayEEPvEEEEE7destroyB9nqe210106INS_4pairIKS4_S5_EELi0EEEvRS9_PT_, symObjAddr: 0x85B0, symBinAddr: 0x11D60, symSize: 0x20 }
  - { offset: 0x93F95, size: 0x8, addend: 0x0, symName: __ZNSt3__116allocator_traitsINS_9allocatorINS_11__tree_nodeINS_12__value_typeI7QString10QJsonArrayEEPvEEEEE10deallocateB9nqe210106ERS9_PS8_m, symObjAddr: 0x85D0, symBinAddr: 0x11D80, symSize: 0x30 }
  - { offset: 0x93FD7, size: 0x8, addend: 0x0, symName: __ZNSt3__14pairIK7QString10QJsonArrayED1Ev, symObjAddr: 0x8620, symBinAddr: 0x11DD0, symSize: 0x20 }
  - { offset: 0x94003, size: 0x8, addend: 0x0, symName: __ZNSt3__14pairIK7QString10QJsonArrayED2Ev, symObjAddr: 0x8640, symBinAddr: 0x11DF0, symSize: 0x30 }
  - { offset: 0x9402F, size: 0x8, addend: 0x0, symName: __ZNSt3__19allocatorINS_11__tree_nodeINS_12__value_typeI7QString10QJsonArrayEEPvEEE10deallocateB9nqe210106EPS7_m, symObjAddr: 0x8670, symBinAddr: 0x11E20, symSize: 0x30 }
  - { offset: 0x94071, size: 0x8, addend: 0x0, symName: __ZNKSt3__16__treeINS_12__value_typeI7QString10QJsonArrayEENS_19__map_value_compareIS2_NS_4pairIKS2_S3_EENS_4lessIS2_EELb1EEENS_9allocatorIS8_EEE10__end_nodeB9nqe210106Ev, symObjAddr: 0x8710, symBinAddr: 0x11EA0, symSize: 0x20 }
  - { offset: 0x94097, size: 0x8, addend: 0x0, symName: __ZNK5Tiled9TileLayer9findChunkEii, symObjAddr: 0x8740, symBinAddr: 0x11EC0, symSize: 0xA0 }
  - { offset: 0x940FD, size: 0x8, addend: 0x0, symName: __ZNK5Tiled5Chunk6cellAtEii, symObjAddr: 0x87E0, symBinAddr: 0x11F60, symSize: 0x30 }
  - { offset: 0x94140, size: 0x8, addend: 0x0, symName: __ZN6QPointC1Eii, symObjAddr: 0x8810, symBinAddr: 0x11F90, symSize: 0x30 }
  - { offset: 0x94187, size: 0x8, addend: 0x0, symName: __ZNK5QHashI6QPointN5Tiled5ChunkEE4findERKS0_, symObjAddr: 0x8840, symBinAddr: 0x11FC0, symSize: 0x40 }
  - { offset: 0x941BC, size: 0x8, addend: 0x0, symName: __ZNK5QHashI6QPointN5Tiled5ChunkEE14const_iteratorneERKS4_, symObjAddr: 0x8880, symBinAddr: 0x12000, symSize: 0x40 }
  - { offset: 0x941F1, size: 0x8, addend: 0x0, symName: __ZNK5QHashI6QPointN5Tiled5ChunkEE3endEv, symObjAddr: 0x88C0, symBinAddr: 0x12040, symSize: 0x30 }
  - { offset: 0x94217, size: 0x8, addend: 0x0, symName: __ZNK5QHashI6QPointN5Tiled5ChunkEE14const_iterator5valueEv, symObjAddr: 0x88F0, symBinAddr: 0x12070, symSize: 0x20 }
  - { offset: 0x9423D, size: 0x8, addend: 0x0, symName: __ZN6QPointC2Eii, symObjAddr: 0x8910, symBinAddr: 0x12090, symSize: 0x40 }
  - { offset: 0x94284, size: 0x8, addend: 0x0, symName: __ZN9QtPrivate16QCheckedIntegers11QCheckedIntIiNS0_13SafeCheckImplIiEENS0_18AssertReportPolicyEEC1Ei, symObjAddr: 0x8950, symBinAddr: 0x120D0, symSize: 0x30 }
  - { offset: 0x942BC, size: 0x8, addend: 0x0, symName: __ZN9QtPrivate16QCheckedIntegers11QCheckedIntIiNS0_13SafeCheckImplIiEENS0_18AssertReportPolicyEEC2Ei, symObjAddr: 0x8980, symBinAddr: 0x12100, symSize: 0x20 }
  - { offset: 0x942F4, size: 0x8, addend: 0x0, symName: __ZNK5QHashI6QPointN5Tiled5ChunkEE13constFindImplIS0_EENS3_14const_iteratorERKT_, symObjAddr: 0x89A0, symBinAddr: 0x12120, symSize: 0xC0 }
  - { offset: 0x94342, size: 0x8, addend: 0x0, symName: __ZNK5QHashI6QPointN5Tiled5ChunkEE7isEmptyEv, symObjAddr: 0x8A60, symBinAddr: 0x121E0, symSize: 0x40 }
  - { offset: 0x94368, size: 0x8, addend: 0x0, symName: __ZNK12QHashPrivate4DataINS_4NodeI6QPointN5Tiled5ChunkEEEE10findBucketIS2_EENS6_6BucketERKT_, symObjAddr: 0x8AA0, symBinAddr: 0x12220, symSize: 0x70 }
  - { offset: 0x943B6, size: 0x8, addend: 0x0, symName: __ZNK12QHashPrivate4DataINS_4NodeI6QPointN5Tiled5ChunkEEEE6Bucket8isUnusedEv, symObjAddr: 0x8B10, symBinAddr: 0x12290, symSize: 0x30 }
  - { offset: 0x943DC, size: 0x8, addend: 0x0, symName: __ZNK12QHashPrivate4DataINS_4NodeI6QPointN5Tiled5ChunkEEEE6Bucket13toBucketIndexEPKS6_, symObjAddr: 0x8B40, symBinAddr: 0x122C0, symSize: 0x40 }
  - { offset: 0x94411, size: 0x8, addend: 0x0, symName: __ZN5QHashI6QPointN5Tiled5ChunkEE14const_iteratorC1EN12QHashPrivate8iteratorINS5_4NodeIS0_S2_EEEE, symObjAddr: 0x8B80, symBinAddr: 0x12300, symSize: 0x30 }
  - { offset: 0x9444A, size: 0x8, addend: 0x0, symName: __ZNK12QHashPrivate4DataINS_4NodeI6QPointN5Tiled5ChunkEEEE18findBucketWithHashIS2_EENS6_6BucketERKT_m, symObjAddr: 0x8BE0, symBinAddr: 0x12360, symSize: 0xE0 }
  - { offset: 0x944D5, size: 0x8, addend: 0x0, symName: __ZN12QHashPrivate4DataINS_4NodeI6QPointN5Tiled5ChunkEEEE6BucketC1EPKS6_m, symObjAddr: 0x8CE0, symBinAddr: 0x12460, symSize: 0x30 }
  - { offset: 0x9451D, size: 0x8, addend: 0x0, symName: __ZNK12QHashPrivate4DataINS_4NodeI6QPointN5Tiled5ChunkEEEE6Bucket6offsetEv, symObjAddr: 0x8D10, symBinAddr: 0x12490, symSize: 0x30 }
  - { offset: 0x94543, size: 0x8, addend: 0x0, symName: __ZN12QHashPrivate4DataINS_4NodeI6QPointN5Tiled5ChunkEEEE6Bucket12nodeAtOffsetEm, symObjAddr: 0x8D40, symBinAddr: 0x124C0, symSize: 0x30 }
  - { offset: 0x94577, size: 0x8, addend: 0x0, symName: __Z11qHashEqualsI6QPointEbRKT_S3_, symObjAddr: 0x8D70, symBinAddr: 0x124F0, symSize: 0x30 }
  - { offset: 0x945BE, size: 0x8, addend: 0x0, symName: __ZN12QHashPrivate4DataINS_4NodeI6QPointN5Tiled5ChunkEEEE6Bucket14advanceWrappedEPKS6_, symObjAddr: 0x8DA0, symBinAddr: 0x12520, symSize: 0x30 }
  - { offset: 0x945F3, size: 0x8, addend: 0x0, symName: __ZN12QHashPrivate4DataINS_4NodeI6QPointN5Tiled5ChunkEEEE6BucketC2EPKS6_m, symObjAddr: 0x8DD0, symBinAddr: 0x12550, symSize: 0x40 }
  - { offset: 0x9463B, size: 0x8, addend: 0x0, symName: __ZNK12QHashPrivate4SpanINS_4NodeI6QPointN5Tiled5ChunkEEEE6offsetEm, symObjAddr: 0x8E10, symBinAddr: 0x12590, symSize: 0x20 }
  - { offset: 0x94670, size: 0x8, addend: 0x0, symName: __ZN12QHashPrivate4SpanINS_4NodeI6QPointN5Tiled5ChunkEEEE8atOffsetEm, symObjAddr: 0x8E30, symBinAddr: 0x125B0, symSize: 0x80 }
  - { offset: 0x946A5, size: 0x8, addend: 0x0, symName: __ZN12QHashPrivate4SpanINS_4NodeI6QPointN5Tiled5ChunkEEEE5Entry4nodeEv, symObjAddr: 0x8EB0, symBinAddr: 0x12630, symSize: 0x10 }
  - { offset: 0x946CA, size: 0x8, addend: 0x0, symName: __ZeqRK6QPointS1_, symObjAddr: 0x8EC0, symBinAddr: 0x12640, symSize: 0x30 }
  - { offset: 0x94718, size: 0x8, addend: 0x0, symName: __Z13comparesEqualRK6QPointS1_, symObjAddr: 0x8EF0, symBinAddr: 0x12670, symSize: 0x50 }
  - { offset: 0x94753, size: 0x8, addend: 0x0, symName: __ZN12QHashPrivate4DataINS_4NodeI6QPointN5Tiled5ChunkEEEE6Bucket12advance_implEPKS6_PNS_4SpanIS5_EE, symObjAddr: 0x8FA0, symBinAddr: 0x12720, symSize: 0xC0 }
  - { offset: 0x94797, size: 0x8, addend: 0x0, symName: __ZNK12QHashPrivate4SpanINS_4NodeI6QPointN5Tiled5ChunkEEEE7hasNodeEm, symObjAddr: 0x9060, symBinAddr: 0x127E0, symSize: 0x30 }
  - { offset: 0x947CC, size: 0x8, addend: 0x0, symName: __ZN5QHashI6QPointN5Tiled5ChunkEE14const_iteratorC2EN12QHashPrivate8iteratorINS5_4NodeIS0_S2_EEEE, symObjAddr: 0x9090, symBinAddr: 0x12810, symSize: 0x30 }
  - { offset: 0x94805, size: 0x8, addend: 0x0, symName: __ZNK12QHashPrivate8iteratorINS_4NodeI6QPointN5Tiled5ChunkEEEEneES6_, symObjAddr: 0x90C0, symBinAddr: 0x12840, symSize: 0x40 }
  - { offset: 0x9483A, size: 0x8, addend: 0x0, symName: __ZNK12QHashPrivate8iteratorINS_4NodeI6QPointN5Tiled5ChunkEEEEeqES6_, symObjAddr: 0x9100, symBinAddr: 0x12880, symSize: 0x40 }
  - { offset: 0x9486F, size: 0x8, addend: 0x0, symName: __ZN5QHashI6QPointN5Tiled5ChunkEE14const_iteratorC1Ev, symObjAddr: 0x9140, symBinAddr: 0x128C0, symSize: 0x20 }
  - { offset: 0x94899, size: 0x8, addend: 0x0, symName: __ZN5QHashI6QPointN5Tiled5ChunkEE14const_iteratorC2Ev, symObjAddr: 0x9160, symBinAddr: 0x128E0, symSize: 0x20 }
  - { offset: 0x948C3, size: 0x8, addend: 0x0, symName: __ZN12QHashPrivate8iteratorINS_4NodeI6QPointN5Tiled5ChunkEEEEC1Ev, symObjAddr: 0x9180, symBinAddr: 0x12900, symSize: 0x20 }
  - { offset: 0x948F0, size: 0x8, addend: 0x0, symName: __ZN12QHashPrivate8iteratorINS_4NodeI6QPointN5Tiled5ChunkEEEEC2Ev, symObjAddr: 0x91A0, symBinAddr: 0x12920, symSize: 0x20 }
  - { offset: 0x9491D, size: 0x8, addend: 0x0, symName: __ZNK12QHashPrivate8iteratorINS_4NodeI6QPointN5Tiled5ChunkEEEE4nodeEv, symObjAddr: 0x91C0, symBinAddr: 0x12940, symSize: 0x80 }
  - { offset: 0x94943, size: 0x8, addend: 0x0, symName: __ZNK12QHashPrivate8iteratorINS_4NodeI6QPointN5Tiled5ChunkEEEE8isUnusedEv, symObjAddr: 0x9240, symBinAddr: 0x129C0, symSize: 0x60 }
  - { offset: 0x94969, size: 0x8, addend: 0x0, symName: __ZNK12QHashPrivate8iteratorINS_4NodeI6QPointN5Tiled5ChunkEEEE4spanEv, symObjAddr: 0x92A0, symBinAddr: 0x12A20, symSize: 0x20 }
  - { offset: 0x9498F, size: 0x8, addend: 0x0, symName: __ZN12QHashPrivate4SpanINS_4NodeI6QPointN5Tiled5ChunkEEEE2atEm, symObjAddr: 0x92C0, symBinAddr: 0x12A40, symSize: 0x90 }
  - { offset: 0x949C4, size: 0x8, addend: 0x0, symName: __ZNK12QHashPrivate8iteratorINS_4NodeI6QPointN5Tiled5ChunkEEEE5indexEv, symObjAddr: 0x9350, symBinAddr: 0x12AD0, symSize: 0x20 }
  - { offset: 0x949EA, size: 0x8, addend: 0x0, symName: __ZNK5QListIN5Tiled4CellEE2atEx, symObjAddr: 0x9370, symBinAddr: 0x12AF0, symSize: 0x70 }
  - { offset: 0x94A1F, size: 0x8, addend: 0x0, symName: __ZNK17QArrayDataPointerIN5Tiled4CellEEptEv, symObjAddr: 0x93E0, symBinAddr: 0x12B60, symSize: 0x10 }
  - { offset: 0x94A45, size: 0x8, addend: 0x0, symName: __ZNK5QListIN5Tiled4CellEE4dataEv, symObjAddr: 0x93F0, symBinAddr: 0x12B70, symSize: 0x30 }
  - { offset: 0x94A6B, size: 0x8, addend: 0x0, symName: __ZNK17QArrayDataPointerIN5Tiled4CellEE4dataEv, symObjAddr: 0x9420, symBinAddr: 0x12BA0, symSize: 0x20 }
  - { offset: 0x94A91, size: 0x8, addend: 0x0, symName: __ZNSt3__18functionIFvvEED2Ev, symObjAddr: 0x9440, symBinAddr: 0x12BC0, symSize: 0x20 }
  - { offset: 0x94ABB, size: 0x8, addend: 0x0, symName: __ZNSt3__110__function12__value_funcIFvvEED1B9nqe210106Ev, symObjAddr: 0x9460, symBinAddr: 0x12BE0, symSize: 0x20 }
  - { offset: 0x94AE5, size: 0x8, addend: 0x0, symName: __ZNSt3__110__function12__value_funcIFvvEED2B9nqe210106Ev, symObjAddr: 0x9480, symBinAddr: 0x12C00, symSize: 0x50 }
  - { offset: 0x94B0F, size: 0x8, addend: 0x0, symName: __ZNK17QArrayDataPointerIPN5Tiled9MapObjectEEptEv, symObjAddr: 0x94D0, symBinAddr: 0x12C50, symSize: 0x10 }
  - { offset: 0x94B35, size: 0x8, addend: 0x0, symName: __ZNK17QArrayDataPointerIPN5Tiled9MapObjectEE10constBeginEv, symObjAddr: 0x94E0, symBinAddr: 0x12C60, symSize: 0x20 }
  - { offset: 0x94B5B, size: 0x8, addend: 0x0, symName: __ZN5QListIPN5Tiled9MapObjectEE14const_iteratorC1EPKS2_, symObjAddr: 0x9500, symBinAddr: 0x12C80, symSize: 0x30 }
  - { offset: 0x94B93, size: 0x8, addend: 0x0, symName: __ZNK17QArrayDataPointerIPN5Tiled9MapObjectEE4dataEv, symObjAddr: 0x9530, symBinAddr: 0x12CB0, symSize: 0x20 }
  - { offset: 0x94BB9, size: 0x8, addend: 0x0, symName: __ZN5QListIPN5Tiled9MapObjectEE14const_iteratorC2EPKS2_, symObjAddr: 0x9550, symBinAddr: 0x12CD0, symSize: 0x20 }
  - { offset: 0x94BF1, size: 0x8, addend: 0x0, symName: __ZNK17QArrayDataPointerIPN5Tiled9MapObjectEE8constEndEv, symObjAddr: 0x9570, symBinAddr: 0x12CF0, symSize: 0x30 }
  - { offset: 0x94C17, size: 0x8, addend: 0x0, symName: __ZNK5QHashI14QSharedPointerIN5Tiled7TilesetEE15QHashDummyValueE7isEmptyEv, symObjAddr: 0x95A0, symBinAddr: 0x12D20, symSize: 0x40 }
  - { offset: 0x94C3D, size: 0x8, addend: 0x0, symName: __ZNK5QHashI14QSharedPointerIN5Tiled7TilesetEE15QHashDummyValueE4sizeEv, symObjAddr: 0x97A0, symBinAddr: 0x12D60, symSize: 0x40 }
  - { offset: 0x94C63, size: 0x8, addend: 0x0, symName: __ZNK5QHashI14QSharedPointerIN5Tiled7TilesetEE15QHashDummyValueE5beginEv, symObjAddr: 0x97E0, symBinAddr: 0x12DA0, symSize: 0x80 }
  - { offset: 0x94C89, size: 0x8, addend: 0x0, symName: __ZN4QSetI14QSharedPointerIN5Tiled7TilesetEEE14const_iteratorC1EN5QHashIS3_15QHashDummyValueE14const_iteratorE, symObjAddr: 0x9860, symBinAddr: 0x12E20, symSize: 0x30 }
  - { offset: 0x94CC1, size: 0x8, addend: 0x0, symName: __ZNK12QHashPrivate4DataINS_4NodeI14QSharedPointerIN5Tiled7TilesetEE15QHashDummyValueEEE5beginEv, symObjAddr: 0x9890, symBinAddr: 0x12E50, symSize: 0x50 }
  - { offset: 0x94CF7, size: 0x8, addend: 0x0, symName: __ZN5QHashI14QSharedPointerIN5Tiled7TilesetEE15QHashDummyValueE14const_iteratorC1EN12QHashPrivate8iteratorINS7_4NodeIS3_S4_EEEE, symObjAddr: 0x98E0, symBinAddr: 0x12EA0, symSize: 0x30 }
  - { offset: 0x94D30, size: 0x8, addend: 0x0, symName: __ZN5QHashI14QSharedPointerIN5Tiled7TilesetEE15QHashDummyValueE14const_iteratorC1Ev, symObjAddr: 0x9910, symBinAddr: 0x12ED0, symSize: 0x20 }
  - { offset: 0x94D5A, size: 0x8, addend: 0x0, symName: __ZNK12QHashPrivate8iteratorINS_4NodeI14QSharedPointerIN5Tiled7TilesetEE15QHashDummyValueEEE8isUnusedEv, symObjAddr: 0x9930, symBinAddr: 0x12EF0, symSize: 0x60 }
  - { offset: 0x94D80, size: 0x8, addend: 0x0, symName: __ZN12QHashPrivate8iteratorINS_4NodeI14QSharedPointerIN5Tiled7TilesetEE15QHashDummyValueEEEppEv, symObjAddr: 0x9990, symBinAddr: 0x12F50, symSize: 0x80 }
  - { offset: 0x94DA6, size: 0x8, addend: 0x0, symName: __ZNK12QHashPrivate8iteratorINS_4NodeI14QSharedPointerIN5Tiled7TilesetEE15QHashDummyValueEEE4spanEv, symObjAddr: 0x9A10, symBinAddr: 0x12FD0, symSize: 0x20 }
  - { offset: 0x94DCC, size: 0x8, addend: 0x0, symName: __ZNK12QHashPrivate4SpanINS_4NodeI14QSharedPointerIN5Tiled7TilesetEE15QHashDummyValueEEE7hasNodeEm, symObjAddr: 0x9A30, symBinAddr: 0x12FF0, symSize: 0x30 }
  - { offset: 0x94E01, size: 0x8, addend: 0x0, symName: __ZNK12QHashPrivate8iteratorINS_4NodeI14QSharedPointerIN5Tiled7TilesetEE15QHashDummyValueEEE5indexEv, symObjAddr: 0x9A60, symBinAddr: 0x13020, symSize: 0x20 }
  - { offset: 0x94E27, size: 0x8, addend: 0x0, symName: __ZN5QHashI14QSharedPointerIN5Tiled7TilesetEE15QHashDummyValueE14const_iteratorC2EN12QHashPrivate8iteratorINS7_4NodeIS3_S4_EEEE, symObjAddr: 0x9A80, symBinAddr: 0x13040, symSize: 0x30 }
  - { offset: 0x94E60, size: 0x8, addend: 0x0, symName: __ZN5QHashI14QSharedPointerIN5Tiled7TilesetEE15QHashDummyValueE14const_iteratorC2Ev, symObjAddr: 0x9AB0, symBinAddr: 0x13070, symSize: 0x20 }
  - { offset: 0x94E8A, size: 0x8, addend: 0x0, symName: __ZN12QHashPrivate8iteratorINS_4NodeI14QSharedPointerIN5Tiled7TilesetEE15QHashDummyValueEEEC1Ev, symObjAddr: 0x9AD0, symBinAddr: 0x13090, symSize: 0x20 }
  - { offset: 0x94EB7, size: 0x8, addend: 0x0, symName: __ZN12QHashPrivate8iteratorINS_4NodeI14QSharedPointerIN5Tiled7TilesetEE15QHashDummyValueEEEC2Ev, symObjAddr: 0x9AF0, symBinAddr: 0x130B0, symSize: 0x20 }
  - { offset: 0x94EE4, size: 0x8, addend: 0x0, symName: __ZN4QSetI14QSharedPointerIN5Tiled7TilesetEEE14const_iteratorC2EN5QHashIS3_15QHashDummyValueE14const_iteratorE, symObjAddr: 0x9B10, symBinAddr: 0x130D0, symSize: 0x30 }
  - { offset: 0x94F1C, size: 0x8, addend: 0x0, symName: __ZNK5QHashI14QSharedPointerIN5Tiled7TilesetEE15QHashDummyValueE3endEv, symObjAddr: 0x9B40, symBinAddr: 0x13100, symSize: 0x30 }
  - { offset: 0x94F42, size: 0x8, addend: 0x0, symName: __ZNK5QHashI14QSharedPointerIN5Tiled7TilesetEE15QHashDummyValueE14const_iteratorneERKS6_, symObjAddr: 0x9B70, symBinAddr: 0x13130, symSize: 0x40 }
  - { offset: 0x94F77, size: 0x8, addend: 0x0, symName: __ZNK12QHashPrivate8iteratorINS_4NodeI14QSharedPointerIN5Tiled7TilesetEE15QHashDummyValueEEEneES8_, symObjAddr: 0x9BB0, symBinAddr: 0x13170, symSize: 0x40 }
  - { offset: 0x94FAC, size: 0x8, addend: 0x0, symName: __ZNK12QHashPrivate8iteratorINS_4NodeI14QSharedPointerIN5Tiled7TilesetEE15QHashDummyValueEEEeqES8_, symObjAddr: 0x9BF0, symBinAddr: 0x131B0, symSize: 0x40 }
  - { offset: 0x94FE1, size: 0x8, addend: 0x0, symName: __ZN5QHashI14QSharedPointerIN5Tiled7TilesetEE15QHashDummyValueE14const_iteratorppEv, symObjAddr: 0x9C30, symBinAddr: 0x131F0, symSize: 0x30 }
  - { offset: 0x95007, size: 0x8, addend: 0x0, symName: __ZNK5QHashI14QSharedPointerIN5Tiled7TilesetEE15QHashDummyValueE14const_iterator3keyEv, symObjAddr: 0x9C60, symBinAddr: 0x13220, symSize: 0x20 }
  - { offset: 0x9502D, size: 0x8, addend: 0x0, symName: __ZNK12QHashPrivate8iteratorINS_4NodeI14QSharedPointerIN5Tiled7TilesetEE15QHashDummyValueEEE4nodeEv, symObjAddr: 0x9C80, symBinAddr: 0x13240, symSize: 0x80 }
  - { offset: 0x95053, size: 0x8, addend: 0x0, symName: __ZN12QHashPrivate4SpanINS_4NodeI14QSharedPointerIN5Tiled7TilesetEE15QHashDummyValueEEE2atEm, symObjAddr: 0x9D00, symBinAddr: 0x132C0, symSize: 0x90 }
  - { offset: 0x95088, size: 0x8, addend: 0x0, symName: __ZNK2Qt23totally_ordered_wrapperIPN5Tiled7TilesetEE3getEv, symObjAddr: 0x9D90, symBinAddr: 0x13350, symSize: 0x20 }
  - { offset: 0x950AE, size: 0x8, addend: 0x0, symName: __ZN5QListI7QStringEC2ESt16initializer_listIS0_E, symObjAddr: 0x9DB0, symBinAddr: 0x13370, symSize: 0xD0 }
  - { offset: 0x950E7, size: 0x8, addend: 0x0, symName: __ZNKSt16initializer_listI7QStringE4sizeB9nqe210106Ev, symObjAddr: 0x9E80, symBinAddr: 0x13440, symSize: 0x20 }
  - { offset: 0x9510D, size: 0x8, addend: 0x0, symName: __ZN17QArrayDataPointerI7QStringEC1ExxN10QArrayData16AllocationOptionE, symObjAddr: 0x9EA0, symBinAddr: 0x13460, symSize: 0x50 }
  - { offset: 0x95161, size: 0x8, addend: 0x0, symName: __ZN9QtPrivate16QGenericArrayOpsI7QStringE10copyAppendEPKS1_S4_, symObjAddr: 0x9EF0, symBinAddr: 0x134B0, symSize: 0x150 }
  - { offset: 0x951B5, size: 0x8, addend: 0x0, symName: __ZNKSt16initializer_listI7QStringE5beginB9nqe210106Ev, symObjAddr: 0xA040, symBinAddr: 0x13600, symSize: 0x20 }
  - { offset: 0x951DB, size: 0x8, addend: 0x0, symName: __ZNKSt16initializer_listI7QStringE3endB9nqe210106Ev, symObjAddr: 0xA060, symBinAddr: 0x13620, symSize: 0x20 }
  - { offset: 0x95201, size: 0x8, addend: 0x0, symName: __ZN15QTypedArrayDataI7QStringE8allocateExN10QArrayData16AllocationOptionE, symObjAddr: 0xA080, symBinAddr: 0x13640, symSize: 0x60 }
  - { offset: 0x9524E, size: 0x8, addend: 0x0, symName: __ZN17QArrayDataPointerI7QStringEC1ENSt3__14pairIP15QTypedArrayDataIS0_EPS0_EEx, symObjAddr: 0xA0E0, symBinAddr: 0x136A0, symSize: 0x40 }
  - { offset: 0x9529E, size: 0x8, addend: 0x0, symName: __ZNSt3__14pairIP15QTypedArrayDataI7QStringEPS2_EC1B9nqe210106IS4_S5_Li0EEEOT_OT0_, symObjAddr: 0xA120, symBinAddr: 0x136E0, symSize: 0x30 }
  - { offset: 0x952FC, size: 0x8, addend: 0x0, symName: __ZNSt3__14pairIP15QTypedArrayDataI7QStringEPS2_EC2B9nqe210106IS4_S5_Li0EEEOT_OT0_, symObjAddr: 0xA150, symBinAddr: 0x13710, symSize: 0x30 }
  - { offset: 0x9535A, size: 0x8, addend: 0x0, symName: __ZN17QArrayDataPointerI7QStringEC2ENSt3__14pairIP15QTypedArrayDataIS0_EPS0_EEx, symObjAddr: 0xA180, symBinAddr: 0x13740, symSize: 0x40 }
  - { offset: 0x953A0, size: 0x8, addend: 0x0, symName: __ZNK17QArrayDataPointerI7QStringE9isMutableEv, symObjAddr: 0xA1C0, symBinAddr: 0x13780, symSize: 0x20 }
  - { offset: 0x953C6, size: 0x8, addend: 0x0, symName: __ZNK17QArrayDataPointerI7QStringE8isSharedEv, symObjAddr: 0xA1E0, symBinAddr: 0x137A0, symSize: 0x40 }
  - { offset: 0x953EC, size: 0x8, addend: 0x0, symName: __ZNK17QArrayDataPointerI7QStringE14freeSpaceAtEndEv, symObjAddr: 0xA220, symBinAddr: 0x137E0, symSize: 0x60 }
  - { offset: 0x95412, size: 0x8, addend: 0x0, symName: __ZNK17QArrayDataPointerI7QStringE16freeSpaceAtBeginEv, symObjAddr: 0xA2D0, symBinAddr: 0x13840, symSize: 0x60 }
  - { offset: 0x95438, size: 0x8, addend: 0x0, symName: __ZN15QTypedArrayDataI7QStringE9dataStartEP10QArrayDatax, symObjAddr: 0xA330, symBinAddr: 0x138A0, symSize: 0x80 }
  - { offset: 0x95477, size: 0x8, addend: 0x0, symName: __ZNK17QArrayDataPointerIPN5Tiled5LayerEEptEv, symObjAddr: 0xA3B0, symBinAddr: 0x13920, symSize: 0x10 }
  - { offset: 0x9549D, size: 0x8, addend: 0x0, symName: __ZNK17QArrayDataPointerIPN5Tiled5LayerEE10constBeginEv, symObjAddr: 0xA3C0, symBinAddr: 0x13930, symSize: 0x20 }
  - { offset: 0x954C3, size: 0x8, addend: 0x0, symName: __ZN5QListIPN5Tiled5LayerEE14const_iteratorC1EPKS2_, symObjAddr: 0xA3E0, symBinAddr: 0x13950, symSize: 0x30 }
  - { offset: 0x954FB, size: 0x8, addend: 0x0, symName: __ZNK17QArrayDataPointerIPN5Tiled5LayerEE4dataEv, symObjAddr: 0xA410, symBinAddr: 0x13980, symSize: 0x20 }
  - { offset: 0x95521, size: 0x8, addend: 0x0, symName: __ZN5QListIPN5Tiled5LayerEE14const_iteratorC2EPKS2_, symObjAddr: 0xA430, symBinAddr: 0x139A0, symSize: 0x20 }
  - { offset: 0x95559, size: 0x8, addend: 0x0, symName: __ZNK17QArrayDataPointerIPN5Tiled5LayerEE8constEndEv, symObjAddr: 0xA450, symBinAddr: 0x139C0, symSize: 0x30 }
  - { offset: 0x9557F, size: 0x8, addend: 0x0, symName: __ZNSt3__18functionIFvvEEC2B9nqe210106Ev, symObjAddr: 0xA480, symBinAddr: 0x139F0, symSize: 0x20 }
  - { offset: 0x955A9, size: 0x8, addend: 0x0, symName: __ZNSt3__110__function12__value_funcIFvvEEC1B9nqe210106Ev, symObjAddr: 0xA4A0, symBinAddr: 0x13A10, symSize: 0x20 }
  - { offset: 0x955D3, size: 0x8, addend: 0x0, symName: __ZNSt3__110__function12__value_funcIFvvEEC2B9nqe210106Ev, symObjAddr: 0xA4C0, symBinAddr: 0x13A30, symSize: 0x20 }
  - { offset: 0x955FD, size: 0x8, addend: 0x0, symName: __ZNSt3__13mapI7QString8QVariantNS_4lessIS1_EENS_9allocatorINS_4pairIKS1_S2_EEEEEC1B9nqe210106ERKSA_, symObjAddr: 0xA530, symBinAddr: 0x13A50, symSize: 0x30 }
  - { offset: 0x95636, size: 0x8, addend: 0x0, symName: __ZNSt3__13mapI7QString8QVariantNS_4lessIS1_EENS_9allocatorINS_4pairIKS1_S2_EEEEEC1B9nqe210106Ev, symObjAddr: 0xA560, symBinAddr: 0x13A80, symSize: 0x20 }
  - { offset: 0x95660, size: 0x8, addend: 0x0, symName: __ZNSt3__13mapI7QString8QVariantNS_4lessIS1_EENS_9allocatorINS_4pairIKS1_S2_EEEEEC2B9nqe210106ERKSA_, symObjAddr: 0xA580, symBinAddr: 0x13AA0, symSize: 0x80 }
  - { offset: 0x95699, size: 0x8, addend: 0x0, symName: __ZNSt3__16__treeINS_12__value_typeI7QString8QVariantEENS_19__map_value_compareIS2_NS_4pairIKS2_S3_EENS_4lessIS2_EELb1EEENS_9allocatorIS8_EEEC1ERKSE_, symObjAddr: 0xA600, symBinAddr: 0x13B20, symSize: 0x30 }
  - { offset: 0x956D4, size: 0x8, addend: 0x0, symName: __ZNSt3__13mapI7QString8QVariantNS_4lessIS1_EENS_9allocatorINS_4pairIKS1_S2_EEEEE6insertB9nqe210106INS_20__map_const_iteratorINS_21__tree_const_iteratorINS_12__value_typeIS1_S2_EEPNS_11__tree_nodeISF_PvEElEEEEEEvT_SM_, symObjAddr: 0xA630, symBinAddr: 0x13B50, symSize: 0x80 }
  - { offset: 0x95740, size: 0x8, addend: 0x0, symName: __ZNSt3__16__treeINS_12__value_typeI7QString8QVariantEENS_19__map_value_compareIS2_NS_4pairIKS2_S3_EENS_4lessIS2_EELb1EEENS_9allocatorIS8_EEEC2ERKSE_, symObjAddr: 0xA730, symBinAddr: 0x13BD0, symSize: 0x80 }
  - { offset: 0x9577B, size: 0x8, addend: 0x0, symName: __ZNSt3__115__tree_end_nodeIPNS_16__tree_node_baseIPvEEEC1B9nqe210106Ev, symObjAddr: 0xA7B0, symBinAddr: 0x13C50, symSize: 0x20 }
  - { offset: 0x957AF, size: 0x8, addend: 0x0, symName: __ZNSt3__116allocator_traitsINS_9allocatorINS_11__tree_nodeINS_12__value_typeI7QString8QVariantEEPvEEEEE37select_on_container_copy_constructionB9nqe210106IS9_Li0EEES9_RKS9_, symObjAddr: 0xA7D0, symBinAddr: 0x13C70, symSize: 0x10 }
  - { offset: 0x957E2, size: 0x8, addend: 0x0, symName: __ZNKSt3__16__treeINS_12__value_typeI7QString8QVariantEENS_19__map_value_compareIS2_NS_4pairIKS2_S3_EENS_4lessIS2_EELb1EEENS_9allocatorIS8_EEE12__node_allocB9nqe210106Ev, symObjAddr: 0xA7E0, symBinAddr: 0x13C80, symSize: 0x20 }
  - { offset: 0x95808, size: 0x8, addend: 0x0, symName: __ZNKSt3__16__treeINS_12__value_typeI7QString8QVariantEENS_19__map_value_compareIS2_NS_4pairIKS2_S3_EENS_4lessIS2_EELb1EEENS_9allocatorIS8_EEE10value_compB9nqe210106Ev, symObjAddr: 0xA800, symBinAddr: 0x13CA0, symSize: 0x20 }
  - { offset: 0x9582E, size: 0x8, addend: 0x0, symName: __ZNSt3__16__treeINS_12__value_typeI7QString8QVariantEENS_19__map_value_compareIS2_NS_4pairIKS2_S3_EENS_4lessIS2_EELb1EEENS_9allocatorIS8_EEE10__end_nodeB9nqe210106Ev, symObjAddr: 0xA820, symBinAddr: 0x13CC0, symSize: 0x20 }
  - { offset: 0x95854, size: 0x8, addend: 0x0, symName: __ZNSt3__16__treeINS_12__value_typeI7QString8QVariantEENS_19__map_value_compareIS2_NS_4pairIKS2_S3_EENS_4lessIS2_EELb1EEENS_9allocatorIS8_EEE12__begin_nodeB9nqe210106Ev, symObjAddr: 0xA840, symBinAddr: 0x13CE0, symSize: 0x10 }
  - { offset: 0x9587A, size: 0x8, addend: 0x0, symName: __ZNSt3__115__tree_end_nodeIPNS_16__tree_node_baseIPvEEEC2B9nqe210106Ev, symObjAddr: 0xA850, symBinAddr: 0x13CF0, symSize: 0x20 }
  - { offset: 0x958A4, size: 0x8, addend: 0x0, symName: __ZNKSt3__13mapI7QString8QVariantNS_4lessIS1_EENS_9allocatorINS_4pairIKS1_S2_EEEEE4cendB9nqe210106Ev, symObjAddr: 0xA870, symBinAddr: 0x13D10, symSize: 0x30 }
  - { offset: 0x958CA, size: 0x8, addend: 0x0, symName: __ZNSt3__13mapI7QString8QVariantNS_4lessIS1_EENS_9allocatorINS_4pairIKS1_S2_EEEEE6insertB9nqe210106ENS_20__map_const_iteratorINS_21__tree_const_iteratorINS_12__value_typeIS1_S2_EEPNS_11__tree_nodeISE_PvEElEEEERKS8_, symObjAddr: 0xA8D0, symBinAddr: 0x13D40, symSize: 0x50 }
  - { offset: 0x9590E, size: 0x8, addend: 0x0, symName: __ZNKSt3__120__map_const_iteratorINS_21__tree_const_iteratorINS_12__value_typeI7QString8QVariantEEPNS_11__tree_nodeIS5_PvEElEEEdeB9nqe210106Ev, symObjAddr: 0xA950, symBinAddr: 0x13D90, symSize: 0x20 }
  - { offset: 0x95934, size: 0x8, addend: 0x0, symName: __ZNSt3__16__treeINS_12__value_typeI7QString8QVariantEENS_19__map_value_compareIS2_NS_4pairIKS2_S3_EENS_4lessIS2_EELb1EEENS_9allocatorIS8_EEE21__emplace_hint_uniqueB9nqe210106IRKS8_EENS_15__tree_iteratorIS4_PNS_11__tree_nodeIS4_PvEElEENS_21__tree_const_iteratorIS4_SM_lEEOT_, symObjAddr: 0xAA00, symBinAddr: 0x13DB0, symSize: 0x40 }
  - { offset: 0x95981, size: 0x8, addend: 0x0, symName: __ZNSt3__114__map_iteratorINS_15__tree_iteratorINS_12__value_typeI7QString8QVariantEEPNS_11__tree_nodeIS5_PvEElEEEC1B9nqe210106ESA_, symObjAddr: 0xAA40, symBinAddr: 0x13DF0, symSize: 0x30 }
  - { offset: 0x959BA, size: 0x8, addend: 0x0, symName: __ZNSt3__16__treeINS_12__value_typeI7QString8QVariantEENS_19__map_value_compareIS2_NS_4pairIKS2_S3_EENS_4lessIS2_EELb1EEENS_9allocatorIS8_EEE33__emplace_hint_unique_extract_keyB9nqe210106IRKS8_EENS_15__tree_iteratorIS4_PNS_11__tree_nodeIS4_PvEElEENS_21__tree_const_iteratorIS4_SM_lEEOT_NS_23__extract_key_first_tagE, symObjAddr: 0xAA70, symBinAddr: 0x13E20, symSize: 0x60 }
  - { offset: 0x95A13, size: 0x8, addend: 0x0, symName: __ZNSt3__16__treeINS_12__value_typeI7QString8QVariantEENS_19__map_value_compareIS2_NS_4pairIKS2_S3_EENS_4lessIS2_EELb1EEENS_9allocatorIS8_EEE30__emplace_hint_unique_key_argsIS2_JRKS8_EEENS6_INS_15__tree_iteratorIS4_PNS_11__tree_nodeIS4_PvEElEEbEENS_21__tree_const_iteratorIS4_SM_lEERKT_DpOT0_, symObjAddr: 0xAAD0, symBinAddr: 0x13E80, symSize: 0x110 }
  - { offset: 0x95AEF, size: 0x8, addend: 0x0, symName: __ZNSt3__16__treeINS_12__value_typeI7QString8QVariantEENS_19__map_value_compareIS2_NS_4pairIKS2_S3_EENS_4lessIS2_EELb1EEENS_9allocatorIS8_EEE12__find_equalIS2_EERPNS_16__tree_node_baseIPvEENS_21__tree_const_iteratorIS4_PNS_11__tree_nodeIS4_SH_EElEERPNS_15__tree_end_nodeISJ_EESK_RKT_, symObjAddr: 0xABE0, symBinAddr: 0x13F90, symSize: 0x2F0 }
  - { offset: 0x95B9A, size: 0x8, addend: 0x0, symName: __ZNSt3__16__treeINS_12__value_typeI7QString8QVariantEENS_19__map_value_compareIS2_NS_4pairIKS2_S3_EENS_4lessIS2_EELb1EEENS_9allocatorIS8_EEE16__construct_nodeIJRKS8_EEENS_10unique_ptrINS_11__tree_nodeIS4_PvEENS_22__tree_node_destructorINSC_ISL_EEEEEEDpOT_, symObjAddr: 0xAED0, symBinAddr: 0x14280, symSize: 0xE0 }
  - { offset: 0x95BFD, size: 0x8, addend: 0x0, symName: __ZNSt3__16__treeINS_12__value_typeI7QString8QVariantEENS_19__map_value_compareIS2_NS_4pairIKS2_S3_EENS_4lessIS2_EELb1EEENS_9allocatorIS8_EEE16__insert_node_atEPNS_15__tree_end_nodeIPNS_16__tree_node_baseIPvEEEERSJ_SJ_, symObjAddr: 0xAFB0, symBinAddr: 0x14360, symSize: 0xB0 }
  - { offset: 0x95C52, size: 0x8, addend: 0x0, symName: __ZNKSt3__110unique_ptrINS_11__tree_nodeINS_12__value_typeI7QString8QVariantEEPvEENS_22__tree_node_destructorINS_9allocatorIS7_EEEEE3getB9nqe210106Ev, symObjAddr: 0xB060, symBinAddr: 0x14410, symSize: 0x20 }
  - { offset: 0x95C78, size: 0x8, addend: 0x0, symName: __ZNSt3__110unique_ptrINS_11__tree_nodeINS_12__value_typeI7QString8QVariantEEPvEENS_22__tree_node_destructorINS_9allocatorIS7_EEEEE7releaseB9nqe210106Ev, symObjAddr: 0xB080, symBinAddr: 0x14430, symSize: 0x20 }
  - { offset: 0x95CAE, size: 0x8, addend: 0x0, symName: __ZNSt3__110unique_ptrINS_11__tree_nodeINS_12__value_typeI7QString8QVariantEEPvEENS_22__tree_node_destructorINS_9allocatorIS7_EEEEED1B9nqe210106Ev, symObjAddr: 0xB0A0, symBinAddr: 0x14450, symSize: 0x20 }
  - { offset: 0x95CD8, size: 0x8, addend: 0x0, symName: __ZNSt3__115__tree_iteratorINS_12__value_typeI7QString8QVariantEEPNS_11__tree_nodeIS4_PvEElEC1B9nqe210106ES8_, symObjAddr: 0xB0C0, symBinAddr: 0x14470, symSize: 0x30 }
  - { offset: 0x95D16, size: 0x8, addend: 0x0, symName: __ZNSt3__14pairINS_15__tree_iteratorINS_12__value_typeI7QString8QVariantEEPNS_11__tree_nodeIS5_PvEElEEbEC1B9nqe210106ISA_RbLi0EEEOT_OT0_, symObjAddr: 0xB0F0, symBinAddr: 0x144A0, symSize: 0x30 }
  - { offset: 0x95D74, size: 0x8, addend: 0x0, symName: __ZNSt3__16__treeINS_12__value_typeI7QString8QVariantEENS_19__map_value_compareIS2_NS_4pairIKS2_S3_EENS_4lessIS2_EELb1EEENS_9allocatorIS8_EEE3endB9nqe210106Ev, symObjAddr: 0xB120, symBinAddr: 0x144D0, symSize: 0x30 }
  - { offset: 0x95D9A, size: 0x8, addend: 0x0, symName: __ZNSt3__121__tree_const_iteratorINS_12__value_typeI7QString8QVariantEEPNS_11__tree_nodeIS4_PvEElEC1B9nqe210106ENS_15__tree_iteratorIS4_S8_lEE, symObjAddr: 0xB150, symBinAddr: 0x14500, symSize: 0x30 }
  - { offset: 0x95DD3, size: 0x8, addend: 0x0, symName: __ZNSt3__16__treeINS_12__value_typeI7QString8QVariantEENS_19__map_value_compareIS2_NS_4pairIKS2_S3_EENS_4lessIS2_EELb1EEENS_9allocatorIS8_EEE10value_compB9nqe210106Ev, symObjAddr: 0xB180, symBinAddr: 0x14530, symSize: 0x20 }
  - { offset: 0x95DF9, size: 0x8, addend: 0x0, symName: __ZNKSt3__119__map_value_compareI7QStringNS_4pairIKS1_8QVariantEENS_4lessIS1_EELb1EEclB9nqe210106ERS3_RKS5_, symObjAddr: 0xB1A0, symBinAddr: 0x14550, symSize: 0x30 }
  - { offset: 0x95E3D, size: 0x8, addend: 0x0, symName: __ZNSt3__16__treeINS_12__value_typeI7QString8QVariantEENS_19__map_value_compareIS2_NS_4pairIKS2_S3_EENS_4lessIS2_EELb1EEENS_9allocatorIS8_EEE5beginB9nqe210106Ev, symObjAddr: 0xB1F0, symBinAddr: 0x14580, symSize: 0x30 }
  - { offset: 0x95E63, size: 0x8, addend: 0x0, symName: __ZNKSt3__119__map_value_compareI7QStringNS_4pairIKS1_8QVariantEENS_4lessIS1_EELb1EEclB9nqe210106ERKS5_RS3_, symObjAddr: 0xB220, symBinAddr: 0x145B0, symSize: 0x30 }
  - { offset: 0x95EA7, size: 0x8, addend: 0x0, symName: __ZNSt3__121__tree_const_iteratorINS_12__value_typeI7QString8QVariantEEPNS_11__tree_nodeIS4_PvEElEmmB9nqe210106Ev, symObjAddr: 0xB250, symBinAddr: 0x145E0, symSize: 0x30 }
  - { offset: 0x95ECD, size: 0x8, addend: 0x0, symName: __ZNSt3__16__treeINS_12__value_typeI7QString8QVariantEENS_19__map_value_compareIS2_NS_4pairIKS2_S3_EENS_4lessIS2_EELb1EEENS_9allocatorIS8_EEE12__find_equalIS2_EERPNS_16__tree_node_baseIPvEERPNS_15__tree_end_nodeISJ_EERKT_, symObjAddr: 0xB280, symBinAddr: 0x14610, symSize: 0x150 }
  - { offset: 0x95F3A, size: 0x8, addend: 0x0, symName: __ZNSt3__115__tree_iteratorINS_12__value_typeI7QString8QVariantEEPNS_11__tree_nodeIS4_PvEElEC1B9nqe210106EPNS_15__tree_end_nodeIPNS_16__tree_node_baseIS6_EEEE, symObjAddr: 0xB420, symBinAddr: 0x14790, symSize: 0x30 }
  - { offset: 0x95F73, size: 0x8, addend: 0x0, symName: __ZNSt3__115__tree_iteratorINS_12__value_typeI7QString8QVariantEEPNS_11__tree_nodeIS4_PvEElEC2B9nqe210106EPNS_15__tree_end_nodeIPNS_16__tree_node_baseIS6_EEEE, symObjAddr: 0xB450, symBinAddr: 0x147C0, symSize: 0x20 }
  - { offset: 0x95FAC, size: 0x8, addend: 0x0, symName: __ZNSt3__121__tree_const_iteratorINS_12__value_typeI7QString8QVariantEEPNS_11__tree_nodeIS4_PvEElEC2B9nqe210106ENS_15__tree_iteratorIS4_S8_lEE, symObjAddr: 0xB470, symBinAddr: 0x147E0, symSize: 0x20 }
  - { offset: 0x95FE5, size: 0x8, addend: 0x0, symName: __ZNKSt3__14lessI7QStringEclB9nqe210106ERKS1_S4_, symObjAddr: 0xB490, symBinAddr: 0x14800, symSize: 0x30 }
  - { offset: 0x96028, size: 0x8, addend: 0x0, symName: __ZltRK7QStringS1_, symObjAddr: 0xB4C0, symBinAddr: 0x14830, symSize: 0x40 }
  - { offset: 0x9607C, size: 0x8, addend: 0x0, symName: __Z15compareThreeWayRK7QStringS1_, symObjAddr: 0xB550, symBinAddr: 0x148C0, symSize: 0x50 }
  - { offset: 0x960D1, size: 0x8, addend: 0x0, symName: __ZN9QtPrivate25CompareAgainstLiteralZeroC1EMS0_FvvE, symObjAddr: 0xB5C0, symBinAddr: 0x14930, symSize: 0x50 }
  - { offset: 0x96106, size: 0x8, addend: 0x0, symName: __ZN9QtPrivate25CompareAgainstLiteralZeroC2EMS0_FvvE, symObjAddr: 0xB610, symBinAddr: 0x14980, symSize: 0x30 }
  - { offset: 0x9613A, size: 0x8, addend: 0x0, symName: __Z15compareThreeWayRK11QStringViewS1_, symObjAddr: 0xB640, symBinAddr: 0x149B0, symSize: 0x70 }
  - { offset: 0x96188, size: 0x8, addend: 0x0, symName: __ZNKSt3__16__treeINS_12__value_typeI7QString8QVariantEENS_19__map_value_compareIS2_NS_4pairIKS2_S3_EENS_4lessIS2_EELb1EEENS_9allocatorIS8_EEE10__root_ptrB9nqe210106Ev, symObjAddr: 0xB810, symBinAddr: 0x14B20, symSize: 0x20 }
  - { offset: 0x961AE, size: 0x8, addend: 0x0, symName: __ZNSt3__116allocator_traitsINS_9allocatorINS_11__tree_nodeINS_12__value_typeI7QString8QVariantEEPvEEEEE8allocateB9nqe210106ERS9_m, symObjAddr: 0xB9F0, symBinAddr: 0x14BF0, symSize: 0x30 }
  - { offset: 0x961E1, size: 0x8, addend: 0x0, symName: __ZNSt3__122__tree_node_destructorINS_9allocatorINS_11__tree_nodeINS_12__value_typeI7QString8QVariantEEPvEEEEEC1B9nqe210106ERS9_b, symObjAddr: 0xBA20, symBinAddr: 0x14C20, symSize: 0x40 }
  - { offset: 0x9622E, size: 0x8, addend: 0x0, symName: __ZNSt3__110unique_ptrINS_11__tree_nodeINS_12__value_typeI7QString8QVariantEEPvEENS_22__tree_node_destructorINS_9allocatorIS7_EEEEEC1B9nqe210106ILb1EvEEPS7_NS_16__dependent_typeINS_27__unique_ptr_deleter_sfinaeISB_EEXT_EE20__good_rval_ref_typeE, symObjAddr: 0xBA60, symBinAddr: 0x14C60, symSize: 0x30 }
  - { offset: 0x96280, size: 0x8, addend: 0x0, symName: __ZNSt3__116allocator_traitsINS_9allocatorINS_11__tree_nodeINS_12__value_typeI7QString8QVariantEEPvEEEEE9constructB9nqe210106INS_4pairIKS4_S5_EEJRKSE_ELi0EEEvRS9_PT_DpOT0_, symObjAddr: 0xBA90, symBinAddr: 0x14C90, symSize: 0x30 }
  - { offset: 0x962DE, size: 0x8, addend: 0x0, symName: __ZNKSt3__110unique_ptrINS_11__tree_nodeINS_12__value_typeI7QString8QVariantEEPvEENS_22__tree_node_destructorINS_9allocatorIS7_EEEEEptB9nqe210106Ev, symObjAddr: 0xBAC0, symBinAddr: 0x14CC0, symSize: 0x20 }
  - { offset: 0x96304, size: 0x8, addend: 0x0, symName: __ZNSt3__110unique_ptrINS_11__tree_nodeINS_12__value_typeI7QString8QVariantEEPvEENS_22__tree_node_destructorINS_9allocatorIS7_EEEEE11get_deleterB9nqe210106Ev, symObjAddr: 0xBAE0, symBinAddr: 0x14CE0, symSize: 0x20 }
  - { offset: 0x9632A, size: 0x8, addend: 0x0, symName: __ZNSt3__19allocatorINS_11__tree_nodeINS_12__value_typeI7QString8QVariantEEPvEEE8allocateB9nqe210106Em, symObjAddr: 0xBB00, symBinAddr: 0x14D00, symSize: 0x50 }
  - { offset: 0x9635E, size: 0x8, addend: 0x0, symName: __ZNSt3__116allocator_traitsINS_9allocatorINS_11__tree_nodeINS_12__value_typeI7QString8QVariantEEPvEEEEE8max_sizeB9nqe210106IS9_Li0EEEmRKS9_, symObjAddr: 0xBB50, symBinAddr: 0x14D50, symSize: 0x20 }
  - { offset: 0x96391, size: 0x8, addend: 0x0, symName: __ZNKSt3__19allocatorINS_11__tree_nodeINS_12__value_typeI7QString8QVariantEEPvEEE8max_sizeB9nqe210106Ev, symObjAddr: 0xBC10, symBinAddr: 0x14E10, symSize: 0x20 }
  - { offset: 0x963B7, size: 0x8, addend: 0x0, symName: __ZNSt3__122__tree_node_destructorINS_9allocatorINS_11__tree_nodeINS_12__value_typeI7QString8QVariantEEPvEEEEEC2B9nqe210106ERS9_b, symObjAddr: 0xBC30, symBinAddr: 0x14E30, symSize: 0x30 }
  - { offset: 0x963FF, size: 0x8, addend: 0x0, symName: __ZNSt3__110unique_ptrINS_11__tree_nodeINS_12__value_typeI7QString8QVariantEEPvEENS_22__tree_node_destructorINS_9allocatorIS7_EEEEEC2B9nqe210106ILb1EvEEPS7_NS_16__dependent_typeINS_27__unique_ptr_deleter_sfinaeISB_EEXT_EE20__good_rval_ref_typeE, symObjAddr: 0xBC60, symBinAddr: 0x14E60, symSize: 0x50 }
  - { offset: 0x96456, size: 0x8, addend: 0x0, symName: __ZNSt3__125__compressed_pair_paddingINS_22__tree_node_destructorINS_9allocatorINS_11__tree_nodeINS_12__value_typeI7QString8QVariantEEPvEEEEEELb0EEC1Ev, symObjAddr: 0xBCB0, symBinAddr: 0x14EB0, symSize: 0x20 }
  - { offset: 0x96482, size: 0x8, addend: 0x0, symName: __ZNSt3__125__compressed_pair_paddingINS_22__tree_node_destructorINS_9allocatorINS_11__tree_nodeINS_12__value_typeI7QString8QVariantEEPvEEEEEELb0EEC2Ev, symObjAddr: 0xBCD0, symBinAddr: 0x14ED0, symSize: 0x40 }
  - { offset: 0x964AE, size: 0x8, addend: 0x0, symName: __ZNSt3__19allocatorINS_11__tree_nodeINS_12__value_typeI7QString8QVariantEEPvEEE9constructB9nqe210106INS_4pairIKS3_S4_EEJRKSC_EEEvPT_DpOT0_, symObjAddr: 0xBD10, symBinAddr: 0x14F10, symSize: 0x30 }
  - { offset: 0x96506, size: 0x8, addend: 0x0, symName: __ZNSt3__14pairIK7QString8QVariantEC1B9nqe210106ERKS4_, symObjAddr: 0xBD40, symBinAddr: 0x14F40, symSize: 0x30 }
  - { offset: 0x9653B, size: 0x8, addend: 0x0, symName: __ZNSt3__14pairIK7QString8QVariantEC2B9nqe210106ERKS4_, symObjAddr: 0xBD70, symBinAddr: 0x14F70, symSize: 0x60 }
  - { offset: 0x96570, size: 0x8, addend: 0x0, symName: __ZNSt3__16__treeINS_12__value_typeI7QString8QVariantEENS_19__map_value_compareIS2_NS_4pairIKS2_S3_EENS_4lessIS2_EELb1EEENS_9allocatorIS8_EEE4sizeB9nqe210106Ev, symObjAddr: 0xBFE0, symBinAddr: 0x151E0, symSize: 0x20 }
  - { offset: 0x96596, size: 0x8, addend: 0x0, symName: __ZNSt3__116__tree_node_baseIPvE12__set_parentB9nqe210106EPS2_, symObjAddr: 0xC170, symBinAddr: 0x15370, symSize: 0x20 }
  - { offset: 0x965CB, size: 0x8, addend: 0x0, symName: __ZNSt3__110unique_ptrINS_11__tree_nodeINS_12__value_typeI7QString8QVariantEEPvEENS_22__tree_node_destructorINS_9allocatorIS7_EEEEED2B9nqe210106Ev, symObjAddr: 0xC190, symBinAddr: 0x15390, symSize: 0x20 }
  - { offset: 0x965F5, size: 0x8, addend: 0x0, symName: __ZNSt3__110unique_ptrINS_11__tree_nodeINS_12__value_typeI7QString8QVariantEEPvEENS_22__tree_node_destructorINS_9allocatorIS7_EEEEE5resetB9nqe210106EPS7_, symObjAddr: 0xC1B0, symBinAddr: 0x153B0, symSize: 0x50 }
  - { offset: 0x9663A, size: 0x8, addend: 0x0, symName: __ZNSt3__122__tree_node_destructorINS_9allocatorINS_11__tree_nodeINS_12__value_typeI7QString8QVariantEEPvEEEEEclB9nqe210106EPS8_, symObjAddr: 0xC200, symBinAddr: 0x15400, symSize: 0x60 }
  - { offset: 0x9666F, size: 0x8, addend: 0x0, symName: __ZNSt3__115__tree_iteratorINS_12__value_typeI7QString8QVariantEEPNS_11__tree_nodeIS4_PvEElEC2B9nqe210106ES8_, symObjAddr: 0xC3A0, symBinAddr: 0x15460, symSize: 0x20 }
  - { offset: 0x966A8, size: 0x8, addend: 0x0, symName: __ZNSt3__14pairINS_15__tree_iteratorINS_12__value_typeI7QString8QVariantEEPNS_11__tree_nodeIS5_PvEElEEbEC2B9nqe210106ISA_RbLi0EEEOT_OT0_, symObjAddr: 0xC3C0, symBinAddr: 0x15480, symSize: 0x30 }
  - { offset: 0x96706, size: 0x8, addend: 0x0, symName: __ZNSt3__114__map_iteratorINS_15__tree_iteratorINS_12__value_typeI7QString8QVariantEEPNS_11__tree_nodeIS5_PvEElEEEC2B9nqe210106ESA_, symObjAddr: 0xC3F0, symBinAddr: 0x154B0, symSize: 0x20 }
  - { offset: 0x9673F, size: 0x8, addend: 0x0, symName: __ZNSt3__13mapI7QString8QVariantNS_4lessIS1_EENS_9allocatorINS_4pairIKS1_S2_EEEEEC2B9nqe210106Ev, symObjAddr: 0xC5A0, symBinAddr: 0x154D0, symSize: 0x30 }
  - { offset: 0x96769, size: 0x8, addend: 0x0, symName: __ZNSt3__119__map_value_compareI7QStringNS_4pairIKS1_8QVariantEENS_4lessIS1_EELb1EEC1B9nqe210106ES7_, symObjAddr: 0xC5D0, symBinAddr: 0x15500, symSize: 0x20 }
  - { offset: 0x967A2, size: 0x8, addend: 0x0, symName: __ZNSt3__16__treeINS_12__value_typeI7QString8QVariantEENS_19__map_value_compareIS2_NS_4pairIKS2_S3_EENS_4lessIS2_EELb1EEENS_9allocatorIS8_EEEC1ERKSB_, symObjAddr: 0xC5F0, symBinAddr: 0x15520, symSize: 0x30 }
  - { offset: 0x967DD, size: 0x8, addend: 0x0, symName: __ZNSt3__119__map_value_compareI7QStringNS_4pairIKS1_8QVariantEENS_4lessIS1_EELb1EEC2B9nqe210106ES7_, symObjAddr: 0xC620, symBinAddr: 0x15550, symSize: 0x10 }
  - { offset: 0x96816, size: 0x8, addend: 0x0, symName: __ZNSt3__16__treeINS_12__value_typeI7QString8QVariantEENS_19__map_value_compareIS2_NS_4pairIKS2_S3_EENS_4lessIS2_EELb1EEENS_9allocatorIS8_EEEC2ERKSB_, symObjAddr: 0xC630, symBinAddr: 0x15560, symSize: 0x60 }
  - { offset: 0x96851, size: 0x8, addend: 0x0, symName: __ZNSt3__19allocatorINS_11__tree_nodeINS_12__value_typeI7QString8QVariantEEPvEEEC1B9nqe210106Ev, symObjAddr: 0xC690, symBinAddr: 0x155C0, symSize: 0x20 }
  - { offset: 0x9687B, size: 0x8, addend: 0x0, symName: __ZNSt3__19allocatorINS_11__tree_nodeINS_12__value_typeI7QString8QVariantEEPvEEEC2B9nqe210106Ev, symObjAddr: 0xC6B0, symBinAddr: 0x155E0, symSize: 0x20 }
  - { offset: 0x968A5, size: 0x8, addend: 0x0, symName: __ZNSt3__116__non_trivial_ifILb1ENS_9allocatorINS_11__tree_nodeINS_12__value_typeI7QString8QVariantEEPvEEEEEC2B9nqe210106Ev, symObjAddr: 0xC6D0, symBinAddr: 0x15600, symSize: 0x10 }
  - { offset: 0x968CF, size: 0x8, addend: 0x0, symName: __ZNSt3__115__tree_iteratorINS_12__value_typeI7QString8QVariantEEPNS_11__tree_nodeIS4_PvEElEppB9nqe210106Ev, symObjAddr: 0xC760, symBinAddr: 0x15670, symSize: 0x30 }
  - { offset: 0x968F5, size: 0x8, addend: 0x0, symName: __ZNKSt3__115__tree_iteratorINS_12__value_typeI7QString8QVariantEEPNS_11__tree_nodeIS4_PvEElEdeB9nqe210106Ev, symObjAddr: 0xC790, symBinAddr: 0x156A0, symSize: 0x20 }
  - { offset: 0x9691B, size: 0x8, addend: 0x0, symName: __ZNKSt3__115__tree_iteratorINS_12__value_typeI7QString8QVariantEEPNS_11__tree_nodeIS4_PvEElE8__get_npB9nqe210106Ev, symObjAddr: 0xC7B0, symBinAddr: 0x156C0, symSize: 0x20 }
  - { offset: 0x96941, size: 0x8, addend: 0x0, symName: __ZN9QMetaType8fromTypeIdEES_v, symObjAddr: 0xC810, symBinAddr: 0x156E0, symSize: 0x30 }
  - { offset: 0x9695F, size: 0x8, addend: 0x0, symName: __ZN4QMapI7QString8QVariantE6detachEv, symObjAddr: 0xCA30, symBinAddr: 0x15820, symSize: 0x60 }
  - { offset: 0x96985, size: 0x8, addend: 0x0, symName: __ZN9QtPrivate30QExplicitlySharedDataPointerV2I8QMapDataINSt3__13mapI7QString8QVariantNS2_4lessIS4_EENS2_9allocatorINS2_4pairIKS4_S5_EEEEEEEEptEv, symObjAddr: 0xCA90, symBinAddr: 0x15880, symSize: 0x20 }
  - { offset: 0x969AB, size: 0x8, addend: 0x0, symName: __ZN4QMapI7QString8QVariantE8iteratorC1ENSt3__114__map_iteratorINS4_15__tree_iteratorINS4_12__value_typeIS0_S1_EEPNS4_11__tree_nodeIS8_PvEElEEEE, symObjAddr: 0xCAB0, symBinAddr: 0x158A0, symSize: 0x30 }
  - { offset: 0x969E4, size: 0x8, addend: 0x0, symName: __ZN9QtPrivate30QExplicitlySharedDataPointerV2I8QMapDataINSt3__13mapI7QString8QVariantNS2_4lessIS4_EENS2_9allocatorINS2_4pairIKS4_S5_EEEEEEEE6detachEv, symObjAddr: 0xCAE0, symBinAddr: 0x158D0, symSize: 0xE0 }
  - { offset: 0x96A1F, size: 0x8, addend: 0x0, symName: __ZN9QtPrivate30QExplicitlySharedDataPointerV2I8QMapDataINSt3__13mapI7QString8QVariantNS2_4lessIS4_EENS2_9allocatorINS2_4pairIKS4_S5_EEEEEEEE5resetEPSE_, symObjAddr: 0xCBC0, symBinAddr: 0x159B0, symSize: 0xA0 }
  - { offset: 0x96A53, size: 0x8, addend: 0x0, symName: __ZN8QMapDataINSt3__13mapI7QString8QVariantNS0_4lessIS2_EENS0_9allocatorINS0_4pairIKS2_S3_EEEEEEEC1Ev, symObjAddr: 0xCC60, symBinAddr: 0x15A50, symSize: 0x20 }
  - { offset: 0x96A7D, size: 0x8, addend: 0x0, symName: __ZN2Qt23totally_ordered_wrapperIP8QMapDataINSt3__13mapI7QString8QVariantNS2_4lessIS4_EENS2_9allocatorINS2_4pairIKS4_S5_EEEEEEEE5resetESF_, symObjAddr: 0xCC80, symBinAddr: 0x15A70, symSize: 0x20 }
  - { offset: 0x96AB2, size: 0x8, addend: 0x0, symName: __ZNK2Qt23totally_ordered_wrapperIP8QMapDataINSt3__13mapI7QString8QVariantNS2_4lessIS4_EENS2_9allocatorINS2_4pairIKS4_S5_EEEEEEEEdeISE_Lb1EEERT_v, symObjAddr: 0xCCA0, symBinAddr: 0x15A90, symSize: 0x20 }
  - { offset: 0x96AE7, size: 0x8, addend: 0x0, symName: __ZN8QMapDataINSt3__13mapI7QString8QVariantNS0_4lessIS2_EENS0_9allocatorINS0_4pairIKS2_S3_EEEEEEEC1ERKSC_, symObjAddr: 0xCCC0, symBinAddr: 0x15AB0, symSize: 0x30 }
  - { offset: 0x96B1C, size: 0x8, addend: 0x0, symName: __ZN9QtPrivate30QExplicitlySharedDataPointerV2I8QMapDataINSt3__13mapI7QString8QVariantNS2_4lessIS4_EENS2_9allocatorINS2_4pairIKS4_S5_EEEEEEEEC1EPSE_, symObjAddr: 0xCCF0, symBinAddr: 0x15AE0, symSize: 0x30 }
  - { offset: 0x96B54, size: 0x8, addend: 0x0, symName: __ZN9QtPrivate30QExplicitlySharedDataPointerV2I8QMapDataINSt3__13mapI7QString8QVariantNS2_4lessIS4_EENS2_9allocatorINS2_4pairIKS4_S5_EEEEEEEE4swapERSF_, symObjAddr: 0xCD20, symBinAddr: 0x15B10, symSize: 0x30 }
  - { offset: 0x96B88, size: 0x8, addend: 0x0, symName: __ZN8QMapDataINSt3__13mapI7QString8QVariantNS0_4lessIS2_EENS0_9allocatorINS0_4pairIKS2_S3_EEEEEEEC2ERKSC_, symObjAddr: 0xCD50, symBinAddr: 0x15B40, symSize: 0x40 }
  - { offset: 0x96BBD, size: 0x8, addend: 0x0, symName: __ZN11QSharedDataC2ERKS_, symObjAddr: 0xCD90, symBinAddr: 0x15B80, symSize: 0x30 }
  - { offset: 0x96BF2, size: 0x8, addend: 0x0, symName: __ZN10QAtomicIntC1Ei, symObjAddr: 0xCDC0, symBinAddr: 0x15BB0, symSize: 0x30 }
  - { offset: 0x96C2A, size: 0x8, addend: 0x0, symName: __ZN10QAtomicIntC2Ei, symObjAddr: 0xCDF0, symBinAddr: 0x15BE0, symSize: 0x30 }
  - { offset: 0x96C62, size: 0x8, addend: 0x0, symName: __ZN14QAtomicIntegerIiEC2Ei, symObjAddr: 0xCE20, symBinAddr: 0x15C10, symSize: 0x30 }
  - { offset: 0x96C9A, size: 0x8, addend: 0x0, symName: __ZN19QBasicAtomicIntegerIiEC2Ei, symObjAddr: 0xCE50, symBinAddr: 0x15C40, symSize: 0x30 }
  - { offset: 0x96CD2, size: 0x8, addend: 0x0, symName: __ZNSt3__16atomicIiEC1B9nqe210106Ei, symObjAddr: 0xCE80, symBinAddr: 0x15C70, symSize: 0x30 }
  - { offset: 0x96D0A, size: 0x8, addend: 0x0, symName: __ZNSt3__16atomicIiEC2B9nqe210106Ei, symObjAddr: 0xCEB0, symBinAddr: 0x15CA0, symSize: 0x30 }
  - { offset: 0x96D42, size: 0x8, addend: 0x0, symName: __ZNSt3__113__atomic_baseIiLb1EEC2B9nqe210106Ei, symObjAddr: 0xCEE0, symBinAddr: 0x15CD0, symSize: 0x30 }
  - { offset: 0x96D7A, size: 0x8, addend: 0x0, symName: __ZNSt3__113__atomic_baseIiLb0EEC2B9nqe210106Ei, symObjAddr: 0xCF10, symBinAddr: 0x15D00, symSize: 0x30 }
  - { offset: 0x96DB2, size: 0x8, addend: 0x0, symName: __ZNSt3__117__cxx_atomic_implIiNS_22__cxx_atomic_base_implIiEEEC1B9nqe210106Ei, symObjAddr: 0xCF40, symBinAddr: 0x15D30, symSize: 0x30 }
  - { offset: 0x96DEA, size: 0x8, addend: 0x0, symName: __ZNSt3__117__cxx_atomic_implIiNS_22__cxx_atomic_base_implIiEEEC2B9nqe210106Ei, symObjAddr: 0xCF70, symBinAddr: 0x15D60, symSize: 0x30 }
  - { offset: 0x96E22, size: 0x8, addend: 0x0, symName: __ZNSt3__122__cxx_atomic_base_implIiEC2Ei, symObjAddr: 0xCFA0, symBinAddr: 0x15D90, symSize: 0x20 }
  - { offset: 0x96E5A, size: 0x8, addend: 0x0, symName: __ZN9QtPrivate30QExplicitlySharedDataPointerV2I8QMapDataINSt3__13mapI7QString8QVariantNS2_4lessIS4_EENS2_9allocatorINS2_4pairIKS4_S5_EEEEEEEEC2EPSE_, symObjAddr: 0xCFC0, symBinAddr: 0x15DB0, symSize: 0x50 }
  - { offset: 0x96E92, size: 0x8, addend: 0x0, symName: __ZN2Qt23totally_ordered_wrapperIP8QMapDataINSt3__13mapI7QString8QVariantNS2_4lessIS4_EENS2_9allocatorINS2_4pairIKS4_S5_EEEEEEEEC1ESF_, symObjAddr: 0xD010, symBinAddr: 0x15E00, symSize: 0x30 }
  - { offset: 0x96ECB, size: 0x8, addend: 0x0, symName: __ZN2Qt23totally_ordered_wrapperIP8QMapDataINSt3__13mapI7QString8QVariantNS2_4lessIS4_EENS2_9allocatorINS2_4pairIKS4_S5_EEEEEEEEC2ESF_, symObjAddr: 0xD040, symBinAddr: 0x15E30, symSize: 0x20 }
  - { offset: 0x96F03, size: 0x8, addend: 0x0, symName: __Z11qt_ptr_swapI8QMapDataINSt3__13mapI7QString8QVariantNS1_4lessIS3_EENS1_9allocatorINS1_4pairIKS3_S4_EEEEEEEEvRPT_SG_, symObjAddr: 0xD090, symBinAddr: 0x15E80, symSize: 0x40 }
  - { offset: 0x96F51, size: 0x8, addend: 0x0, symName: __ZN8QMapDataINSt3__13mapI7QString8QVariantNS0_4lessIS2_EENS0_9allocatorINS0_4pairIKS2_S3_EEEEEEEC2Ev, symObjAddr: 0xD0D0, symBinAddr: 0x15EC0, symSize: 0x30 }
  - { offset: 0x96F7B, size: 0x8, addend: 0x0, symName: __ZN11QSharedDataC2Ev, symObjAddr: 0xD100, symBinAddr: 0x15EF0, symSize: 0x20 }
  - { offset: 0x96FA5, size: 0x8, addend: 0x0, symName: __ZN4QMapI7QString8QVariantE8iteratorC2ENSt3__114__map_iteratorINS4_15__tree_iteratorINS4_12__value_typeIS0_S1_EEPNS4_11__tree_nodeIS8_PvEElEEEE, symObjAddr: 0xD120, symBinAddr: 0x15F10, symSize: 0x20 }
  - { offset: 0x96FDE, size: 0x8, addend: 0x0, symName: __ZNKSt3__114__map_iteratorINS_15__tree_iteratorINS_12__value_typeI7QString8QVariantEEPNS_11__tree_nodeIS5_PvEElEEEptB9nqe210106Ev, symObjAddr: 0xD140, symBinAddr: 0x15F30, symSize: 0x30 }
  - { offset: 0x97004, size: 0x8, addend: 0x0, symName: __ZNSt3__114pointer_traitsIPNS_4pairIK7QString8QVariantEEE10pointer_toB9nqe210106ERS5_, symObjAddr: 0xD170, symBinAddr: 0x15F60, symSize: 0x10 }
  - { offset: 0x97027, size: 0x8, addend: 0x0, symName: __ZN4QMapI7QString10QJsonArrayE22referenceHoldingDetachEv, symObjAddr: 0xD180, symBinAddr: 0x15F70, symSize: 0xE0 }
  - { offset: 0x97065, size: 0x8, addend: 0x0, symName: __ZN9QtPrivate30QExplicitlySharedDataPointerV2I8QMapDataINSt3__13mapI7QString10QJsonArrayNS2_4lessIS4_EENS2_9allocatorINS2_4pairIKS4_S5_EEEEEEEEptEv, symObjAddr: 0xD260, symBinAddr: 0x16050, symSize: 0x20 }
  - { offset: 0x9708B, size: 0x8, addend: 0x0, symName: __ZNSt3__13mapI7QString10QJsonArrayNS_4lessIS1_EENS_9allocatorINS_4pairIKS1_S2_EEEEE4findB9nqe210106ERS7_, symObjAddr: 0xD280, symBinAddr: 0x16070, symSize: 0x40 }
  - { offset: 0x970C0, size: 0x8, addend: 0x0, symName: __ZNSt3__13mapI7QString10QJsonArrayNS_4lessIS1_EENS_9allocatorINS_4pairIKS1_S2_EEEEE3endB9nqe210106Ev, symObjAddr: 0xD2F0, symBinAddr: 0x160E0, symSize: 0x30 }
  - { offset: 0x970E6, size: 0x8, addend: 0x0, symName: __ZNSt3__13mapI7QString10QJsonArrayNS_4lessIS1_EENS_9allocatorINS_4pairIKS1_S2_EEEEE6insertB9nqe210106EOS8_, symObjAddr: 0xD320, symBinAddr: 0x16110, symSize: 0x50 }
  - { offset: 0x9711B, size: 0x8, addend: 0x0, symName: __ZNSt3__14pairIK7QString10QJsonArrayEC1B9nqe210106IRS2_S3_Li0EEEOT_OT0_, symObjAddr: 0xD370, symBinAddr: 0x16160, symSize: 0x30 }
  - { offset: 0x97179, size: 0x8, addend: 0x0, symName: __ZNKSt3__114__map_iteratorINS_15__tree_iteratorINS_12__value_typeI7QString10QJsonArrayEEPNS_11__tree_nodeIS5_PvEElEEEptB9nqe210106Ev, symObjAddr: 0xD3A0, symBinAddr: 0x16190, symSize: 0x30 }
  - { offset: 0x9719F, size: 0x8, addend: 0x0, symName: __ZNK9QtPrivate30QExplicitlySharedDataPointerV2I8QMapDataINSt3__13mapI7QString10QJsonArrayNS2_4lessIS4_EENS2_9allocatorINS2_4pairIKS4_S5_EEEEEEEEcvbEv, symObjAddr: 0xD3D0, symBinAddr: 0x161C0, symSize: 0x30 }
  - { offset: 0x971C5, size: 0x8, addend: 0x0, symName: __ZN9QtPrivate30QExplicitlySharedDataPointerV2I8QMapDataINSt3__13mapI7QString10QJsonArrayNS2_4lessIS4_EENS2_9allocatorINS2_4pairIKS4_S5_EEEEEEEE5resetEPSE_, symObjAddr: 0xD400, symBinAddr: 0x161F0, symSize: 0xA0 }
  - { offset: 0x971F9, size: 0x8, addend: 0x0, symName: __ZN8QMapDataINSt3__13mapI7QString10QJsonArrayNS0_4lessIS2_EENS0_9allocatorINS0_4pairIKS2_S3_EEEEEEEC1Ev, symObjAddr: 0xD4A0, symBinAddr: 0x16290, symSize: 0x20 }
  - { offset: 0x97223, size: 0x8, addend: 0x0, symName: __ZNK9QtPrivate30QExplicitlySharedDataPointerV2I8QMapDataINSt3__13mapI7QString10QJsonArrayNS2_4lessIS4_EENS2_9allocatorINS2_4pairIKS4_S5_EEEEEEEE8isSharedEv, symObjAddr: 0xD4C0, symBinAddr: 0x162B0, symSize: 0x50 }
  - { offset: 0x97249, size: 0x8, addend: 0x0, symName: __ZN4QMapI7QString10QJsonArrayEC1ERKS2_, symObjAddr: 0xD510, symBinAddr: 0x16300, symSize: 0x30 }
  - { offset: 0x9727E, size: 0x8, addend: 0x0, symName: __ZN9QtPrivate30QExplicitlySharedDataPointerV2I8QMapDataINSt3__13mapI7QString10QJsonArrayNS2_4lessIS4_EENS2_9allocatorINS2_4pairIKS4_S5_EEEEEEEE6detachEv, symObjAddr: 0xD540, symBinAddr: 0x16330, symSize: 0xE0 }
  - { offset: 0x972B9, size: 0x8, addend: 0x0, symName: __ZN2Qt23totally_ordered_wrapperIP8QMapDataINSt3__13mapI7QString10QJsonArrayNS2_4lessIS4_EENS2_9allocatorINS2_4pairIKS4_S5_EEEEEEEE5resetESF_, symObjAddr: 0xD620, symBinAddr: 0x16410, symSize: 0x20 }
  - { offset: 0x972EE, size: 0x8, addend: 0x0, symName: __ZN8QMapDataINSt3__13mapI7QString10QJsonArrayNS0_4lessIS2_EENS0_9allocatorINS0_4pairIKS2_S3_EEEEEEEC2Ev, symObjAddr: 0xD640, symBinAddr: 0x16430, symSize: 0x30 }
  - { offset: 0x97318, size: 0x8, addend: 0x0, symName: __ZNSt3__13mapI7QString10QJsonArrayNS_4lessIS1_EENS_9allocatorINS_4pairIKS1_S2_EEEEEC1B9nqe210106Ev, symObjAddr: 0xD670, symBinAddr: 0x16460, symSize: 0x20 }
  - { offset: 0x97342, size: 0x8, addend: 0x0, symName: __ZNSt3__13mapI7QString10QJsonArrayNS_4lessIS1_EENS_9allocatorINS_4pairIKS1_S2_EEEEEC2B9nqe210106Ev, symObjAddr: 0xD690, symBinAddr: 0x16480, symSize: 0x30 }
  - { offset: 0x9736C, size: 0x8, addend: 0x0, symName: __ZNSt3__119__map_value_compareI7QStringNS_4pairIKS1_10QJsonArrayEENS_4lessIS1_EELb1EEC1B9nqe210106ES7_, symObjAddr: 0xD6C0, symBinAddr: 0x164B0, symSize: 0x20 }
  - { offset: 0x973A5, size: 0x8, addend: 0x0, symName: __ZNSt3__16__treeINS_12__value_typeI7QString10QJsonArrayEENS_19__map_value_compareIS2_NS_4pairIKS2_S3_EENS_4lessIS2_EELb1EEENS_9allocatorIS8_EEEC1ERKSB_, symObjAddr: 0xD6E0, symBinAddr: 0x164D0, symSize: 0x30 }
  - { offset: 0x973E0, size: 0x8, addend: 0x0, symName: __ZNSt3__119__map_value_compareI7QStringNS_4pairIKS1_10QJsonArrayEENS_4lessIS1_EELb1EEC2B9nqe210106ES7_, symObjAddr: 0xD710, symBinAddr: 0x16500, symSize: 0x10 }
  - { offset: 0x97419, size: 0x8, addend: 0x0, symName: __ZNSt3__16__treeINS_12__value_typeI7QString10QJsonArrayEENS_19__map_value_compareIS2_NS_4pairIKS2_S3_EENS_4lessIS2_EELb1EEENS_9allocatorIS8_EEEC2ERKSB_, symObjAddr: 0xD720, symBinAddr: 0x16510, symSize: 0x60 }
  - { offset: 0x97454, size: 0x8, addend: 0x0, symName: __ZNSt3__19allocatorINS_11__tree_nodeINS_12__value_typeI7QString10QJsonArrayEEPvEEEC1B9nqe210106Ev, symObjAddr: 0xD780, symBinAddr: 0x16570, symSize: 0x20 }
  - { offset: 0x9747E, size: 0x8, addend: 0x0, symName: __ZNSt3__16__treeINS_12__value_typeI7QString10QJsonArrayEENS_19__map_value_compareIS2_NS_4pairIKS2_S3_EENS_4lessIS2_EELb1EEENS_9allocatorIS8_EEE10__end_nodeB9nqe210106Ev, symObjAddr: 0xD7A0, symBinAddr: 0x16590, symSize: 0x20 }
  - { offset: 0x974A4, size: 0x8, addend: 0x0, symName: __ZNSt3__16__treeINS_12__value_typeI7QString10QJsonArrayEENS_19__map_value_compareIS2_NS_4pairIKS2_S3_EENS_4lessIS2_EELb1EEENS_9allocatorIS8_EEE12__begin_nodeB9nqe210106Ev, symObjAddr: 0xD7C0, symBinAddr: 0x165B0, symSize: 0x10 }
  - { offset: 0x974CA, size: 0x8, addend: 0x0, symName: __ZNSt3__19allocatorINS_11__tree_nodeINS_12__value_typeI7QString10QJsonArrayEEPvEEEC2B9nqe210106Ev, symObjAddr: 0xD7D0, symBinAddr: 0x165C0, symSize: 0x20 }
  - { offset: 0x974F4, size: 0x8, addend: 0x0, symName: __ZNSt3__116__non_trivial_ifILb1ENS_9allocatorINS_11__tree_nodeINS_12__value_typeI7QString10QJsonArrayEEPvEEEEEC2B9nqe210106Ev, symObjAddr: 0xD7F0, symBinAddr: 0x165E0, symSize: 0x10 }
  - { offset: 0x9751E, size: 0x8, addend: 0x0, symName: __ZN4QMapI7QString10QJsonArrayEC2ERKS2_, symObjAddr: 0xD800, symBinAddr: 0x165F0, symSize: 0x30 }
  - { offset: 0x97553, size: 0x8, addend: 0x0, symName: __ZN9QtPrivate30QExplicitlySharedDataPointerV2I8QMapDataINSt3__13mapI7QString10QJsonArrayNS2_4lessIS4_EENS2_9allocatorINS2_4pairIKS4_S5_EEEEEEEEC1ERKSF_, symObjAddr: 0xD830, symBinAddr: 0x16620, symSize: 0x30 }
  - { offset: 0x9758B, size: 0x8, addend: 0x0, symName: __ZN9QtPrivate30QExplicitlySharedDataPointerV2I8QMapDataINSt3__13mapI7QString10QJsonArrayNS2_4lessIS4_EENS2_9allocatorINS2_4pairIKS4_S5_EEEEEEEEC2ERKSF_, symObjAddr: 0xD860, symBinAddr: 0x16650, symSize: 0x50 }
  - { offset: 0x975C3, size: 0x8, addend: 0x0, symName: __ZNK2Qt23totally_ordered_wrapperIP8QMapDataINSt3__13mapI7QString10QJsonArrayNS2_4lessIS4_EENS2_9allocatorINS2_4pairIKS4_S5_EEEEEEEEdeISE_Lb1EEERT_v, symObjAddr: 0xD8B0, symBinAddr: 0x166A0, symSize: 0x20 }
  - { offset: 0x975F8, size: 0x8, addend: 0x0, symName: __ZN8QMapDataINSt3__13mapI7QString10QJsonArrayNS0_4lessIS2_EENS0_9allocatorINS0_4pairIKS2_S3_EEEEEEEC1ERKSC_, symObjAddr: 0xD8D0, symBinAddr: 0x166C0, symSize: 0x30 }
  - { offset: 0x9762D, size: 0x8, addend: 0x0, symName: __ZN9QtPrivate30QExplicitlySharedDataPointerV2I8QMapDataINSt3__13mapI7QString10QJsonArrayNS2_4lessIS4_EENS2_9allocatorINS2_4pairIKS4_S5_EEEEEEEEC1EPSE_, symObjAddr: 0xD900, symBinAddr: 0x166F0, symSize: 0x30 }
  - { offset: 0x97665, size: 0x8, addend: 0x0, symName: __ZN9QtPrivate30QExplicitlySharedDataPointerV2I8QMapDataINSt3__13mapI7QString10QJsonArrayNS2_4lessIS4_EENS2_9allocatorINS2_4pairIKS4_S5_EEEEEEEE4swapERSF_, symObjAddr: 0xD930, symBinAddr: 0x16720, symSize: 0x30 }
  - { offset: 0x97699, size: 0x8, addend: 0x0, symName: __ZN8QMapDataINSt3__13mapI7QString10QJsonArrayNS0_4lessIS2_EENS0_9allocatorINS0_4pairIKS2_S3_EEEEEEEC2ERKSC_, symObjAddr: 0xD960, symBinAddr: 0x16750, symSize: 0x40 }
  - { offset: 0x976CE, size: 0x8, addend: 0x0, symName: __ZNSt3__13mapI7QString10QJsonArrayNS_4lessIS1_EENS_9allocatorINS_4pairIKS1_S2_EEEEEC1B9nqe210106ERKSA_, symObjAddr: 0xD9A0, symBinAddr: 0x16790, symSize: 0x30 }
  - { offset: 0x97707, size: 0x8, addend: 0x0, symName: __ZNSt3__13mapI7QString10QJsonArrayNS_4lessIS1_EENS_9allocatorINS_4pairIKS1_S2_EEEEEC2B9nqe210106ERKSA_, symObjAddr: 0xD9D0, symBinAddr: 0x167C0, symSize: 0x80 }
  - { offset: 0x97740, size: 0x8, addend: 0x0, symName: __ZNSt3__16__treeINS_12__value_typeI7QString10QJsonArrayEENS_19__map_value_compareIS2_NS_4pairIKS2_S3_EENS_4lessIS2_EELb1EEENS_9allocatorIS8_EEEC1ERKSE_, symObjAddr: 0xDA50, symBinAddr: 0x16840, symSize: 0x30 }
  - { offset: 0x9777B, size: 0x8, addend: 0x0, symName: __ZNSt3__13mapI7QString10QJsonArrayNS_4lessIS1_EENS_9allocatorINS_4pairIKS1_S2_EEEEE6insertB9nqe210106INS_20__map_const_iteratorINS_21__tree_const_iteratorINS_12__value_typeIS1_S2_EEPNS_11__tree_nodeISF_PvEElEEEEEEvT_SM_, symObjAddr: 0xDA80, symBinAddr: 0x16870, symSize: 0x80 }
  - { offset: 0x977E7, size: 0x8, addend: 0x0, symName: __ZNKSt3__13mapI7QString10QJsonArrayNS_4lessIS1_EENS_9allocatorINS_4pairIKS1_S2_EEEEE5beginB9nqe210106Ev, symObjAddr: 0xDB00, symBinAddr: 0x168F0, symSize: 0x30 }
  - { offset: 0x9780D, size: 0x8, addend: 0x0, symName: __ZNKSt3__13mapI7QString10QJsonArrayNS_4lessIS1_EENS_9allocatorINS_4pairIKS1_S2_EEEEE3endB9nqe210106Ev, symObjAddr: 0xDB30, symBinAddr: 0x16920, symSize: 0x30 }
  - { offset: 0x97833, size: 0x8, addend: 0x0, symName: __ZNSt3__16__treeINS_12__value_typeI7QString10QJsonArrayEENS_19__map_value_compareIS2_NS_4pairIKS2_S3_EENS_4lessIS2_EELb1EEENS_9allocatorIS8_EEEC2ERKSE_, symObjAddr: 0xDB60, symBinAddr: 0x16950, symSize: 0x80 }
  - { offset: 0x97878, size: 0x8, addend: 0x0, symName: __ZNSt3__116allocator_traitsINS_9allocatorINS_11__tree_nodeINS_12__value_typeI7QString10QJsonArrayEEPvEEEEE37select_on_container_copy_constructionB9nqe210106IS9_Li0EEES9_RKS9_, symObjAddr: 0xDBE0, symBinAddr: 0x169D0, symSize: 0x10 }
  - { offset: 0x978AB, size: 0x8, addend: 0x0, symName: __ZNKSt3__16__treeINS_12__value_typeI7QString10QJsonArrayEENS_19__map_value_compareIS2_NS_4pairIKS2_S3_EENS_4lessIS2_EELb1EEENS_9allocatorIS8_EEE12__node_allocB9nqe210106Ev, symObjAddr: 0xDBF0, symBinAddr: 0x169E0, symSize: 0x20 }
  - { offset: 0x978D1, size: 0x8, addend: 0x0, symName: __ZNKSt3__16__treeINS_12__value_typeI7QString10QJsonArrayEENS_19__map_value_compareIS2_NS_4pairIKS2_S3_EENS_4lessIS2_EELb1EEENS_9allocatorIS8_EEE10value_compB9nqe210106Ev, symObjAddr: 0xDC10, symBinAddr: 0x16A00, symSize: 0x20 }
  - { offset: 0x978F7, size: 0x8, addend: 0x0, symName: __ZNKSt3__13mapI7QString10QJsonArrayNS_4lessIS1_EENS_9allocatorINS_4pairIKS1_S2_EEEEE4cendB9nqe210106Ev, symObjAddr: 0xDC30, symBinAddr: 0x16A20, symSize: 0x30 }
  - { offset: 0x9791D, size: 0x8, addend: 0x0, symName: __ZNSt3__13mapI7QString10QJsonArrayNS_4lessIS1_EENS_9allocatorINS_4pairIKS1_S2_EEEEE6insertB9nqe210106ENS_20__map_const_iteratorINS_21__tree_const_iteratorINS_12__value_typeIS1_S2_EEPNS_11__tree_nodeISE_PvEElEEEERKS8_, symObjAddr: 0xDC90, symBinAddr: 0x16A80, symSize: 0x50 }
  - { offset: 0x97961, size: 0x8, addend: 0x0, symName: __ZNSt3__120__map_const_iteratorINS_21__tree_const_iteratorINS_12__value_typeI7QString10QJsonArrayEEPNS_11__tree_nodeIS5_PvEElEEEC1B9nqe210106ESA_, symObjAddr: 0xDCE0, symBinAddr: 0x16AD0, symSize: 0x30 }
  - { offset: 0x9799A, size: 0x8, addend: 0x0, symName: __ZNKSt3__120__map_const_iteratorINS_21__tree_const_iteratorINS_12__value_typeI7QString10QJsonArrayEEPNS_11__tree_nodeIS5_PvEElEEEdeB9nqe210106Ev, symObjAddr: 0xDD10, symBinAddr: 0x16B00, symSize: 0x20 }
  - { offset: 0x979C0, size: 0x8, addend: 0x0, symName: __ZNSt3__120__map_const_iteratorINS_21__tree_const_iteratorINS_12__value_typeI7QString10QJsonArrayEEPNS_11__tree_nodeIS5_PvEElEEEppB9nqe210106Ev, symObjAddr: 0xDD30, symBinAddr: 0x16B20, symSize: 0x30 }
  - { offset: 0x979E6, size: 0x8, addend: 0x0, symName: __ZNSt3__16__treeINS_12__value_typeI7QString10QJsonArrayEENS_19__map_value_compareIS2_NS_4pairIKS2_S3_EENS_4lessIS2_EELb1EEENS_9allocatorIS8_EEE21__emplace_hint_uniqueB9nqe210106IRKS8_EENS_15__tree_iteratorIS4_PNS_11__tree_nodeIS4_PvEElEENS_21__tree_const_iteratorIS4_SM_lEEOT_, symObjAddr: 0xDDC0, symBinAddr: 0x16BB0, symSize: 0x40 }
  - { offset: 0x97A33, size: 0x8, addend: 0x0, symName: __ZNSt3__114__map_iteratorINS_15__tree_iteratorINS_12__value_typeI7QString10QJsonArrayEEPNS_11__tree_nodeIS5_PvEElEEEC1B9nqe210106ESA_, symObjAddr: 0xDE00, symBinAddr: 0x16BF0, symSize: 0x30 }
  - { offset: 0x97A6C, size: 0x8, addend: 0x0, symName: __ZNSt3__16__treeINS_12__value_typeI7QString10QJsonArrayEENS_19__map_value_compareIS2_NS_4pairIKS2_S3_EENS_4lessIS2_EELb1EEENS_9allocatorIS8_EEE33__emplace_hint_unique_extract_keyB9nqe210106IRKS8_EENS_15__tree_iteratorIS4_PNS_11__tree_nodeIS4_PvEElEENS_21__tree_const_iteratorIS4_SM_lEEOT_NS_23__extract_key_first_tagE, symObjAddr: 0xDE30, symBinAddr: 0x16C20, symSize: 0x60 }
  - { offset: 0x97AC5, size: 0x8, addend: 0x0, symName: __ZNSt3__16__treeINS_12__value_typeI7QString10QJsonArrayEENS_19__map_value_compareIS2_NS_4pairIKS2_S3_EENS_4lessIS2_EELb1EEENS_9allocatorIS8_EEE30__emplace_hint_unique_key_argsIS2_JRKS8_EEENS6_INS_15__tree_iteratorIS4_PNS_11__tree_nodeIS4_PvEElEEbEENS_21__tree_const_iteratorIS4_SM_lEERKT_DpOT0_, symObjAddr: 0xDE90, symBinAddr: 0x16C80, symSize: 0x110 }
  - { offset: 0x97BA1, size: 0x8, addend: 0x0, symName: __ZNSt3__16__treeINS_12__value_typeI7QString10QJsonArrayEENS_19__map_value_compareIS2_NS_4pairIKS2_S3_EENS_4lessIS2_EELb1EEENS_9allocatorIS8_EEE12__find_equalIS2_EERPNS_16__tree_node_baseIPvEENS_21__tree_const_iteratorIS4_PNS_11__tree_nodeIS4_SH_EElEERPNS_15__tree_end_nodeISJ_EESK_RKT_, symObjAddr: 0xDFA0, symBinAddr: 0x16D90, symSize: 0x2F0 }
  - { offset: 0x97C4C, size: 0x8, addend: 0x0, symName: __ZNSt3__16__treeINS_12__value_typeI7QString10QJsonArrayEENS_19__map_value_compareIS2_NS_4pairIKS2_S3_EENS_4lessIS2_EELb1EEENS_9allocatorIS8_EEE16__construct_nodeIJRKS8_EEENS_10unique_ptrINS_11__tree_nodeIS4_PvEENS_22__tree_node_destructorINSC_ISL_EEEEEEDpOT_, symObjAddr: 0xE290, symBinAddr: 0x17080, symSize: 0xE0 }
  - { offset: 0x97CAF, size: 0x8, addend: 0x0, symName: __ZNSt3__16__treeINS_12__value_typeI7QString10QJsonArrayEENS_19__map_value_compareIS2_NS_4pairIKS2_S3_EENS_4lessIS2_EELb1EEENS_9allocatorIS8_EEE16__insert_node_atEPNS_15__tree_end_nodeIPNS_16__tree_node_baseIPvEEEERSJ_SJ_, symObjAddr: 0xE370, symBinAddr: 0x17160, symSize: 0xB0 }
  - { offset: 0x97D04, size: 0x8, addend: 0x0, symName: __ZNKSt3__110unique_ptrINS_11__tree_nodeINS_12__value_typeI7QString10QJsonArrayEEPvEENS_22__tree_node_destructorINS_9allocatorIS7_EEEEE3getB9nqe210106Ev, symObjAddr: 0xE420, symBinAddr: 0x17210, symSize: 0x20 }
  - { offset: 0x97D2A, size: 0x8, addend: 0x0, symName: __ZNSt3__110unique_ptrINS_11__tree_nodeINS_12__value_typeI7QString10QJsonArrayEEPvEENS_22__tree_node_destructorINS_9allocatorIS7_EEEEE7releaseB9nqe210106Ev, symObjAddr: 0xE440, symBinAddr: 0x17230, symSize: 0x20 }
  - { offset: 0x97D60, size: 0x8, addend: 0x0, symName: __ZNSt3__110unique_ptrINS_11__tree_nodeINS_12__value_typeI7QString10QJsonArrayEEPvEENS_22__tree_node_destructorINS_9allocatorIS7_EEEEED1B9nqe210106Ev, symObjAddr: 0xE460, symBinAddr: 0x17250, symSize: 0x20 }
  - { offset: 0x97D8A, size: 0x8, addend: 0x0, symName: __ZNSt3__115__tree_iteratorINS_12__value_typeI7QString10QJsonArrayEEPNS_11__tree_nodeIS4_PvEElEC1B9nqe210106ES8_, symObjAddr: 0xE480, symBinAddr: 0x17270, symSize: 0x30 }
  - { offset: 0x97DC8, size: 0x8, addend: 0x0, symName: __ZNSt3__14pairINS_15__tree_iteratorINS_12__value_typeI7QString10QJsonArrayEEPNS_11__tree_nodeIS5_PvEElEEbEC1B9nqe210106ISA_RbLi0EEEOT_OT0_, symObjAddr: 0xE4B0, symBinAddr: 0x172A0, symSize: 0x30 }
  - { offset: 0x97E26, size: 0x8, addend: 0x0, symName: __ZNSt3__16__treeINS_12__value_typeI7QString10QJsonArrayEENS_19__map_value_compareIS2_NS_4pairIKS2_S3_EENS_4lessIS2_EELb1EEENS_9allocatorIS8_EEE3endB9nqe210106Ev, symObjAddr: 0xE4E0, symBinAddr: 0x172D0, symSize: 0x30 }
  - { offset: 0x97E4C, size: 0x8, addend: 0x0, symName: __ZNSt3__121__tree_const_iteratorINS_12__value_typeI7QString10QJsonArrayEEPNS_11__tree_nodeIS4_PvEElEC1B9nqe210106ENS_15__tree_iteratorIS4_S8_lEE, symObjAddr: 0xE510, symBinAddr: 0x17300, symSize: 0x30 }
  - { offset: 0x97E85, size: 0x8, addend: 0x0, symName: __ZNSt3__16__treeINS_12__value_typeI7QString10QJsonArrayEENS_19__map_value_compareIS2_NS_4pairIKS2_S3_EENS_4lessIS2_EELb1EEENS_9allocatorIS8_EEE10value_compB9nqe210106Ev, symObjAddr: 0xE540, symBinAddr: 0x17330, symSize: 0x20 }
  - { offset: 0x97EAB, size: 0x8, addend: 0x0, symName: __ZNKSt3__119__map_value_compareI7QStringNS_4pairIKS1_10QJsonArrayEENS_4lessIS1_EELb1EEclB9nqe210106ERS3_RKS5_, symObjAddr: 0xE560, symBinAddr: 0x17350, symSize: 0x30 }
  - { offset: 0x97EEF, size: 0x8, addend: 0x0, symName: __ZNKSt3__121__tree_const_iteratorINS_12__value_typeI7QString10QJsonArrayEEPNS_11__tree_nodeIS4_PvEElEdeB9nqe210106Ev, symObjAddr: 0xE590, symBinAddr: 0x17380, symSize: 0x20 }
  - { offset: 0x97F15, size: 0x8, addend: 0x0, symName: __ZNSt3__16__treeINS_12__value_typeI7QString10QJsonArrayEENS_19__map_value_compareIS2_NS_4pairIKS2_S3_EENS_4lessIS2_EELb1EEENS_9allocatorIS8_EEE5beginB9nqe210106Ev, symObjAddr: 0xE5B0, symBinAddr: 0x173A0, symSize: 0x30 }
  - { offset: 0x97F3B, size: 0x8, addend: 0x0, symName: __ZNKSt3__119__map_value_compareI7QStringNS_4pairIKS1_10QJsonArrayEENS_4lessIS1_EELb1EEclB9nqe210106ERKS5_RS3_, symObjAddr: 0xE5E0, symBinAddr: 0x173D0, symSize: 0x30 }
  - { offset: 0x97F7F, size: 0x8, addend: 0x0, symName: __ZNSt3__121__tree_const_iteratorINS_12__value_typeI7QString10QJsonArrayEEPNS_11__tree_nodeIS4_PvEElEmmB9nqe210106Ev, symObjAddr: 0xE610, symBinAddr: 0x17400, symSize: 0x30 }
  - { offset: 0x97FA5, size: 0x8, addend: 0x0, symName: __ZNSt3__16__treeINS_12__value_typeI7QString10QJsonArrayEENS_19__map_value_compareIS2_NS_4pairIKS2_S3_EENS_4lessIS2_EELb1EEENS_9allocatorIS8_EEE12__find_equalIS2_EERPNS_16__tree_node_baseIPvEERPNS_15__tree_end_nodeISJ_EERKT_, symObjAddr: 0xE640, symBinAddr: 0x17430, symSize: 0x150 }
  - { offset: 0x98012, size: 0x8, addend: 0x0, symName: __ZNKSt3__121__tree_const_iteratorINS_12__value_typeI7QString10QJsonArrayEEPNS_11__tree_nodeIS4_PvEElE8__get_npB9nqe210106Ev, symObjAddr: 0xE7C0, symBinAddr: 0x175B0, symSize: 0x20 }
  - { offset: 0x98038, size: 0x8, addend: 0x0, symName: __ZNSt3__115__tree_iteratorINS_12__value_typeI7QString10QJsonArrayEEPNS_11__tree_nodeIS4_PvEElEC1B9nqe210106EPNS_15__tree_end_nodeIPNS_16__tree_node_baseIS6_EEEE, symObjAddr: 0xE7E0, symBinAddr: 0x175D0, symSize: 0x30 }
  - { offset: 0x98071, size: 0x8, addend: 0x0, symName: __ZNSt3__115__tree_iteratorINS_12__value_typeI7QString10QJsonArrayEEPNS_11__tree_nodeIS4_PvEElEC2B9nqe210106EPNS_15__tree_end_nodeIPNS_16__tree_node_baseIS6_EEEE, symObjAddr: 0xE810, symBinAddr: 0x17600, symSize: 0x20 }
  - { offset: 0x980AA, size: 0x8, addend: 0x0, symName: __ZNSt3__121__tree_const_iteratorINS_12__value_typeI7QString10QJsonArrayEEPNS_11__tree_nodeIS4_PvEElEC2B9nqe210106ENS_15__tree_iteratorIS4_S8_lEE, symObjAddr: 0xE830, symBinAddr: 0x17620, symSize: 0x20 }
  - { offset: 0x980E3, size: 0x8, addend: 0x0, symName: __ZNKSt3__16__treeINS_12__value_typeI7QString10QJsonArrayEENS_19__map_value_compareIS2_NS_4pairIKS2_S3_EENS_4lessIS2_EELb1EEENS_9allocatorIS8_EEE10__root_ptrB9nqe210106Ev, symObjAddr: 0xE850, symBinAddr: 0x17640, symSize: 0x20 }
  - { offset: 0x98109, size: 0x8, addend: 0x0, symName: __ZNSt3__121__tree_const_iteratorINS_12__value_typeI7QString10QJsonArrayEEPNS_11__tree_nodeIS4_PvEElEppB9nqe210106Ev, symObjAddr: 0xE910, symBinAddr: 0x17700, symSize: 0x30 }
  - { offset: 0x9812F, size: 0x8, addend: 0x0, symName: __ZNSt3__116allocator_traitsINS_9allocatorINS_11__tree_nodeINS_12__value_typeI7QString10QJsonArrayEEPvEEEEE8allocateB9nqe210106ERS9_m, symObjAddr: 0xE940, symBinAddr: 0x17730, symSize: 0x30 }
  - { offset: 0x98162, size: 0x8, addend: 0x0, symName: __ZNSt3__122__tree_node_destructorINS_9allocatorINS_11__tree_nodeINS_12__value_typeI7QString10QJsonArrayEEPvEEEEEC1B9nqe210106ERS9_b, symObjAddr: 0xE970, symBinAddr: 0x17760, symSize: 0x40 }
  - { offset: 0x981AF, size: 0x8, addend: 0x0, symName: __ZNSt3__110unique_ptrINS_11__tree_nodeINS_12__value_typeI7QString10QJsonArrayEEPvEENS_22__tree_node_destructorINS_9allocatorIS7_EEEEEC1B9nqe210106ILb1EvEEPS7_NS_16__dependent_typeINS_27__unique_ptr_deleter_sfinaeISB_EEXT_EE20__good_rval_ref_typeE, symObjAddr: 0xE9B0, symBinAddr: 0x177A0, symSize: 0x30 }
  - { offset: 0x98201, size: 0x8, addend: 0x0, symName: __ZNSt3__116allocator_traitsINS_9allocatorINS_11__tree_nodeINS_12__value_typeI7QString10QJsonArrayEEPvEEEEE9constructB9nqe210106INS_4pairIKS4_S5_EEJRKSE_ELi0EEEvRS9_PT_DpOT0_, symObjAddr: 0xE9E0, symBinAddr: 0x177D0, symSize: 0x30 }
  - { offset: 0x9825F, size: 0x8, addend: 0x0, symName: __ZNKSt3__110unique_ptrINS_11__tree_nodeINS_12__value_typeI7QString10QJsonArrayEEPvEENS_22__tree_node_destructorINS_9allocatorIS7_EEEEEptB9nqe210106Ev, symObjAddr: 0xEA10, symBinAddr: 0x17800, symSize: 0x20 }
  - { offset: 0x98285, size: 0x8, addend: 0x0, symName: __ZNSt3__110unique_ptrINS_11__tree_nodeINS_12__value_typeI7QString10QJsonArrayEEPvEENS_22__tree_node_destructorINS_9allocatorIS7_EEEEE11get_deleterB9nqe210106Ev, symObjAddr: 0xEA30, symBinAddr: 0x17820, symSize: 0x20 }
  - { offset: 0x982AB, size: 0x8, addend: 0x0, symName: __ZNSt3__19allocatorINS_11__tree_nodeINS_12__value_typeI7QString10QJsonArrayEEPvEEE8allocateB9nqe210106Em, symObjAddr: 0xEA50, symBinAddr: 0x17840, symSize: 0x50 }
  - { offset: 0x982DF, size: 0x8, addend: 0x0, symName: __ZNSt3__116allocator_traitsINS_9allocatorINS_11__tree_nodeINS_12__value_typeI7QString10QJsonArrayEEPvEEEEE8max_sizeB9nqe210106IS9_Li0EEEmRKS9_, symObjAddr: 0xEAA0, symBinAddr: 0x17890, symSize: 0x20 }
  - { offset: 0x98312, size: 0x8, addend: 0x0, symName: __ZNKSt3__19allocatorINS_11__tree_nodeINS_12__value_typeI7QString10QJsonArrayEEPvEEE8max_sizeB9nqe210106Ev, symObjAddr: 0xEB20, symBinAddr: 0x17910, symSize: 0x20 }
  - { offset: 0x98338, size: 0x8, addend: 0x0, symName: __ZNSt3__122__tree_node_destructorINS_9allocatorINS_11__tree_nodeINS_12__value_typeI7QString10QJsonArrayEEPvEEEEEC2B9nqe210106ERS9_b, symObjAddr: 0xEB40, symBinAddr: 0x17930, symSize: 0x30 }
  - { offset: 0x98380, size: 0x8, addend: 0x0, symName: __ZNSt3__110unique_ptrINS_11__tree_nodeINS_12__value_typeI7QString10QJsonArrayEEPvEENS_22__tree_node_destructorINS_9allocatorIS7_EEEEEC2B9nqe210106ILb1EvEEPS7_NS_16__dependent_typeINS_27__unique_ptr_deleter_sfinaeISB_EEXT_EE20__good_rval_ref_typeE, symObjAddr: 0xEB70, symBinAddr: 0x17960, symSize: 0x50 }
  - { offset: 0x983D7, size: 0x8, addend: 0x0, symName: __ZNSt3__125__compressed_pair_paddingINS_22__tree_node_destructorINS_9allocatorINS_11__tree_nodeINS_12__value_typeI7QString10QJsonArrayEEPvEEEEEELb0EEC1Ev, symObjAddr: 0xEBC0, symBinAddr: 0x179B0, symSize: 0x20 }
  - { offset: 0x98403, size: 0x8, addend: 0x0, symName: __ZNSt3__125__compressed_pair_paddingINS_22__tree_node_destructorINS_9allocatorINS_11__tree_nodeINS_12__value_typeI7QString10QJsonArrayEEPvEEEEEELb0EEC2Ev, symObjAddr: 0xEBE0, symBinAddr: 0x179D0, symSize: 0x40 }
  - { offset: 0x9842F, size: 0x8, addend: 0x0, symName: __ZNSt3__19allocatorINS_11__tree_nodeINS_12__value_typeI7QString10QJsonArrayEEPvEEE9constructB9nqe210106INS_4pairIKS3_S4_EEJRKSC_EEEvPT_DpOT0_, symObjAddr: 0xEC20, symBinAddr: 0x17A10, symSize: 0x30 }
  - { offset: 0x98487, size: 0x8, addend: 0x0, symName: __ZNSt3__14pairIK7QString10QJsonArrayEC1B9nqe210106ERKS4_, symObjAddr: 0xEC50, symBinAddr: 0x17A40, symSize: 0x30 }
  - { offset: 0x984BC, size: 0x8, addend: 0x0, symName: __ZNSt3__14pairIK7QString10QJsonArrayEC2B9nqe210106ERKS4_, symObjAddr: 0xEC80, symBinAddr: 0x17A70, symSize: 0x40 }
  - { offset: 0x984F1, size: 0x8, addend: 0x0, symName: __ZNSt3__16__treeINS_12__value_typeI7QString10QJsonArrayEENS_19__map_value_compareIS2_NS_4pairIKS2_S3_EENS_4lessIS2_EELb1EEENS_9allocatorIS8_EEE4sizeB9nqe210106Ev, symObjAddr: 0xECC0, symBinAddr: 0x17AB0, symSize: 0x20 }
  - { offset: 0x98517, size: 0x8, addend: 0x0, symName: __ZNSt3__110unique_ptrINS_11__tree_nodeINS_12__value_typeI7QString10QJsonArrayEEPvEENS_22__tree_node_destructorINS_9allocatorIS7_EEEEED2B9nqe210106Ev, symObjAddr: 0xECE0, symBinAddr: 0x17AD0, symSize: 0x20 }
  - { offset: 0x98541, size: 0x8, addend: 0x0, symName: __ZNSt3__110unique_ptrINS_11__tree_nodeINS_12__value_typeI7QString10QJsonArrayEEPvEENS_22__tree_node_destructorINS_9allocatorIS7_EEEEE5resetB9nqe210106EPS7_, symObjAddr: 0xED00, symBinAddr: 0x17AF0, symSize: 0x50 }
  - { offset: 0x98586, size: 0x8, addend: 0x0, symName: __ZNSt3__122__tree_node_destructorINS_9allocatorINS_11__tree_nodeINS_12__value_typeI7QString10QJsonArrayEEPvEEEEEclB9nqe210106EPS8_, symObjAddr: 0xED50, symBinAddr: 0x17B40, symSize: 0x60 }
  - { offset: 0x985BB, size: 0x8, addend: 0x0, symName: __ZNSt3__115__tree_iteratorINS_12__value_typeI7QString10QJsonArrayEEPNS_11__tree_nodeIS4_PvEElEC2B9nqe210106ES8_, symObjAddr: 0xEDB0, symBinAddr: 0x17BA0, symSize: 0x20 }
  - { offset: 0x985F4, size: 0x8, addend: 0x0, symName: __ZNSt3__14pairINS_15__tree_iteratorINS_12__value_typeI7QString10QJsonArrayEEPNS_11__tree_nodeIS5_PvEElEEbEC2B9nqe210106ISA_RbLi0EEEOT_OT0_, symObjAddr: 0xEDD0, symBinAddr: 0x17BC0, symSize: 0x30 }
  - { offset: 0x98652, size: 0x8, addend: 0x0, symName: __ZNSt3__114__map_iteratorINS_15__tree_iteratorINS_12__value_typeI7QString10QJsonArrayEEPNS_11__tree_nodeIS5_PvEElEEEC2B9nqe210106ESA_, symObjAddr: 0xEE00, symBinAddr: 0x17BF0, symSize: 0x20 }
  - { offset: 0x9868B, size: 0x8, addend: 0x0, symName: __ZNSt3__120__map_const_iteratorINS_21__tree_const_iteratorINS_12__value_typeI7QString10QJsonArrayEEPNS_11__tree_nodeIS5_PvEElEEEC2B9nqe210106ESA_, symObjAddr: 0xEE20, symBinAddr: 0x17C10, symSize: 0x20 }
  - { offset: 0x986C4, size: 0x8, addend: 0x0, symName: __ZNKSt3__16__treeINS_12__value_typeI7QString10QJsonArrayEENS_19__map_value_compareIS2_NS_4pairIKS2_S3_EENS_4lessIS2_EELb1EEENS_9allocatorIS8_EEE5beginB9nqe210106Ev, symObjAddr: 0xEE40, symBinAddr: 0x17C30, symSize: 0x30 }
  - { offset: 0x986EA, size: 0x8, addend: 0x0, symName: __ZNKSt3__16__treeINS_12__value_typeI7QString10QJsonArrayEENS_19__map_value_compareIS2_NS_4pairIKS2_S3_EENS_4lessIS2_EELb1EEENS_9allocatorIS8_EEE12__begin_nodeB9nqe210106Ev, symObjAddr: 0xEE70, symBinAddr: 0x17C60, symSize: 0x10 }
  - { offset: 0x98710, size: 0x8, addend: 0x0, symName: __ZNSt3__121__tree_const_iteratorINS_12__value_typeI7QString10QJsonArrayEEPNS_11__tree_nodeIS4_PvEElEC1B9nqe210106EPNS_15__tree_end_nodeIPNS_16__tree_node_baseIS6_EEEE, symObjAddr: 0xEE80, symBinAddr: 0x17C70, symSize: 0x30 }
  - { offset: 0x98749, size: 0x8, addend: 0x0, symName: __ZNSt3__121__tree_const_iteratorINS_12__value_typeI7QString10QJsonArrayEEPNS_11__tree_nodeIS4_PvEElEC2B9nqe210106EPNS_15__tree_end_nodeIPNS_16__tree_node_baseIS6_EEEE, symObjAddr: 0xEEB0, symBinAddr: 0x17CA0, symSize: 0x20 }
  - { offset: 0x98782, size: 0x8, addend: 0x0, symName: __ZNKSt3__16__treeINS_12__value_typeI7QString10QJsonArrayEENS_19__map_value_compareIS2_NS_4pairIKS2_S3_EENS_4lessIS2_EELb1EEENS_9allocatorIS8_EEE3endB9nqe210106Ev, symObjAddr: 0xEED0, symBinAddr: 0x17CC0, symSize: 0x30 }
  - { offset: 0x987A8, size: 0x8, addend: 0x0, symName: __ZN9QtPrivate30QExplicitlySharedDataPointerV2I8QMapDataINSt3__13mapI7QString10QJsonArrayNS2_4lessIS4_EENS2_9allocatorINS2_4pairIKS4_S5_EEEEEEEEC2EPSE_, symObjAddr: 0xEF00, symBinAddr: 0x17CF0, symSize: 0x50 }
  - { offset: 0x987DF, size: 0x8, addend: 0x0, symName: __Z11qt_ptr_swapI8QMapDataINSt3__13mapI7QString10QJsonArrayNS1_4lessIS3_EENS1_9allocatorINS1_4pairIKS3_S4_EEEEEEEEvRPT_SG_, symObjAddr: 0xEF80, symBinAddr: 0x17D70, symSize: 0x40 }
  - { offset: 0x9882D, size: 0x8, addend: 0x0, symName: __ZNSt3__16__treeINS_12__value_typeI7QString10QJsonArrayEENS_19__map_value_compareIS2_NS_4pairIKS2_S3_EENS_4lessIS2_EELb1EEENS_9allocatorIS8_EEE4findIS2_EENS_15__tree_iteratorIS4_PNS_11__tree_nodeIS4_PvEElEERKT_, symObjAddr: 0xEFC0, symBinAddr: 0x17DB0, symSize: 0xD0 }
  - { offset: 0x9887B, size: 0x8, addend: 0x0, symName: __ZNSt3__16__treeINS_12__value_typeI7QString10QJsonArrayEENS_19__map_value_compareIS2_NS_4pairIKS2_S3_EENS_4lessIS2_EELb1EEENS_9allocatorIS8_EEE13__lower_boundIS2_EENS_15__tree_iteratorIS4_PNS_11__tree_nodeIS4_PvEElEERKT_SK_PNS_15__tree_end_nodeIPNS_16__tree_node_baseISI_EEEE, symObjAddr: 0xF090, symBinAddr: 0x17E80, symSize: 0x90 }
  - { offset: 0x988D7, size: 0x8, addend: 0x0, symName: __ZNKSt3__115__tree_iteratorINS_12__value_typeI7QString10QJsonArrayEEPNS_11__tree_nodeIS4_PvEElEdeB9nqe210106Ev, symObjAddr: 0xF150, symBinAddr: 0x17F40, symSize: 0x20 }
  - { offset: 0x988FD, size: 0x8, addend: 0x0, symName: __ZNKSt3__115__tree_iteratorINS_12__value_typeI7QString10QJsonArrayEEPNS_11__tree_nodeIS4_PvEElE8__get_npB9nqe210106Ev, symObjAddr: 0xF1A0, symBinAddr: 0x17F90, symSize: 0x20 }
  - { offset: 0x98923, size: 0x8, addend: 0x0, symName: __ZNSt3__16__treeINS_12__value_typeI7QString10QJsonArrayEENS_19__map_value_compareIS2_NS_4pairIKS2_S3_EENS_4lessIS2_EELb1EEENS_9allocatorIS8_EEE16__emplace_uniqueB9nqe210106IS8_EENS6_INS_15__tree_iteratorIS4_PNS_11__tree_nodeIS4_PvEElEEbEEOT_, symObjAddr: 0xF1C0, symBinAddr: 0x17FB0, symSize: 0x40 }
  - { offset: 0x98961, size: 0x8, addend: 0x0, symName: __ZNSt3__14pairINS_14__map_iteratorINS_15__tree_iteratorINS_12__value_typeI7QString10QJsonArrayEEPNS_11__tree_nodeIS6_PvEElEEEEbEC1B9nqe210106ISB_bLi0EEEONS0_IT_T0_EE, symObjAddr: 0xF200, symBinAddr: 0x17FF0, symSize: 0x30 }
  - { offset: 0x989B1, size: 0x8, addend: 0x0, symName: __ZNSt3__16__treeINS_12__value_typeI7QString10QJsonArrayEENS_19__map_value_compareIS2_NS_4pairIKS2_S3_EENS_4lessIS2_EELb1EEENS_9allocatorIS8_EEE28__emplace_unique_extract_keyB9nqe210106IS8_EENS6_INS_15__tree_iteratorIS4_PNS_11__tree_nodeIS4_PvEElEEbEEOT_NS_23__extract_key_first_tagE, symObjAddr: 0xF230, symBinAddr: 0x18020, symSize: 0x50 }
  - { offset: 0x989FB, size: 0x8, addend: 0x0, symName: __ZNSt3__16__treeINS_12__value_typeI7QString10QJsonArrayEENS_19__map_value_compareIS2_NS_4pairIKS2_S3_EENS_4lessIS2_EELb1EEENS_9allocatorIS8_EEE25__emplace_unique_key_argsIS2_JS8_EEENS6_INS_15__tree_iteratorIS4_PNS_11__tree_nodeIS4_PvEElEEbEERKT_DpOT0_, symObjAddr: 0xF280, symBinAddr: 0x18070, symSize: 0xE0 }
  - { offset: 0x98AB6, size: 0x8, addend: 0x0, symName: __ZNSt3__16__treeINS_12__value_typeI7QString10QJsonArrayEENS_19__map_value_compareIS2_NS_4pairIKS2_S3_EENS_4lessIS2_EELb1EEENS_9allocatorIS8_EEE16__construct_nodeIJS8_EEENS_10unique_ptrINS_11__tree_nodeIS4_PvEENS_22__tree_node_destructorINSC_ISJ_EEEEEEDpOT_, symObjAddr: 0xF360, symBinAddr: 0x18150, symSize: 0xE0 }
  - { offset: 0x98B19, size: 0x8, addend: 0x0, symName: __ZNSt3__116allocator_traitsINS_9allocatorINS_11__tree_nodeINS_12__value_typeI7QString10QJsonArrayEEPvEEEEE9constructB9nqe210106INS_4pairIKS4_S5_EEJSE_ELi0EEEvRS9_PT_DpOT0_, symObjAddr: 0xF440, symBinAddr: 0x18230, symSize: 0x30 }
  - { offset: 0x98B77, size: 0x8, addend: 0x0, symName: __ZNSt3__19allocatorINS_11__tree_nodeINS_12__value_typeI7QString10QJsonArrayEEPvEEE9constructB9nqe210106INS_4pairIKS3_S4_EEJSC_EEEvPT_DpOT0_, symObjAddr: 0xF470, symBinAddr: 0x18260, symSize: 0x30 }
  - { offset: 0x98BCF, size: 0x8, addend: 0x0, symName: __ZNSt3__14pairIK7QString10QJsonArrayEC1B9nqe210106EOS4_, symObjAddr: 0xF4A0, symBinAddr: 0x18290, symSize: 0x30 }
  - { offset: 0x98C04, size: 0x8, addend: 0x0, symName: __ZNSt3__14pairIK7QString10QJsonArrayEC2B9nqe210106EOS4_, symObjAddr: 0xF4D0, symBinAddr: 0x182C0, symSize: 0x40 }
  - { offset: 0x98C39, size: 0x8, addend: 0x0, symName: __ZNSt3__14pairINS_14__map_iteratorINS_15__tree_iteratorINS_12__value_typeI7QString10QJsonArrayEEPNS_11__tree_nodeIS6_PvEElEEEEbEC2B9nqe210106ISB_bLi0EEEONS0_IT_T0_EE, symObjAddr: 0xF510, symBinAddr: 0x18300, symSize: 0x50 }
  - { offset: 0x98C89, size: 0x8, addend: 0x0, symName: __ZNSt3__14pairIK7QString10QJsonArrayEC2B9nqe210106IRS2_S3_Li0EEEOT_OT0_, symObjAddr: 0xF560, symBinAddr: 0x18350, symSize: 0x40 }
  - { offset: 0x98CE7, size: 0x8, addend: 0x0, symName: __ZNSt3__114pointer_traitsIPNS_4pairIK7QString10QJsonArrayEEE10pointer_toB9nqe210106ERS5_, symObjAddr: 0xF5A0, symBinAddr: 0x18390, symSize: 0x10 }
  - { offset: 0x98D0A, size: 0x8, addend: 0x0, symName: __ZN5QListI7QStringEC1Ev, symObjAddr: 0xF5B0, symBinAddr: 0x183A0, symSize: 0x20 }
  - { offset: 0x98D34, size: 0x8, addend: 0x0, symName: __ZNK9QtPrivate30QExplicitlySharedDataPointerV2I8QMapDataINSt3__13mapI7QString10QJsonArrayNS2_4lessIS4_EENS2_9allocatorINS2_4pairIKS4_S5_EEEEEEEEptEv, symObjAddr: 0xF5D0, symBinAddr: 0x183C0, symSize: 0x20 }
  - { offset: 0x98D5A, size: 0x8, addend: 0x0, symName: __ZNK8QMapDataINSt3__13mapI7QString10QJsonArrayNS0_4lessIS2_EENS0_9allocatorINS0_4pairIKS2_S3_EEEEEEE4keysEv, symObjAddr: 0xF5F0, symBinAddr: 0x183E0, symSize: 0xF0 }
  - { offset: 0x98DC5, size: 0x8, addend: 0x0, symName: __ZN5QListI7QStringEC2Ev, symObjAddr: 0xF6E0, symBinAddr: 0x184D0, symSize: 0x20 }
  - { offset: 0x98DEF, size: 0x8, addend: 0x0, symName: __ZN17QArrayDataPointerI7QStringEC1Ev, symObjAddr: 0xF700, symBinAddr: 0x184F0, symSize: 0x20 }
  - { offset: 0x98E19, size: 0x8, addend: 0x0, symName: __ZN17QArrayDataPointerI7QStringEC2Ev, symObjAddr: 0xF720, symBinAddr: 0x18510, symSize: 0x30 }
  - { offset: 0x98E43, size: 0x8, addend: 0x0, symName: __ZN5QListI7QStringE7reserveEx, symObjAddr: 0xF750, symBinAddr: 0x18540, symSize: 0x1F0 }
  - { offset: 0x98E9B, size: 0x8, addend: 0x0, symName: __ZNKSt3__13mapI7QString10QJsonArrayNS_4lessIS1_EENS_9allocatorINS_4pairIKS1_S2_EEEEE4sizeB9nqe210106Ev, symObjAddr: 0xF940, symBinAddr: 0x18730, symSize: 0x20 }
  - { offset: 0x98EC1, size: 0x8, addend: 0x0, symName: __ZNKSt3__13mapI7QString10QJsonArrayNS_4lessIS1_EENS_9allocatorINS_4pairIKS1_S2_EEEEE6cbeginB9nqe210106Ev, symObjAddr: 0xFA10, symBinAddr: 0x18800, symSize: 0x30 }
  - { offset: 0x98EE7, size: 0x8, addend: 0x0, symName: __ZNK5QListI7QStringE8capacityEv, symObjAddr: 0xFA70, symBinAddr: 0x18860, symSize: 0x30 }
  - { offset: 0x98F0D, size: 0x8, addend: 0x0, symName: __ZNK17QArrayDataPointerI7QStringE5flagsEv, symObjAddr: 0xFAA0, symBinAddr: 0x18890, symSize: 0x40 }
  - { offset: 0x98F33, size: 0x8, addend: 0x0, symName: __ZN17QArrayDataPointerI7QStringE7setFlagE6QFlagsIN10QArrayData11ArrayOptionEE, symObjAddr: 0xFB30, symBinAddr: 0x188D0, symSize: 0x60 }
  - { offset: 0x98F68, size: 0x8, addend: 0x0, symName: __ZNK5QListI7QStringE4sizeEv, symObjAddr: 0xFC00, symBinAddr: 0x18930, symSize: 0x50 }
  - { offset: 0x98FC3, size: 0x8, addend: 0x0, symName: __ZN17QArrayDataPointerI7QStringE5d_ptrEv, symObjAddr: 0xFC50, symBinAddr: 0x18980, symSize: 0x20 }
  - { offset: 0x98FE9, size: 0x8, addend: 0x0, symName: __ZN17QArrayDataPointerI7QStringE4swapERS1_, symObjAddr: 0xFC70, symBinAddr: 0x189A0, symSize: 0x60 }
  - { offset: 0x9901D, size: 0x8, addend: 0x0, symName: __ZNK17QArrayDataPointerI7QStringEptEv, symObjAddr: 0xFCD0, symBinAddr: 0x18A00, symSize: 0x10 }
  - { offset: 0x99043, size: 0x8, addend: 0x0, symName: __ZNK17QArrayDataPointerI7QStringE22constAllocatedCapacityEv, symObjAddr: 0xFCE0, symBinAddr: 0x18A10, symSize: 0x40 }
  - { offset: 0x99078, size: 0x8, addend: 0x0, symName: __ZZNK5QListI7QStringE4sizeEvENKUlvE_clEv, symObjAddr: 0xFE20, symBinAddr: 0x18A50, symSize: 0x50 }
  - { offset: 0x990A1, size: 0x8, addend: 0x0, symName: __Z11qt_ptr_swapI15QTypedArrayDataI7QStringEEvRPT_S5_, symObjAddr: 0xFE70, symBinAddr: 0x18AA0, symSize: 0x40 }
  - { offset: 0x990EE, size: 0x8, addend: 0x0, symName: __Z11qt_ptr_swapI7QStringEvRPT_S3_, symObjAddr: 0xFEB0, symBinAddr: 0x18AE0, symSize: 0x40 }
  - { offset: 0x9913C, size: 0x8, addend: 0x0, symName: __ZNKSt3__16__treeINS_12__value_typeI7QString10QJsonArrayEENS_19__map_value_compareIS2_NS_4pairIKS2_S3_EENS_4lessIS2_EELb1EEENS_9allocatorIS8_EEE4sizeB9nqe210106Ev, symObjAddr: 0xFF30, symBinAddr: 0x18B20, symSize: 0x20 }
  - { offset: 0x9916C, size: 0x8, addend: 0x0, symName: __ZZNK8QMapDataINSt3__13mapI7QString10QJsonArrayNS0_4lessIS2_EENS0_9allocatorINS0_4pairIKS2_S3_EEEEEEE4keysEvENKUlRKT_E_clIS9_EEDaSF_, symObjAddr: 0xFF50, symBinAddr: 0x18B40, symSize: 0x30 }
  - { offset: 0x991AD, size: 0x8, addend: 0x0, symName: __ZNSt3__120back_insert_iteratorI5QListI7QStringEEdeB9nqe210106Ev, symObjAddr: 0xFF80, symBinAddr: 0x18B70, symSize: 0x10 }
  - { offset: 0x991D3, size: 0x8, addend: 0x0, symName: __ZNSt3__120back_insert_iteratorI5QListI7QStringEEaSB9nqe210106EOS2_, symObjAddr: 0xFF90, symBinAddr: 0x18B80, symSize: 0x30 }
  - { offset: 0x99207, size: 0x8, addend: 0x0, symName: __ZNSt3__120back_insert_iteratorI5QListI7QStringEEppB9nqe210106Ev, symObjAddr: 0xFFC0, symBinAddr: 0x18BB0, symSize: 0x10 }
  - { offset: 0x9922D, size: 0x8, addend: 0x0, symName: __ZN5QListI7QStringE9push_backEOS0_, symObjAddr: 0xFFD0, symBinAddr: 0x18BC0, symSize: 0x30 }
  - { offset: 0x99262, size: 0x8, addend: 0x0, symName: __ZN5QListI7QStringE6appendEOS0_, symObjAddr: 0x10000, symBinAddr: 0x18BF0, symSize: 0x30 }
  - { offset: 0x99297, size: 0x8, addend: 0x0, symName: __ZN5QListI7QStringE11emplaceBackIJS0_EEERS0_DpOT_, symObjAddr: 0x10030, symBinAddr: 0x18C20, symSize: 0x70 }
  - { offset: 0x992D9, size: 0x8, addend: 0x0, symName: __ZN9QtPrivate16QMovableArrayOpsI7QStringE7emplaceIJS1_EEEvxDpOT_, symObjAddr: 0x100A0, symBinAddr: 0x18C90, symSize: 0x210 }
  - { offset: 0x9936A, size: 0x8, addend: 0x0, symName: __ZNK5QListI7QStringE8iteratormiEx, symObjAddr: 0x102B0, symBinAddr: 0x18EA0, symSize: 0x40 }
  - { offset: 0x9939E, size: 0x8, addend: 0x0, symName: __ZNK17QArrayDataPointerI7QStringE11needsDetachEv, symObjAddr: 0x102F0, symBinAddr: 0x18EE0, symSize: 0x40 }
  - { offset: 0x993C4, size: 0x8, addend: 0x0, symName: __ZN17QArrayDataPointerI7QStringE13detachAndGrowEN10QArrayData14GrowthPositionExPPKS0_PS1_, symObjAddr: 0x10330, symBinAddr: 0x18F20, symSize: 0x100 }
  - { offset: 0x99461, size: 0x8, addend: 0x0, symName: __ZN9QtPrivate16QMovableArrayOpsI7QStringE8InserterC1EP17QArrayDataPointerIS1_Exx, symObjAddr: 0x10430, symBinAddr: 0x19020, symSize: 0x40 }
  - { offset: 0x994B8, size: 0x8, addend: 0x0, symName: __ZN9QtPrivate16QMovableArrayOpsI7QStringE8Inserter9insertOneEOS1_, symObjAddr: 0x10470, symBinAddr: 0x19060, symSize: 0x40 }
  - { offset: 0x994ED, size: 0x8, addend: 0x0, symName: __ZN9QtPrivate16QMovableArrayOpsI7QStringE8InserterD1Ev, symObjAddr: 0x104B0, symBinAddr: 0x190A0, symSize: 0x20 }
  - { offset: 0x99517, size: 0x8, addend: 0x0, symName: __ZN17QArrayDataPointerI7QStringE20tryReadjustFreeSpaceEN10QArrayData14GrowthPositionExPPKS0_, symObjAddr: 0x10500, symBinAddr: 0x190C0, symSize: 0x1E0 }
  - { offset: 0x995AB, size: 0x8, addend: 0x0, symName: __ZN17QArrayDataPointerI7QStringE17reallocateAndGrowEN10QArrayData14GrowthPositionExPS1_, symObjAddr: 0x106E0, symBinAddr: 0x192A0, symSize: 0x260 }
  - { offset: 0x99627, size: 0x8, addend: 0x0, symName: __ZN17QArrayDataPointerI7QStringE8relocateExPPKS0_, symObjAddr: 0x10990, symBinAddr: 0x19500, symSize: 0x80 }
  - { offset: 0x9968A, size: 0x8, addend: 0x0, symName: __ZNKSt3__14lessIvEclB9nqe210106IRPK7QStringS6_EEDTltclsr3stdE7forwardIT_Efp_Eclsr3stdE7forwardIT0_Efp0_EEOS7_OS8_, symObjAddr: 0x10BE0, symBinAddr: 0x19750, symSize: 0x30 }
  - { offset: 0x996E0, size: 0x8, addend: 0x0, symName: __ZNK17QArrayDataPointerI7QStringE4dataEv, symObjAddr: 0x10C10, symBinAddr: 0x19780, symSize: 0x20 }
  - { offset: 0x99706, size: 0x8, addend: 0x0, symName: __ZNK17QArrayDataPointerI7QStringE5beginEv, symObjAddr: 0x10C60, symBinAddr: 0x197D0, symSize: 0x20 }
  - { offset: 0x9972C, size: 0x8, addend: 0x0, symName: __ZNK17QArrayDataPointerI7QStringE3endEv, symObjAddr: 0x10C80, symBinAddr: 0x197F0, symSize: 0x30 }
  - { offset: 0x99752, size: 0x8, addend: 0x0, symName: __ZN9QtPrivate16QMovableArrayOpsI7QStringE10reallocateExN10QArrayData16AllocationOptionE, symObjAddr: 0x10CB0, symBinAddr: 0x19820, symSize: 0x80 }
  - { offset: 0x997A6, size: 0x8, addend: 0x0, symName: __ZN17QArrayDataPointerI7QStringE12allocateGrowERKS1_xN10QArrayData14GrowthPositionE, symObjAddr: 0x10D30, symBinAddr: 0x198A0, symSize: 0x230 }
  - { offset: 0x99845, size: 0x8, addend: 0x0, symName: __ZN9QtPrivate16QGenericArrayOpsI7QStringE10moveAppendEPS1_S3_, symObjAddr: 0x10F60, symBinAddr: 0x19AD0, symSize: 0x150 }
  - { offset: 0x99899, size: 0x8, addend: 0x0, symName: __ZN15QTypedArrayDataI7QStringE19reallocateUnalignedEPS1_PS0_xN10QArrayData16AllocationOptionE, symObjAddr: 0x110B0, symBinAddr: 0x19C20, symSize: 0x70 }
  - { offset: 0x998F4, size: 0x8, addend: 0x0, symName: __ZNK17QArrayDataPointerI7QStringE14detachCapacityEx, symObjAddr: 0x11120, symBinAddr: 0x19C90, symSize: 0x50 }
  - { offset: 0x99929, size: 0x8, addend: 0x0, symName: __ZN17QArrayDataPointerI7QStringEC1EP15QTypedArrayDataIS0_EPS0_x, symObjAddr: 0x111B0, symBinAddr: 0x19D20, symSize: 0x40 }
  - { offset: 0x9997D, size: 0x8, addend: 0x0, symName: __ZNSt3__110__get_pairILm0EE3getB9nqe210106IP15QTypedArrayDataI7QStringEPS4_EEOT_ONS_4pairIS8_T0_EE, symObjAddr: 0x11280, symBinAddr: 0x19D60, symSize: 0x10 }
  - { offset: 0x999B3, size: 0x8, addend: 0x0, symName: __ZNSt3__110__get_pairILm1EE3getB9nqe210106IP15QTypedArrayDataI7QStringEPS4_EEOT0_ONS_4pairIT_S8_EE, symObjAddr: 0x11290, symBinAddr: 0x19D70, symSize: 0x20 }
  - { offset: 0x999E9, size: 0x8, addend: 0x0, symName: __ZN17QArrayDataPointerI7QStringEC2EP15QTypedArrayDataIS0_EPS0_x, symObjAddr: 0x112B0, symBinAddr: 0x19D90, symSize: 0x40 }
  - { offset: 0x99A3D, size: 0x8, addend: 0x0, symName: __ZN9QtPrivate16QMovableArrayOpsI7QStringE8InserterC2EP17QArrayDataPointerIS1_Exx, symObjAddr: 0x112F0, symBinAddr: 0x19DD0, symSize: 0x80 }
  - { offset: 0x99A94, size: 0x8, addend: 0x0, symName: __ZN9QtPrivate16QMovableArrayOpsI7QStringE8Inserter10verifyPostEv, symObjAddr: 0x11370, symBinAddr: 0x19E50, symSize: 0x40 }
  - { offset: 0x99ABA, size: 0x8, addend: 0x0, symName: __ZN9QtPrivate16QMovableArrayOpsI7QStringE8InserterD2Ev, symObjAddr: 0x113B0, symBinAddr: 0x19E90, symSize: 0x30 }
  - { offset: 0x99B03, size: 0x8, addend: 0x0, symName: __ZN5QListI7QStringE8iteratorC1EPS0_, symObjAddr: 0x113E0, symBinAddr: 0x19EC0, symSize: 0x30 }
  - { offset: 0x99B3B, size: 0x8, addend: 0x0, symName: __ZN5QListI7QStringE8iteratorC2EPS0_, symObjAddr: 0x11410, symBinAddr: 0x19EF0, symSize: 0x20 }
  - { offset: 0x99B73, size: 0x8, addend: 0x0, symName: __ZNSt3__120back_insert_iteratorI5QListI7QStringEEC1B9nqe210106ERS3_, symObjAddr: 0x11430, symBinAddr: 0x19F10, symSize: 0x30 }
  - { offset: 0x99BAB, size: 0x8, addend: 0x0, symName: __ZNSt3__120back_insert_iteratorI5QListI7QStringEEC2B9nqe210106ERS3_, symObjAddr: 0x11460, symBinAddr: 0x19F40, symSize: 0x20 }
  - { offset: 0x99BE3, size: 0x8, addend: 0x0, symName: __ZN5QListI7QStringE6detachEv, symObjAddr: 0x11480, symBinAddr: 0x19F60, symSize: 0x20 }
  - { offset: 0x99C09, size: 0x8, addend: 0x0, symName: __ZN17QArrayDataPointerI7QStringE6detachEPS1_, symObjAddr: 0x114A0, symBinAddr: 0x19F80, symSize: 0x40 }
  - { offset: 0x99C3D, size: 0x8, addend: 0x0, symName: __ZN5QHashI14QSharedPointerIN5Tiled7TilesetEE15QHashDummyValueE5beginEv, symObjAddr: 0x114E0, symBinAddr: 0x19FC0, symSize: 0x80 }
  - { offset: 0x99C63, size: 0x8, addend: 0x0, symName: __ZN4QSetI14QSharedPointerIN5Tiled7TilesetEEE8iteratorC1EN5QHashIS3_15QHashDummyValueE8iteratorE, symObjAddr: 0x11560, symBinAddr: 0x1A040, symSize: 0x30 }
  - { offset: 0x99C9B, size: 0x8, addend: 0x0, symName: __ZN5QHashI14QSharedPointerIN5Tiled7TilesetEE15QHashDummyValueE8iteratorC1Ev, symObjAddr: 0x11590, symBinAddr: 0x1A070, symSize: 0x20 }
  - { offset: 0x99CC5, size: 0x8, addend: 0x0, symName: __ZN5QHashI14QSharedPointerIN5Tiled7TilesetEE15QHashDummyValueE6detachEv, symObjAddr: 0x115B0, symBinAddr: 0x1A090, symSize: 0x50 }
  - { offset: 0x99CEB, size: 0x8, addend: 0x0, symName: __ZN5QHashI14QSharedPointerIN5Tiled7TilesetEE15QHashDummyValueE8iteratorC1EN12QHashPrivate8iteratorINS7_4NodeIS3_S4_EEEE, symObjAddr: 0x11600, symBinAddr: 0x1A0E0, symSize: 0x30 }
  - { offset: 0x99D24, size: 0x8, addend: 0x0, symName: __ZN5QHashI14QSharedPointerIN5Tiled7TilesetEE15QHashDummyValueE8iteratorC2Ev, symObjAddr: 0x11630, symBinAddr: 0x1A110, symSize: 0x20 }
  - { offset: 0x99D4E, size: 0x8, addend: 0x0, symName: __ZNK9QtPrivate8RefCount8isSharedEv, symObjAddr: 0x11650, symBinAddr: 0x1A130, symSize: 0x40 }
  - { offset: 0x99D82, size: 0x8, addend: 0x0, symName: __ZN12QHashPrivate4DataINS_4NodeI14QSharedPointerIN5Tiled7TilesetEE15QHashDummyValueEEE8detachedEPS8_, symObjAddr: 0x11690, symBinAddr: 0x1A170, symSize: 0xE0 }
  - { offset: 0x99DB6, size: 0x8, addend: 0x0, symName: __ZN12QHashPrivate4DataINS_4NodeI14QSharedPointerIN5Tiled7TilesetEE15QHashDummyValueEEEC1Em, symObjAddr: 0x11770, symBinAddr: 0x1A250, symSize: 0x30 }
  - { offset: 0x99DEF, size: 0x8, addend: 0x0, symName: __ZN12QHashPrivate4DataINS_4NodeI14QSharedPointerIN5Tiled7TilesetEE15QHashDummyValueEEEC1ERKS8_, symObjAddr: 0x117A0, symBinAddr: 0x1A280, symSize: 0x30 }
  - { offset: 0x99E28, size: 0x8, addend: 0x0, symName: __ZN12QHashPrivate4DataINS_4NodeI14QSharedPointerIN5Tiled7TilesetEE15QHashDummyValueEEEC2Em, symObjAddr: 0x117D0, symBinAddr: 0x1A2B0, symSize: 0xA0 }
  - { offset: 0x99E61, size: 0x8, addend: 0x0, symName: __ZN19QBasicAtomicIntegerIiEC1Ei, symObjAddr: 0x11870, symBinAddr: 0x1A350, symSize: 0x30 }
  - { offset: 0x99E99, size: 0x8, addend: 0x0, symName: __ZN12QHashPrivate4DataINS_4NodeI14QSharedPointerIN5Tiled7TilesetEE15QHashDummyValueEEE13allocateSpansEm, symObjAddr: 0x11910, symBinAddr: 0x1A3F0, symSize: 0x100 }
  - { offset: 0x99F65, size: 0x8, addend: 0x0, symName: __ZNK9QHashSeedcvmEv, symObjAddr: 0x11A10, symBinAddr: 0x1A4F0, symSize: 0x20 }
  - { offset: 0x99F8A, size: 0x8, addend: 0x0, symName: __Z21qCountLeadingZeroBitsm, symObjAddr: 0x11A30, symBinAddr: 0x1A510, symSize: 0x20 }
  - { offset: 0x99FB7, size: 0x8, addend: 0x0, symName: __ZNSt3__114numeric_limitsImE3maxB9nqe210106Ev, symObjAddr: 0x11A50, symBinAddr: 0x1A530, symSize: 0x10 }
  - { offset: 0x99FCF, size: 0x8, addend: 0x0, symName: __ZN3q2011countl_zeroImEENSt3__19enable_ifIXsr3stdE13is_unsigned_vIT_EEiE4typeES3_, symObjAddr: 0x11A60, symBinAddr: 0x1A540, symSize: 0x30 }
  - { offset: 0x9A006, size: 0x8, addend: 0x0, symName: __ZNSt3__123__libcpp_numeric_limitsImLb1EE3maxB9nqe210106Ev, symObjAddr: 0x11A90, symBinAddr: 0x1A570, symSize: 0x10 }
  - { offset: 0x9A01A, size: 0x8, addend: 0x0, symName: __ZN12QHashPrivate4SpanINS_4NodeI14QSharedPointerIN5Tiled7TilesetEE15QHashDummyValueEEEC1Ev, symObjAddr: 0x11AA0, symBinAddr: 0x1A580, symSize: 0x20 }
  - { offset: 0x9A044, size: 0x8, addend: 0x0, symName: __ZN12QHashPrivate4SpanINS_4NodeI14QSharedPointerIN5Tiled7TilesetEE15QHashDummyValueEEEC2Ev, symObjAddr: 0x11AC0, symBinAddr: 0x1A5A0, symSize: 0x40 }
  - { offset: 0x9A104, size: 0x8, addend: 0x0, symName: __ZN12QHashPrivate4DataINS_4NodeI14QSharedPointerIN5Tiled7TilesetEE15QHashDummyValueEEEC2ERKS8_, symObjAddr: 0x11B00, symBinAddr: 0x1A5E0, symSize: 0x190 }
  - { offset: 0x9A215, size: 0x8, addend: 0x0, symName: __ZNK12QHashPrivate4SpanINS_4NodeI14QSharedPointerIN5Tiled7TilesetEE15QHashDummyValueEEE2atEm, symObjAddr: 0x11C90, symBinAddr: 0x1A770, symSize: 0x90 }
  - { offset: 0x9A24A, size: 0x8, addend: 0x0, symName: __ZNK12QHashPrivate4DataINS_4NodeI14QSharedPointerIN5Tiled7TilesetEE15QHashDummyValueEEE10findBucketIS5_EENS8_6BucketERKT_, symObjAddr: 0x11D20, symBinAddr: 0x1A800, symSize: 0x70 }
  - { offset: 0x9A298, size: 0x8, addend: 0x0, symName: __ZN12QHashPrivate4DataINS_4NodeI14QSharedPointerIN5Tiled7TilesetEE15QHashDummyValueEEE6BucketC1EPNS_4SpanIS7_EEm, symObjAddr: 0x11D90, symBinAddr: 0x1A870, symSize: 0x30 }
  - { offset: 0x9A2E0, size: 0x8, addend: 0x0, symName: __ZNK12QHashPrivate4DataINS_4NodeI14QSharedPointerIN5Tiled7TilesetEE15QHashDummyValueEEE6Bucket8isUnusedEv, symObjAddr: 0x11DC0, symBinAddr: 0x1A8A0, symSize: 0x30 }
  - { offset: 0x9A306, size: 0x8, addend: 0x0, symName: __ZNK12QHashPrivate4DataINS_4NodeI14QSharedPointerIN5Tiled7TilesetEE15QHashDummyValueEEE6Bucket6insertEv, symObjAddr: 0x11DF0, symBinAddr: 0x1A8D0, symSize: 0x30 }
  - { offset: 0x9A32C, size: 0x8, addend: 0x0, symName: __ZN12QHashPrivate4NodeI14QSharedPointerIN5Tiled7TilesetEE15QHashDummyValueEC1ERKS6_, symObjAddr: 0x11E20, symBinAddr: 0x1A900, symSize: 0x30 }
  - { offset: 0x9A361, size: 0x8, addend: 0x0, symName: __ZNK12QHashPrivate4DataINS_4NodeI14QSharedPointerIN5Tiled7TilesetEE15QHashDummyValueEEE18findBucketWithHashIS5_EENS8_6BucketERKT_m, symObjAddr: 0x11E80, symBinAddr: 0x1A960, symSize: 0xE0 }
  - { offset: 0x9A3EB, size: 0x8, addend: 0x0, symName: __Z5qHashIN5Tiled7TilesetEEmRK14QSharedPointerIT_Em, symObjAddr: 0x11F60, symBinAddr: 0x1AA40, symSize: 0x30 }
  - { offset: 0x9A431, size: 0x8, addend: 0x0, symName: __Z5qHashIN5Tiled7TilesetEEmPT_m, symObjAddr: 0x11F90, symBinAddr: 0x1AA70, symSize: 0x30 }
  - { offset: 0x9A474, size: 0x8, addend: 0x0, symName: __Z5qHashym, symObjAddr: 0x11FC0, symBinAddr: 0x1AAA0, symSize: 0x30 }
  - { offset: 0x9A4AF, size: 0x8, addend: 0x0, symName: __ZN12QHashPrivate4DataINS_4NodeI14QSharedPointerIN5Tiled7TilesetEE15QHashDummyValueEEE6BucketC1EPKS8_m, symObjAddr: 0x12070, symBinAddr: 0x1AB50, symSize: 0x30 }
  - { offset: 0x9A4F7, size: 0x8, addend: 0x0, symName: __ZNK12QHashPrivate4DataINS_4NodeI14QSharedPointerIN5Tiled7TilesetEE15QHashDummyValueEEE6Bucket6offsetEv, symObjAddr: 0x120A0, symBinAddr: 0x1AB80, symSize: 0x30 }
  - { offset: 0x9A51D, size: 0x8, addend: 0x0, symName: __ZN12QHashPrivate4DataINS_4NodeI14QSharedPointerIN5Tiled7TilesetEE15QHashDummyValueEEE6Bucket12nodeAtOffsetEm, symObjAddr: 0x120D0, symBinAddr: 0x1ABB0, symSize: 0x30 }
  - { offset: 0x9A551, size: 0x8, addend: 0x0, symName: __Z11qHashEqualsI14QSharedPointerIN5Tiled7TilesetEEEbRKT_S6_, symObjAddr: 0x12100, symBinAddr: 0x1ABE0, symSize: 0x30 }
  - { offset: 0x9A598, size: 0x8, addend: 0x0, symName: __ZN12QHashPrivate4DataINS_4NodeI14QSharedPointerIN5Tiled7TilesetEE15QHashDummyValueEEE6Bucket14advanceWrappedEPKS8_, symObjAddr: 0x12130, symBinAddr: 0x1AC10, symSize: 0x30 }
  - { offset: 0x9A5CD, size: 0x8, addend: 0x0, symName: __ZN12QHashPrivate4DataINS_4NodeI14QSharedPointerIN5Tiled7TilesetEE15QHashDummyValueEEE6BucketC2EPKS8_m, symObjAddr: 0x12160, symBinAddr: 0x1AC40, symSize: 0x40 }
  - { offset: 0x9A615, size: 0x8, addend: 0x0, symName: __ZNK12QHashPrivate4SpanINS_4NodeI14QSharedPointerIN5Tiled7TilesetEE15QHashDummyValueEEE6offsetEm, symObjAddr: 0x121A0, symBinAddr: 0x1AC80, symSize: 0x20 }
  - { offset: 0x9A64A, size: 0x8, addend: 0x0, symName: __ZN12QHashPrivate4SpanINS_4NodeI14QSharedPointerIN5Tiled7TilesetEE15QHashDummyValueEEE8atOffsetEm, symObjAddr: 0x121C0, symBinAddr: 0x1ACA0, symSize: 0x70 }
  - { offset: 0x9A67E, size: 0x8, addend: 0x0, symName: __ZeqIN5Tiled7TilesetEEbRK14QSharedPointerIS1_ERKS2_IT_E, symObjAddr: 0x12230, symBinAddr: 0x1AD10, symSize: 0x30 }
  - { offset: 0x9A6DB, size: 0x8, addend: 0x0, symName: __Z13comparesEqualIN5Tiled7TilesetEEbRK14QSharedPointerIS1_ERKS2_IT_E, symObjAddr: 0x12260, symBinAddr: 0x1AD40, symSize: 0x40 }
  - { offset: 0x9A722, size: 0x8, addend: 0x0, symName: __ZN12QHashPrivate4DataINS_4NodeI14QSharedPointerIN5Tiled7TilesetEE15QHashDummyValueEEE6Bucket12advance_implEPKS8_PNS_4SpanIS7_EE, symObjAddr: 0x122A0, symBinAddr: 0x1AD80, symSize: 0xC0 }
  - { offset: 0x9A766, size: 0x8, addend: 0x0, symName: __ZN12QHashPrivate4DataINS_4NodeI14QSharedPointerIN5Tiled7TilesetEE15QHashDummyValueEEE6BucketC2EPNS_4SpanIS7_EEm, symObjAddr: 0x12360, symBinAddr: 0x1AE40, symSize: 0x30 }
  - { offset: 0x9A7AE, size: 0x8, addend: 0x0, symName: __ZN12QHashPrivate4SpanINS_4NodeI14QSharedPointerIN5Tiled7TilesetEE15QHashDummyValueEEE6insertEm, symObjAddr: 0x12390, symBinAddr: 0x1AE70, symSize: 0x110 }
  - { offset: 0x9A7F3, size: 0x8, addend: 0x0, symName: __ZN12QHashPrivate4SpanINS_4NodeI14QSharedPointerIN5Tiled7TilesetEE15QHashDummyValueEEE10addStorageEv, symObjAddr: 0x124A0, symBinAddr: 0x1AF80, symSize: 0x1A0 }
  - { offset: 0x9A858, size: 0x8, addend: 0x0, symName: __ZN12QHashPrivate4SpanINS_4NodeI14QSharedPointerIN5Tiled7TilesetEE15QHashDummyValueEEE5Entry8nextFreeEv, symObjAddr: 0x12640, symBinAddr: 0x1B120, symSize: 0x10 }
  - { offset: 0x9A87E, size: 0x8, addend: 0x0, symName: __ZN12QHashPrivate4NodeI14QSharedPointerIN5Tiled7TilesetEE15QHashDummyValueEC2ERKS6_, symObjAddr: 0x12650, symBinAddr: 0x1B130, symSize: 0x30 }
  - { offset: 0x9A8B3, size: 0x8, addend: 0x0, symName: __ZN14QSharedPointerIN5Tiled7TilesetEEC1ERKS2_, symObjAddr: 0x12680, symBinAddr: 0x1B160, symSize: 0x30 }
  - { offset: 0x9A8EC, size: 0x8, addend: 0x0, symName: __ZN14QSharedPointerIN5Tiled7TilesetEEC2ERKS2_, symObjAddr: 0x126B0, symBinAddr: 0x1B190, symSize: 0x60 }
  - { offset: 0x9A925, size: 0x8, addend: 0x0, symName: __ZN2Qt23totally_ordered_wrapperIPN5Tiled7TilesetEEC1ES3_, symObjAddr: 0x12710, symBinAddr: 0x1B1F0, symSize: 0x30 }
  - { offset: 0x9A95E, size: 0x8, addend: 0x0, symName: __ZNK14QSharedPointerIN5Tiled7TilesetEE3refEv, symObjAddr: 0x12740, symBinAddr: 0x1B220, symSize: 0x40 }
  - { offset: 0x9A984, size: 0x8, addend: 0x0, symName: __ZN2Qt23totally_ordered_wrapperIPN5Tiled7TilesetEEC2ES3_, symObjAddr: 0x12780, symBinAddr: 0x1B260, symSize: 0x20 }
  - { offset: 0x9A9BD, size: 0x8, addend: 0x0, symName: __ZN5QHashI14QSharedPointerIN5Tiled7TilesetEE15QHashDummyValueE8iteratorC2EN12QHashPrivate8iteratorINS7_4NodeIS3_S4_EEEE, symObjAddr: 0x127A0, symBinAddr: 0x1B280, symSize: 0x30 }
  - { offset: 0x9A9F6, size: 0x8, addend: 0x0, symName: __ZN4QSetI14QSharedPointerIN5Tiled7TilesetEEE8iteratorC2EN5QHashIS3_15QHashDummyValueE8iteratorE, symObjAddr: 0x127D0, symBinAddr: 0x1B2B0, symSize: 0x30 }
  - { offset: 0x9AA2E, size: 0x8, addend: 0x0, symName: __ZNK5QHashI14QSharedPointerIN5Tiled7TilesetEE15QHashDummyValueE8iterator3keyEv, symObjAddr: 0x12800, symBinAddr: 0x1B2E0, symSize: 0x20 }
  - { offset: 0x9AA54, size: 0x8, addend: 0x0, symName: __ZNK17QArrayDataPointerIPN5Tiled4TileEEptEv, symObjAddr: 0x12820, symBinAddr: 0x1B300, symSize: 0x10 }
  - { offset: 0x9AA7A, size: 0x8, addend: 0x0, symName: __ZNK17QArrayDataPointerIPN5Tiled4TileEE10constBeginEv, symObjAddr: 0x12830, symBinAddr: 0x1B310, symSize: 0x20 }
  - { offset: 0x9AAA0, size: 0x8, addend: 0x0, symName: __ZN5QListIPN5Tiled4TileEE14const_iteratorC1EPKS2_, symObjAddr: 0x12850, symBinAddr: 0x1B330, symSize: 0x30 }
  - { offset: 0x9AAD8, size: 0x8, addend: 0x0, symName: __ZNK17QArrayDataPointerIPN5Tiled4TileEE4dataEv, symObjAddr: 0x12880, symBinAddr: 0x1B360, symSize: 0x20 }
  - { offset: 0x9AAFE, size: 0x8, addend: 0x0, symName: __ZN5QListIPN5Tiled4TileEE14const_iteratorC2EPKS2_, symObjAddr: 0x128A0, symBinAddr: 0x1B380, symSize: 0x20 }
  - { offset: 0x9AB36, size: 0x8, addend: 0x0, symName: __ZNK17QArrayDataPointerIPN5Tiled4TileEE8constEndEv, symObjAddr: 0x128C0, symBinAddr: 0x1B3A0, symSize: 0x30 }
  - { offset: 0x9AB5C, size: 0x8, addend: 0x0, symName: __ZN4QMapI7QString8QVariantE22referenceHoldingDetachEv, symObjAddr: 0x128F0, symBinAddr: 0x1B3D0, symSize: 0xE0 }
  - { offset: 0x9AB9A, size: 0x8, addend: 0x0, symName: __ZNSt3__13mapI7QString8QVariantNS_4lessIS1_EENS_9allocatorINS_4pairIKS1_S2_EEEEE4findB9nqe210106ERS7_, symObjAddr: 0x129D0, symBinAddr: 0x1B4B0, symSize: 0x40 }
  - { offset: 0x9ABCF, size: 0x8, addend: 0x0, symName: __ZNSt3__13mapI7QString8QVariantNS_4lessIS1_EENS_9allocatorINS_4pairIKS1_S2_EEEEE6insertB9nqe210106EOS8_, symObjAddr: 0x12A40, symBinAddr: 0x1B520, symSize: 0x50 }
  - { offset: 0x9AC04, size: 0x8, addend: 0x0, symName: __ZN8QVariantC1Ev, symObjAddr: 0x12A90, symBinAddr: 0x1B570, symSize: 0x20 }
  - { offset: 0x9AC2E, size: 0x8, addend: 0x0, symName: __ZNSt3__14pairIK7QString8QVariantEC1B9nqe210106IRS2_S3_Li0EEEOT_OT0_, symObjAddr: 0x12AB0, symBinAddr: 0x1B590, symSize: 0x30 }
  - { offset: 0x9AC8C, size: 0x8, addend: 0x0, symName: __ZNK9QtPrivate30QExplicitlySharedDataPointerV2I8QMapDataINSt3__13mapI7QString8QVariantNS2_4lessIS4_EENS2_9allocatorINS2_4pairIKS4_S5_EEEEEEEE8isSharedEv, symObjAddr: 0x12AE0, symBinAddr: 0x1B5C0, symSize: 0x50 }
  - { offset: 0x9ACB2, size: 0x8, addend: 0x0, symName: __ZN4QMapI7QString8QVariantEC1Ev, symObjAddr: 0x12B30, symBinAddr: 0x1B610, symSize: 0x20 }
  - { offset: 0x9ACDC, size: 0x8, addend: 0x0, symName: __ZN4QMapI7QString8QVariantEC2Ev, symObjAddr: 0x12B50, symBinAddr: 0x1B630, symSize: 0x20 }
  - { offset: 0x9AD06, size: 0x8, addend: 0x0, symName: __ZN9QtPrivate30QExplicitlySharedDataPointerV2I8QMapDataINSt3__13mapI7QString8QVariantNS2_4lessIS4_EENS2_9allocatorINS2_4pairIKS4_S5_EEEEEEEEC1Ev, symObjAddr: 0x12B70, symBinAddr: 0x1B650, symSize: 0x20 }
  - { offset: 0x9AD30, size: 0x8, addend: 0x0, symName: __ZN9QtPrivate30QExplicitlySharedDataPointerV2I8QMapDataINSt3__13mapI7QString8QVariantNS2_4lessIS4_EENS2_9allocatorINS2_4pairIKS4_S5_EEEEEEEEC2Ev, symObjAddr: 0x12B90, symBinAddr: 0x1B670, symSize: 0x30 }
  - { offset: 0x9AD5A, size: 0x8, addend: 0x0, symName: __ZN2Qt23totally_ordered_wrapperIP8QMapDataINSt3__13mapI7QString8QVariantNS2_4lessIS4_EENS2_9allocatorINS2_4pairIKS4_S5_EEEEEEEEC1EDn, symObjAddr: 0x12BC0, symBinAddr: 0x1B6A0, symSize: 0x30 }
  - { offset: 0x9AD90, size: 0x8, addend: 0x0, symName: __ZNSt3__16__treeINS_12__value_typeI7QString8QVariantEENS_19__map_value_compareIS2_NS_4pairIKS2_S3_EENS_4lessIS2_EELb1EEENS_9allocatorIS8_EEE4findIS2_EENS_15__tree_iteratorIS4_PNS_11__tree_nodeIS4_PvEElEERKT_, symObjAddr: 0x12BF0, symBinAddr: 0x1B6D0, symSize: 0xD0 }
  - { offset: 0x9ADDE, size: 0x8, addend: 0x0, symName: __ZNSt3__16__treeINS_12__value_typeI7QString8QVariantEENS_19__map_value_compareIS2_NS_4pairIKS2_S3_EENS_4lessIS2_EELb1EEENS_9allocatorIS8_EEE13__lower_boundIS2_EENS_15__tree_iteratorIS4_PNS_11__tree_nodeIS4_PvEElEERKT_SK_PNS_15__tree_end_nodeIPNS_16__tree_node_baseISI_EEEE, symObjAddr: 0x12CC0, symBinAddr: 0x1B7A0, symSize: 0x90 }
  - { offset: 0x9AE3A, size: 0x8, addend: 0x0, symName: __ZNSt3__16__treeINS_12__value_typeI7QString8QVariantEENS_19__map_value_compareIS2_NS_4pairIKS2_S3_EENS_4lessIS2_EELb1EEENS_9allocatorIS8_EEE16__emplace_uniqueB9nqe210106IS8_EENS6_INS_15__tree_iteratorIS4_PNS_11__tree_nodeIS4_PvEElEEbEEOT_, symObjAddr: 0x12D50, symBinAddr: 0x1B830, symSize: 0x40 }
  - { offset: 0x9AE78, size: 0x8, addend: 0x0, symName: __ZNSt3__14pairINS_14__map_iteratorINS_15__tree_iteratorINS_12__value_typeI7QString8QVariantEEPNS_11__tree_nodeIS6_PvEElEEEEbEC1B9nqe210106ISB_bLi0EEEONS0_IT_T0_EE, symObjAddr: 0x12D90, symBinAddr: 0x1B870, symSize: 0x30 }
  - { offset: 0x9AEC8, size: 0x8, addend: 0x0, symName: __ZNSt3__16__treeINS_12__value_typeI7QString8QVariantEENS_19__map_value_compareIS2_NS_4pairIKS2_S3_EENS_4lessIS2_EELb1EEENS_9allocatorIS8_EEE28__emplace_unique_extract_keyB9nqe210106IS8_EENS6_INS_15__tree_iteratorIS4_PNS_11__tree_nodeIS4_PvEElEEbEEOT_NS_23__extract_key_first_tagE, symObjAddr: 0x12DC0, symBinAddr: 0x1B8A0, symSize: 0x50 }
  - { offset: 0x9AF12, size: 0x8, addend: 0x0, symName: __ZNSt3__16__treeINS_12__value_typeI7QString8QVariantEENS_19__map_value_compareIS2_NS_4pairIKS2_S3_EENS_4lessIS2_EELb1EEENS_9allocatorIS8_EEE25__emplace_unique_key_argsIS2_JS8_EEENS6_INS_15__tree_iteratorIS4_PNS_11__tree_nodeIS4_PvEElEEbEERKT_DpOT0_, symObjAddr: 0x12E10, symBinAddr: 0x1B8F0, symSize: 0xE0 }
  - { offset: 0x9AFCD, size: 0x8, addend: 0x0, symName: __ZNSt3__16__treeINS_12__value_typeI7QString8QVariantEENS_19__map_value_compareIS2_NS_4pairIKS2_S3_EENS_4lessIS2_EELb1EEENS_9allocatorIS8_EEE16__construct_nodeIJS8_EEENS_10unique_ptrINS_11__tree_nodeIS4_PvEENS_22__tree_node_destructorINSC_ISJ_EEEEEEDpOT_, symObjAddr: 0x12EF0, symBinAddr: 0x1B9D0, symSize: 0xE0 }
  - { offset: 0x9B030, size: 0x8, addend: 0x0, symName: __ZNSt3__116allocator_traitsINS_9allocatorINS_11__tree_nodeINS_12__value_typeI7QString8QVariantEEPvEEEEE9constructB9nqe210106INS_4pairIKS4_S5_EEJSE_ELi0EEEvRS9_PT_DpOT0_, symObjAddr: 0x12FD0, symBinAddr: 0x1BAB0, symSize: 0x30 }
  - { offset: 0x9B08E, size: 0x8, addend: 0x0, symName: __ZNSt3__19allocatorINS_11__tree_nodeINS_12__value_typeI7QString8QVariantEEPvEEE9constructB9nqe210106INS_4pairIKS3_S4_EEJSC_EEEvPT_DpOT0_, symObjAddr: 0x13000, symBinAddr: 0x1BAE0, symSize: 0x30 }
  - { offset: 0x9B0E6, size: 0x8, addend: 0x0, symName: __ZNSt3__14pairIK7QString8QVariantEC1B9nqe210106EOS4_, symObjAddr: 0x13030, symBinAddr: 0x1BB10, symSize: 0x30 }
  - { offset: 0x9B11B, size: 0x8, addend: 0x0, symName: __ZNSt3__14pairIK7QString8QVariantEC2B9nqe210106EOS4_, symObjAddr: 0x13060, symBinAddr: 0x1BB40, symSize: 0x40 }
  - { offset: 0x9B155, size: 0x8, addend: 0x0, symName: __ZNSt3__14pairINS_14__map_iteratorINS_15__tree_iteratorINS_12__value_typeI7QString8QVariantEEPNS_11__tree_nodeIS6_PvEElEEEEbEC2B9nqe210106ISB_bLi0EEEONS0_IT_T0_EE, symObjAddr: 0x13240, symBinAddr: 0x1BB80, symSize: 0x50 }
  - { offset: 0x9B1A5, size: 0x8, addend: 0x0, symName: __ZN8QVariantC2Ev, symObjAddr: 0x13290, symBinAddr: 0x1BBD0, symSize: 0x20 }
  - { offset: 0x9B1CF, size: 0x8, addend: 0x0, symName: __ZNSt3__14pairIK7QString8QVariantEC2B9nqe210106IRS2_S3_Li0EEEOT_OT0_, symObjAddr: 0x132B0, symBinAddr: 0x1BBF0, symSize: 0x3C }
  - { offset: 0x9B22D, size: 0x8, addend: 0x0, symName: __GLOBAL__sub_I_rpdplugin.cpp, symObjAddr: 0x13630, symBinAddr: 0x1BF70, symSize: 0x47 }
  - { offset: 0x9DDB4, size: 0x8, addend: 0x0, symName: __ZN9QtPrivateL19q_points_into_rangeI17QArrayDataPointerI7QStringEPKS2_EEbRKT0_RKT_, symObjAddr: 0x1FE0, symBinAddr: 0x1CE00, symSize: 0xA0 }
  - { offset: 0x9DE00, size: 0x8, addend: 0x0, symName: __ZN9QtPrivateL19q_points_into_rangeI7QStringNSt3__14lessIvEEEEbPKT_S7_S7_T0_, symObjAddr: 0x2080, symBinAddr: 0x1CEA0, symSize: 0x50 }
  - { offset: 0x9DE84, size: 0x8, addend: 0x0, symName: __ZN3Rpd9RpdPlugin16staticMetaObjectE, symObjAddr: 0x3778, symBinAddr: 0x20450, symSize: 0x0 }
  - { offset: 0xA3D4F, size: 0x8, addend: 0x0, symName: __ZNSt3__18in_placeE, symObjAddr: 0x3FCC, symBinAddr: 0x1F14C, symSize: 0x0 }
  - { offset: 0xAF662, size: 0x8, addend: 0x0, symName: _qt_plugin_query_metadata_v2, symObjAddr: 0x170, symBinAddr: 0x1C130, symSize: 0x30 }
  - { offset: 0xAF688, size: 0x8, addend: 0x0, symName: __ZZ27qt_plugin_query_metadata_v2E2md, symObjAddr: 0x3E59, symBinAddr: 0x1F14D, symSize: 0x0 }
  - { offset: 0xAF6AB, size: 0x8, addend: 0x0, symName: __ZL29qt_pluginMetaDataV2_RpdPlugin, symObjAddr: 0x3EA0, symBinAddr: 0x1F020, symSize: 0x0 }
  - { offset: 0xAF81C, size: 0x8, addend: 0x0, symName: _qt_plugin_instance, symObjAddr: 0x200, symBinAddr: 0x1C1C0, symSize: 0xC0 }
  - { offset: 0xAF842, size: 0x8, addend: 0x0, symName: __ZZ18qt_plugin_instanceE9_instance, symObjAddr: 0x14B6E0, symBinAddr: 0x21228, symSize: 0x0 }
  - { offset: 0xAFEA6, size: 0x8, addend: 0x0, symName: __ZN3Rpd12RpdMapFormat16staticMetaObjectE, symObjAddr: 0x37B8, symBinAddr: 0x20490, symSize: 0x0 }
  - { offset: 0xB7669, size: 0x8, addend: 0x0, symName: __ZTVN3Rpd9RpdPluginE, symObjAddr: 0x37F0, symBinAddr: 0x204C8, symSize: 0x0 }
  - { offset: 0xB767E, size: 0x8, addend: 0x0, symName: __ZTVN3Rpd12RpdMapFormatE, symObjAddr: 0x3880, symBinAddr: 0x20558, symSize: 0x0 }
  - { offset: 0xB7692, size: 0x8, addend: 0x0, symName: __ZN3Rpd9RpdPlugin32qt_staticMetaObjectStaticContentIN12_GLOBAL__N_131qt_meta_tag_ZN3Rpd9RpdPluginE_tEEE, symObjAddr: 0x3F0C, symBinAddr: 0x1F08C, symSize: 0x0 }
  - { offset: 0xB76C5, size: 0x8, addend: 0x0, symName: __ZN3Rpd9RpdPlugin36qt_staticMetaObjectRelocatingContentIN12_GLOBAL__N_131qt_meta_tag_ZN3Rpd9RpdPluginE_tEEE, symObjAddr: 0x3770, symBinAddr: 0x20448, symSize: 0x0 }
  - { offset: 0xB76E3, size: 0x8, addend: 0x0, symName: __ZN9QtPrivate25QMetaTypeInterfaceWrapperIN3Rpd9RpdPluginEE8metaTypeE, symObjAddr: 0x3FD0, symBinAddr: 0x21010, symSize: 0x0 }
  - { offset: 0xB76F7, size: 0x8, addend: 0x0, symName: __ZN9QtPrivate16QMetaTypeForTypeIN3Rpd9RpdPluginEE4nameE, symObjAddr: 0x3EFA, symBinAddr: 0x1F07A, symSize: 0x0 }
  - { offset: 0xB7749, size: 0x8, addend: 0x0, symName: __ZL29qt_pluginMetaDataV2_RpdPlugin, symObjAddr: 0x3EA0, symBinAddr: 0x1F020, symSize: 0x0 }
  - { offset: 0xB7769, size: 0x8, addend: 0x0, symName: __ZN3Rpd12RpdMapFormat32qt_staticMetaObjectStaticContentIN12_GLOBAL__N_135qt_meta_tag_ZN3Rpd12RpdMapFormatE_tEEE, symObjAddr: 0x3F74, symBinAddr: 0x1F0F4, symSize: 0x0 }
  - { offset: 0xB7787, size: 0x8, addend: 0x0, symName: __ZN3Rpd12RpdMapFormat36qt_staticMetaObjectRelocatingContentIN12_GLOBAL__N_135qt_meta_tag_ZN3Rpd12RpdMapFormatE_tEEE, symObjAddr: 0x37B0, symBinAddr: 0x20488, symSize: 0x0 }
  - { offset: 0xB77A5, size: 0x8, addend: 0x0, symName: __ZN9QtPrivate25QMetaTypeInterfaceWrapperIN3Rpd12RpdMapFormatEE8metaTypeE, symObjAddr: 0x4040, symBinAddr: 0x21080, symSize: 0x0 }
  - { offset: 0xB77B9, size: 0x8, addend: 0x0, symName: __ZN9QtPrivate16QMetaTypeForTypeIN3Rpd12RpdMapFormatEE4nameE, symObjAddr: 0x3F60, symBinAddr: 0x1F0E0, symSize: 0x0 }
  - { offset: 0xB780D, size: 0x8, addend: 0x0, symName: __ZN3Rpd9RpdPlugin18qt_static_metacallEP7QObjectN11QMetaObject4CallEiPPv, symObjAddr: 0x0, symBinAddr: 0x1BFC0, symSize: 0x20 }
  - { offset: 0xB786A, size: 0x8, addend: 0x0, symName: __ZNK3Rpd9RpdPlugin10metaObjectEv, symObjAddr: 0x20, symBinAddr: 0x1BFE0, symSize: 0x60 }
  - { offset: 0xB7892, size: 0x8, addend: 0x0, symName: __ZNK14QScopedPointerI11QObjectData21QScopedPointerDeleterIS0_EEptEv, symObjAddr: 0x80, symBinAddr: 0x1C040, symSize: 0x20 }
  - { offset: 0xB78B8, size: 0x8, addend: 0x0, symName: __ZN3Rpd9RpdPlugin11qt_metacastEPKc, symObjAddr: 0xA0, symBinAddr: 0x1C060, symSize: 0x90 }
  - { offset: 0xB78EE, size: 0x8, addend: 0x0, symName: __ZN3Rpd9RpdPlugin11qt_metacallEN11QMetaObject4CallEiPPv, symObjAddr: 0x130, symBinAddr: 0x1C0F0, symSize: 0x40 }
  - { offset: 0xB7940, size: 0x8, addend: 0x0, symName: __ZNK17QPluginMetaDataV2IL_ZL29qt_pluginMetaDataV2_RpdPluginEEcv15QPluginMetaDataEv, symObjAddr: 0x1A0, symBinAddr: 0x1C160, symSize: 0x60 }
  - { offset: 0xB7966, size: 0x8, addend: 0x0, symName: __ZN8QPointerI7QObjectED1Ev, symObjAddr: 0x2C0, symBinAddr: 0x1C280, symSize: 0x20 }
  - { offset: 0xB7992, size: 0x8, addend: 0x0, symName: __ZNK8QPointerI7QObjectEcvbEv, symObjAddr: 0x2E0, symBinAddr: 0x1C2A0, symSize: 0x20 }
  - { offset: 0xB79B8, size: 0x8, addend: 0x0, symName: __ZN3Rpd9RpdPluginC1Ev, symObjAddr: 0x300, symBinAddr: 0x1C2C0, symSize: 0x20 }
  - { offset: 0xB79E4, size: 0x8, addend: 0x0, symName: __ZN8QPointerI7QObjectEaSEPS0_, symObjAddr: 0x320, symBinAddr: 0x1C2E0, symSize: 0x30 }
  - { offset: 0xB7A18, size: 0x8, addend: 0x0, symName: __ZNK8QPointerI7QObjectEcvPS0_Ev, symObjAddr: 0x350, symBinAddr: 0x1C310, symSize: 0x20 }
  - { offset: 0xB7A3E, size: 0x8, addend: 0x0, symName: __ZN3Rpd12RpdMapFormat18qt_static_metacallEP7QObjectN11QMetaObject4CallEiPPv, symObjAddr: 0x370, symBinAddr: 0x1C330, symSize: 0x20 }
  - { offset: 0xB7A9B, size: 0x8, addend: 0x0, symName: __ZNK3Rpd12RpdMapFormat10metaObjectEv, symObjAddr: 0x390, symBinAddr: 0x1C350, symSize: 0x60 }
  - { offset: 0xB7AC3, size: 0x8, addend: 0x0, symName: __ZN3Rpd12RpdMapFormat11qt_metacastEPKc, symObjAddr: 0x3F0, symBinAddr: 0x1C3B0, symSize: 0x90 }
  - { offset: 0xB7AF9, size: 0x8, addend: 0x0, symName: __ZN3Rpd12RpdMapFormat11qt_metacallEN11QMetaObject4CallEiPPv, symObjAddr: 0x480, symBinAddr: 0x1C440, symSize: 0x40 }
  - { offset: 0xB7B4B, size: 0x8, addend: 0x0, symName: __ZN3Rpd9RpdPluginD1Ev, symObjAddr: 0x4C0, symBinAddr: 0x1C480, symSize: 0x20 }
  - { offset: 0xB7B77, size: 0x8, addend: 0x0, symName: __ZN3Rpd9RpdPluginD0Ev, symObjAddr: 0x4E0, symBinAddr: 0x1C4A0, symSize: 0x30 }
  - { offset: 0xB7BA3, size: 0x8, addend: 0x0, symName: __ZN3Rpd12RpdMapFormatD1Ev, symObjAddr: 0x510, symBinAddr: 0x1C4D0, symSize: 0x20 }
  - { offset: 0xB7BCF, size: 0x8, addend: 0x0, symName: __ZN3Rpd12RpdMapFormatD0Ev, symObjAddr: 0x530, symBinAddr: 0x1C4F0, symSize: 0x30 }
  - { offset: 0xB7BFB, size: 0x8, addend: 0x0, symName: __ZNK5Tiled17WritableMapFormat12capabilitiesEv, symObjAddr: 0x560, symBinAddr: 0x1C520, symSize: 0x30 }
  - { offset: 0xB7C21, size: 0x8, addend: 0x0, symName: __ZNK5Tiled17WritableMapFormat12supportsFileERK7QString, symObjAddr: 0x590, symBinAddr: 0x1C550, symSize: 0x20 }
  - { offset: 0xB7C52, size: 0x8, addend: 0x0, symName: __ZNK5Tiled9MapFormat11outputFilesEPKNS_3MapERK7QString, symObjAddr: 0x5B0, symBinAddr: 0x1C570, symSize: 0x40 }
  - { offset: 0xB7C91, size: 0x8, addend: 0x0, symName: __ZN5Tiled17WritableMapFormat4readERK7QString, symObjAddr: 0x5F0, symBinAddr: 0x1C5B0, symSize: 0x30 }
  - { offset: 0xB7CC2, size: 0x8, addend: 0x0, symName: __ZN9QtPrivate17MetaObjectForTypeIN3Rpd9RpdPluginEvE18metaObjectFunctionEPKNS_18QMetaTypeInterfaceE, symObjAddr: 0x620, symBinAddr: 0x1C5E0, symSize: 0x20 }
  - { offset: 0xB7D16, size: 0x8, addend: 0x0, symName: __ZZN9QtPrivate16QMetaTypeForTypeIN3Rpd9RpdPluginEE13getDefaultCtrEvENUlPKNS_18QMetaTypeInterfaceEPvE_8__invokeES6_S7_, symObjAddr: 0x640, symBinAddr: 0x1C600, symSize: 0x30 }
  - { offset: 0xB7D7B, size: 0x8, addend: 0x0, symName: __ZZN9QtPrivate16QMetaTypeForTypeIN3Rpd9RpdPluginEE7getDtorEvENUlPKNS_18QMetaTypeInterfaceEPvE_8__invokeES6_S7_, symObjAddr: 0x670, symBinAddr: 0x1C630, symSize: 0x30 }
  - { offset: 0xB7DB7, size: 0x8, addend: 0x0, symName: __ZZN9QtPrivate16QMetaTypeForTypeIN3Rpd9RpdPluginEE13getDefaultCtrEvENKUlPKNS_18QMetaTypeInterfaceEPvE_clES6_S7_, symObjAddr: 0x6A0, symBinAddr: 0x1C660, symSize: 0x40 }
  - { offset: 0xB7E06, size: 0x8, addend: 0x0, symName: __ZZN9QtPrivate16QMetaTypeForTypeIN3Rpd9RpdPluginEE7getDtorEvENKUlPKNS_18QMetaTypeInterfaceEPvE_clES6_S7_, symObjAddr: 0x6E0, symBinAddr: 0x1C6A0, symSize: 0x30 }
  - { offset: 0xB7E4B, size: 0x8, addend: 0x0, symName: __ZN8QPointerI7QObjectED2Ev, symObjAddr: 0x710, symBinAddr: 0x1C6D0, symSize: 0x20 }
  - { offset: 0xB7E77, size: 0x8, addend: 0x0, symName: __ZN12QWeakPointerI7QObjectED1Ev, symObjAddr: 0x730, symBinAddr: 0x1C6F0, symSize: 0x20 }
  - { offset: 0xB7EA1, size: 0x8, addend: 0x0, symName: __ZN12QWeakPointerI7QObjectED2Ev, symObjAddr: 0x750, symBinAddr: 0x1C710, symSize: 0x60 }
  - { offset: 0xB7ECB, size: 0x8, addend: 0x0, symName: __ZN3Rpd9RpdPluginC2Ev, symObjAddr: 0xA60, symBinAddr: 0x1C770, symSize: 0x40 }
  - { offset: 0xB7EF7, size: 0x8, addend: 0x0, symName: __ZN5Tiled6PluginC2Ev, symObjAddr: 0xAA0, symBinAddr: 0x1C7B0, symSize: 0x40 }
  - { offset: 0xB7F23, size: 0x8, addend: 0x0, symName: __ZN5QListIP7QObjectEC1Ev, symObjAddr: 0xAE0, symBinAddr: 0x1C7F0, symSize: 0x20 }
  - { offset: 0xB7F4D, size: 0x8, addend: 0x0, symName: __ZN5QListIP7QObjectEC2Ev, symObjAddr: 0xB00, symBinAddr: 0x1C810, symSize: 0x20 }
  - { offset: 0xB7F77, size: 0x8, addend: 0x0, symName: __ZN17QArrayDataPointerIP7QObjectEC1Ev, symObjAddr: 0xB20, symBinAddr: 0x1C830, symSize: 0x20 }
  - { offset: 0xB7FA1, size: 0x8, addend: 0x0, symName: __ZN17QArrayDataPointerIP7QObjectEC2Ev, symObjAddr: 0xB40, symBinAddr: 0x1C850, symSize: 0x30 }
  - { offset: 0xB7FCB, size: 0x8, addend: 0x0, symName: __ZN9QtPrivate17MetaObjectForTypeIN3Rpd12RpdMapFormatEvE18metaObjectFunctionEPKNS_18QMetaTypeInterfaceE, symObjAddr: 0xB70, symBinAddr: 0x1C880, symSize: 0x20 }
  - { offset: 0xB801F, size: 0x8, addend: 0x0, symName: __ZZN9QtPrivate16QMetaTypeForTypeIN3Rpd12RpdMapFormatEE13getDefaultCtrEvENUlPKNS_18QMetaTypeInterfaceEPvE_8__invokeES6_S7_, symObjAddr: 0xB90, symBinAddr: 0x1C8A0, symSize: 0x30 }
  - { offset: 0xB8084, size: 0x8, addend: 0x0, symName: __ZZN9QtPrivate16QMetaTypeForTypeIN3Rpd12RpdMapFormatEE7getDtorEvENUlPKNS_18QMetaTypeInterfaceEPvE_8__invokeES6_S7_, symObjAddr: 0xBC0, symBinAddr: 0x1C8D0, symSize: 0x30 }
  - { offset: 0xB80C0, size: 0x8, addend: 0x0, symName: __ZZN9QtPrivate16QMetaTypeForTypeIN3Rpd12RpdMapFormatEE13getDefaultCtrEvENKUlPKNS_18QMetaTypeInterfaceEPvE_clES6_S7_, symObjAddr: 0xBF0, symBinAddr: 0x1C900, symSize: 0x30 }
  - { offset: 0xB810F, size: 0x8, addend: 0x0, symName: __ZZN9QtPrivate16QMetaTypeForTypeIN3Rpd12RpdMapFormatEE7getDtorEvENKUlPKNS_18QMetaTypeInterfaceEPvE_clES6_S7_, symObjAddr: 0xC20, symBinAddr: 0x1C930, symSize: 0x30 }
  - { offset: 0xB8154, size: 0x8, addend: 0x0, symName: __ZN3Rpd9RpdPluginD2Ev, symObjAddr: 0xC50, symBinAddr: 0x1C960, symSize: 0x20 }
  - { offset: 0xB8180, size: 0x8, addend: 0x0, symName: __ZN3Rpd12RpdMapFormatD2Ev, symObjAddr: 0xC70, symBinAddr: 0x1C980, symSize: 0x40 }
  - { offset: 0xB81AC, size: 0x8, addend: 0x0, symName: __ZN5Tiled17WritableMapFormatD2Ev, symObjAddr: 0xCD0, symBinAddr: 0x1C9C0, symSize: 0x20 }
  - { offset: 0xB81D8, size: 0x8, addend: 0x0, symName: __ZN5Tiled9MapFormatD2Ev, symObjAddr: 0xE80, symBinAddr: 0x1C9E0, symSize: 0x20 }
  - { offset: 0xB8204, size: 0x8, addend: 0x0, symName: __ZN5Tiled10FileFormatD2Ev, symObjAddr: 0xEA0, symBinAddr: 0x1CA00, symSize: 0x20 }
  - { offset: 0xB8230, size: 0x8, addend: 0x0, symName: __ZN6QFlagsIN5Tiled10FileFormat10CapabilityEEC1ES2_, symObjAddr: 0xEC0, symBinAddr: 0x1CA20, symSize: 0x30 }
  - { offset: 0xB8268, size: 0x8, addend: 0x0, symName: __ZN6QFlagsIN5Tiled10FileFormat10CapabilityEEC2ES2_, symObjAddr: 0xEF0, symBinAddr: 0x1CA50, symSize: 0x30 }
  - { offset: 0xB82A0, size: 0x8, addend: 0x0, symName: __ZN9QtPrivate19QFlagsStorageHelperIN5Tiled10FileFormat10CapabilityELi4EECI2NS_13QFlagsStorageIS3_EEENSt3__110in_place_tEj, symObjAddr: 0xF20, symBinAddr: 0x1CA80, symSize: 0x30 }
  - { offset: 0xB82DE, size: 0x8, addend: 0x0, symName: __ZN9QtPrivate13QFlagsStorageIN5Tiled10FileFormat10CapabilityEEC2ENSt3__110in_place_tEj, symObjAddr: 0xF60, symBinAddr: 0x1CAB0, symSize: 0x20 }
  - { offset: 0xB8321, size: 0x8, addend: 0x0, symName: __ZN5QListI7QStringEC1IS0_vEERKT_, symObjAddr: 0xF80, symBinAddr: 0x1CAD0, symSize: 0x30 }
  - { offset: 0xB8365, size: 0x8, addend: 0x0, symName: __ZN5QListI7QStringEC2IS0_vEERKT_, symObjAddr: 0xFB0, symBinAddr: 0x1CB00, symSize: 0x50 }
  - { offset: 0xB83A9, size: 0x8, addend: 0x0, symName: __ZN5QListI7QStringE6appendERKS0_, symObjAddr: 0x1020, symBinAddr: 0x1CB50, symSize: 0x30 }
  - { offset: 0xB83DE, size: 0x8, addend: 0x0, symName: __ZN5QListI7QStringE11emplaceBackIJRKS0_EEERS0_DpOT_, symObjAddr: 0x10A0, symBinAddr: 0x1CB80, symSize: 0x70 }
  - { offset: 0xB8420, size: 0x8, addend: 0x0, symName: __ZN9QtPrivate16QMovableArrayOpsI7QStringE7emplaceIJRKS1_EEEvxDpOT_, symObjAddr: 0x1120, symBinAddr: 0x1CBF0, symSize: 0x210 }
  - { offset: 0xB84D4, size: 0x8, addend: 0x0, symName: __ZNSt3__110unique_ptrIN5Tiled3MapENS_14default_deleteIS2_EEEC1B9nqe210106ILb1EvEEDn, symObjAddr: 0x3310, symBinAddr: 0x1CEF0, symSize: 0x30 }
  - { offset: 0xB8515, size: 0x8, addend: 0x0, symName: __ZNSt3__110unique_ptrIN5Tiled3MapENS_14default_deleteIS2_EEEC2B9nqe210106ILb1EvEEDn, symObjAddr: 0x3340, symBinAddr: 0x1CF20, symSize: 0x20 }
  - { offset: 0xB8556, size: 0x8, addend: 0x0, symName: __ZNK8QPointerI7QObjectE6isNullEv, symObjAddr: 0x3360, symBinAddr: 0x1CF40, symSize: 0x20 }
  - { offset: 0xB857C, size: 0x8, addend: 0x0, symName: __ZNK12QWeakPointerI7QObjectE6isNullEv, symObjAddr: 0x3380, symBinAddr: 0x1CF60, symSize: 0x60 }
  - { offset: 0xB85A2, size: 0x8, addend: 0x0, symName: __ZN12QWeakPointerI7QObjectE6assignIS0_EERS1_PT_, symObjAddr: 0x33E0, symBinAddr: 0x1CFC0, symSize: 0x50 }
  - { offset: 0xB85E0, size: 0x8, addend: 0x0, symName: __ZN12QWeakPointerI7QObjectEC1EPS0_b, symObjAddr: 0x3430, symBinAddr: 0x1D010, symSize: 0x40 }
  - { offset: 0xB8625, size: 0x8, addend: 0x0, symName: __ZN12QWeakPointerI7QObjectEaSEOS1_, symObjAddr: 0x3470, symBinAddr: 0x1D050, symSize: 0x50 }
  - { offset: 0xB866A, size: 0x8, addend: 0x0, symName: __ZN12QWeakPointerI7QObjectEC2EPS0_b, symObjAddr: 0x34C0, symBinAddr: 0x1D0A0, symSize: 0x60 }
  - { offset: 0xB86AF, size: 0x8, addend: 0x0, symName: __ZN12QWeakPointerI7QObjectEC1EOS1_, symObjAddr: 0x3520, symBinAddr: 0x1D100, symSize: 0x30 }
  - { offset: 0xB86E8, size: 0x8, addend: 0x0, symName: __ZN12QWeakPointerI7QObjectE4swapERS1_, symObjAddr: 0x3550, symBinAddr: 0x1D130, symSize: 0x40 }
  - { offset: 0xB871D, size: 0x8, addend: 0x0, symName: __ZN12QWeakPointerI7QObjectEC2EOS1_, symObjAddr: 0x3590, symBinAddr: 0x1D170, symSize: 0x40 }
  - { offset: 0xB8755, size: 0x8, addend: 0x0, symName: __Z11qt_ptr_swapIN15QtSharedPointer20ExternalRefCountDataEEvRPT_S4_, symObjAddr: 0x35D0, symBinAddr: 0x1D1B0, symSize: 0x40 }
  - { offset: 0xB87A2, size: 0x8, addend: 0x0, symName: __Z11qt_ptr_swapI7QObjectEvRPT_S3_, symObjAddr: 0x3610, symBinAddr: 0x1D1F0, symSize: 0x40 }
  - { offset: 0xB87F0, size: 0x8, addend: 0x0, symName: __ZNK8QPointerI7QObjectE4dataEv, symObjAddr: 0x3650, symBinAddr: 0x1D230, symSize: 0x20 }
  - { offset: 0xB8816, size: 0x8, addend: 0x0, symName: __ZNK12QWeakPointerI7QObjectE12internalDataEv, symObjAddr: 0x3670, symBinAddr: 0x1D250, symSize: 0x4D }
...
