---
triple:          'x86_64-apple-darwin'
binary-path:     '/Users/dz0400621/Documents/project/tiled/debug/tbin.90070f32/libtbin.dylib'
relocations:
  - { offset: 0x3F, size: 0x8, addend: 0x0, symName: _qt_version_tag_6_11_use, symObjAddr: 0x43F8, symBinAddr: 0x41000, symSize: 0x0 }
  - { offset: 0x1B822, size: 0x8, addend: 0x0, symName: __ZNSt3__117__cxx_atomic_loadB9nqe210106IiEET_PKNS_22__cxx_atomic_base_implIS1_EENS_12memory_orderE, symObjAddr: 0x37F0, symBinAddr: 0x7710, symSize: 0x50 }
  - { offset: 0x1D3E1, size: 0x8, addend: 0x0, symName: __ZNSt3__1plB9nqe210106IcNS_11char_traitsIcEENS_9allocatorIcEEEENS_12basic_stringIT_T0_T1_EEOS9_PKS6_, symObjAddr: 0x7A0, symBinAddr: 0x46C0, symSize: 0x50 }
  - { offset: 0x1D5D5, size: 0x8, addend: 0x0, symName: __ZNSt3__1eqB9nqe210106IcNS_11char_traitsIcEENS_9allocatorIcEEEEbRKNS_12basic_stringIT_T0_T1_EEPKS6_, symObjAddr: 0x1370, symBinAddr: 0x5290, symSize: 0x90 }
  - { offset: 0x1D63C, size: 0x8, addend: 0x0, symName: __ZNSt3__14swapB9nqe210106IxEENS_9enable_ifIXaasr21is_move_constructibleIT_EE5valuesr18is_move_assignableIS2_EE5valueEvE4typeERS2_S5_, symObjAddr: 0x15E0, symBinAddr: 0x5500, symSize: 0x40 }
  - { offset: 0x1D68D, size: 0x8, addend: 0x0, symName: __ZNSt3__112__to_addressB9nqe210106IKcEEPT_S3_, symObjAddr: 0x18E0, symBinAddr: 0x5800, symSize: 0x10 }
  - { offset: 0x1D728, size: 0x8, addend: 0x0, symName: __ZNSt3__112__to_addressB9nqe210106IN4tbin5LayerEEEPT_S4_, symObjAddr: 0x20E0, symBinAddr: 0x6000, symSize: 0x10 }
  - { offset: 0x1D75D, size: 0x8, addend: 0x0, symName: __ZNSt3__112__to_addressB9nqe210106IN4tbin4TileEEEPT_S4_, symObjAddr: 0x2510, symBinAddr: 0x6430, symSize: 0x10 }
  - { offset: 0x1D792, size: 0x8, addend: 0x0, symName: __ZNSt3__131__annotate_contiguous_containerB9nqe210106INS_9allocatorIN4tbin4TileEEEEEvPKvS6_S6_S6_, symObjAddr: 0x2660, symBinAddr: 0x6580, symSize: 0x20 }
  - { offset: 0x1D7ED, size: 0x8, addend: 0x0, symName: __ZNSt3__119__libcpp_deallocateB9nqe210106IN4tbin4TileEEEvPNS_15__type_identityIT_E4typeENS_15__element_countEm, symObjAddr: 0x26B0, symBinAddr: 0x65D0, symSize: 0x50 }
  - { offset: 0x1D848, size: 0x8, addend: 0x0, symName: __ZNSt3__124__is_overaligned_for_newB9nqe210106Em, symObjAddr: 0x2700, symBinAddr: 0x6620, symSize: 0x20 }
  - { offset: 0x1D874, size: 0x8, addend: 0x0, symName: __ZNSt3__131__annotate_contiguous_containerB9nqe210106INS_9allocatorIN4tbin5LayerEEEEEvPKvS6_S6_S6_, symObjAddr: 0x27A0, symBinAddr: 0x66C0, symSize: 0x20 }
  - { offset: 0x1D8CF, size: 0x8, addend: 0x0, symName: __ZNSt3__119__libcpp_deallocateB9nqe210106IN4tbin5LayerEEEvPNS_15__type_identityIT_E4typeENS_15__element_countEm, symObjAddr: 0x27F0, symBinAddr: 0x6710, symSize: 0x50 }
  - { offset: 0x1D92A, size: 0x8, addend: 0x0, symName: __ZNSt3__112__to_addressB9nqe210106IN4tbin9TileSheetEEEPT_S4_, symObjAddr: 0x2B90, symBinAddr: 0x6AB0, symSize: 0x10 }
  - { offset: 0x1D95F, size: 0x8, addend: 0x0, symName: __ZNSt3__131__annotate_contiguous_containerB9nqe210106INS_9allocatorIN4tbin9TileSheetEEEEEvPKvS6_S6_S6_, symObjAddr: 0x2CB0, symBinAddr: 0x6BD0, symSize: 0x20 }
  - { offset: 0x1D9BA, size: 0x8, addend: 0x0, symName: __ZNSt3__119__libcpp_deallocateB9nqe210106IN4tbin9TileSheetEEEvPNS_15__type_identityIT_E4typeENS_15__element_countEm, symObjAddr: 0x2D00, symBinAddr: 0x6C20, symSize: 0x50 }
  - { offset: 0x1DAA6, size: 0x8, addend: 0x0, symName: __ZNSt3__112__destroy_atB9nqe210106INS_4pairIKNS_12basic_stringIcNS_11char_traitsIcEENS_9allocatorIcEEEEN4tbin13PropertyValueEEELi0EEEvPT_, symObjAddr: 0x2ED0, symBinAddr: 0x6DF0, symSize: 0x20 }
  - { offset: 0x1DADD, size: 0x8, addend: 0x0, symName: __ZNSt3__119__libcpp_deallocateB9nqe210106INS_11__tree_nodeINS_12__value_typeINS_12basic_stringIcNS_11char_traitsIcEENS_9allocatorIcEEEEN4tbin13PropertyValueEEEPvEEEEvPNS_15__type_identityIT_E4typeENS_15__element_countEm, symObjAddr: 0x2FB0, symBinAddr: 0x6ED0, symSize: 0x50 }
  - { offset: 0x1DB38, size: 0x8, addend: 0x0, symName: __ZNSt3__18exchangeB9nqe210106IP15QTypedArrayDataIDsEDnEET_RS4_OT0_, symObjAddr: 0x3230, symBinAddr: 0x7150, symSize: 0x30 }
  - { offset: 0x1DB92, size: 0x8, addend: 0x0, symName: __ZNSt3__18exchangeB9nqe210106IPDsDnEET_RS2_OT0_, symObjAddr: 0x3260, symBinAddr: 0x7180, symSize: 0x30 }
  - { offset: 0x1DBEC, size: 0x8, addend: 0x0, symName: __ZNSt3__18exchangeB9nqe210106IxiEET_RS1_OT0_, symObjAddr: 0x3290, symBinAddr: 0x71B0, symSize: 0x30 }
  - { offset: 0x1DC46, size: 0x8, addend: 0x0, symName: __ZNSt3__122__cxx_atomic_fetch_addB9nqe210106IiEET_PNS_22__cxx_atomic_base_implIS1_EES1_NS_12memory_orderE, symObjAddr: 0x3440, symBinAddr: 0x7360, symSize: 0xB0 }
  - { offset: 0x1DC97, size: 0x8, addend: 0x0, symName: __ZNSt3__122__cxx_atomic_fetch_subB9nqe210106IiEET_PNS_22__cxx_atomic_base_implIS1_EES1_NS_12memory_orderE, symObjAddr: 0x36C0, symBinAddr: 0x75E0, symSize: 0xC0 }
  - { offset: 0x1DCE8, size: 0x8, addend: 0x0, symName: __ZNSt3__118__constexpr_strlenB9nqe210106IcEEmPKT_, symObjAddr: 0x3AE0, symBinAddr: 0x7A00, symSize: 0x20 }
  - { offset: 0x72E50, size: 0x8, addend: 0x0, symName: __ZN4Tbin13TbinMapFormatC2EP7QObject, symObjAddr: 0x0, symBinAddr: 0x3F20, symSize: 0x50 }
  - { offset: 0x72E8A, size: 0x8, addend: 0x0, symName: __ZN5Tiled9MapFormatC2EP7QObject, symObjAddr: 0x50, symBinAddr: 0x3F70, symSize: 0x40 }
  - { offset: 0x72EC2, size: 0x8, addend: 0x0, symName: __ZN7QStringC1Ev, symObjAddr: 0x90, symBinAddr: 0x3FB0, symSize: 0x20 }
  - { offset: 0x72EEE, size: 0x8, addend: 0x0, symName: __ZN4Tbin13TbinMapFormatC1EP7QObject, symObjAddr: 0xB0, symBinAddr: 0x3FD0, symSize: 0x30 }
  - { offset: 0x72F28, size: 0x8, addend: 0x0, symName: __ZN4Tbin13TbinMapFormat4readERK7QString, symObjAddr: 0xE0, symBinAddr: 0x4000, symSize: 0x460 }
  - { offset: 0x731CA, size: 0x8, addend: 0x0, symName: __ZNSt3__114basic_ifstreamIcNS_11char_traitsIcEEEC1ERKNS_12basic_stringIcS2_NS_9allocatorIcEEEEj, symObjAddr: 0x540, symBinAddr: 0x4460, symSize: 0x140 }
  - { offset: 0x73214, size: 0x8, addend: 0x0, symName: __ZNKSt3__19basic_iosIcNS_11char_traitsIcEEEntB9nqe210106Ev, symObjAddr: 0x680, symBinAddr: 0x45A0, symSize: 0x20 }
  - { offset: 0x7323A, size: 0x8, addend: 0x0, symName: __ZN7QStringaSEOS_, symObjAddr: 0x6A0, symBinAddr: 0x45C0, symSize: 0x30 }
  - { offset: 0x7326F, size: 0x8, addend: 0x0, symName: __ZN7QStringD1Ev, symObjAddr: 0x6D0, symBinAddr: 0x45F0, symSize: 0x20 }
  - { offset: 0x7329B, size: 0x8, addend: 0x0, symName: __ZNSt3__110unique_ptrIN5Tiled3MapENS_14default_deleteIS2_EEEC1B9nqe210106ILb1EvEEDn, symObjAddr: 0x6F0, symBinAddr: 0x4610, symSize: 0x30 }
  - { offset: 0x732F6, size: 0x8, addend: 0x0, symName: __ZN4tbin3MapC1Ev, symObjAddr: 0x720, symBinAddr: 0x4640, symSize: 0x20 }
  - { offset: 0x73322, size: 0x8, addend: 0x0, symName: __ZN4tbin3MapD1Ev, symObjAddr: 0x740, symBinAddr: 0x4660, symSize: 0x20 }
  - { offset: 0x7334E, size: 0x8, addend: 0x0, symName: __ZN4Tbin13TbinMapFormat2trEPKcS2_i, symObjAddr: 0x760, symBinAddr: 0x4680, symSize: 0x40 }
  - { offset: 0x7338D, size: 0x8, addend: 0x0, symName: __ZNSt3__112basic_stringIcNS_11char_traitsIcEENS_9allocatorIcEEEC1B9nqe210106ILi0EEEPKc, symObjAddr: 0x7F0, symBinAddr: 0x4710, symSize: 0x30 }
  - { offset: 0x733CC, size: 0x8, addend: 0x0, symName: __ZNKSt3__112basic_stringIcNS_11char_traitsIcEENS_9allocatorIcEEE5c_strB9nqe210106Ev, symObjAddr: 0x820, symBinAddr: 0x4740, symSize: 0x20 }
  - { offset: 0x733F2, size: 0x8, addend: 0x0, symName: __ZNSt3__114basic_ifstreamIcNS_11char_traitsIcEEED1Ev, symObjAddr: 0x850, symBinAddr: 0x4770, symSize: 0x40 }
  - { offset: 0x7341F, size: 0x8, addend: 0x0, symName: __ZN4Tbin13TbinMapFormat5writeEPKN5Tiled3MapERK7QString6QFlagsINS1_10FileFormat6OptionEE, symObjAddr: 0x890, symBinAddr: 0x47B0, symSize: 0x4B0 }
  - { offset: 0x734D3, size: 0x8, addend: 0x0, symName: __ZNSt3__114basic_ofstreamIcNS_11char_traitsIcEEEC1ERKNS_12basic_stringIcS2_NS_9allocatorIcEEEEj, symObjAddr: 0xD40, symBinAddr: 0x4C60, symSize: 0x140 }
  - { offset: 0x7351D, size: 0x8, addend: 0x0, symName: __ZNSt3__114basic_ofstreamIcNS_11char_traitsIcEEE5closeEv, symObjAddr: 0xE80, symBinAddr: 0x4DA0, symSize: 0x40 }
  - { offset: 0x73545, size: 0x8, addend: 0x0, symName: __ZNSt3__114basic_ofstreamIcNS_11char_traitsIcEEED1Ev, symObjAddr: 0xEC0, symBinAddr: 0x4DE0, symSize: 0x40 }
  - { offset: 0x73572, size: 0x8, addend: 0x0, symName: __ZNK7QString3argIS_Lb1EEES_RKT_i5QChar, symObjAddr: 0xF00, symBinAddr: 0x4E20, symSize: 0x70 }
  - { offset: 0x735D4, size: 0x8, addend: 0x0, symName: __ZN5QCharC1IDsLb1EEET_, symObjAddr: 0xF70, symBinAddr: 0x4E90, symSize: 0x30 }
  - { offset: 0x7361B, size: 0x8, addend: 0x0, symName: __ZNK4Tbin13TbinMapFormat10nameFilterEv, symObjAddr: 0xFA0, symBinAddr: 0x4EC0, symSize: 0x40 }
  - { offset: 0x73649, size: 0x8, addend: 0x0, symName: __ZNK4Tbin13TbinMapFormat9shortNameEv, symObjAddr: 0xFE0, symBinAddr: 0x4F00, symSize: 0x90 }
  - { offset: 0x73699, size: 0x8, addend: 0x0, symName: __ZN7QStringC1EO17QArrayDataPointerIDsE, symObjAddr: 0x1070, symBinAddr: 0x4F90, symSize: 0x30 }
  - { offset: 0x736D2, size: 0x8, addend: 0x0, symName: __ZN17QArrayDataPointerIDsED1Ev, symObjAddr: 0x10A0, symBinAddr: 0x4FC0, symSize: 0x20 }
  - { offset: 0x736FC, size: 0x8, addend: 0x0, symName: __ZNK4Tbin13TbinMapFormat12supportsFileERK7QString, symObjAddr: 0x10C0, symBinAddr: 0x4FE0, symSize: 0x220 }
  - { offset: 0x73752, size: 0x8, addend: 0x0, symName: __ZNSt3__112basic_stringIcNS_11char_traitsIcEENS_9allocatorIcEEEC1B9nqe210106Emc, symObjAddr: 0x12E0, symBinAddr: 0x5200, symSize: 0x30 }
  - { offset: 0x7379A, size: 0x8, addend: 0x0, symName: __ZNSt3__112basic_stringIcNS_11char_traitsIcEENS_9allocatorIcEEEixB9nqe210106Em, symObjAddr: 0x1310, symBinAddr: 0x5230, symSize: 0x40 }
  - { offset: 0x737CF, size: 0x8, addend: 0x0, symName: __ZNKSt3__112basic_stringIcNS_11char_traitsIcEENS_9allocatorIcEEE6lengthB9nqe210106Ev, symObjAddr: 0x1350, symBinAddr: 0x5270, symSize: 0x20 }
  - { offset: 0x737F5, size: 0x8, addend: 0x0, symName: __ZNK4Tbin13TbinMapFormat11errorStringEv, symObjAddr: 0x1400, symBinAddr: 0x5320, symSize: 0x30 }
  - { offset: 0x7381D, size: 0x8, addend: 0x0, symName: __ZN7QStringC1ERKS_, symObjAddr: 0x1430, symBinAddr: 0x5350, symSize: 0x30 }
  - { offset: 0x73858, size: 0x8, addend: 0x0, symName: __ZN7QStringC2Ev, symObjAddr: 0x1460, symBinAddr: 0x5380, symSize: 0x20 }
  - { offset: 0x73884, size: 0x8, addend: 0x0, symName: __ZN17QArrayDataPointerIDsEC1Ev, symObjAddr: 0x1480, symBinAddr: 0x53A0, symSize: 0x20 }
  - { offset: 0x738AE, size: 0x8, addend: 0x0, symName: __ZN17QArrayDataPointerIDsEC2Ev, symObjAddr: 0x14A0, symBinAddr: 0x53C0, symSize: 0x30 }
  - { offset: 0x738D8, size: 0x8, addend: 0x0, symName: __ZN7QString4swapERS_, symObjAddr: 0x14D0, symBinAddr: 0x53F0, symSize: 0x30 }
  - { offset: 0x7390D, size: 0x8, addend: 0x0, symName: __ZN17QArrayDataPointerIDsE4swapERS0_, symObjAddr: 0x1500, symBinAddr: 0x5420, symSize: 0x60 }
  - { offset: 0x73940, size: 0x8, addend: 0x0, symName: __Z11qt_ptr_swapI15QTypedArrayDataIDsEEvRPT_S4_, symObjAddr: 0x1560, symBinAddr: 0x5480, symSize: 0x40 }
  - { offset: 0x7398D, size: 0x8, addend: 0x0, symName: __Z11qt_ptr_swapIDsEvRPT_S2_, symObjAddr: 0x15A0, symBinAddr: 0x54C0, symSize: 0x40 }
  - { offset: 0x739DB, size: 0x8, addend: 0x0, symName: __ZN7QStringD2Ev, symObjAddr: 0x1620, symBinAddr: 0x5540, symSize: 0x20 }
  - { offset: 0x73A07, size: 0x8, addend: 0x0, symName: __ZNSt3__110unique_ptrIN5Tiled3MapENS_14default_deleteIS2_EEEC2B9nqe210106ILb1EvEEDn, symObjAddr: 0x1640, symBinAddr: 0x5560, symSize: 0x20 }
  - { offset: 0x73A47, size: 0x8, addend: 0x0, symName: __ZN4tbin3MapC2Ev, symObjAddr: 0x1660, symBinAddr: 0x5580, symSize: 0x60 }
  - { offset: 0x73A73, size: 0x8, addend: 0x0, symName: __ZNSt3__112basic_stringIcNS_11char_traitsIcEENS_9allocatorIcEEEC1B9nqe210106Ev, symObjAddr: 0x16C0, symBinAddr: 0x55E0, symSize: 0x20 }
  - { offset: 0x73A9D, size: 0x8, addend: 0x0, symName: __ZNSt3__13mapINS_12basic_stringIcNS_11char_traitsIcEENS_9allocatorIcEEEEN4tbin13PropertyValueENS_4lessIS6_EENS4_INS_4pairIKS6_S8_EEEEEC1B9nqe210106Ev, symObjAddr: 0x16E0, symBinAddr: 0x5600, symSize: 0x20 }
  - { offset: 0x73AC7, size: 0x8, addend: 0x0, symName: __ZNSt3__16vectorIN4tbin9TileSheetENS_9allocatorIS2_EEEC1B9nqe210106Ev, symObjAddr: 0x1700, symBinAddr: 0x5620, symSize: 0x20 }
  - { offset: 0x73AF1, size: 0x8, addend: 0x0, symName: __ZNSt3__16vectorIN4tbin5LayerENS_9allocatorIS2_EEEC1B9nqe210106Ev, symObjAddr: 0x1720, symBinAddr: 0x5640, symSize: 0x20 }
  - { offset: 0x73B1B, size: 0x8, addend: 0x0, symName: __ZNSt3__112basic_stringIcNS_11char_traitsIcEENS_9allocatorIcEEEC2B9nqe210106Ev, symObjAddr: 0x1740, symBinAddr: 0x5660, symSize: 0x40 }
  - { offset: 0x73B45, size: 0x8, addend: 0x0, symName: __ZNSt3__19allocatorIcEC1B9nqe210106Ev, symObjAddr: 0x1780, symBinAddr: 0x56A0, symSize: 0x20 }
  - { offset: 0x73B6F, size: 0x8, addend: 0x0, symName: __ZNKSt3__112basic_stringIcNS_11char_traitsIcEENS_9allocatorIcEEE14__annotate_newB9nqe210106Em, symObjAddr: 0x17A0, symBinAddr: 0x56C0, symSize: 0x70 }
  - { offset: 0x73BA4, size: 0x8, addend: 0x0, symName: __ZNSt3__19allocatorIcEC2B9nqe210106Ev, symObjAddr: 0x1810, symBinAddr: 0x5730, symSize: 0x20 }
  - { offset: 0x73BCE, size: 0x8, addend: 0x0, symName: __ZNSt3__116__non_trivial_ifILb1ENS_9allocatorIcEEEC2B9nqe210106Ev, symObjAddr: 0x1830, symBinAddr: 0x5750, symSize: 0x10 }
  - { offset: 0x73BF8, size: 0x8, addend: 0x0, symName: __ZNKSt3__112basic_stringIcNS_11char_traitsIcEENS_9allocatorIcEEE31__annotate_contiguous_containerB9nqe210106EPKvS7_, symObjAddr: 0x1840, symBinAddr: 0x5760, symSize: 0x20 }
  - { offset: 0x73C3C, size: 0x8, addend: 0x0, symName: __ZNKSt3__112basic_stringIcNS_11char_traitsIcEENS_9allocatorIcEEE4dataB9nqe210106Ev, symObjAddr: 0x1860, symBinAddr: 0x5780, symSize: 0x30 }
  - { offset: 0x73C62, size: 0x8, addend: 0x0, symName: __ZNKSt3__112basic_stringIcNS_11char_traitsIcEENS_9allocatorIcEEE8capacityB9nqe210106Ev, symObjAddr: 0x1890, symBinAddr: 0x57B0, symSize: 0x50 }
  - { offset: 0x73C88, size: 0x8, addend: 0x0, symName: __ZNKSt3__112basic_stringIcNS_11char_traitsIcEENS_9allocatorIcEEE13__get_pointerB9nqe210106Ev, symObjAddr: 0x18F0, symBinAddr: 0x5810, symSize: 0x50 }
  - { offset: 0x73CAE, size: 0x8, addend: 0x0, symName: __ZNKSt3__112basic_stringIcNS_11char_traitsIcEENS_9allocatorIcEEE9__is_longB9nqe210106Ev, symObjAddr: 0x1940, symBinAddr: 0x5860, symSize: 0x20 }
  - { offset: 0x73CD4, size: 0x8, addend: 0x0, symName: __ZNKSt3__112basic_stringIcNS_11char_traitsIcEENS_9allocatorIcEEE18__get_long_pointerB9nqe210106Ev, symObjAddr: 0x1960, symBinAddr: 0x5880, symSize: 0x20 }
  - { offset: 0x73CFA, size: 0x8, addend: 0x0, symName: __ZNKSt3__112basic_stringIcNS_11char_traitsIcEENS_9allocatorIcEEE19__get_short_pointerB9nqe210106Ev, symObjAddr: 0x1980, symBinAddr: 0x58A0, symSize: 0x20 }
  - { offset: 0x73D20, size: 0x8, addend: 0x0, symName: __ZNSt3__114pointer_traitsIPKcE10pointer_toB9nqe210106ERS1_, symObjAddr: 0x19A0, symBinAddr: 0x58C0, symSize: 0x10 }
  - { offset: 0x73D43, size: 0x8, addend: 0x0, symName: __ZNKSt3__112basic_stringIcNS_11char_traitsIcEENS_9allocatorIcEEE14__get_long_capB9nqe210106Ev, symObjAddr: 0x19B0, symBinAddr: 0x58D0, symSize: 0x20 }
  - { offset: 0x73D69, size: 0x8, addend: 0x0, symName: __ZNSt3__13mapINS_12basic_stringIcNS_11char_traitsIcEENS_9allocatorIcEEEEN4tbin13PropertyValueENS_4lessIS6_EENS4_INS_4pairIKS6_S8_EEEEEC2B9nqe210106Ev, symObjAddr: 0x19D0, symBinAddr: 0x58F0, symSize: 0x30 }
  - { offset: 0x73D93, size: 0x8, addend: 0x0, symName: __ZNSt3__119__map_value_compareINS_12basic_stringIcNS_11char_traitsIcEENS_9allocatorIcEEEENS_4pairIKS6_N4tbin13PropertyValueEEENS_4lessIS6_EELb1EEC1B9nqe210106ESD_, symObjAddr: 0x1A00, symBinAddr: 0x5920, symSize: 0x20 }
  - { offset: 0x73DCC, size: 0x8, addend: 0x0, symName: __ZNSt3__16__treeINS_12__value_typeINS_12basic_stringIcNS_11char_traitsIcEENS_9allocatorIcEEEEN4tbin13PropertyValueEEENS_19__map_value_compareIS7_NS_4pairIKS7_S9_EENS_4lessIS7_EELb1EEENS5_ISE_EEEC1ERKSH_, symObjAddr: 0x1A20, symBinAddr: 0x5940, symSize: 0x30 }
  - { offset: 0x73E07, size: 0x8, addend: 0x0, symName: __ZNSt3__119__map_value_compareINS_12basic_stringIcNS_11char_traitsIcEENS_9allocatorIcEEEENS_4pairIKS6_N4tbin13PropertyValueEEENS_4lessIS6_EELb1EEC2B9nqe210106ESD_, symObjAddr: 0x1A50, symBinAddr: 0x5970, symSize: 0x10 }
  - { offset: 0x73E40, size: 0x8, addend: 0x0, symName: __ZNSt3__16__treeINS_12__value_typeINS_12basic_stringIcNS_11char_traitsIcEENS_9allocatorIcEEEEN4tbin13PropertyValueEEENS_19__map_value_compareIS7_NS_4pairIKS7_S9_EENS_4lessIS7_EELb1EEENS5_ISE_EEEC2ERKSH_, symObjAddr: 0x1A60, symBinAddr: 0x5980, symSize: 0x60 }
  - { offset: 0x73E7B, size: 0x8, addend: 0x0, symName: __ZNSt3__115__tree_end_nodeIPNS_16__tree_node_baseIPvEEEC1B9nqe210106Ev, symObjAddr: 0x1AC0, symBinAddr: 0x59E0, symSize: 0x20 }
  - { offset: 0x73EA5, size: 0x8, addend: 0x0, symName: __ZNSt3__19allocatorINS_11__tree_nodeINS_12__value_typeINS_12basic_stringIcNS_11char_traitsIcEENS0_IcEEEEN4tbin13PropertyValueEEEPvEEEC1B9nqe210106Ev, symObjAddr: 0x1AE0, symBinAddr: 0x5A00, symSize: 0x20 }
  - { offset: 0x73ECF, size: 0x8, addend: 0x0, symName: __ZNSt3__16__treeINS_12__value_typeINS_12basic_stringIcNS_11char_traitsIcEENS_9allocatorIcEEEEN4tbin13PropertyValueEEENS_19__map_value_compareIS7_NS_4pairIKS7_S9_EENS_4lessIS7_EELb1EEENS5_ISE_EEE10__end_nodeB9nqe210106Ev, symObjAddr: 0x1B00, symBinAddr: 0x5A20, symSize: 0x20 }
  - { offset: 0x73EF5, size: 0x8, addend: 0x0, symName: __ZNSt3__16__treeINS_12__value_typeINS_12basic_stringIcNS_11char_traitsIcEENS_9allocatorIcEEEEN4tbin13PropertyValueEEENS_19__map_value_compareIS7_NS_4pairIKS7_S9_EENS_4lessIS7_EELb1EEENS5_ISE_EEE12__begin_nodeB9nqe210106Ev, symObjAddr: 0x1B20, symBinAddr: 0x5A40, symSize: 0x10 }
  - { offset: 0x73F1B, size: 0x8, addend: 0x0, symName: __ZNSt3__115__tree_end_nodeIPNS_16__tree_node_baseIPvEEEC2B9nqe210106Ev, symObjAddr: 0x1B30, symBinAddr: 0x5A50, symSize: 0x20 }
  - { offset: 0x73F45, size: 0x8, addend: 0x0, symName: __ZNSt3__19allocatorINS_11__tree_nodeINS_12__value_typeINS_12basic_stringIcNS_11char_traitsIcEENS0_IcEEEEN4tbin13PropertyValueEEEPvEEEC2B9nqe210106Ev, symObjAddr: 0x1B50, symBinAddr: 0x5A70, symSize: 0x20 }
  - { offset: 0x73F6F, size: 0x8, addend: 0x0, symName: __ZNSt3__116__non_trivial_ifILb1ENS_9allocatorINS_11__tree_nodeINS_12__value_typeINS_12basic_stringIcNS_11char_traitsIcEENS1_IcEEEEN4tbin13PropertyValueEEEPvEEEEEC2B9nqe210106Ev, symObjAddr: 0x1B70, symBinAddr: 0x5A90, symSize: 0x10 }
  - { offset: 0x73F9F, size: 0x8, addend: 0x0, symName: __ZNSt3__114pointer_traitsIPNS_15__tree_end_nodeIPNS_16__tree_node_baseIPvEEEEE10pointer_toB9nqe210106ERS6_, symObjAddr: 0x1B80, symBinAddr: 0x5AA0, symSize: 0x10 }
  - { offset: 0x73FC2, size: 0x8, addend: 0x0, symName: __ZNSt3__16vectorIN4tbin9TileSheetENS_9allocatorIS2_EEEC2B9nqe210106Ev, symObjAddr: 0x1B90, symBinAddr: 0x5AB0, symSize: 0x40 }
  - { offset: 0x73FEC, size: 0x8, addend: 0x0, symName: __ZNSt3__19allocatorIN4tbin9TileSheetEEC1B9nqe210106Ev, symObjAddr: 0x1BD0, symBinAddr: 0x5AF0, symSize: 0x20 }
  - { offset: 0x74016, size: 0x8, addend: 0x0, symName: __ZNSt3__19allocatorIN4tbin9TileSheetEEC2B9nqe210106Ev, symObjAddr: 0x1BF0, symBinAddr: 0x5B10, symSize: 0x20 }
  - { offset: 0x74040, size: 0x8, addend: 0x0, symName: __ZNSt3__116__non_trivial_ifILb1ENS_9allocatorIN4tbin9TileSheetEEEEC2B9nqe210106Ev, symObjAddr: 0x1C10, symBinAddr: 0x5B30, symSize: 0x10 }
  - { offset: 0x7406A, size: 0x8, addend: 0x0, symName: __ZNSt3__16vectorIN4tbin5LayerENS_9allocatorIS2_EEEC2B9nqe210106Ev, symObjAddr: 0x1C20, symBinAddr: 0x5B40, symSize: 0x40 }
  - { offset: 0x74094, size: 0x8, addend: 0x0, symName: __ZNSt3__19allocatorIN4tbin5LayerEEC1B9nqe210106Ev, symObjAddr: 0x1C60, symBinAddr: 0x5B80, symSize: 0x20 }
  - { offset: 0x740BE, size: 0x8, addend: 0x0, symName: __ZNSt3__19allocatorIN4tbin5LayerEEC2B9nqe210106Ev, symObjAddr: 0x1C80, symBinAddr: 0x5BA0, symSize: 0x20 }
  - { offset: 0x740E8, size: 0x8, addend: 0x0, symName: __ZNSt3__116__non_trivial_ifILb1ENS_9allocatorIN4tbin5LayerEEEEC2B9nqe210106Ev, symObjAddr: 0x1CA0, symBinAddr: 0x5BC0, symSize: 0x10 }
  - { offset: 0x74112, size: 0x8, addend: 0x0, symName: __ZN4tbin3MapD2Ev, symObjAddr: 0x1CB0, symBinAddr: 0x5BD0, symSize: 0x60 }
  - { offset: 0x7413E, size: 0x8, addend: 0x0, symName: __ZNSt3__16vectorIN4tbin5LayerENS_9allocatorIS2_EEED1B9nqe210106Ev, symObjAddr: 0x1D10, symBinAddr: 0x5C30, symSize: 0x20 }
  - { offset: 0x74168, size: 0x8, addend: 0x0, symName: __ZNSt3__16vectorIN4tbin9TileSheetENS_9allocatorIS2_EEED1B9nqe210106Ev, symObjAddr: 0x1D30, symBinAddr: 0x5C50, symSize: 0x20 }
  - { offset: 0x74192, size: 0x8, addend: 0x0, symName: __ZNSt3__13mapINS_12basic_stringIcNS_11char_traitsIcEENS_9allocatorIcEEEEN4tbin13PropertyValueENS_4lessIS6_EENS4_INS_4pairIKS6_S8_EEEEED1B9nqe210106Ev, symObjAddr: 0x1D50, symBinAddr: 0x5C70, symSize: 0x20 }
  - { offset: 0x741BC, size: 0x8, addend: 0x0, symName: __ZNSt3__16vectorIN4tbin5LayerENS_9allocatorIS2_EEED2B9nqe210106Ev, symObjAddr: 0x1D70, symBinAddr: 0x5C90, symSize: 0x40 }
  - { offset: 0x741E6, size: 0x8, addend: 0x0, symName: __ZNSt3__16vectorIN4tbin5LayerENS_9allocatorIS2_EEE16__destroy_vectorC1B9nqe210106ERS5_, symObjAddr: 0x1DB0, symBinAddr: 0x5CD0, symSize: 0x30 }
  - { offset: 0x7421E, size: 0x8, addend: 0x0, symName: __ZNSt3__16vectorIN4tbin5LayerENS_9allocatorIS2_EEE16__destroy_vectorclB9nqe210106Ev, symObjAddr: 0x1DE0, symBinAddr: 0x5D00, symSize: 0x70 }
  - { offset: 0x74244, size: 0x8, addend: 0x0, symName: __ZNSt3__16vectorIN4tbin5LayerENS_9allocatorIS2_EEE16__destroy_vectorC2B9nqe210106ERS5_, symObjAddr: 0x1E50, symBinAddr: 0x5D70, symSize: 0x20 }
  - { offset: 0x7427C, size: 0x8, addend: 0x0, symName: __ZNSt3__16vectorIN4tbin5LayerENS_9allocatorIS2_EEE5clearB9nqe210106Ev, symObjAddr: 0x1E70, symBinAddr: 0x5D90, symSize: 0x40 }
  - { offset: 0x742B1, size: 0x8, addend: 0x0, symName: __ZNKSt3__16vectorIN4tbin5LayerENS_9allocatorIS2_EEE17__annotate_deleteB9nqe210106Ev, symObjAddr: 0x1EB0, symBinAddr: 0x5DD0, symSize: 0x80 }
  - { offset: 0x742D7, size: 0x8, addend: 0x0, symName: __ZNSt3__116allocator_traitsINS_9allocatorIN4tbin5LayerEEEE10deallocateB9nqe210106ERS4_PS3_m, symObjAddr: 0x1F30, symBinAddr: 0x5E50, symSize: 0x30 }
  - { offset: 0x74319, size: 0x8, addend: 0x0, symName: __ZNKSt3__16vectorIN4tbin5LayerENS_9allocatorIS2_EEE8capacityB9nqe210106Ev, symObjAddr: 0x1F60, symBinAddr: 0x5E80, symSize: 0x30 }
  - { offset: 0x7433F, size: 0x8, addend: 0x0, symName: __ZNKSt3__16vectorIN4tbin5LayerENS_9allocatorIS2_EEE4sizeB9nqe210106Ev, symObjAddr: 0x1F90, symBinAddr: 0x5EB0, symSize: 0x30 }
  - { offset: 0x74365, size: 0x8, addend: 0x0, symName: __ZNSt3__16vectorIN4tbin5LayerENS_9allocatorIS2_EEE22__base_destruct_at_endB9nqe210106EPS2_, symObjAddr: 0x1FC0, symBinAddr: 0x5EE0, symSize: 0x80 }
  - { offset: 0x743A9, size: 0x8, addend: 0x0, symName: __ZNKSt3__16vectorIN4tbin5LayerENS_9allocatorIS2_EEE17__annotate_shrinkB9nqe210106Em, symObjAddr: 0x2040, symBinAddr: 0x5F60, symSize: 0x70 }
  - { offset: 0x743DE, size: 0x8, addend: 0x0, symName: __ZNSt3__116allocator_traitsINS_9allocatorIN4tbin5LayerEEEE7destroyB9nqe210106IS3_Li0EEEvRS4_PT_, symObjAddr: 0x20B0, symBinAddr: 0x5FD0, symSize: 0x30 }
  - { offset: 0x74420, size: 0x8, addend: 0x0, symName: __ZNSt3__19allocatorIN4tbin5LayerEE7destroyB9nqe210106EPS2_, symObjAddr: 0x20F0, symBinAddr: 0x6010, symSize: 0x20 }
  - { offset: 0x74459, size: 0x8, addend: 0x0, symName: __ZN4tbin5LayerD1Ev, symObjAddr: 0x2110, symBinAddr: 0x6030, symSize: 0x20 }
  - { offset: 0x74485, size: 0x8, addend: 0x0, symName: __ZN4tbin5LayerD2Ev, symObjAddr: 0x2130, symBinAddr: 0x6050, symSize: 0x50 }
  - { offset: 0x744B1, size: 0x8, addend: 0x0, symName: __ZNSt3__16vectorIN4tbin4TileENS_9allocatorIS2_EEED1B9nqe210106Ev, symObjAddr: 0x2180, symBinAddr: 0x60A0, symSize: 0x20 }
  - { offset: 0x744DB, size: 0x8, addend: 0x0, symName: __ZNSt3__16vectorIN4tbin4TileENS_9allocatorIS2_EEED2B9nqe210106Ev, symObjAddr: 0x21A0, symBinAddr: 0x60C0, symSize: 0x40 }
  - { offset: 0x74505, size: 0x8, addend: 0x0, symName: __ZNSt3__16vectorIN4tbin4TileENS_9allocatorIS2_EEE16__destroy_vectorC1B9nqe210106ERS5_, symObjAddr: 0x21E0, symBinAddr: 0x6100, symSize: 0x30 }
  - { offset: 0x7453D, size: 0x8, addend: 0x0, symName: __ZNSt3__16vectorIN4tbin4TileENS_9allocatorIS2_EEE16__destroy_vectorclB9nqe210106Ev, symObjAddr: 0x2210, symBinAddr: 0x6130, symSize: 0x70 }
  - { offset: 0x74563, size: 0x8, addend: 0x0, symName: __ZNSt3__16vectorIN4tbin4TileENS_9allocatorIS2_EEE16__destroy_vectorC2B9nqe210106ERS5_, symObjAddr: 0x2280, symBinAddr: 0x61A0, symSize: 0x20 }
  - { offset: 0x7459B, size: 0x8, addend: 0x0, symName: __ZNSt3__16vectorIN4tbin4TileENS_9allocatorIS2_EEE5clearB9nqe210106Ev, symObjAddr: 0x22A0, symBinAddr: 0x61C0, symSize: 0x40 }
  - { offset: 0x745D0, size: 0x8, addend: 0x0, symName: __ZNKSt3__16vectorIN4tbin4TileENS_9allocatorIS2_EEE17__annotate_deleteB9nqe210106Ev, symObjAddr: 0x22E0, symBinAddr: 0x6200, symSize: 0x80 }
  - { offset: 0x745F6, size: 0x8, addend: 0x0, symName: __ZNSt3__116allocator_traitsINS_9allocatorIN4tbin4TileEEEE10deallocateB9nqe210106ERS4_PS3_m, symObjAddr: 0x2360, symBinAddr: 0x6280, symSize: 0x30 }
  - { offset: 0x74638, size: 0x8, addend: 0x0, symName: __ZNKSt3__16vectorIN4tbin4TileENS_9allocatorIS2_EEE8capacityB9nqe210106Ev, symObjAddr: 0x2390, symBinAddr: 0x62B0, symSize: 0x30 }
  - { offset: 0x7465E, size: 0x8, addend: 0x0, symName: __ZNKSt3__16vectorIN4tbin4TileENS_9allocatorIS2_EEE4sizeB9nqe210106Ev, symObjAddr: 0x23C0, symBinAddr: 0x62E0, symSize: 0x30 }
  - { offset: 0x74684, size: 0x8, addend: 0x0, symName: __ZNSt3__16vectorIN4tbin4TileENS_9allocatorIS2_EEE22__base_destruct_at_endB9nqe210106EPS2_, symObjAddr: 0x23F0, symBinAddr: 0x6310, symSize: 0x80 }
  - { offset: 0x746C8, size: 0x8, addend: 0x0, symName: __ZNKSt3__16vectorIN4tbin4TileENS_9allocatorIS2_EEE17__annotate_shrinkB9nqe210106Em, symObjAddr: 0x2470, symBinAddr: 0x6390, symSize: 0x70 }
  - { offset: 0x746FD, size: 0x8, addend: 0x0, symName: __ZNSt3__116allocator_traitsINS_9allocatorIN4tbin4TileEEEE7destroyB9nqe210106IS3_Li0EEEvRS4_PT_, symObjAddr: 0x24E0, symBinAddr: 0x6400, symSize: 0x30 }
  - { offset: 0x7473F, size: 0x8, addend: 0x0, symName: __ZNSt3__19allocatorIN4tbin4TileEE7destroyB9nqe210106EPS2_, symObjAddr: 0x2520, symBinAddr: 0x6440, symSize: 0x20 }
  - { offset: 0x74778, size: 0x8, addend: 0x0, symName: __ZN4tbin4TileD1Ev, symObjAddr: 0x2540, symBinAddr: 0x6460, symSize: 0x20 }
  - { offset: 0x747A4, size: 0x8, addend: 0x0, symName: __ZN4tbin4TileD2Ev, symObjAddr: 0x2560, symBinAddr: 0x6480, symSize: 0x40 }
  - { offset: 0x747D5, size: 0x8, addend: 0x0, symName: __ZN4tbin4TileUt0_D1Ev, symObjAddr: 0x25A0, symBinAddr: 0x64C0, symSize: 0x20 }
  - { offset: 0x74801, size: 0x8, addend: 0x0, symName: __ZN4tbin4TileUt0_D2Ev, symObjAddr: 0x25C0, symBinAddr: 0x64E0, symSize: 0x20 }
  - { offset: 0x7482D, size: 0x8, addend: 0x0, symName: __ZNKSt3__16vectorIN4tbin4TileENS_9allocatorIS2_EEE31__annotate_contiguous_containerB9nqe210106EPKvS7_, symObjAddr: 0x25E0, symBinAddr: 0x6500, symSize: 0x60 }
  - { offset: 0x74871, size: 0x8, addend: 0x0, symName: __ZNKSt3__16vectorIN4tbin4TileENS_9allocatorIS2_EEE4dataB9nqe210106Ev, symObjAddr: 0x2640, symBinAddr: 0x6560, symSize: 0x20 }
  - { offset: 0x74897, size: 0x8, addend: 0x0, symName: __ZNSt3__19allocatorIN4tbin4TileEE10deallocateB9nqe210106EPS2_m, symObjAddr: 0x2680, symBinAddr: 0x65A0, symSize: 0x30 }
  - { offset: 0x748D9, size: 0x8, addend: 0x0, symName: __ZNKSt3__16vectorIN4tbin5LayerENS_9allocatorIS2_EEE31__annotate_contiguous_containerB9nqe210106EPKvS7_, symObjAddr: 0x2720, symBinAddr: 0x6640, symSize: 0x60 }
  - { offset: 0x7491D, size: 0x8, addend: 0x0, symName: __ZNKSt3__16vectorIN4tbin5LayerENS_9allocatorIS2_EEE4dataB9nqe210106Ev, symObjAddr: 0x2780, symBinAddr: 0x66A0, symSize: 0x20 }
  - { offset: 0x74943, size: 0x8, addend: 0x0, symName: __ZNSt3__19allocatorIN4tbin5LayerEE10deallocateB9nqe210106EPS2_m, symObjAddr: 0x27C0, symBinAddr: 0x66E0, symSize: 0x30 }
  - { offset: 0x74985, size: 0x8, addend: 0x0, symName: __ZNSt3__16vectorIN4tbin9TileSheetENS_9allocatorIS2_EEED2B9nqe210106Ev, symObjAddr: 0x2840, symBinAddr: 0x6760, symSize: 0x40 }
  - { offset: 0x749AF, size: 0x8, addend: 0x0, symName: __ZNSt3__16vectorIN4tbin9TileSheetENS_9allocatorIS2_EEE16__destroy_vectorC1B9nqe210106ERS5_, symObjAddr: 0x2880, symBinAddr: 0x67A0, symSize: 0x30 }
  - { offset: 0x749E7, size: 0x8, addend: 0x0, symName: __ZNSt3__16vectorIN4tbin9TileSheetENS_9allocatorIS2_EEE16__destroy_vectorclB9nqe210106Ev, symObjAddr: 0x28B0, symBinAddr: 0x67D0, symSize: 0x70 }
  - { offset: 0x74A0D, size: 0x8, addend: 0x0, symName: __ZNSt3__16vectorIN4tbin9TileSheetENS_9allocatorIS2_EEE16__destroy_vectorC2B9nqe210106ERS5_, symObjAddr: 0x2920, symBinAddr: 0x6840, symSize: 0x20 }
  - { offset: 0x74A45, size: 0x8, addend: 0x0, symName: __ZNSt3__16vectorIN4tbin9TileSheetENS_9allocatorIS2_EEE5clearB9nqe210106Ev, symObjAddr: 0x2940, symBinAddr: 0x6860, symSize: 0x40 }
  - { offset: 0x74A7A, size: 0x8, addend: 0x0, symName: __ZNKSt3__16vectorIN4tbin9TileSheetENS_9allocatorIS2_EEE17__annotate_deleteB9nqe210106Ev, symObjAddr: 0x2980, symBinAddr: 0x68A0, symSize: 0x80 }
  - { offset: 0x74AA0, size: 0x8, addend: 0x0, symName: __ZNSt3__116allocator_traitsINS_9allocatorIN4tbin9TileSheetEEEE10deallocateB9nqe210106ERS4_PS3_m, symObjAddr: 0x2A00, symBinAddr: 0x6920, symSize: 0x30 }
  - { offset: 0x74AE2, size: 0x8, addend: 0x0, symName: __ZNKSt3__16vectorIN4tbin9TileSheetENS_9allocatorIS2_EEE8capacityB9nqe210106Ev, symObjAddr: 0x2A30, symBinAddr: 0x6950, symSize: 0x20 }
  - { offset: 0x74B08, size: 0x8, addend: 0x0, symName: __ZNKSt3__16vectorIN4tbin9TileSheetENS_9allocatorIS2_EEE4sizeB9nqe210106Ev, symObjAddr: 0x2A50, symBinAddr: 0x6970, symSize: 0x20 }
  - { offset: 0x74B2E, size: 0x8, addend: 0x0, symName: __ZNSt3__16vectorIN4tbin9TileSheetENS_9allocatorIS2_EEE22__base_destruct_at_endB9nqe210106EPS2_, symObjAddr: 0x2A70, symBinAddr: 0x6990, symSize: 0x80 }
  - { offset: 0x74B72, size: 0x8, addend: 0x0, symName: __ZNKSt3__16vectorIN4tbin9TileSheetENS_9allocatorIS2_EEE17__annotate_shrinkB9nqe210106Em, symObjAddr: 0x2AF0, symBinAddr: 0x6A10, symSize: 0x70 }
  - { offset: 0x74BA7, size: 0x8, addend: 0x0, symName: __ZNSt3__116allocator_traitsINS_9allocatorIN4tbin9TileSheetEEEE7destroyB9nqe210106IS3_Li0EEEvRS4_PT_, symObjAddr: 0x2B60, symBinAddr: 0x6A80, symSize: 0x30 }
  - { offset: 0x74BE9, size: 0x8, addend: 0x0, symName: __ZNSt3__19allocatorIN4tbin9TileSheetEE7destroyB9nqe210106EPS2_, symObjAddr: 0x2BA0, symBinAddr: 0x6AC0, symSize: 0x20 }
  - { offset: 0x74C22, size: 0x8, addend: 0x0, symName: __ZN4tbin9TileSheetD1Ev, symObjAddr: 0x2BC0, symBinAddr: 0x6AE0, symSize: 0x20 }
  - { offset: 0x74C4E, size: 0x8, addend: 0x0, symName: __ZN4tbin9TileSheetD2Ev, symObjAddr: 0x2BE0, symBinAddr: 0x6B00, symSize: 0x50 }
  - { offset: 0x74C7A, size: 0x8, addend: 0x0, symName: __ZNKSt3__16vectorIN4tbin9TileSheetENS_9allocatorIS2_EEE31__annotate_contiguous_containerB9nqe210106EPKvS7_, symObjAddr: 0x2C30, symBinAddr: 0x6B50, symSize: 0x60 }
  - { offset: 0x74CBE, size: 0x8, addend: 0x0, symName: __ZNKSt3__16vectorIN4tbin9TileSheetENS_9allocatorIS2_EEE4dataB9nqe210106Ev, symObjAddr: 0x2C90, symBinAddr: 0x6BB0, symSize: 0x20 }
  - { offset: 0x74CE4, size: 0x8, addend: 0x0, symName: __ZNSt3__19allocatorIN4tbin9TileSheetEE10deallocateB9nqe210106EPS2_m, symObjAddr: 0x2CD0, symBinAddr: 0x6BF0, symSize: 0x30 }
  - { offset: 0x74D26, size: 0x8, addend: 0x0, symName: __ZNSt3__13mapINS_12basic_stringIcNS_11char_traitsIcEENS_9allocatorIcEEEEN4tbin13PropertyValueENS_4lessIS6_EENS4_INS_4pairIKS6_S8_EEEEED2B9nqe210106Ev, symObjAddr: 0x2D50, symBinAddr: 0x6C70, symSize: 0x20 }
  - { offset: 0x74D50, size: 0x8, addend: 0x0, symName: __ZNSt3__16__treeINS_12__value_typeINS_12basic_stringIcNS_11char_traitsIcEENS_9allocatorIcEEEEN4tbin13PropertyValueEEENS_19__map_value_compareIS7_NS_4pairIKS7_S9_EENS_4lessIS7_EELb1EEENS5_ISE_EEED1Ev, symObjAddr: 0x2D70, symBinAddr: 0x6C90, symSize: 0x20 }
  - { offset: 0x74D7C, size: 0x8, addend: 0x0, symName: __ZNSt3__16__treeINS_12__value_typeINS_12basic_stringIcNS_11char_traitsIcEENS_9allocatorIcEEEEN4tbin13PropertyValueEEENS_19__map_value_compareIS7_NS_4pairIKS7_S9_EENS_4lessIS7_EELb1EEENS5_ISE_EEED2Ev, symObjAddr: 0x2D90, symBinAddr: 0x6CB0, symSize: 0x30 }
  - { offset: 0x74DA8, size: 0x8, addend: 0x0, symName: __ZNSt3__16__treeINS_12__value_typeINS_12basic_stringIcNS_11char_traitsIcEENS_9allocatorIcEEEEN4tbin13PropertyValueEEENS_19__map_value_compareIS7_NS_4pairIKS7_S9_EENS_4lessIS7_EELb1EEENS5_ISE_EEE7destroyEPNS_11__tree_nodeISA_PvEE, symObjAddr: 0x2DC0, symBinAddr: 0x6CE0, symSize: 0x80 }
  - { offset: 0x74DF5, size: 0x8, addend: 0x0, symName: __ZNKSt3__16__treeINS_12__value_typeINS_12basic_stringIcNS_11char_traitsIcEENS_9allocatorIcEEEEN4tbin13PropertyValueEEENS_19__map_value_compareIS7_NS_4pairIKS7_S9_EENS_4lessIS7_EELb1EEENS5_ISE_EEE6__rootB9nqe210106Ev, symObjAddr: 0x2E40, symBinAddr: 0x6D60, symSize: 0x20 }
  - { offset: 0x74E1B, size: 0x8, addend: 0x0, symName: __ZNSt3__16__treeINS_12__value_typeINS_12basic_stringIcNS_11char_traitsIcEENS_9allocatorIcEEEEN4tbin13PropertyValueEEENS_19__map_value_compareIS7_NS_4pairIKS7_S9_EENS_4lessIS7_EELb1EEENS5_ISE_EEE12__node_allocB9nqe210106Ev, symObjAddr: 0x2E60, symBinAddr: 0x6D80, symSize: 0x20 }
  - { offset: 0x74E47, size: 0x8, addend: 0x0, symName: __ZNSt3__116allocator_traitsINS_9allocatorINS_11__tree_nodeINS_12__value_typeINS_12basic_stringIcNS_11char_traitsIcEENS1_IcEEEEN4tbin13PropertyValueEEEPvEEEEE7destroyB9nqe210106INS_4pairIKS8_SA_EELi0EEEvRSE_PT_, symObjAddr: 0x2E80, symBinAddr: 0x6DA0, symSize: 0x20 }
  - { offset: 0x74E86, size: 0x8, addend: 0x0, symName: __ZNSt3__116allocator_traitsINS_9allocatorINS_11__tree_nodeINS_12__value_typeINS_12basic_stringIcNS_11char_traitsIcEENS1_IcEEEEN4tbin13PropertyValueEEEPvEEEEE10deallocateB9nqe210106ERSE_PSD_m, symObjAddr: 0x2EA0, symBinAddr: 0x6DC0, symSize: 0x30 }
  - { offset: 0x74EC8, size: 0x8, addend: 0x0, symName: __ZNSt3__14pairIKNS_12basic_stringIcNS_11char_traitsIcEENS_9allocatorIcEEEEN4tbin13PropertyValueEED1Ev, symObjAddr: 0x2EF0, symBinAddr: 0x6E10, symSize: 0x20 }
  - { offset: 0x74EF4, size: 0x8, addend: 0x0, symName: __ZNSt3__14pairIKNS_12basic_stringIcNS_11char_traitsIcEENS_9allocatorIcEEEEN4tbin13PropertyValueEED2Ev, symObjAddr: 0x2F10, symBinAddr: 0x6E30, symSize: 0x30 }
  - { offset: 0x74F25, size: 0x8, addend: 0x0, symName: __ZN4tbin13PropertyValueD1Ev, symObjAddr: 0x2F40, symBinAddr: 0x6E60, symSize: 0x20 }
  - { offset: 0x74F51, size: 0x8, addend: 0x0, symName: __ZN4tbin13PropertyValueD2Ev, symObjAddr: 0x2F60, symBinAddr: 0x6E80, symSize: 0x20 }
  - { offset: 0x74F7D, size: 0x8, addend: 0x0, symName: __ZNSt3__19allocatorINS_11__tree_nodeINS_12__value_typeINS_12basic_stringIcNS_11char_traitsIcEENS0_IcEEEEN4tbin13PropertyValueEEEPvEEE10deallocateB9nqe210106EPSC_m, symObjAddr: 0x2F80, symBinAddr: 0x6EA0, symSize: 0x30 }
  - { offset: 0x74FBF, size: 0x8, addend: 0x0, symName: __ZNKSt3__16__treeINS_12__value_typeINS_12basic_stringIcNS_11char_traitsIcEENS_9allocatorIcEEEEN4tbin13PropertyValueEEENS_19__map_value_compareIS7_NS_4pairIKS7_S9_EENS_4lessIS7_EELb1EEENS5_ISE_EEE10__end_nodeB9nqe210106Ev, symObjAddr: 0x3000, symBinAddr: 0x6F20, symSize: 0x20 }
  - { offset: 0x74FE5, size: 0x8, addend: 0x0, symName: __ZNSt3__114basic_ifstreamIcNS_11char_traitsIcEEED2Ev, symObjAddr: 0x3020, symBinAddr: 0x6F40, symSize: 0x60 }
  - { offset: 0x7501F, size: 0x8, addend: 0x0, symName: __ZTv0_n24_NSt3__114basic_ifstreamIcNS_11char_traitsIcEEED1Ev, symObjAddr: 0x3080, symBinAddr: 0x6FA0, symSize: 0x20 }
  - { offset: 0x75036, size: 0x8, addend: 0x0, symName: __ZNSt3__114basic_ofstreamIcNS_11char_traitsIcEEED2Ev, symObjAddr: 0x30A0, symBinAddr: 0x6FC0, symSize: 0x60 }
  - { offset: 0x75070, size: 0x8, addend: 0x0, symName: __ZTv0_n24_NSt3__114basic_ofstreamIcNS_11char_traitsIcEEED1Ev, symObjAddr: 0x3100, symBinAddr: 0x7020, symSize: 0x20 }
  - { offset: 0x75087, size: 0x8, addend: 0x0, symName: __ZN5QCharC2IDsLb1EEET_, symObjAddr: 0x3120, symBinAddr: 0x7040, symSize: 0x20 }
  - { offset: 0x750CE, size: 0x8, addend: 0x0, symName: __ZN7QStringC2EO17QArrayDataPointerIDsE, symObjAddr: 0x3140, symBinAddr: 0x7060, symSize: 0x30 }
  - { offset: 0x75107, size: 0x8, addend: 0x0, symName: __ZN17QArrayDataPointerIDsEC1EOS0_, symObjAddr: 0x3170, symBinAddr: 0x7090, symSize: 0x30 }
  - { offset: 0x7513F, size: 0x8, addend: 0x0, symName: __ZN17QArrayDataPointerIDsEC2EOS0_, symObjAddr: 0x31A0, symBinAddr: 0x70C0, symSize: 0x90 }
  - { offset: 0x75177, size: 0x8, addend: 0x0, symName: __ZN7QStringC2ERKS_, symObjAddr: 0x32C0, symBinAddr: 0x71E0, symSize: 0x30 }
  - { offset: 0x751B2, size: 0x8, addend: 0x0, symName: __ZN17QArrayDataPointerIDsEC1ERKS0_, symObjAddr: 0x32F0, symBinAddr: 0x7210, symSize: 0x30 }
  - { offset: 0x751EA, size: 0x8, addend: 0x0, symName: __ZN17QArrayDataPointerIDsEC2ERKS0_, symObjAddr: 0x3320, symBinAddr: 0x7240, symSize: 0x50 }
  - { offset: 0x75222, size: 0x8, addend: 0x0, symName: __ZN17QArrayDataPointerIDsE3refEv, symObjAddr: 0x3370, symBinAddr: 0x7290, symSize: 0x30 }
  - { offset: 0x75248, size: 0x8, addend: 0x0, symName: __ZN10QArrayData3refEv, symObjAddr: 0x33A0, symBinAddr: 0x72C0, symSize: 0x20 }
  - { offset: 0x7526E, size: 0x8, addend: 0x0, symName: __ZN19QBasicAtomicIntegerIiE10refRelaxedEv, symObjAddr: 0x33C0, symBinAddr: 0x72E0, symSize: 0x20 }
  - { offset: 0x752BE, size: 0x8, addend: 0x0, symName: __ZN10QAtomicOpsIiE18fetchAndAddRelaxedIiEET_RNSt3__16atomicIS2_EEN19QAtomicAdditiveTypeIS2_E9AdditiveTE, symObjAddr: 0x33E0, symBinAddr: 0x7300, symSize: 0x30 }
  - { offset: 0x752FA, size: 0x8, addend: 0x0, symName: __ZNSt3__113__atomic_baseIiLb1EE9fetch_addB9nqe210106EiNS_12memory_orderE, symObjAddr: 0x3410, symBinAddr: 0x7330, symSize: 0x30 }
  - { offset: 0x7533C, size: 0x8, addend: 0x0, symName: __ZN17QArrayDataPointerIDsED2Ev, symObjAddr: 0x34F0, symBinAddr: 0x7410, symSize: 0x40 }
  - { offset: 0x75366, size: 0x8, addend: 0x0, symName: __ZN17QArrayDataPointerIDsE5derefEv, symObjAddr: 0x3530, symBinAddr: 0x7450, symSize: 0x40 }
  - { offset: 0x7538C, size: 0x8, addend: 0x0, symName: __ZN17QArrayDataPointerIDsEptEv, symObjAddr: 0x3570, symBinAddr: 0x7490, symSize: 0x10 }
  - { offset: 0x753B2, size: 0x8, addend: 0x0, symName: __ZN9QtPrivate12QPodArrayOpsIDsE10destroyAllEv, symObjAddr: 0x3580, symBinAddr: 0x74A0, symSize: 0x70 }
  - { offset: 0x753D8, size: 0x8, addend: 0x0, symName: __ZN15QTypedArrayDataIDsE10deallocateEP10QArrayData, symObjAddr: 0x35F0, symBinAddr: 0x7510, symSize: 0x30 }
  - { offset: 0x753FB, size: 0x8, addend: 0x0, symName: __ZN10QArrayData5derefEv, symObjAddr: 0x3620, symBinAddr: 0x7540, symSize: 0x20 }
  - { offset: 0x75421, size: 0x8, addend: 0x0, symName: __ZN19QBasicAtomicIntegerIiE5derefEv, symObjAddr: 0x3640, symBinAddr: 0x7560, symSize: 0x20 }
  - { offset: 0x75447, size: 0x8, addend: 0x0, symName: __ZN10QAtomicOpsIiE5derefIiEEbRNSt3__16atomicIT_EE, symObjAddr: 0x3660, symBinAddr: 0x7580, symSize: 0x30 }
  - { offset: 0x75474, size: 0x8, addend: 0x0, symName: __ZNSt3__113__atomic_baseIiLb1EE9fetch_subB9nqe210106EiNS_12memory_orderE, symObjAddr: 0x3690, symBinAddr: 0x75B0, symSize: 0x30 }
  - { offset: 0x754B6, size: 0x8, addend: 0x0, symName: __ZNK19QBasicAtomicIntegerIiE11loadRelaxedEv, symObjAddr: 0x3780, symBinAddr: 0x76A0, symSize: 0x20 }
  - { offset: 0x754DC, size: 0x8, addend: 0x0, symName: __ZN10QAtomicOpsIiE11loadRelaxedIiEET_RKNSt3__16atomicIS2_EE, symObjAddr: 0x37A0, symBinAddr: 0x76C0, symSize: 0x20 }
  - { offset: 0x75508, size: 0x8, addend: 0x0, symName: __ZNKSt3__113__atomic_baseIiLb0EE4loadB9nqe210106ENS_12memory_orderE, symObjAddr: 0x37C0, symBinAddr: 0x76E0, symSize: 0x30 }
  - { offset: 0x7553C, size: 0x8, addend: 0x0, symName: __ZNSt3__19basic_iosIcNS_11char_traitsIcEEEC2B9nqe210106Ev, symObjAddr: 0x3840, symBinAddr: 0x7760, symSize: 0x40 }
  - { offset: 0x75566, size: 0x8, addend: 0x0, symName: __ZNSt3__113basic_istreamIcNS_11char_traitsIcEEEC2B9nqe210106EPNS_15basic_streambufIcS2_EE, symObjAddr: 0x3880, symBinAddr: 0x77A0, symSize: 0x50 }
  - { offset: 0x755AB, size: 0x8, addend: 0x0, symName: __ZNSt3__113basic_filebufIcNS_11char_traitsIcEEE4openERKNS_12basic_stringIcS2_NS_9allocatorIcEEEEj, symObjAddr: 0x38D0, symBinAddr: 0x77F0, symSize: 0x40 }
  - { offset: 0x755F1, size: 0x8, addend: 0x0, symName: __ZNSt3__19basic_iosIcNS_11char_traitsIcEEE8setstateB9nqe210106Ej, symObjAddr: 0x3910, symBinAddr: 0x7830, symSize: 0x30 }
  - { offset: 0x75626, size: 0x8, addend: 0x0, symName: __ZNSt3__18ios_baseC2B9nqe210106Ev, symObjAddr: 0x3940, symBinAddr: 0x7860, symSize: 0x30 }
  - { offset: 0x75650, size: 0x8, addend: 0x0, symName: __ZNSt3__19basic_iosIcNS_11char_traitsIcEEE4initB9nqe210106EPNS_15basic_streambufIcS2_EE, symObjAddr: 0x3970, symBinAddr: 0x7890, symSize: 0x50 }
  - { offset: 0x75687, size: 0x8, addend: 0x0, symName: __ZNSt3__118_SentinelValueFillINS_11char_traitsIcEEE6__initB9nqe210106Ev, symObjAddr: 0x39C0, symBinAddr: 0x78E0, symSize: 0x30 }
  - { offset: 0x756AD, size: 0x8, addend: 0x0, symName: __ZNSt3__111char_traitsIcE3eofB9nqe210106Ev, symObjAddr: 0x39F0, symBinAddr: 0x7910, symSize: 0x10 }
  - { offset: 0x756C1, size: 0x8, addend: 0x0, symName: __ZNSt3__18ios_base8setstateB9nqe210106Ej, symObjAddr: 0x3A00, symBinAddr: 0x7920, symSize: 0x30 }
  - { offset: 0x756F8, size: 0x8, addend: 0x0, symName: __ZNKSt3__19basic_iosIcNS_11char_traitsIcEEE4failB9nqe210106Ev, symObjAddr: 0x3A30, symBinAddr: 0x7950, symSize: 0x20 }
  - { offset: 0x7571E, size: 0x8, addend: 0x0, symName: __ZNKSt3__18ios_base4failB9nqe210106Ev, symObjAddr: 0x3A50, symBinAddr: 0x7970, symSize: 0x20 }
  - { offset: 0x75746, size: 0x8, addend: 0x0, symName: __ZNSt3__112basic_stringIcNS_11char_traitsIcEENS_9allocatorIcEEEC2B9nqe210106ILi0EEEPKc, symObjAddr: 0x3A70, symBinAddr: 0x7990, symSize: 0x50 }
  - { offset: 0x75785, size: 0x8, addend: 0x0, symName: __ZNSt3__111char_traitsIcE6lengthB9nqe210106EPKc, symObjAddr: 0x3AC0, symBinAddr: 0x79E0, symSize: 0x20 }
  - { offset: 0x757A8, size: 0x8, addend: 0x0, symName: __ZNSt3__112basic_stringIcNS_11char_traitsIcEENS_9allocatorIcEEEC1B9nqe210106EOS5_, symObjAddr: 0x3B00, symBinAddr: 0x7A20, symSize: 0x30 }
  - { offset: 0x757E1, size: 0x8, addend: 0x0, symName: __ZNSt3__112basic_stringIcNS_11char_traitsIcEENS_9allocatorIcEEEC2B9nqe210106EOS5_, symObjAddr: 0x3B30, symBinAddr: 0x7A50, symSize: 0xC0 }
  - { offset: 0x7584B, size: 0x8, addend: 0x0, symName: __ZZNSt3__112basic_stringIcNS_11char_traitsIcEENS_9allocatorIcEEEC1B9nqe210106EOS5_ENKUlRS5_E_clES7_, symObjAddr: 0x3BF0, symBinAddr: 0x7B10, symSize: 0x30 }
  - { offset: 0x75884, size: 0x8, addend: 0x0, symName: __ZNKSt3__112basic_stringIcNS_11char_traitsIcEENS_9allocatorIcEEE4sizeB9nqe210106Ev, symObjAddr: 0x3C20, symBinAddr: 0x7B40, symSize: 0x50 }
  - { offset: 0x758AA, size: 0x8, addend: 0x0, symName: __ZNKSt3__112basic_stringIcNS_11char_traitsIcEENS_9allocatorIcEEE17__annotate_deleteB9nqe210106Ev, symObjAddr: 0x3C70, symBinAddr: 0x7B90, symSize: 0x70 }
  - { offset: 0x758D0, size: 0x8, addend: 0x0, symName: __ZNKSt3__112basic_stringIcNS_11char_traitsIcEENS_9allocatorIcEEE15__get_long_sizeB9nqe210106Ev, symObjAddr: 0x3CE0, symBinAddr: 0x7C00, symSize: 0x20 }
  - { offset: 0x758F6, size: 0x8, addend: 0x0, symName: __ZNKSt3__112basic_stringIcNS_11char_traitsIcEENS_9allocatorIcEEE16__get_short_sizeB9nqe210106Ev, symObjAddr: 0x3D00, symBinAddr: 0x7C20, symSize: 0x20 }
  - { offset: 0x7591C, size: 0x8, addend: 0x0, symName: __ZNSt3__113basic_ostreamIcNS_11char_traitsIcEEEC2B9nqe210106EPNS_15basic_streambufIcS2_EE, symObjAddr: 0x3D20, symBinAddr: 0x7C40, symSize: 0x50 }
  - { offset: 0x75961, size: 0x8, addend: 0x0, symName: __ZN14QAnyStringViewC1ERK7QString, symObjAddr: 0x3D70, symBinAddr: 0x7C90, symSize: 0x50 }
  - { offset: 0x7599D, size: 0x8, addend: 0x0, symName: __ZNK7QString5beginEv, symObjAddr: 0x3DC0, symBinAddr: 0x7CE0, symSize: 0x20 }
  - { offset: 0x759C5, size: 0x8, addend: 0x0, symName: __ZNK7QString4sizeEv, symObjAddr: 0x3DE0, symBinAddr: 0x7D00, symSize: 0x50 }
  - { offset: 0x75A1F, size: 0x8, addend: 0x0, symName: __ZN14QAnyStringViewC1I5QCharLb1EEEPKT_x, symObjAddr: 0x3E30, symBinAddr: 0x7D50, symSize: 0x30 }
  - { offset: 0x75A74, size: 0x8, addend: 0x0, symName: __ZNK17QArrayDataPointerIDsE4dataEv, symObjAddr: 0x3E60, symBinAddr: 0x7D80, symSize: 0x20 }
  - { offset: 0x75AA4, size: 0x8, addend: 0x0, symName: __ZZNK7QString4sizeEvENKUlvE_clEv, symObjAddr: 0x3E80, symBinAddr: 0x7DA0, symSize: 0x50 }
  - { offset: 0x75ACE, size: 0x8, addend: 0x0, symName: __ZN14QAnyStringViewC2I5QCharLb1EEEPKT_x, symObjAddr: 0x3ED0, symBinAddr: 0x7DF0, symSize: 0x50 }
  - { offset: 0x75B23, size: 0x8, addend: 0x0, symName: __ZN14QAnyStringView10encodeTypeI5QCharEEmPKT_x, symObjAddr: 0x3F20, symBinAddr: 0x7E40, symSize: 0xD0 }
  - { offset: 0x75B5D, size: 0x8, addend: 0x0, symName: __ZN14QAnyStringView29isAsciiOnlyCharsAtCompileTimeIK5QCharEEbPT_x, symObjAddr: 0x3FF0, symBinAddr: 0x7F10, symSize: 0x20 }
  - { offset: 0x75B97, size: 0x8, addend: 0x0, symName: __ZN17QArrayDataPointerIDsEC1EP15QTypedArrayDataIDsEPDsx, symObjAddr: 0x4010, symBinAddr: 0x7F30, symSize: 0x40 }
  - { offset: 0x75BEB, size: 0x8, addend: 0x0, symName: __ZN17QArrayDataPointerIDsEC2EP15QTypedArrayDataIDsEPDsx, symObjAddr: 0x4050, symBinAddr: 0x7F70, symSize: 0x40 }
  - { offset: 0x75C3F, size: 0x8, addend: 0x0, symName: __ZNSt3__112basic_stringIcNS_11char_traitsIcEENS_9allocatorIcEEEC2B9nqe210106Emc, symObjAddr: 0x4090, symBinAddr: 0x7FB0, symSize: 0x40 }
  - { offset: 0x75C87, size: 0x8, addend: 0x0, symName: __ZNSt3__112basic_stringIcNS_11char_traitsIcEENS_9allocatorIcEEE13__fits_in_ssoB9nqe210106Em, symObjAddr: 0x40D0, symBinAddr: 0x7FF0, symSize: 0x20 }
  - { offset: 0x75CAB, size: 0x8, addend: 0x0, symName: __ZNSt3__112basic_stringIcNS_11char_traitsIcEENS_9allocatorIcEEE18__get_long_pointerB9nqe210106Ev, symObjAddr: 0x40F0, symBinAddr: 0x8010, symSize: 0x20 }
  - { offset: 0x75CD1, size: 0x8, addend: 0x0, symName: __ZNSt3__112basic_stringIcNS_11char_traitsIcEENS_9allocatorIcEEE13__get_pointerB9nqe210106Ev, symObjAddr: 0x4110, symBinAddr: 0x8030, symSize: 0x50 }
  - { offset: 0x75CF7, size: 0x8, addend: 0x0, symName: __ZNSt3__112basic_stringIcNS_11char_traitsIcEENS_9allocatorIcEEE19__get_short_pointerB9nqe210106Ev, symObjAddr: 0x4160, symBinAddr: 0x8080, symSize: 0x20 }
  - { offset: 0x75D1D, size: 0x8, addend: 0x0, symName: __ZNSt3__114pointer_traitsIPcE10pointer_toB9nqe210106ERc, symObjAddr: 0x4180, symBinAddr: 0x80A0, symSize: 0xE }
  - { offset: 0x78548, size: 0x8, addend: 0x0, symName: __ZN9QtPrivate16QCheckedIntegerseqERKNS0_11QCheckedIntIiNS0_13SafeCheckImplIiEENS0_18AssertReportPolicyEEES7_, symObjAddr: 0x12A50, symBinAddr: 0x19330, symSize: 0x40 }
  - { offset: 0x7859B, size: 0x8, addend: 0x0, symName: __ZN9QtPrivate16QCheckedIntegers13comparesEqualENS0_11QCheckedIntIiNS0_13SafeCheckImplIiEENS0_18AssertReportPolicyEEES5_, symObjAddr: 0x12A90, symBinAddr: 0x19370, symSize: 0x20 }
  - { offset: 0x79707, size: 0x8, addend: 0x0, symName: __ZN9QtPrivateL19lengthHelperPointerIcEExPKT_, symObjAddr: 0x8C30, symBinAddr: 0x108B0, symSize: 0x50 }
  - { offset: 0x7974B, size: 0x8, addend: 0x0, symName: __ZN9QtPrivateL30checkTypeIsSuitableForMetaTypeIN5Tiled8FilePathEEEbv, symObjAddr: 0xF150, symBinAddr: 0x15D00, symSize: 0x10 }
  - { offset: 0x79773, size: 0x8, addend: 0x0, symName: __ZN9QtPrivate25qMetaTypeInterfaceForTypeIN5Tiled8FilePathEEEPKNS_18QMetaTypeInterfaceEv, symObjAddr: 0xF160, symBinAddr: 0x15D10, symSize: 0x10 }
  - { offset: 0x798F5, size: 0x8, addend: 0x0, symName: __ZN9QtPrivate33qvariant_cast_qmetatype_convertedIN5Tiled8FilePathEEET_RK8QVariant9QMetaType, symObjAddr: 0xFE80, symBinAddr: 0x169B0, symSize: 0xB0 }
  - { offset: 0x7994C, size: 0x8, addend: 0x0, symName: __ZN9QtPrivateL30checkTypeIsSuitableForMetaTypeIN5Tiled9ObjectRefEEEbv, symObjAddr: 0x10340, symBinAddr: 0x16E70, symSize: 0x10 }
  - { offset: 0x79974, size: 0x8, addend: 0x0, symName: __ZN9QtPrivate25qMetaTypeInterfaceForTypeIN5Tiled9ObjectRefEEEPKNS_18QMetaTypeInterfaceEv, symObjAddr: 0x10350, symBinAddr: 0x16E80, symSize: 0x10 }
  - { offset: 0x79AF6, size: 0x8, addend: 0x0, symName: __ZN9QtPrivate33qvariant_cast_qmetatype_convertedIN5Tiled9ObjectRefEEET_RK8QVariant9QMetaType, symObjAddr: 0x10790, symBinAddr: 0x172C0, symSize: 0x60 }
  - { offset: 0x79B4B, size: 0x8, addend: 0x0, symName: __ZN9QtPrivate33qvariant_cast_qmetatype_convertedI6QColorEET_RK8QVariant9QMetaType, symObjAddr: 0x108D0, symBinAddr: 0x17400, symSize: 0x60 }
  - { offset: 0x79BA1, size: 0x8, addend: 0x0, symName: __ZN9QtPrivateL30checkTypeIsSuitableForMetaTypeI6QColorEEbv, symObjAddr: 0x10930, symBinAddr: 0x17460, symSize: 0x10 }
  - { offset: 0x79BC9, size: 0x8, addend: 0x0, symName: __ZN9QtPrivate25qMetaTypeInterfaceForTypeI6QColorEEPKNS_18QMetaTypeInterfaceEv, symObjAddr: 0x10940, symBinAddr: 0x17470, symSize: 0x10 }
  - { offset: 0x79CE0, size: 0x8, addend: 0x0, symName: __ZN9QtPrivate20q_relocate_overlap_nIN5Tiled5FrameExEEvPT_T0_S4_, symObjAddr: 0x1BF00, symBinAddr: 0x215E0, symSize: 0x50 }
  - { offset: 0x79D37, size: 0x8, addend: 0x0, symName: __ZN9QtPrivateL19q_points_into_rangeI17QArrayDataPointerIN5Tiled5FrameEEPKS3_EEbRKT0_RKT_, symObjAddr: 0x1BF50, symBinAddr: 0x21630, symSize: 0xA0 }
  - { offset: 0x79D84, size: 0x8, addend: 0x0, symName: __ZN9QtPrivateL19q_points_into_rangeIN5Tiled5FrameENSt3__14lessIvEEEEbPKT_S8_S8_T0_, symObjAddr: 0x1BFF0, symBinAddr: 0x216D0, symSize: 0x50 }
  - { offset: 0x79DEC, size: 0x8, addend: 0x0, symName: __ZN9QtPrivate20q_relocate_overlap_nI7QStringxEEvPT_T0_S3_, symObjAddr: 0x1E1D0, symBinAddr: 0x238B0, symSize: 0x50 }
  - { offset: 0x79E43, size: 0x8, addend: 0x0, symName: __ZN9QtPrivateL19q_points_into_rangeI17QArrayDataPointerI7QStringEPKS2_EEbRKT0_RKT_, symObjAddr: 0x1E220, symBinAddr: 0x23900, symSize: 0xA0 }
  - { offset: 0x79E90, size: 0x8, addend: 0x0, symName: __ZN9QtPrivateL19q_points_into_rangeI7QStringNSt3__14lessIvEEEEbPKT_S7_S7_T0_, symObjAddr: 0x1E2C0, symBinAddr: 0x239A0, symSize: 0x50 }
  - { offset: 0x79F63, size: 0x8, addend: 0x0, symName: __ZN5Tiled11ActivatableINS_10JumpToTileEE9activatedE, symObjAddr: 0x283B0, symBinAddr: 0x41010, symSize: 0x0 }
  - { offset: 0x7EC3C, size: 0x8, addend: 0x0, symName: __ZN5Tiled5toUrlERK7QStringRK4QDir, symObjAddr: 0x2430, symBinAddr: 0xA4A0, symSize: 0x80 }
  - { offset: 0x7EC76, size: 0x8, addend: 0x0, symName: __ZN5Tiled15toFileReferenceERK4QUrlRK4QDir, symObjAddr: 0x6BD0, symBinAddr: 0xEB40, symSize: 0x80 }
  - { offset: 0x7ECB0, size: 0x8, addend: 0x0, symName: __ZN5Tiled5ERRORE13QLatin1StringNSt3__18functionIFvvEEEPKv, symObjAddr: 0x7690, symBinAddr: 0xF5E0, symSize: 0x120 }
  - { offset: 0x7ECF8, size: 0x8, addend: 0x0, symName: __ZN5Tiled7WARNINGERK7QStringNSt3__18functionIFvvEEEPKv, symObjAddr: 0x7DD0, symBinAddr: 0xFCD0, symSize: 0x120 }
  - { offset: 0x7ED41, size: 0x8, addend: 0x0, symName: __ZN5Tiled14filePathTypeIdEv, symObjAddr: 0xEB40, symBinAddr: 0x15710, symSize: 0x10 }
  - { offset: 0x7ED5F, size: 0x8, addend: 0x0, symName: __ZN5Tiled15objectRefTypeIdEv, symObjAddr: 0xEC30, symBinAddr: 0x15800, symSize: 0x10 }
  - { offset: 0x7ED7C, size: 0x8, addend: 0x0, symName: __ZN5Tiled5ERRORERK7QStringNSt3__18functionIFvvEEEPKv, symObjAddr: 0x130B0, symBinAddr: 0x19990, symSize: 0x120 }
  - { offset: 0x7EDC4, size: 0x8, addend: 0x0, symName: __ZN5Tiled6REPORTERKNS_5IssueE, symObjAddr: 0x13200, symBinAddr: 0x19AE0, symSize: 0x30 }
  - { offset: 0x8A1B5, size: 0x8, addend: 0x0, symName: __ZNSt3__110__function10__not_nullB9nqe210106IN5Tiled10JumpToTileEEEbRKT_, symObjAddr: 0x22CF0, symBinAddr: 0x283D0, symSize: 0x10 }
  - { offset: 0x8A1E7, size: 0x8, addend: 0x0, symName: __ZNSt3__110__function10__not_nullB9nqe210106IN5Tiled10SelectTileEEEbRKT_, symObjAddr: 0x23660, symBinAddr: 0x28D40, symSize: 0x10 }
  - { offset: 0x8A219, size: 0x8, addend: 0x0, symName: __ZNSt3__110__function10__not_nullB9nqe210106IN5Tiled11SelectLayerEEEbRKT_, symObjAddr: 0x259B0, symBinAddr: 0x2B090, symSize: 0x10 }
  - { offset: 0x8A24B, size: 0x8, addend: 0x0, symName: __ZNSt3__110__function10__not_nullB9nqe210106IN5Tiled12JumpToObjectEEEbRKT_, symObjAddr: 0x26070, symBinAddr: 0x2B750, symSize: 0x10 }
  - { offset: 0x8FC88, size: 0x8, addend: 0x0, symName: __ZNSt3__119piecewise_constructE, symObjAddr: 0x28635, symBinAddr: 0x3EC4C, symSize: 0x0 }
  - { offset: 0x9452D, size: 0x8, addend: 0x0, symName: __ZNSt3__17advanceB9nqe210106INS_21__tree_const_iteratorINS_12__value_typeINS_12basic_stringIcNS_11char_traitsIcEENS_9allocatorIcEEEEN4tbin13PropertyValueEEEPNS_11__tree_nodeISB_PvEElEEllLi0EEEvRT_T0_, symObjAddr: 0xBC40, symBinAddr: 0x130F0, symSize: 0x30 }
  - { offset: 0x96E64, size: 0x8, addend: 0x0, symName: __ZNSt3__17advanceB9nqe210106INS_21__tree_const_iteratorINS_12__value_typeI7QString8QVariantEEPNS_11__tree_nodeIS5_PvEElEEllLi0EEEvRT_T0_, symObjAddr: 0x16D60, symBinAddr: 0x1C840, symSize: 0x30 }
  - { offset: 0x9D9C4, size: 0x8, addend: 0x0, symName: __ZNSt3__111make_uniqueB9nqe210106IN5Tiled3MapEJRNS2_10ParametersEELi0EEENS_10unique_ptrIT_NS_14default_deleteIS6_EEEEDpOT0_, symObjAddr: 0x1D30, symBinAddr: 0x9DE0, symSize: 0x70 }
  - { offset: 0x9DA0E, size: 0x8, addend: 0x0, symName: __ZNSt3__1neB9nqe210106ERKNS_20__map_const_iteratorINS_21__tree_const_iteratorINS_12__value_typeINS_12basic_stringIcNS_11char_traitsIcEENS_9allocatorIcEEEEN4tbin13PropertyValueEEEPNS_11__tree_nodeISB_PvEElEEEESJ_, symObjAddr: 0x2590, symBinAddr: 0xA600, symSize: 0x30 }
  - { offset: 0x9DB38, size: 0x8, addend: 0x0, symName: __ZNSt3__19make_pairB9nqe210106IPKcRKN4tbin13PropertyValueEEENS_4pairINS_18__unwrap_referenceIu7__decayIT_EE4typeENS8_Iu7__decayIT0_EE4typeEEEOS9_OSD_, symObjAddr: 0x27E0, symBinAddr: 0xA830, symSize: 0x40 }
  - { offset: 0x9DB87, size: 0x8, addend: 0x0, symName: __ZNSt3__1neB9nqe210106IPKN4tbin5LayerEEEbRKNS_11__wrap_iterIT_EES9_, symObjAddr: 0x2A00, symBinAddr: 0xAA30, symSize: 0x30 }
  - { offset: 0x9DBCA, size: 0x8, addend: 0x0, symName: __ZNSt3__111make_uniqueB9nqe210106IN5Tiled9TileLayerEJ7QStringiiRKiS5_ELi0EEENS_10unique_ptrIT_NS_14default_deleteIS7_EEEEDpOT0_, symObjAddr: 0x2A50, symBinAddr: 0xAA80, symSize: 0xA0 }
  - { offset: 0x9DC68, size: 0x8, addend: 0x0, symName: __ZNSt3__111make_uniqueB9nqe210106IN5Tiled11ObjectGroupEJ7QStringiiELi0EEENS_10unique_ptrIT_NS_14default_deleteIS5_EEEEDpOT0_, symObjAddr: 0x2B60, symBinAddr: 0xAB90, symSize: 0x90 }
  - { offset: 0x9DCDC, size: 0x8, addend: 0x0, symName: __ZNSt3__1neB9nqe210106IPKN4tbin4TileEEEbRKNS_11__wrap_iterIT_EES9_, symObjAddr: 0x2DF0, symBinAddr: 0xADF0, symSize: 0x30 }
  - { offset: 0x9DD1F, size: 0x8, addend: 0x0, symName: __ZNSt3__1neB9nqe210106IcNS_11char_traitsIcEENS_9allocatorIcEEEEbRKNS_12basic_stringIT_T0_T1_EESB_, symObjAddr: 0x2E40, symBinAddr: 0xAE40, symSize: 0x30 }
  - { offset: 0x9DD77, size: 0x8, addend: 0x0, symName: __ZNSt3__111make_uniqueB9nqe210106IN5Tiled9MapObjectEJ7QStringELi0EEENS_10unique_ptrIT_NS_14default_deleteIS5_EEEEDpOT0_, symObjAddr: 0x2FA0, symBinAddr: 0xAF80, symSize: 0x100 }
  - { offset: 0x9DDC1, size: 0x8, addend: 0x0, symName: __ZNSt3__1neB9nqe210106IPPN5Tiled11ObjectGroupEEEbRKNS_11__wrap_iterIT_EES9_, symObjAddr: 0x7CD0, symBinAddr: 0xFC00, symSize: 0x30 }
  - { offset: 0x9DE04, size: 0x8, addend: 0x0, symName: __ZNSt3__1eqB9nqe210106IPKN4tbin5LayerEEEbRKNS_11__wrap_iterIT_EES9_, symObjAddr: 0x93A0, symBinAddr: 0x10DC0, symSize: 0x40 }
  - { offset: 0x9DE47, size: 0x8, addend: 0x0, symName: __ZNSt3__122__make_exception_guardB9nqe210106INS_6vectorIN4tbin4TileENS_9allocatorIS3_EEE16__destroy_vectorEEENS_28__exception_guard_exceptionsIT_EES9_, symObjAddr: 0x9700, symBinAddr: 0x11100, symSize: 0x40 }
  - { offset: 0x9DE7C, size: 0x8, addend: 0x0, symName: __ZNSt3__119__allocate_at_leastB9nqe210106INS_9allocatorIN4tbin4TileEEEEENS_19__allocation_resultINS_16allocator_traitsIT_E7pointerEEERS7_m, symObjAddr: 0x9990, symBinAddr: 0x11340, symSize: 0x40 }
  - { offset: 0x9DEBF, size: 0x8, addend: 0x0, symName: __ZNSt3__13minB9nqe210106ImEERKT_S3_S3_, symObjAddr: 0x9A40, symBinAddr: 0x113F0, symSize: 0x30 }
  - { offset: 0x9E0EC, size: 0x8, addend: 0x0, symName: __ZNSt3__13minB9nqe210106ImNS_6__lessIvvEEEERKT_S5_S5_T0_, symObjAddr: 0x9AA0, symBinAddr: 0x11450, symSize: 0x50 }
  - { offset: 0x9E18C, size: 0x8, addend: 0x0, symName: __ZNSt3__120__throw_length_errorB9nqe210106EPKc, symObjAddr: 0x9B50, symBinAddr: 0x11500, symSize: 0x60 }
  - { offset: 0x9E1B4, size: 0x8, addend: 0x0, symName: __ZNSt3__117__libcpp_allocateB9nqe210106IN4tbin4TileEEEPT_NS_15__element_countEm, symObjAddr: 0x9CB0, symBinAddr: 0x11660, symSize: 0x60 }
  - { offset: 0x9E205, size: 0x8, addend: 0x0, symName: __ZNSt3__130__uninitialized_allocator_copyB9nqe210106INS_9allocatorIN4tbin4TileEEEPS3_S5_S5_EET2_RT_T0_T1_S6_, symObjAddr: 0x9E40, symBinAddr: 0x116F0, symSize: 0x80 }
  - { offset: 0x9E2A2, size: 0x8, addend: 0x0, symName: __ZNSt3__114__unwrap_rangeB9nqe210106IPN4tbin4TileES3_EENS_4pairIT0_S5_EET_S7_, symObjAddr: 0x9FD0, symBinAddr: 0x11880, symSize: 0x50 }
  - { offset: 0x9E2EE, size: 0x8, addend: 0x0, symName: __ZNSt3__135__uninitialized_allocator_copy_implB9nqe210106INS_9allocatorIN4tbin4TileEEEPS3_S5_S5_EET2_RT_T0_T1_S6_, symObjAddr: 0xA020, symBinAddr: 0x118D0, symSize: 0xF0 }
  - { offset: 0x9E38C, size: 0x8, addend: 0x0, symName: __ZNSt3__113__unwrap_iterB9nqe210106IPN4tbin4TileENS_18__unwrap_iter_implIS3_Lb1EEELi0EEEDTclsrT0_8__unwrapclsr3stdE7declvalIT_EEEES7_, symObjAddr: 0xA110, symBinAddr: 0x119C0, symSize: 0x20 }
  - { offset: 0x9E3D0, size: 0x8, addend: 0x0, symName: __ZNSt3__113__rewrap_iterB9nqe210106IPN4tbin4TileES3_NS_18__unwrap_iter_implIS3_Lb1EEEEET_S6_T0_, symObjAddr: 0xA130, symBinAddr: 0x119E0, symSize: 0x40 }
  - { offset: 0x9E425, size: 0x8, addend: 0x0, symName: __ZNSt3__19make_pairB9nqe210106IPN4tbin4TileES3_EENS_4pairINS_18__unwrap_referenceIu7__decayIT_EE4typeENS5_Iu7__decayIT0_EE4typeEEEOS6_OSA_, symObjAddr: 0xA170, symBinAddr: 0x11A20, symSize: 0x30 }
  - { offset: 0x9E552, size: 0x8, addend: 0x0, symName: __ZNSt3__122__make_exception_guardB9nqe210106INS_29_AllocatorDestroyRangeReverseINS_9allocatorIN4tbin4TileEEEPS4_EEEENS_28__exception_guard_exceptionsIT_EES9_, symObjAddr: 0xA200, symBinAddr: 0x11AB0, symSize: 0x60 }
  - { offset: 0x9E587, size: 0x8, addend: 0x0, symName: __ZNSt3__119__allocator_destroyB9nqe210106INS_9allocatorIN4tbin4TileEEENS_16reverse_iteratorIPS3_EES7_EEvRT_T0_T1_, symObjAddr: 0xA490, symBinAddr: 0x11D40, symSize: 0x60 }
  - { offset: 0x9E5E6, size: 0x8, addend: 0x0, symName: __ZNSt3__1neB9nqe210106IPN4tbin4TileES3_EEbRKNS_16reverse_iteratorIT_EERKNS4_IT0_EE, symObjAddr: 0xA520, symBinAddr: 0x11DD0, symSize: 0x40 }
  - { offset: 0x9E683, size: 0x8, addend: 0x0, symName: __ZNSt3__1eqB9nqe210106ERKNS_21__tree_const_iteratorINS_12__value_typeINS_12basic_stringIcNS_11char_traitsIcEENS_9allocatorIcEEEEN4tbin13PropertyValueEEEPNS_11__tree_nodeISA_PvEElEESH_, symObjAddr: 0xB4B0, symBinAddr: 0x129A0, symSize: 0x30 }
  - { offset: 0x9E6C0, size: 0x8, addend: 0x0, symName: __ZNSt3__14nextB9nqe210106INS_21__tree_const_iteratorINS_12__value_typeINS_12basic_stringIcNS_11char_traitsIcEENS_9allocatorIcEEEEN4tbin13PropertyValueEEEPNS_11__tree_nodeISB_PvEElEELi0EEET_SH_NS_15iterator_traitsISH_E15difference_typeE, symObjAddr: 0xB790, symBinAddr: 0x12C80, symSize: 0x30 }
  - { offset: 0x9E709, size: 0x8, addend: 0x0, symName: __ZNSt3__1ltB9nqe210106IcNS_11char_traitsIcEENS_9allocatorIcEEEEbRKNS_12basic_stringIT_T0_T1_EESB_, symObjAddr: 0xB880, symBinAddr: 0x12D70, symSize: 0x30 }
  - { offset: 0x9E761, size: 0x8, addend: 0x0, symName: __ZNSt3__116__tree_prev_iterB9nqe210106IPNS_16__tree_node_baseIPvEEPNS_15__tree_end_nodeIS4_EEEET_T0_, symObjAddr: 0xBAE0, symBinAddr: 0x12FD0, symSize: 0x90 }
  - { offset: 0x9E7AD, size: 0x8, addend: 0x0, symName: __ZNSt3__110__tree_maxB9nqe210106IPNS_16__tree_node_baseIPvEEEET_S5_, symObjAddr: 0xBB70, symBinAddr: 0x13060, symSize: 0x30 }
  - { offset: 0x9E7E2, size: 0x8, addend: 0x0, symName: __ZNSt3__120__tree_is_left_childB9nqe210106IPNS_16__tree_node_baseIPvEEEEbT_, symObjAddr: 0xBBA0, symBinAddr: 0x13090, symSize: 0x20 }
  - { offset: 0x9E817, size: 0x8, addend: 0x0, symName: __ZNSt3__121__convert_to_integralB9nqe210106El, symObjAddr: 0xBC70, symBinAddr: 0x13120, symSize: 0x10 }
  - { offset: 0x9E843, size: 0x8, addend: 0x0, symName: __ZNSt3__19__advanceB9nqe210106INS_21__tree_const_iteratorINS_12__value_typeINS_12basic_stringIcNS_11char_traitsIcEENS_9allocatorIcEEEEN4tbin13PropertyValueEEEPNS_11__tree_nodeISB_PvEElEEEEvRT_NS_15iterator_traitsISH_E15difference_typeENS_26bidirectional_iterator_tagE, symObjAddr: 0xBC80, symBinAddr: 0x13130, symSize: 0x70 }
  - { offset: 0x9E88D, size: 0x8, addend: 0x0, symName: __ZNSt3__116__tree_next_iterB9nqe210106IPNS_15__tree_end_nodeIPNS_16__tree_node_baseIPvEEEES5_EET_T0_, symObjAddr: 0xBD20, symBinAddr: 0x131D0, symSize: 0x70 }
  - { offset: 0x9E8CB, size: 0x8, addend: 0x0, symName: __ZNSt3__110__tree_minB9nqe210106IPNS_16__tree_node_baseIPvEEEET_S5_, symObjAddr: 0xBD90, symBinAddr: 0x13240, symSize: 0x30 }
  - { offset: 0x9E91E, size: 0x8, addend: 0x0, symName: __ZNSt3__117__libcpp_allocateB9nqe210106INS_11__tree_nodeINS_12__value_typeINS_12basic_stringIcNS_11char_traitsIcEENS_9allocatorIcEEEEN4tbin13PropertyValueEEEPvEEEEPT_NS_15__element_countEm, symObjAddr: 0xBF60, symBinAddr: 0x133F0, symSize: 0x60 }
  - { offset: 0x9E970, size: 0x8, addend: 0x0, symName: __ZNSt3__127__tree_balance_after_insertB9nqe210106IPNS_16__tree_node_baseIPvEEEEvT_S5_, symObjAddr: 0xC180, symBinAddr: 0x13610, symSize: 0x210 }
  - { offset: 0x9E9EE, size: 0x8, addend: 0x0, symName: __ZNSt3__118__tree_left_rotateB9nqe210106IPNS_16__tree_node_baseIPvEEEEvT_, symObjAddr: 0xC3B0, symBinAddr: 0x13840, symSize: 0xC0 }
  - { offset: 0x9EA2D, size: 0x8, addend: 0x0, symName: __ZNSt3__119__tree_right_rotateB9nqe210106IPNS_16__tree_node_baseIPvEEEEvT_, symObjAddr: 0xC470, symBinAddr: 0x13900, symSize: 0xB0 }
  - { offset: 0x9EA6C, size: 0x8, addend: 0x0, symName: __ZNSt3__1eqB9nqe210106IPKN4tbin4TileEEEbRKNS_11__wrap_iterIT_EES9_, symObjAddr: 0xCCD0, symBinAddr: 0x13E10, symSize: 0x40 }
  - { offset: 0x9EAAF, size: 0x8, addend: 0x0, symName: __ZNSt3__13getB9nqe210106ILm0EP15QTypedArrayDataIPN5Tiled9MapObjectEEPS4_EEONS_13tuple_elementIXT_ENS_4pairIT0_T1_EEE4typeEOSC_, symObjAddr: 0xDCF0, symBinAddr: 0x14C70, symSize: 0x20 }
  - { offset: 0x9EAF9, size: 0x8, addend: 0x0, symName: __ZNSt3__13getB9nqe210106ILm1EP15QTypedArrayDataIPN5Tiled9MapObjectEEPS4_EEONS_13tuple_elementIXT_ENS_4pairIT0_T1_EEE4typeEOSC_, symObjAddr: 0xDD10, symBinAddr: 0x14C90, symSize: 0x20 }
  - { offset: 0x9EC5D, size: 0x8, addend: 0x0, symName: __ZNSt3__17destroyB9nqe210106IP7QStringEEvT_S3_, symObjAddr: 0xE630, symBinAddr: 0x15570, symSize: 0x30 }
  - { offset: 0x9EC9C, size: 0x8, addend: 0x0, symName: __ZNSt3__19__destroyB9nqe210106IP7QStringEET_S3_S3_, symObjAddr: 0xE6B0, symBinAddr: 0x155F0, symSize: 0x40 }
  - { offset: 0x9ECDF, size: 0x8, addend: 0x0, symName: __ZNSt3__112__destroy_atB9nqe210106I7QStringLi0EEEvPT_, symObjAddr: 0xE6F0, symBinAddr: 0x15630, symSize: 0x20 }
  - { offset: 0x9ED16, size: 0x8, addend: 0x0, symName: __ZNSt3__1neB9nqe210106ERKNS_14__map_iteratorINS_15__tree_iteratorINS_12__value_typeINS_12basic_stringIcNS_11char_traitsIcEENS_9allocatorIcEEEEN4tbin13PropertyValueEEEPNS_11__tree_nodeISB_PvEElEEEESJ_, symObjAddr: 0xED20, symBinAddr: 0x158D0, symSize: 0x30 }
  - { offset: 0x9EE40, size: 0x8, addend: 0x0, symName: __ZNSt3__19make_pairB9nqe210106INS_12basic_stringIcNS_11char_traitsIcEENS_9allocatorIcEEEERN4tbin13PropertyValueEEENS_4pairINS_18__unwrap_referenceIu7__decayIT_EE4typeENSB_Iu7__decayIT0_EE4typeEEEOSC_OSG_, symObjAddr: 0xEED0, symBinAddr: 0x15A80, symSize: 0x40 }
  - { offset: 0x9EE8F, size: 0x8, addend: 0x0, symName: __ZNSt3__118__cxx_atomic_storeB9nqe210106IiEEvPNS_22__cxx_atomic_base_implIT_EES2_NS_12memory_orderE, symObjAddr: 0xFC00, symBinAddr: 0x167B0, symSize: 0x60 }
  - { offset: 0x9EEDC, size: 0x8, addend: 0x0, symName: __ZNSt3__14swapB9nqe210106IN8QVariant7PrivateEEENS_9enable_ifIXaasr21is_move_constructibleIT_EE5valuesr18is_move_assignableIS4_EE5valueEvE4typeERS4_S7_, symObjAddr: 0x10210, symBinAddr: 0x16D40, symSize: 0xB0 }
  - { offset: 0x9EF2D, size: 0x8, addend: 0x0, symName: __ZNSt3__1neB9nqe210106ERKNS_15__tree_iteratorINS_12__value_typeINS_12basic_stringIcNS_11char_traitsIcEENS_9allocatorIcEEEEN4tbin13PropertyValueEEEPNS_11__tree_nodeISA_PvEElEESH_, symObjAddr: 0x10BA0, symBinAddr: 0x17660, symSize: 0x30 }
  - { offset: 0x9EF6A, size: 0x8, addend: 0x0, symName: __ZNSt3__1eqB9nqe210106ERKNS_15__tree_iteratorINS_12__value_typeINS_12basic_stringIcNS_11char_traitsIcEENS_9allocatorIcEEEEN4tbin13PropertyValueEEEPNS_11__tree_nodeISA_PvEElEESH_, symObjAddr: 0x10BD0, symBinAddr: 0x17690, symSize: 0x30 }
  - { offset: 0x9EFE3, size: 0x8, addend: 0x0, symName: __ZNSt3__116forward_as_tupleB9nqe210106IJNS_12basic_stringIcNS_11char_traitsIcEENS_9allocatorIcEEEEEEENS_5tupleIJDpOT_EEESA_, symObjAddr: 0x10EA0, symBinAddr: 0x17960, symSize: 0x30 }
  - { offset: 0x9F01E, size: 0x8, addend: 0x0, symName: __ZNSt3__116forward_as_tupleB9nqe210106IJEEENS_5tupleIJDpOT_EEES4_, symObjAddr: 0x10ED0, symBinAddr: 0x17990, symSize: 0x10 }
  - { offset: 0x9F04F, size: 0x8, addend: 0x0, symName: __ZNSt3__13getB9nqe210106ILm0EJONS_12basic_stringIcNS_11char_traitsIcEENS_9allocatorIcEEEEEEERNS_13tuple_elementIXT_ENS_5tupleIJDpT0_EEEE4typeERSC_, symObjAddr: 0x11150, symBinAddr: 0x17C10, symSize: 0x20 }
  - { offset: 0x9F0EF, size: 0x8, addend: 0x0, symName: __ZNSt3__112__destroy_atB9nqe210106INS_4pairIK7QString8QVariantEELi0EEEvPT_, symObjAddr: 0x12010, symBinAddr: 0x18940, symSize: 0x20 }
  - { offset: 0x9F126, size: 0x8, addend: 0x0, symName: __ZNSt3__119__libcpp_deallocateB9nqe210106INS_11__tree_nodeINS_12__value_typeI7QString8QVariantEEPvEEEEvPNS_15__type_identityIT_E4typeENS_15__element_countEm, symObjAddr: 0x120B0, symBinAddr: 0x189E0, symSize: 0x50 }
  - { offset: 0x9F181, size: 0x8, addend: 0x0, symName: __ZNSt3__1neB9nqe210106ERKNS_20__map_const_iteratorINS_21__tree_const_iteratorINS_12__value_typeIiPN5Tiled4TileEEEPNS_11__tree_nodeIS6_PvEElEEEESE_, symObjAddr: 0x13580, symBinAddr: 0x19E60, symSize: 0x30 }
  - { offset: 0x9F1BE, size: 0x8, addend: 0x0, symName: __ZNSt3__1neB9nqe210106ERKNS_21__tree_const_iteratorINS_12__value_typeIiPN5Tiled4TileEEEPNS_11__tree_nodeIS5_PvEElEESC_, symObjAddr: 0x13800, symBinAddr: 0x1A0E0, symSize: 0x30 }
  - { offset: 0x9F1FB, size: 0x8, addend: 0x0, symName: __ZNSt3__1eqB9nqe210106ERKNS_21__tree_const_iteratorINS_12__value_typeIiPN5Tiled4TileEEEPNS_11__tree_nodeIS5_PvEElEESC_, symObjAddr: 0x13980, symBinAddr: 0x1A260, symSize: 0x30 }
  - { offset: 0x9F26B, size: 0x8, addend: 0x0, symName: __ZNSt3__1eqB9nqe210106IPPN5Tiled11ObjectGroupEEEbRKNS_11__wrap_iterIT_EES9_, symObjAddr: 0x13C30, symBinAddr: 0x1A4C0, symSize: 0x40 }
  - { offset: 0x9F2AE, size: 0x8, addend: 0x0, symName: __ZNSt3__119__libcpp_deallocateB9nqe210106IcEEvPNS_15__type_identityIT_E4typeENS_15__element_countEm, symObjAddr: 0x14E20, symBinAddr: 0x1A910, symSize: 0x50 }
  - { offset: 0x9F309, size: 0x8, addend: 0x0, symName: __ZNSt3__1neB9nqe210106ERKNS_20__map_const_iteratorINS_21__tree_const_iteratorINS_12__value_typeI7QString8QVariantEEPNS_11__tree_nodeIS5_PvEElEEEESD_, symObjAddr: 0x14F20, symBinAddr: 0x1AA00, symSize: 0x30 }
  - { offset: 0x9F346, size: 0x8, addend: 0x0, symName: __ZNSt3__1neB9nqe210106ERKNS_21__tree_const_iteratorINS_12__value_typeI7QString8QVariantEEPNS_11__tree_nodeIS4_PvEElEESB_, symObjAddr: 0x15110, symBinAddr: 0x1ABF0, symSize: 0x30 }
  - { offset: 0x9F383, size: 0x8, addend: 0x0, symName: __ZNSt3__1eqB9nqe210106ERKNS_21__tree_const_iteratorINS_12__value_typeI7QString8QVariantEEPNS_11__tree_nodeIS4_PvEElEESB_, symObjAddr: 0x154C0, symBinAddr: 0x1AFA0, symSize: 0x30 }
  - { offset: 0x9F3F3, size: 0x8, addend: 0x0, symName: __ZNSt3__14nextB9nqe210106INS_21__tree_const_iteratorINS_12__value_typeI7QString8QVariantEEPNS_11__tree_nodeIS5_PvEElEELi0EEET_SB_NS_15iterator_traitsISB_E15difference_typeE, symObjAddr: 0x16CA0, symBinAddr: 0x1C780, symSize: 0x30 }
  - { offset: 0x9F43C, size: 0x8, addend: 0x0, symName: __ZNSt3__19__advanceB9nqe210106INS_21__tree_const_iteratorINS_12__value_typeI7QString8QVariantEEPNS_11__tree_nodeIS5_PvEElEEEEvRT_NS_15iterator_traitsISB_E15difference_typeENS_26bidirectional_iterator_tagE, symObjAddr: 0x16D90, symBinAddr: 0x1C870, symSize: 0x70 }
  - { offset: 0x9F4A4, size: 0x8, addend: 0x0, symName: __ZNSt3__117__libcpp_allocateB9nqe210106INS_11__tree_nodeINS_12__value_typeI7QString8QVariantEEPvEEEEPT_NS_15__element_countEm, symObjAddr: 0x16FB0, symBinAddr: 0x1CA90, symSize: 0x60 }
  - { offset: 0x9F4F5, size: 0x8, addend: 0x0, symName: __ZNSt3__1neB9nqe210106ERKNS_14__map_iteratorINS_15__tree_iteratorINS_12__value_typeI7QString8QVariantEEPNS_11__tree_nodeIS5_PvEElEEEESD_, symObjAddr: 0x173E0, symBinAddr: 0x1CEC0, symSize: 0x30 }
  - { offset: 0x9F532, size: 0x8, addend: 0x0, symName: __ZNSt3__19make_pairB9nqe210106IRNS_14__map_iteratorINS_15__tree_iteratorINS_12__value_typeI7QString8QVariantEEPNS_11__tree_nodeIS6_PvEElEEEEbEENS_4pairINS_18__unwrap_referenceIu7__decayIT_EE4typeENSF_Iu7__decayIT0_EE4typeEEEOSG_OSK_, symObjAddr: 0x17470, symBinAddr: 0x1CF50, symSize: 0x30 }
  - { offset: 0x9F581, size: 0x8, addend: 0x0, symName: __ZNSt3__19make_pairB9nqe210106INS_14__map_iteratorINS_15__tree_iteratorINS_12__value_typeI7QString8QVariantEEPNS_11__tree_nodeIS6_PvEElEEEEbEENS_4pairINS_18__unwrap_referenceIu7__decayIT_EE4typeENSE_Iu7__decayIT0_EE4typeEEEOSF_OSJ_, symObjAddr: 0x174A0, symBinAddr: 0x1CF80, symSize: 0x30 }
  - { offset: 0x9F5D0, size: 0x8, addend: 0x0, symName: __ZNSt3__1neB9nqe210106ERKNS_15__tree_iteratorINS_12__value_typeI7QString8QVariantEEPNS_11__tree_nodeIS4_PvEElEESB_, symObjAddr: 0x17640, symBinAddr: 0x1D120, symSize: 0x30 }
  - { offset: 0x9F60D, size: 0x8, addend: 0x0, symName: __ZNSt3__1eqB9nqe210106ERKNS_15__tree_iteratorINS_12__value_typeI7QString8QVariantEEPNS_11__tree_nodeIS4_PvEElEESB_, symObjAddr: 0x17670, symBinAddr: 0x1D150, symSize: 0x30 }
  - { offset: 0x9F69A, size: 0x8, addend: 0x0, symName: __ZNSt3__113__tree_removeB9nqe210106IPNS_16__tree_node_baseIPvEEEEvT_S5_, symObjAddr: 0x17E40, symBinAddr: 0x1D920, symSize: 0x530 }
  - { offset: 0x9F718, size: 0x8, addend: 0x0, symName: __ZNSt3__111__tree_nextB9nqe210106IPNS_16__tree_node_baseIPvEEEET_S5_, symObjAddr: 0x18370, symBinAddr: 0x1DE50, symSize: 0x70 }
  - { offset: 0x9F74D, size: 0x8, addend: 0x0, symName: __ZNSt3__1neB9nqe210106ERKNS_21__tree_const_iteratorINS_12__value_typeINS_12basic_stringIcNS_11char_traitsIcEENS_9allocatorIcEEEEN4tbin13PropertyValueEEEPNS_11__tree_nodeISA_PvEElEESH_, symObjAddr: 0x18760, symBinAddr: 0x1E240, symSize: 0x30 }
  - { offset: 0x9F78A, size: 0x8, addend: 0x0, symName: __ZNSt3__112__destroy_atB9nqe210106INS_4pairIKNS_12basic_stringIcNS_11char_traitsIcEENS_9allocatorIcEEEEiEELi0EEEvPT_, symObjAddr: 0x18D70, symBinAddr: 0x1E670, symSize: 0x20 }
  - { offset: 0x9F7C1, size: 0x8, addend: 0x0, symName: __ZNSt3__119__libcpp_deallocateB9nqe210106INS_11__tree_nodeINS_12__value_typeINS_12basic_stringIcNS_11char_traitsIcEENS_9allocatorIcEEEEiEEPvEEEEvPNS_15__type_identityIT_E4typeENS_15__element_countEm, symObjAddr: 0x18E00, symBinAddr: 0x1E700, symSize: 0x50 }
  - { offset: 0x9F81C, size: 0x8, addend: 0x0, symName: __ZNSt3__116forward_as_tupleB9nqe210106IJRKNS_12basic_stringIcNS_11char_traitsIcEENS_9allocatorIcEEEEEEENS_5tupleIJDpOT_EEESC_, symObjAddr: 0x18F70, symBinAddr: 0x1E870, symSize: 0x30 }
  - { offset: 0x9F875, size: 0x8, addend: 0x0, symName: __ZNSt3__117__libcpp_allocateB9nqe210106INS_11__tree_nodeINS_12__value_typeINS_12basic_stringIcNS_11char_traitsIcEENS_9allocatorIcEEEEiEEPvEEEEPT_NS_15__element_countEm, symObjAddr: 0x195B0, symBinAddr: 0x1EEB0, symSize: 0x60 }
  - { offset: 0x9F8C6, size: 0x8, addend: 0x0, symName: __ZNSt3__13getB9nqe210106ILm0EJRKNS_12basic_stringIcNS_11char_traitsIcEENS_9allocatorIcEEEEEEERNS_13tuple_elementIXT_ENS_5tupleIJDpT0_EEEE4typeERSD_, symObjAddr: 0x19800, symBinAddr: 0x1F100, symSize: 0x20 }
  - { offset: 0x9F956, size: 0x8, addend: 0x0, symName: __ZNSt3__136__cxx_atomic_compare_exchange_strongB9nqe210106IiEEbPNS_22__cxx_atomic_base_implIT_EEPS2_S2_NS_12memory_orderES6_, symObjAddr: 0x1A3C0, symBinAddr: 0x1FCC0, symSize: 0x4D0 }
  - { offset: 0x9F9C3, size: 0x8, addend: 0x0, symName: __ZNSt3__118__to_failure_orderB9nqe210106ENS_12memory_orderE, symObjAddr: 0x1A890, symBinAddr: 0x20190, symSize: 0x40 }
  - { offset: 0x9F9F8, size: 0x8, addend: 0x0, symName: __ZNSt3__1eqB9nqe210106IcNS_11char_traitsIcEENS_9allocatorIcEEEEbRKNS_12basic_stringIT_T0_T1_EESB_, symObjAddr: 0x1B2F0, symBinAddr: 0x209D0, symSize: 0x80 }
  - { offset: 0x9FA5F, size: 0x8, addend: 0x0, symName: __ZNSt3__14dataB9nqe210106I17QArrayDataPointerIN5Tiled5FrameEEEEDTcldtfp_4dataEERKT_, symObjAddr: 0x1C040, symBinAddr: 0x21720, symSize: 0x20 }
  - { offset: 0x9FA94, size: 0x8, addend: 0x0, symName: __ZNSt3__18distanceB9nqe210106IPKN5Tiled5FrameEEENS_15iterator_traitsIT_E15difference_typeES6_S6_, symObjAddr: 0x1C060, symBinAddr: 0x21740, symSize: 0x30 }
  - { offset: 0x9FAD7, size: 0x8, addend: 0x0, symName: __ZNSt3__15beginB9nqe210106I17QArrayDataPointerIN5Tiled5FrameEEEEDTcldtfp_5beginEERKT_, symObjAddr: 0x1C090, symBinAddr: 0x21770, symSize: 0x20 }
  - { offset: 0x9FB0C, size: 0x8, addend: 0x0, symName: __ZNSt3__13endB9nqe210106I17QArrayDataPointerIN5Tiled5FrameEEEEDTcldtfp_3endEERKT_, symObjAddr: 0x1C0B0, symBinAddr: 0x21790, symSize: 0x20 }
  - { offset: 0x9FBB5, size: 0x8, addend: 0x0, symName: __ZNSt3__110__distanceB9nqe210106IPKN5Tiled5FrameEEENS_15iterator_traitsIT_E15difference_typeES6_S6_NS_26random_access_iterator_tagE, symObjAddr: 0x1C120, symBinAddr: 0x21800, symSize: 0x20 }
  - { offset: 0x9FC03, size: 0x8, addend: 0x0, symName: __ZNSt3__13getB9nqe210106ILm0EP15QTypedArrayDataIN5Tiled5FrameEEPS3_EEONS_13tuple_elementIXT_ENS_4pairIT0_T1_EEE4typeEOSB_, symObjAddr: 0x1C790, symBinAddr: 0x21E70, symSize: 0x20 }
  - { offset: 0x9FC4D, size: 0x8, addend: 0x0, symName: __ZNSt3__13getB9nqe210106ILm1EP15QTypedArrayDataIN5Tiled5FrameEEPS3_EEONS_13tuple_elementIXT_ENS_4pairIT0_T1_EEE4typeEOSB_, symObjAddr: 0x1C7B0, symBinAddr: 0x21E90, symSize: 0x20 }
  - { offset: 0x9FC97, size: 0x8, addend: 0x0, symName: __ZNSt3__19transformB9nqe210106INS_20__map_const_iteratorINS_21__tree_const_iteratorINS_12__value_typeI7QString8QVariantEEPNS_11__tree_nodeIS6_PvEElEEEENS_20back_insert_iteratorI5QListIS4_EEEZNK8QMapDataINS_3mapIS4_S5_NS_4lessIS4_EENS_9allocatorINS_4pairIKS4_S5_EEEEEEE4keysEvEUlRKT_E_EET0_SS_SS_SW_T1_, symObjAddr: 0x1CF50, symBinAddr: 0x22630, symSize: 0xB0 }
  - { offset: 0x9FD08, size: 0x8, addend: 0x0, symName: __ZNSt3__113back_inserterB9nqe210106I5QListI7QStringEEENS_20back_insert_iteratorIT_EERS5_, symObjAddr: 0x1D000, symBinAddr: 0x226E0, symSize: 0x30 }
  - { offset: 0x9FD3D, size: 0x8, addend: 0x0, symName: __ZNSt3__14dataB9nqe210106I17QArrayDataPointerI7QStringEEEDTcldtfp_4dataEERKT_, symObjAddr: 0x1E310, symBinAddr: 0x239F0, symSize: 0x20 }
  - { offset: 0x9FD72, size: 0x8, addend: 0x0, symName: __ZNSt3__18distanceB9nqe210106IPK7QStringEENS_15iterator_traitsIT_E15difference_typeES5_S5_, symObjAddr: 0x1E330, symBinAddr: 0x23A10, symSize: 0x30 }
  - { offset: 0x9FDB5, size: 0x8, addend: 0x0, symName: __ZNSt3__15beginB9nqe210106I17QArrayDataPointerI7QStringEEEDTcldtfp_5beginEERKT_, symObjAddr: 0x1E360, symBinAddr: 0x23A40, symSize: 0x20 }
  - { offset: 0x9FDEA, size: 0x8, addend: 0x0, symName: __ZNSt3__13endB9nqe210106I17QArrayDataPointerI7QStringEEEDTcldtfp_3endEERKT_, symObjAddr: 0x1E380, symBinAddr: 0x23A60, symSize: 0x20 }
  - { offset: 0x9FE1F, size: 0x8, addend: 0x0, symName: __ZNSt3__110__distanceB9nqe210106IPK7QStringEENS_15iterator_traitsIT_E15difference_typeES5_S5_NS_26random_access_iterator_tagE, symObjAddr: 0x1E3F0, symBinAddr: 0x23AD0, symSize: 0x30 }
  - { offset: 0x9FE6D, size: 0x8, addend: 0x0, symName: __ZNSt3__13getB9nqe210106ILm0EP15QTypedArrayDataI7QStringEPS2_EEONS_13tuple_elementIXT_ENS_4pairIT0_T1_EEE4typeEOSA_, symObjAddr: 0x1E930, symBinAddr: 0x24010, symSize: 0x20 }
  - { offset: 0x9FEB7, size: 0x8, addend: 0x0, symName: __ZNSt3__13getB9nqe210106ILm1EP15QTypedArrayDataI7QStringEPS2_EEONS_13tuple_elementIXT_ENS_4pairIT0_T1_EEE4typeEOSA_, symObjAddr: 0x1E950, symBinAddr: 0x24030, symSize: 0x20 }
  - { offset: 0x9FF01, size: 0x8, addend: 0x0, symName: __ZNSt3__1eqB9nqe210106ERKNS_14__map_iteratorINS_15__tree_iteratorINS_12__value_typeI7QString8QVariantEEPNS_11__tree_nodeIS5_PvEElEEEESD_, symObjAddr: 0x1ED30, symBinAddr: 0x24410, symSize: 0x30 }
  - { offset: 0x9FF3E, size: 0x8, addend: 0x0, symName: __ZNSt3__13maxB9nqe210106ImEERKT_S3_S3_, symObjAddr: 0x20280, symBinAddr: 0x25960, symSize: 0x30 }
  - { offset: 0x9FF81, size: 0x8, addend: 0x0, symName: __ZNSt3__13maxB9nqe210106ImNS_6__lessIvvEEEERKT_S5_S5_T0_, symObjAddr: 0x202F0, symBinAddr: 0x259D0, symSize: 0x50 }
  - { offset: 0x9FFDB, size: 0x8, addend: 0x0, symName: __ZNSt3__119__allocate_at_leastB9nqe210106INS_9allocatorIN4tbin9TileSheetEEEEENS_19__allocation_resultINS_16allocator_traitsIT_E7pointerEEERS7_m, symObjAddr: 0x203F0, symBinAddr: 0x25AD0, symSize: 0x40 }
  - { offset: 0xA001E, size: 0x8, addend: 0x0, symName: __ZNSt3__117__libcpp_allocateB9nqe210106IN4tbin9TileSheetEEEPT_NS_15__element_countEm, symObjAddr: 0x20480, symBinAddr: 0x25B60, symSize: 0x60 }
  - { offset: 0xA0070, size: 0x8, addend: 0x0, symName: __ZNSt3__134__uninitialized_allocator_relocateB9nqe210106INS_9allocatorIN4tbin9TileSheetEEEPS3_EEvRT_T0_S8_S8_, symObjAddr: 0x204E0, symBinAddr: 0x25BC0, symSize: 0x100 }
  - { offset: 0xA010F, size: 0x8, addend: 0x0, symName: __ZNSt3__14swapB9nqe210106IPN4tbin9TileSheetEEENS_9enable_ifIXaasr21is_move_constructibleIT_EE5valuesr18is_move_assignableIS5_EE5valueEvE4typeERS5_S8_, symObjAddr: 0x205E0, symBinAddr: 0x25CC0, symSize: 0x40 }
  - { offset: 0xA0160, size: 0x8, addend: 0x0, symName: __ZNSt3__122__make_exception_guardB9nqe210106INS_29_AllocatorDestroyRangeReverseINS_9allocatorIN4tbin9TileSheetEEEPS4_EEEENS_28__exception_guard_exceptionsIT_EES9_, symObjAddr: 0x20690, symBinAddr: 0x25D70, symSize: 0x60 }
  - { offset: 0xA0195, size: 0x8, addend: 0x0, symName: __ZNSt3__119__allocator_destroyB9nqe210106INS_9allocatorIN4tbin9TileSheetEEEPS3_S5_EEvRT_T0_T1_, symObjAddr: 0x20750, symBinAddr: 0x25E30, symSize: 0x50 }
  - { offset: 0xA01F4, size: 0x8, addend: 0x0, symName: __ZNSt3__119__allocator_destroyB9nqe210106INS_9allocatorIN4tbin9TileSheetEEENS_16reverse_iteratorIPS3_EES7_EEvRT_T0_T1_, symObjAddr: 0x20910, symBinAddr: 0x25FF0, symSize: 0x60 }
  - { offset: 0xA0253, size: 0x8, addend: 0x0, symName: __ZNSt3__1neB9nqe210106IPN4tbin9TileSheetES3_EEbRKNS_16reverse_iteratorIT_EERKNS4_IT0_EE, symObjAddr: 0x209A0, symBinAddr: 0x26080, symSize: 0x40 }
  - { offset: 0xA029F, size: 0x8, addend: 0x0, symName: __ZNSt3__112__to_addressB9nqe210106IPN5Tiled11ObjectGroupEEEPT_S5_, symObjAddr: 0x20FA0, symBinAddr: 0x26680, symSize: 0x10 }
  - { offset: 0xA02D4, size: 0x8, addend: 0x0, symName: __ZNSt3__131__annotate_contiguous_containerB9nqe210106INS_9allocatorIPN5Tiled11ObjectGroupEEEEEvPKvS7_S7_S7_, symObjAddr: 0x21040, symBinAddr: 0x26720, symSize: 0x20 }
  - { offset: 0xA032F, size: 0x8, addend: 0x0, symName: __ZNSt3__119__libcpp_deallocateB9nqe210106IPN5Tiled11ObjectGroupEEEvPNS_15__type_identityIT_E4typeENS_15__element_countEm, symObjAddr: 0x21090, symBinAddr: 0x26770, symSize: 0x50 }
  - { offset: 0xA038A, size: 0x8, addend: 0x0, symName: __ZNSt3__112__destroy_atB9nqe210106INS_4pairIKNS_12basic_stringIcNS_11char_traitsIcEENS_9allocatorIcEEEEPN4tbin5LayerEEELi0EEEvPT_, symObjAddr: 0x213D0, symBinAddr: 0x26AB0, symSize: 0x20 }
  - { offset: 0xA03C1, size: 0x8, addend: 0x0, symName: __ZNSt3__119__libcpp_deallocateB9nqe210106INS_11__tree_nodeINS_12__value_typeINS_12basic_stringIcNS_11char_traitsIcEENS_9allocatorIcEEEEPN4tbin5LayerEEEPvEEEEvPNS_15__type_identityIT_E4typeENS_15__element_countEm, symObjAddr: 0x21460, symBinAddr: 0x26B40, symSize: 0x50 }
  - { offset: 0xA041C, size: 0x8, addend: 0x0, symName: __ZNSt3__119__allocate_at_leastB9nqe210106INS_9allocatorIN4tbin5LayerEEEEENS_19__allocation_resultINS_16allocator_traitsIT_E7pointerEEERS7_m, symObjAddr: 0x21790, symBinAddr: 0x26E70, symSize: 0x40 }
  - { offset: 0xA045F, size: 0x8, addend: 0x0, symName: __ZNSt3__117__libcpp_allocateB9nqe210106IN4tbin5LayerEEEPT_NS_15__element_countEm, symObjAddr: 0x21820, symBinAddr: 0x26F00, symSize: 0x60 }
  - { offset: 0xA04B1, size: 0x8, addend: 0x0, symName: __ZNSt3__134__uninitialized_allocator_relocateB9nqe210106INS_9allocatorIN4tbin5LayerEEEPS3_EEvRT_T0_S8_S8_, symObjAddr: 0x21880, symBinAddr: 0x26F60, symSize: 0x100 }
  - { offset: 0xA0550, size: 0x8, addend: 0x0, symName: __ZNSt3__14swapB9nqe210106IPN4tbin5LayerEEENS_9enable_ifIXaasr21is_move_constructibleIT_EE5valuesr18is_move_assignableIS5_EE5valueEvE4typeERS5_S8_, symObjAddr: 0x21980, symBinAddr: 0x27060, symSize: 0x40 }
  - { offset: 0xA05A1, size: 0x8, addend: 0x0, symName: __ZNSt3__122__make_exception_guardB9nqe210106INS_29_AllocatorDestroyRangeReverseINS_9allocatorIN4tbin5LayerEEEPS4_EEEENS_28__exception_guard_exceptionsIT_EES9_, symObjAddr: 0x21A30, symBinAddr: 0x27110, symSize: 0x60 }
  - { offset: 0xA05D6, size: 0x8, addend: 0x0, symName: __ZNSt3__119__allocator_destroyB9nqe210106INS_9allocatorIN4tbin5LayerEEEPS3_S5_EEvRT_T0_T1_, symObjAddr: 0x21B20, symBinAddr: 0x27200, symSize: 0x40 }
  - { offset: 0xA0635, size: 0x8, addend: 0x0, symName: __ZNSt3__119__allocator_destroyB9nqe210106INS_9allocatorIN4tbin5LayerEEENS_16reverse_iteratorIPS3_EES7_EEvRT_T0_T1_, symObjAddr: 0x21E60, symBinAddr: 0x27540, symSize: 0x60 }
  - { offset: 0xA0694, size: 0x8, addend: 0x0, symName: __ZNSt3__1neB9nqe210106IPN4tbin5LayerES3_EEbRKNS_16reverse_iteratorIT_EERKNS4_IT0_EE, symObjAddr: 0x21EF0, symBinAddr: 0x275D0, symSize: 0x40 }
  - { offset: 0xA06E0, size: 0x8, addend: 0x0, symName: __ZNSt3__119__allocate_at_leastB9nqe210106INS_9allocatorIPN5Tiled11ObjectGroupEEEEENS_19__allocation_resultINS_16allocator_traitsIT_E7pointerEEERS8_m, symObjAddr: 0x228D0, symBinAddr: 0x27FB0, symSize: 0x40 }
  - { offset: 0xA0723, size: 0x8, addend: 0x0, symName: __ZNSt3__117__libcpp_allocateB9nqe210106IPN5Tiled11ObjectGroupEEEPT_NS_15__element_countEm, symObjAddr: 0x22960, symBinAddr: 0x28040, symSize: 0x60 }
  - { offset: 0xA0775, size: 0x8, addend: 0x0, symName: __ZNSt3__134__uninitialized_allocator_relocateB9nqe210106INS_9allocatorIPN5Tiled11ObjectGroupEEEPS4_EEvRT_T0_S9_S9_, symObjAddr: 0x229C0, symBinAddr: 0x280A0, symSize: 0x60 }
  - { offset: 0xA07DE, size: 0x8, addend: 0x0, symName: __ZNSt3__14swapB9nqe210106IPPN5Tiled11ObjectGroupEEENS_9enable_ifIXaasr21is_move_constructibleIT_EE5valuesr18is_move_assignableIS6_EE5valueEvE4typeERS6_S9_, symObjAddr: 0x22A20, symBinAddr: 0x28100, symSize: 0x40 }
  - { offset: 0xA0830, size: 0x8, addend: 0x0, symName: __ZNSt3__110__invoke_rB9nqe210106IvJRN5Tiled10JumpToTileEEEET_DpOT0_, symObjAddr: 0x23130, symBinAddr: 0x28810, symSize: 0x20 }
  - { offset: 0xA0900, size: 0x8, addend: 0x0, symName: __ZNSt3__18__invokeB9nqe210106IJRN5Tiled10JumpToTileEEEENS_20__invoke_result_implIvJDpT_EE4typeEDpOS5_, symObjAddr: 0x23170, symBinAddr: 0x28850, symSize: 0x20 }
  - { offset: 0xA0936, size: 0x8, addend: 0x0, symName: __ZNSt3__125__throw_bad_function_callB9nqe210106Ev, symObjAddr: 0x23230, symBinAddr: 0x28910, symSize: 0x50 }
  - { offset: 0xA0950, size: 0x8, addend: 0x0, symName: __ZNSt3__110__invoke_rB9nqe210106IvJRN5Tiled10SelectTileEEEET_DpOT0_, symObjAddr: 0x23B60, symBinAddr: 0x29240, symSize: 0x20 }
  - { offset: 0xA098D, size: 0x8, addend: 0x0, symName: __ZNSt3__18__invokeB9nqe210106IJRN5Tiled10SelectTileEEEENS_20__invoke_result_implIvJDpT_EE4typeEDpOS5_, symObjAddr: 0x23BA0, symBinAddr: 0x29280, symSize: 0x20 }
  - { offset: 0xA09C3, size: 0x8, addend: 0x0, symName: __ZNSt3__134__uninitialized_allocator_relocateB9nqe210106INS_9allocatorIN4tbin4TileEEEPS3_EEvRT_T0_S8_S8_, symObjAddr: 0x24220, symBinAddr: 0x29900, symSize: 0x100 }
  - { offset: 0xA0A62, size: 0x8, addend: 0x0, symName: __ZNSt3__14swapB9nqe210106IPN4tbin4TileEEENS_9enable_ifIXaasr21is_move_constructibleIT_EE5valuesr18is_move_assignableIS5_EE5valueEvE4typeERS5_S8_, symObjAddr: 0x24320, symBinAddr: 0x29A00, symSize: 0x40 }
  - { offset: 0xA0AB3, size: 0x8, addend: 0x0, symName: __ZNSt3__119__allocator_destroyB9nqe210106INS_9allocatorIN4tbin4TileEEEPS3_S5_EEvRT_T0_T1_, symObjAddr: 0x24390, symBinAddr: 0x29A70, symSize: 0x40 }
  - { offset: 0xA0B30, size: 0x8, addend: 0x0, symName: __ZNSt3__117__libcpp_allocateB9nqe210106INS_11__tree_nodeINS_12__value_typeINS_12basic_stringIcNS_11char_traitsIcEENS_9allocatorIcEEEEPN4tbin5LayerEEEPvEEEEPT_NS_15__element_countEm, symObjAddr: 0x25150, symBinAddr: 0x2A830, symSize: 0x60 }
  - { offset: 0xA0BB5, size: 0x8, addend: 0x0, symName: __ZNSt3__110__invoke_rB9nqe210106IvJRN5Tiled11SelectLayerEEEET_DpOT0_, symObjAddr: 0x25DA0, symBinAddr: 0x2B480, symSize: 0x20 }
  - { offset: 0xA0BF2, size: 0x8, addend: 0x0, symName: __ZNSt3__18__invokeB9nqe210106IJRN5Tiled11SelectLayerEEEENS_20__invoke_result_implIvJDpT_EE4typeEDpOS5_, symObjAddr: 0x25DE0, symBinAddr: 0x2B4C0, symSize: 0x20 }
  - { offset: 0xA0C28, size: 0x8, addend: 0x0, symName: __ZNSt3__110__invoke_rB9nqe210106IvJRN5Tiled12JumpToObjectEEEET_DpOT0_, symObjAddr: 0x26460, symBinAddr: 0x2BB40, symSize: 0x20 }
  - { offset: 0xA0C65, size: 0x8, addend: 0x0, symName: __ZNSt3__18__invokeB9nqe210106IJRN5Tiled12JumpToObjectEEEENS_20__invoke_result_implIvJDpT_EE4typeEDpOS5_, symObjAddr: 0x264A0, symBinAddr: 0x2BB80, symSize: 0x20 }
  - { offset: 0xA2220, size: 0x8, addend: 0x0, symName: __ZSt28__throw_bad_array_new_lengthB9nqe210106v, symObjAddr: 0x9C70, symBinAddr: 0x11620, symSize: 0x40 }
  - { offset: 0xA38A8, size: 0x8, addend: 0x0, symName: __ZN2Qt15strong_ordering10equivalentE, symObjAddr: 0x28639, symBinAddr: 0x3EC50, symSize: 0x0 }
  - { offset: 0xA38BC, size: 0x8, addend: 0x0, symName: __ZN2Qt15strong_ordering4lessE, symObjAddr: 0x2863A, symBinAddr: 0x3EC51, symSize: 0x0 }
  - { offset: 0xA38D0, size: 0x8, addend: 0x0, symName: __ZN2Qt15strong_ordering7greaterE, symObjAddr: 0x2863B, symBinAddr: 0x3EC52, symSize: 0x0 }
  - { offset: 0xA38EB, size: 0x8, addend: 0x0, symName: __ZN2Qt5is_ltENS_15strong_orderingE, symObjAddr: 0x152B0, symBinAddr: 0x1AD90, symSize: 0x50 }
  - { offset: 0xA3919, size: 0x8, addend: 0x0, symName: __ZN2QtltENS_15strong_orderingEN9QtPrivate25CompareAgainstLiteralZeroE, symObjAddr: 0x15350, symBinAddr: 0x1AE30, symSize: 0x20 }
  - { offset: 0xA3953, size: 0x8, addend: 0x0, symName: __ZN2Qt15compareThreeWayIiiLb1ELb1EEENS_15strong_orderingET_T0_, symObjAddr: 0x15460, symBinAddr: 0x1AF40, symSize: 0x40 }
  - { offset: 0xA39AF, size: 0x8, addend: 0x0, symName: __ZN2Qt11qt_ptr_swapERNS_23totally_ordered_wrapperIP8QMapDataINSt3__13mapI7QString8QVariantNS2_4lessIS4_EENS2_9allocatorINS2_4pairIKS4_S5_EEEEEEEEESH_, symObjAddr: 0x17330, symBinAddr: 0x1CE10, symSize: 0x30 }
  - { offset: 0xB1FC3, size: 0x8, addend: 0x0, symName: __ZN12QHashPrivate13calculateHashI6QPointEEmRKT_m, symObjAddr: 0x126C0, symBinAddr: 0x18FA0, symSize: 0x30 }
  - { offset: 0xB200B, size: 0x8, addend: 0x0, symName: __ZN12QHashPrivate12GrowthPolicy13bucketForHashEmm, symObjAddr: 0x127D0, symBinAddr: 0x190B0, symSize: 0x20 }
  - { offset: 0xB654B, size: 0x8, addend: 0x0, symName: __ZN15QtSharedPointer17copyAndSetPointerIN5Tiled7TilesetES2_EE14QSharedPointerIT_EPS4_RKS3_IT0_E, symObjAddr: 0x1A0C0, symBinAddr: 0x1F9C0, symSize: 0x80 }
  - { offset: 0xCB8C5, size: 0x8, addend: 0x0, symName: __ZN5Tiled11ActivatableINS_10SelectTileEE9activatedE, symObjAddr: 0x283F0, symBinAddr: 0x41050, symSize: 0x0 }
  - { offset: 0xCB962, size: 0x8, addend: 0x0, symName: __ZN5Tiled11ActivatableINS_11SelectLayerEE9activatedE, symObjAddr: 0x28430, symBinAddr: 0x41090, symSize: 0x0 }
  - { offset: 0xCB9FF, size: 0x8, addend: 0x0, symName: __ZN5Tiled11ActivatableINS_12JumpToObjectEE9activatedE, symObjAddr: 0x28470, symBinAddr: 0x410D0, symSize: 0x0 }
  - { offset: 0xCBAC0, size: 0x8, addend: 0x0, symName: __ZN9QtPrivate25QMetaTypeInterfaceWrapperIN5Tiled8FilePathEE8metaTypeE, symObjAddr: 0x284A8, symBinAddr: 0x41108, symSize: 0x0 }
  - { offset: 0xCBAE9, size: 0x8, addend: 0x0, symName: __ZN9QtPrivate16QMetaTypeForTypeIN5Tiled8FilePathEE4nameE, symObjAddr: 0x28609, symBinAddr: 0x3EC20, symSize: 0x0 }
  - { offset: 0xCBB6A, size: 0x8, addend: 0x0, symName: __ZN18QMetaTypeIdQObjectIN5Tiled8FilePathELi512EE14qt_metatype_idEv, symObjAddr: 0xF560, symBinAddr: 0x16110, symSize: 0xB0 }
  - { offset: 0xCBB8B, size: 0x8, addend: 0x0, symName: __ZZN18QMetaTypeIdQObjectIN5Tiled8FilePathELi512EE14qt_metatype_idEvE11metatype_id, symObjAddr: 0x28518, symBinAddr: 0x41178, symSize: 0x0 }
  - { offset: 0xCBBD8, size: 0x8, addend: 0x0, symName: __ZN9QtPrivate25QMetaTypeInterfaceWrapperIN5Tiled9ObjectRefEE8metaTypeE, symObjAddr: 0x28520, symBinAddr: 0x41180, symSize: 0x0 }
  - { offset: 0xCBC01, size: 0x8, addend: 0x0, symName: __ZN9QtPrivate16QMetaTypeForTypeIN5Tiled9ObjectRefEE4nameE, symObjAddr: 0x2861D, symBinAddr: 0x3EC34, symSize: 0x0 }
  - { offset: 0xCBC77, size: 0x8, addend: 0x0, symName: __ZN18QMetaTypeIdQObjectIN5Tiled9ObjectRefELi512EE14qt_metatype_idEv, symObjAddr: 0x104D0, symBinAddr: 0x17000, symSize: 0xB0 }
  - { offset: 0xCBC98, size: 0x8, addend: 0x0, symName: __ZZN18QMetaTypeIdQObjectIN5Tiled9ObjectRefELi512EE14qt_metatype_idEvE11metatype_id, symObjAddr: 0x28590, symBinAddr: 0x411F0, symSize: 0x0 }
  - { offset: 0xCBCE5, size: 0x8, addend: 0x0, symName: __ZN9QtPrivate25QMetaTypeInterfaceWrapperI6QColorE8metaTypeE, symObjAddr: 0x28598, symBinAddr: 0x411F8, symSize: 0x0 }
  - { offset: 0xCBCF9, size: 0x8, addend: 0x0, symName: __ZN12QMetaTypeId2I6QColorE11nameAsArrayE, symObjAddr: 0x2862E, symBinAddr: 0x3EC45, symSize: 0x0 }
  - { offset: 0xCBD8E, size: 0x8, addend: 0x0, symName: __ZTVNSt3__110__function6__funcIN5Tiled10JumpToTileEFvvEEE, symObjAddr: 0x28850, symBinAddr: 0x40650, symSize: 0x0 }
  - { offset: 0xCBDD8, size: 0x8, addend: 0x0, symName: __ZTVNSt3__110__function6__baseIFvvEEE, symObjAddr: 0x288D0, symBinAddr: 0x406D0, symSize: 0x0 }
  - { offset: 0xCBDED, size: 0x8, addend: 0x0, symName: __ZTVNSt3__117bad_function_callE, symObjAddr: 0x28940, symBinAddr: 0x40740, symSize: 0x0 }
  - { offset: 0xCBE18, size: 0x8, addend: 0x0, symName: __ZTVNSt3__110__function6__funcIN5Tiled10SelectTileEFvvEEE, symObjAddr: 0x28990, symBinAddr: 0x40790, symSize: 0x0 }
  - { offset: 0xCBE42, size: 0x8, addend: 0x0, symName: __ZTVNSt3__110__function6__funcIN5Tiled11SelectLayerEFvvEEE, symObjAddr: 0x28A28, symBinAddr: 0x40828, symSize: 0x0 }
  - { offset: 0xCBE6C, size: 0x8, addend: 0x0, symName: __ZTVNSt3__110__function6__funcIN5Tiled12JumpToObjectEFvvEEE, symObjAddr: 0x28AC0, symBinAddr: 0x408C0, symSize: 0x0 }
  - { offset: 0xCC3B8, size: 0x8, addend: 0x0, symName: __ZN7QString17toIntegral_helperIiEET_11QStringViewPbi, symObjAddr: 0x8C80, symBinAddr: 0x10900, symSize: 0x70 }
  - { offset: 0xCD393, size: 0x8, addend: 0x0, symName: __ZN4Tbin10TbinPlugin10initializeEv, symObjAddr: 0x0, symBinAddr: 0x80B0, symSize: 0xB0 }
  - { offset: 0xCD3C1, size: 0x8, addend: 0x0, symName: __ZN4Tbin10TbinPlugin8fromTbinERKN4tbin3MapERK4QDir, symObjAddr: 0xB0, symBinAddr: 0x8160, symSize: 0x1BD0 }
  - { offset: 0xCD913, size: 0x8, addend: 0x0, symName: __ZNSt3__110unique_ptrIN5Tiled3MapENS_14default_deleteIS2_EEEC1B9nqe210106ILb1EvEEv, symObjAddr: 0x1C80, symBinAddr: 0x9D30, symSize: 0x20 }
  - { offset: 0xCD948, size: 0x8, addend: 0x0, symName: __ZNKSt3__16vectorIN4tbin5LayerENS_9allocatorIS2_EEE5emptyB9nqe210106Ev, symObjAddr: 0x1CA0, symBinAddr: 0x9D50, symSize: 0x20 }
  - { offset: 0xCD96E, size: 0x8, addend: 0x0, symName: __ZNSt16invalid_argumentC1B9nqe210106EPKc, symObjAddr: 0x1CC0, symBinAddr: 0x9D70, symSize: 0x30 }
  - { offset: 0xCD9A6, size: 0x8, addend: 0x0, symName: __ZNKSt3__16vectorIN4tbin5LayerENS_9allocatorIS2_EEEixB9nqe210106Em, symObjAddr: 0x1CF0, symBinAddr: 0x9DA0, symSize: 0x20 }
  - { offset: 0xCD9E0, size: 0x8, addend: 0x0, symName: __ZN5Tiled3Map10ParametersC1Ev, symObjAddr: 0x1D10, symBinAddr: 0x9DC0, symSize: 0x20 }
  - { offset: 0xCDA0C, size: 0x8, addend: 0x0, symName: __ZNSt3__110unique_ptrIN5Tiled3MapENS_14default_deleteIS2_EEEaSB9nqe210106EOS5_, symObjAddr: 0x1DA0, symBinAddr: 0x9E50, symSize: 0x40 }
  - { offset: 0xCDA40, size: 0x8, addend: 0x0, symName: __ZNSt3__110unique_ptrIN5Tiled3MapENS_14default_deleteIS2_EEED1B9nqe210106Ev, symObjAddr: 0x1DE0, symBinAddr: 0x9E90, symSize: 0x20 }
  - { offset: 0xCDA6C, size: 0x8, addend: 0x0, symName: __ZN12_GLOBAL__N_121tbinToTiledPropertiesERKNSt3__13mapINS0_12basic_stringIcNS0_11char_traitsIcEENS0_9allocatorIcEEEEN4tbin13PropertyValueENS0_4lessIS7_EENS5_INS0_4pairIKS7_S9_EEEEEERN5Tiled6ObjectE, symObjAddr: 0x1E00, symBinAddr: 0x9EB0, symSize: 0x450 }
  - { offset: 0xCDAEC, size: 0x8, addend: 0x0, symName: __ZN12_GLOBAL__N_121tiledToTbinPropertiesERK4QMapI7QString8QVariantERNSt3__13mapINS6_12basic_stringIcNS6_11char_traitsIcEENS6_9allocatorIcEEEEN4tbin13PropertyValueENS6_4lessISD_EENSB_INS6_4pairIKSD_SF_EEEEEERK4QDirb, symObjAddr: 0x5D60, symBinAddr: 0xDCD0, symSize: 0xD00 }
  - { offset: 0xCDC73, size: 0x8, addend: 0x0, symName: __ZN12_GLOBAL__N_119hasUnsupportedFlagsERKN5Tiled4CellE, symObjAddr: 0x7620, symBinAddr: 0xF570, symSize: 0x70 }
  - { offset: 0xCDCA1, size: 0x8, addend: 0x0, symName: __ZNKSt3__110unique_ptrIN5Tiled3MapENS_14default_deleteIS2_EEEdeB9nqe210106Ev, symObjAddr: 0x2250, symBinAddr: 0xA300, symSize: 0x20 }
  - { offset: 0xCDCC7, size: 0x8, addend: 0x0, symName: __ZNSt3__13mapINS_12basic_stringIcNS_11char_traitsIcEENS_9allocatorIcEEEEiNS_4lessIS6_EENS4_INS_4pairIKS6_iEEEEEC1B9nqe210106Ev, symObjAddr: 0x2270, symBinAddr: 0xA320, symSize: 0x20 }
  - { offset: 0xCDCF1, size: 0x8, addend: 0x0, symName: __ZNKSt3__16vectorIN4tbin9TileSheetENS_9allocatorIS2_EEEixB9nqe210106Em, symObjAddr: 0x22B0, symBinAddr: 0xA340, symSize: 0x20 }
  - { offset: 0xCDD26, size: 0x8, addend: 0x0, symName: __ZNSt3__13mapINS_12basic_stringIcNS_11char_traitsIcEENS_9allocatorIcEEEEiNS_4lessIS6_EENS4_INS_4pairIKS6_iEEEEEixERSA_, symObjAddr: 0x22D0, symBinAddr: 0xA360, symSize: 0x80 }
  - { offset: 0xCDD5D, size: 0x8, addend: 0x0, symName: __ZN5Tiled7Tileset6createIJ7QStringRKiS4_S4_S4_EEE14QSharedPointerIS0_EDpOT_, symObjAddr: 0x2350, symBinAddr: 0xA3E0, symSize: 0x50 }
  - { offset: 0xCDDDD, size: 0x8, addend: 0x0, symName: __ZN7QString13fromStdStringERKNSt3__112basic_stringIcNS0_11char_traitsIcEENS0_9allocatorIcEEEE, symObjAddr: 0x23A0, symBinAddr: 0xA430, symSize: 0x50 }
  - { offset: 0xCDE03, size: 0x8, addend: 0x0, symName: __ZNK14QSharedPointerIN5Tiled7TilesetEEptEv, symObjAddr: 0x2410, symBinAddr: 0xA480, symSize: 0x20 }
  - { offset: 0xCDE29, size: 0x8, addend: 0x0, symName: __ZN11QLatin1CharC1Ec, symObjAddr: 0x24B0, symBinAddr: 0xA520, symSize: 0x30 }
  - { offset: 0xCDE61, size: 0x8, addend: 0x0, symName: __ZN5QCharC1I11QLatin1CharLb1EEET_, symObjAddr: 0x24E0, symBinAddr: 0xA550, symSize: 0x30 }
  - { offset: 0xCDEA8, size: 0x8, addend: 0x0, symName: __ZNK14QSharedPointerIN5Tiled7TilesetEEdeEv, symObjAddr: 0x2510, symBinAddr: 0xA580, symSize: 0x20 }
  - { offset: 0xCDECE, size: 0x8, addend: 0x0, symName: __ZNKSt3__13mapINS_12basic_stringIcNS_11char_traitsIcEENS_9allocatorIcEEEEN4tbin13PropertyValueENS_4lessIS6_EENS4_INS_4pairIKS6_S8_EEEEE5beginB9nqe210106Ev, symObjAddr: 0x2530, symBinAddr: 0xA5A0, symSize: 0x30 }
  - { offset: 0xCDEF4, size: 0x8, addend: 0x0, symName: __ZNKSt3__13mapINS_12basic_stringIcNS_11char_traitsIcEENS_9allocatorIcEEEEN4tbin13PropertyValueENS_4lessIS6_EENS4_INS_4pairIKS6_S8_EEEEE3endB9nqe210106Ev, symObjAddr: 0x2560, symBinAddr: 0xA5D0, symSize: 0x30 }
  - { offset: 0xCDF1A, size: 0x8, addend: 0x0, symName: __ZNKSt3__120__map_const_iteratorINS_21__tree_const_iteratorINS_12__value_typeINS_12basic_stringIcNS_11char_traitsIcEENS_9allocatorIcEEEEN4tbin13PropertyValueEEEPNS_11__tree_nodeISB_PvEElEEEdeB9nqe210106Ev, symObjAddr: 0x25C0, symBinAddr: 0xA630, symSize: 0x20 }
  - { offset: 0xCDF40, size: 0x8, addend: 0x0, symName: __ZNKSt3__112basic_stringIcNS_11char_traitsIcEENS_9allocatorIcEEEixB9nqe210106Em, symObjAddr: 0x25E0, symBinAddr: 0xA650, symSize: 0x40 }
  - { offset: 0xCDF75, size: 0x8, addend: 0x0, symName: __ZN11QStringViewC1I7QStringLb1EEERKT_, symObjAddr: 0x2620, symBinAddr: 0xA690, symSize: 0x50 }
  - { offset: 0xCDFBC, size: 0x8, addend: 0x0, symName: __ZN6QFlagsIN2Qt18SplitBehaviorFlagsEEC1ES1_, symObjAddr: 0x2670, symBinAddr: 0xA6E0, symSize: 0x30 }
  - { offset: 0xCDFF3, size: 0x8, addend: 0x0, symName: __ZeqRK11QStringViewRK13QLatin1String, symObjAddr: 0x26A0, symBinAddr: 0xA710, symSize: 0x30 }
  - { offset: 0xCE031, size: 0x8, addend: 0x0, symName: __ZNK5QListI11QStringViewEixEx, symObjAddr: 0x26D0, symBinAddr: 0xA740, symSize: 0x30 }
  - { offset: 0xCE066, size: 0x8, addend: 0x0, symName: __ZN13QLatin1StringC1EPKc, symObjAddr: 0x2700, symBinAddr: 0xA770, symSize: 0x30 }
  - { offset: 0xCE09E, size: 0x8, addend: 0x0, symName: __ZNK11QStringView5toIntEPbi, symObjAddr: 0x2730, symBinAddr: 0xA7A0, symSize: 0x40 }
  - { offset: 0xCE101, size: 0x8, addend: 0x0, symName: __ZNSt3__13mapINS_12basic_stringIcNS_11char_traitsIcEENS_9allocatorIcEEEEN4tbin13PropertyValueENS_4lessIS6_EENS4_INS_4pairIKS6_S8_EEEEE6insertB9nqe210106INSB_IPKcS8_EELi0EEENSB_INS_14__map_iteratorINS_15__tree_iteratorINS_12__value_typeIS6_S8_EEPNS_11__tree_nodeISN_PvEElEEEEbEEOT_, symObjAddr: 0x2790, symBinAddr: 0xA7E0, symSize: 0x50 }
  - { offset: 0xCE145, size: 0x8, addend: 0x0, symName: __ZNK11QStringView6toUtf8Ev, symObjAddr: 0x2820, symBinAddr: 0xA870, symSize: 0x50 }
  - { offset: 0xCE16B, size: 0x8, addend: 0x0, symName: __ZNK10QByteArray9constDataEv, symObjAddr: 0x2870, symBinAddr: 0xA8C0, symSize: 0x20 }
  - { offset: 0xCE191, size: 0x8, addend: 0x0, symName: __ZNSt3__14pairIPKcN4tbin13PropertyValueEED1Ev, symObjAddr: 0x2890, symBinAddr: 0xA8E0, symSize: 0x20 }
  - { offset: 0xCE1BD, size: 0x8, addend: 0x0, symName: __ZN10QByteArrayD1Ev, symObjAddr: 0x28B0, symBinAddr: 0xA900, symSize: 0x20 }
  - { offset: 0xCE1E9, size: 0x8, addend: 0x0, symName: __ZN5QListI11QStringViewED1Ev, symObjAddr: 0x28F0, symBinAddr: 0xA920, symSize: 0x20 }
  - { offset: 0xCE215, size: 0x8, addend: 0x0, symName: __ZNSt3__120__map_const_iteratorINS_21__tree_const_iteratorINS_12__value_typeINS_12basic_stringIcNS_11char_traitsIcEENS_9allocatorIcEEEEN4tbin13PropertyValueEEEPNS_11__tree_nodeISB_PvEElEEEppB9nqe210106Ev, symObjAddr: 0x2910, symBinAddr: 0xA940, symSize: 0x30 }
  - { offset: 0xCE23B, size: 0x8, addend: 0x0, symName: __ZNKSt3__110unique_ptrIN5Tiled3MapENS_14default_deleteIS2_EEEptB9nqe210106Ev, symObjAddr: 0x2940, symBinAddr: 0xA970, symSize: 0x20 }
  - { offset: 0xCE261, size: 0x8, addend: 0x0, symName: __ZN14QSharedPointerIN5Tiled7TilesetEED1Ev, symObjAddr: 0x2960, symBinAddr: 0xA990, symSize: 0x20 }
  - { offset: 0xCE28B, size: 0x8, addend: 0x0, symName: __ZNKSt3__16vectorIN4tbin5LayerENS_9allocatorIS2_EEE5beginB9nqe210106Ev, symObjAddr: 0x2980, symBinAddr: 0xA9B0, symSize: 0x40 }
  - { offset: 0xCE2B1, size: 0x8, addend: 0x0, symName: __ZNKSt3__16vectorIN4tbin5LayerENS_9allocatorIS2_EEE3endB9nqe210106Ev, symObjAddr: 0x29C0, symBinAddr: 0xA9F0, symSize: 0x40 }
  - { offset: 0xCE2D7, size: 0x8, addend: 0x0, symName: __ZNKSt3__111__wrap_iterIPKN4tbin5LayerEEdeB9nqe210106Ev, symObjAddr: 0x2A30, symBinAddr: 0xAA60, symSize: 0x20 }
  - { offset: 0xCE2FD, size: 0x8, addend: 0x0, symName: __ZNKSt3__110unique_ptrIN5Tiled9TileLayerENS_14default_deleteIS2_EEEptB9nqe210106Ev, symObjAddr: 0x2AF0, symBinAddr: 0xAB20, symSize: 0x20 }
  - { offset: 0xCE323, size: 0x8, addend: 0x0, symName: __ZN5Tiled5Layer10setVisibleEb, symObjAddr: 0x2B10, symBinAddr: 0xAB40, symSize: 0x30 }
  - { offset: 0xCE357, size: 0x8, addend: 0x0, symName: __ZNKSt3__110unique_ptrIN5Tiled9TileLayerENS_14default_deleteIS2_EEEdeB9nqe210106Ev, symObjAddr: 0x2B40, symBinAddr: 0xAB70, symSize: 0x20 }
  - { offset: 0xCE37D, size: 0x8, addend: 0x0, symName: __ZNKSt3__110unique_ptrIN5Tiled11ObjectGroupENS_14default_deleteIS2_EEEptB9nqe210106Ev, symObjAddr: 0x2BF0, symBinAddr: 0xAC20, symSize: 0x20 }
  - { offset: 0xCE3A3, size: 0x8, addend: 0x0, symName: __ZNKSt3__16vectorIN4tbin4TileENS_9allocatorIS2_EEEixB9nqe210106Em, symObjAddr: 0x2C40, symBinAddr: 0xAC40, symSize: 0x20 }
  - { offset: 0xCE3D8, size: 0x8, addend: 0x0, symName: __ZNK4tbin4Tile10isNullTileEv, symObjAddr: 0x2C60, symBinAddr: 0xAC60, symSize: 0x50 }
  - { offset: 0xCE3FE, size: 0x8, addend: 0x0, symName: __ZN5Tiled4CellC1Ev, symObjAddr: 0x2CB0, symBinAddr: 0xACB0, symSize: 0x20 }
  - { offset: 0xCE42D, size: 0x8, addend: 0x0, symName: __ZN4tbin4TileC1ERKS0_, symObjAddr: 0x2CD0, symBinAddr: 0xACD0, symSize: 0x30 }
  - { offset: 0xCE462, size: 0x8, addend: 0x0, symName: __ZNK5Tiled3Map9tilesetAtEi, symObjAddr: 0x2D00, symBinAddr: 0xAD00, symSize: 0x50 }
  - { offset: 0xCE499, size: 0x8, addend: 0x0, symName: __ZN5QListIN5Tiled5FrameEEC1Ev, symObjAddr: 0x2D50, symBinAddr: 0xAD50, symSize: 0x20 }
  - { offset: 0xCE4C3, size: 0x8, addend: 0x0, symName: __ZNKSt3__16vectorIN4tbin4TileENS_9allocatorIS2_EEE5beginB9nqe210106Ev, symObjAddr: 0x2D70, symBinAddr: 0xAD70, symSize: 0x40 }
  - { offset: 0xCE4E9, size: 0x8, addend: 0x0, symName: __ZNKSt3__16vectorIN4tbin4TileENS_9allocatorIS2_EEE3endB9nqe210106Ev, symObjAddr: 0x2DB0, symBinAddr: 0xADB0, symSize: 0x40 }
  - { offset: 0xCE50F, size: 0x8, addend: 0x0, symName: __ZNKSt3__111__wrap_iterIPKN4tbin4TileEEdeB9nqe210106Ev, symObjAddr: 0x2E20, symBinAddr: 0xAE20, symSize: 0x20 }
  - { offset: 0xCE535, size: 0x8, addend: 0x0, symName: __ZN5QListIN5Tiled5FrameEE6appendERKS1_, symObjAddr: 0x2E70, symBinAddr: 0xAE70, symSize: 0x30 }
  - { offset: 0xCE56A, size: 0x8, addend: 0x0, symName: __ZNSt3__111__wrap_iterIPKN4tbin4TileEEppB9nqe210106Ev, symObjAddr: 0x2EA0, symBinAddr: 0xAEA0, symSize: 0x20 }
  - { offset: 0xCE590, size: 0x8, addend: 0x0, symName: __ZN5Tiled4CellC1EPNS_4TileE, symObjAddr: 0x2EC0, symBinAddr: 0xAEC0, symSize: 0x30 }
  - { offset: 0xCE5C8, size: 0x8, addend: 0x0, symName: __ZN5QListIN5Tiled5FrameEED1Ev, symObjAddr: 0x2EF0, symBinAddr: 0xAEF0, symSize: 0x20 }
  - { offset: 0xCE5F4, size: 0x8, addend: 0x0, symName: __ZNK14QSharedPointerIN5Tiled7TilesetEE4dataEv, symObjAddr: 0x2F30, symBinAddr: 0xAF10, symSize: 0x20 }
  - { offset: 0xCE61A, size: 0x8, addend: 0x0, symName: __ZN5Tiled4CellC1EPNS_7TilesetEi, symObjAddr: 0x2F50, symBinAddr: 0xAF30, symSize: 0x30 }
  - { offset: 0xCE660, size: 0x8, addend: 0x0, symName: __ZNKSt3__13mapINS_12basic_stringIcNS_11char_traitsIcEENS_9allocatorIcEEEEN4tbin13PropertyValueENS_4lessIS6_EENS4_INS_4pairIKS6_S8_EEEEE4sizeB9nqe210106Ev, symObjAddr: 0x2F80, symBinAddr: 0xAF60, symSize: 0x20 }
  - { offset: 0xCE686, size: 0x8, addend: 0x0, symName: __ZNKSt3__110unique_ptrIN5Tiled9MapObjectENS_14default_deleteIS2_EEEptB9nqe210106Ev, symObjAddr: 0x30F0, symBinAddr: 0xB080, symSize: 0x20 }
  - { offset: 0xCE6AC, size: 0x8, addend: 0x0, symName: __ZN5Tiled9MapObject11setPositionERK7QPointF, symObjAddr: 0x3110, symBinAddr: 0xB0A0, symSize: 0x30 }
  - { offset: 0xCE6E3, size: 0x8, addend: 0x0, symName: __ZN7QPointFC1Edd, symObjAddr: 0x3140, symBinAddr: 0xB0D0, symSize: 0x30 }
  - { offset: 0xCE72D, size: 0x8, addend: 0x0, symName: __ZN5Tiled9MapObject7setSizeERK6QSizeF, symObjAddr: 0x3170, symBinAddr: 0xB100, symSize: 0x30 }
  - { offset: 0xCE764, size: 0x8, addend: 0x0, symName: __ZN6QSizeFC1Edd, symObjAddr: 0x31A0, symBinAddr: 0xB130, symSize: 0x30 }
  - { offset: 0xCE7AE, size: 0x8, addend: 0x0, symName: __ZNKSt3__110unique_ptrIN5Tiled9MapObjectENS_14default_deleteIS2_EEEdeB9nqe210106Ev, symObjAddr: 0x31D0, symBinAddr: 0xB160, symSize: 0x20 }
  - { offset: 0xCE7D4, size: 0x8, addend: 0x0, symName: __ZNSt3__110unique_ptrIN5Tiled9MapObjectENS_14default_deleteIS2_EEEC1B9nqe210106EOS5_, symObjAddr: 0x31F0, symBinAddr: 0xB180, symSize: 0x30 }
  - { offset: 0xCE80C, size: 0x8, addend: 0x0, symName: __ZNSt3__110unique_ptrIN5Tiled9MapObjectENS_14default_deleteIS2_EEED1B9nqe210106Ev, symObjAddr: 0x3220, symBinAddr: 0xB1B0, symSize: 0x20 }
  - { offset: 0xCE836, size: 0x8, addend: 0x0, symName: __ZNKSt3__110unique_ptrIN5Tiled11ObjectGroupENS_14default_deleteIS2_EEEdeB9nqe210106Ev, symObjAddr: 0x3240, symBinAddr: 0xB1D0, symSize: 0x20 }
  - { offset: 0xCE85C, size: 0x8, addend: 0x0, symName: __ZN5Tiled11ObjectGroup5beginEv, symObjAddr: 0x3260, symBinAddr: 0xB1F0, symSize: 0x30 }
  - { offset: 0xCE882, size: 0x8, addend: 0x0, symName: __ZN5Tiled11ObjectGroup3endEv, symObjAddr: 0x3290, symBinAddr: 0xB220, symSize: 0x30 }
  - { offset: 0xCE8A8, size: 0x8, addend: 0x0, symName: __ZNK5QListIPN5Tiled9MapObjectEE8iteratorneES4_, symObjAddr: 0x32C0, symBinAddr: 0xB250, symSize: 0x20 }
  - { offset: 0xCE8DC, size: 0x8, addend: 0x0, symName: __ZNK5QListIPN5Tiled9MapObjectEE8iteratordeEv, symObjAddr: 0x32E0, symBinAddr: 0xB270, symSize: 0x20 }
  - { offset: 0xCE902, size: 0x8, addend: 0x0, symName: __ZNK5Tiled9MapObject1xEv, symObjAddr: 0x3300, symBinAddr: 0xB290, symSize: 0x20 }
  - { offset: 0xCE92A, size: 0x8, addend: 0x0, symName: __ZNK5Tiled9MapObject1yEv, symObjAddr: 0x3320, symBinAddr: 0xB2B0, symSize: 0x20 }
  - { offset: 0xCE952, size: 0x8, addend: 0x0, symName: __ZNK5Tiled9MapObject5widthEv, symObjAddr: 0x3340, symBinAddr: 0xB2D0, symSize: 0x20 }
  - { offset: 0xCE97A, size: 0x8, addend: 0x0, symName: __ZNK5Tiled9MapObject6heightEv, symObjAddr: 0x3360, symBinAddr: 0xB2F0, symSize: 0x20 }
  - { offset: 0xCE9A2, size: 0x8, addend: 0x0, symName: __ZN5Tiled6Object10propertiesEv, symObjAddr: 0x3380, symBinAddr: 0xB310, symSize: 0x20 }
  - { offset: 0xCE9C8, size: 0x8, addend: 0x0, symName: __ZNK4QMapI7QString8QVariantE4keysEv, symObjAddr: 0x33A0, symBinAddr: 0xB330, symSize: 0x70 }
  - { offset: 0xCE9EE, size: 0x8, addend: 0x0, symName: __ZN5QListI7QStringE5beginEv, symObjAddr: 0x3410, symBinAddr: 0xB3A0, symSize: 0x40 }
  - { offset: 0xCEA14, size: 0x8, addend: 0x0, symName: __ZN5QListI7QStringE3endEv, symObjAddr: 0x3450, symBinAddr: 0xB3E0, symSize: 0x40 }
  - { offset: 0xCEA3A, size: 0x8, addend: 0x0, symName: __ZNK5QListI7QStringE8iteratorneES2_, symObjAddr: 0x3490, symBinAddr: 0xB420, symSize: 0x20 }
  - { offset: 0xCEA6E, size: 0x8, addend: 0x0, symName: __ZNK5QListI7QStringE8iteratordeEv, symObjAddr: 0x34B0, symBinAddr: 0xB440, symSize: 0x20 }
  - { offset: 0xCEA94, size: 0x8, addend: 0x0, symName: __ZNK4QMapI7QString8QVariantE8containsERKS0_, symObjAddr: 0x34D0, symBinAddr: 0xB460, symSize: 0x80 }
  - { offset: 0xCEAD7, size: 0x8, addend: 0x0, symName: __ZneRK8QVariantS1_, symObjAddr: 0x3550, symBinAddr: 0xB4E0, symSize: 0x30 }
  - { offset: 0xCEB15, size: 0x8, addend: 0x0, symName: __ZN4QMapI7QString8QVariantEixERKS0_, symObjAddr: 0x3580, symBinAddr: 0xB510, symSize: 0x250 }
  - { offset: 0xCEB6C, size: 0x8, addend: 0x0, symName: __ZN5QListI7QStringE8iteratorppEv, symObjAddr: 0x37D0, symBinAddr: 0xB760, symSize: 0x20 }
  - { offset: 0xCEB92, size: 0x8, addend: 0x0, symName: __ZN5QListI7QStringED1Ev, symObjAddr: 0x37F0, symBinAddr: 0xB780, symSize: 0x20 }
  - { offset: 0xCEBBE, size: 0x8, addend: 0x0, symName: __ZN4QMapI7QString8QVariantE6removeERKS0_, symObjAddr: 0x3810, symBinAddr: 0xB7A0, symSize: 0xC0 }
  - { offset: 0xCEC11, size: 0x8, addend: 0x0, symName: __ZN5Tiled9MapObject7setSizeEdd, symObjAddr: 0x38D0, symBinAddr: 0xB860, symSize: 0x50 }
  - { offset: 0xCEC57, size: 0x8, addend: 0x0, symName: __ZN5QListIPN5Tiled9MapObjectEE8iteratorppEv, symObjAddr: 0x3920, symBinAddr: 0xB8B0, symSize: 0x20 }
  - { offset: 0xCEC7D, size: 0x8, addend: 0x0, symName: __ZNK4QMapI7QString8QVariantE4sizeEv, symObjAddr: 0x3940, symBinAddr: 0xB8D0, symSize: 0x50 }
  - { offset: 0xCECA3, size: 0x8, addend: 0x0, symName: __ZN5Tiled3Map8addLayerENSt3__110unique_ptrINS_5LayerENS1_14default_deleteIS3_EEEE, symObjAddr: 0x3990, symBinAddr: 0xB920, symSize: 0x40 }
  - { offset: 0xCECDB, size: 0x8, addend: 0x0, symName: __ZNSt3__110unique_ptrIN5Tiled5LayerENS_14default_deleteIS2_EEEC1B9nqe210106INS1_9TileLayerENS3_IS7_EEvvEEONS0_IT_T0_EE, symObjAddr: 0x39D0, symBinAddr: 0xB960, symSize: 0x30 }
  - { offset: 0xCED27, size: 0x8, addend: 0x0, symName: __ZNSt3__110unique_ptrIN5Tiled5LayerENS_14default_deleteIS2_EEED1B9nqe210106Ev, symObjAddr: 0x3A00, symBinAddr: 0xB990, symSize: 0x20 }
  - { offset: 0xCED51, size: 0x8, addend: 0x0, symName: __ZNSt3__110unique_ptrIN5Tiled5LayerENS_14default_deleteIS2_EEEC1B9nqe210106INS1_11ObjectGroupENS3_IS7_EEvvEEONS0_IT_T0_EE, symObjAddr: 0x3A20, symBinAddr: 0xB9B0, symSize: 0x30 }
  - { offset: 0xCED9D, size: 0x8, addend: 0x0, symName: __ZNSt3__110unique_ptrIN5Tiled11ObjectGroupENS_14default_deleteIS2_EEED1B9nqe210106Ev, symObjAddr: 0x3A50, symBinAddr: 0xB9E0, symSize: 0x20 }
  - { offset: 0xCEDC7, size: 0x8, addend: 0x0, symName: __ZNSt3__110unique_ptrIN5Tiled9TileLayerENS_14default_deleteIS2_EEED1B9nqe210106Ev, symObjAddr: 0x3A70, symBinAddr: 0xBA00, symSize: 0x20 }
  - { offset: 0xCEDF1, size: 0x8, addend: 0x0, symName: __ZNSt3__111__wrap_iterIPKN4tbin5LayerEEppB9nqe210106Ev, symObjAddr: 0x3A90, symBinAddr: 0xBA20, symSize: 0x20 }
  - { offset: 0xCEE17, size: 0x8, addend: 0x0, symName: __ZNSt3__13mapINS_12basic_stringIcNS_11char_traitsIcEENS_9allocatorIcEEEEiNS_4lessIS6_EENS4_INS_4pairIKS6_iEEEEED1B9nqe210106Ev, symObjAddr: 0x3AB0, symBinAddr: 0xBA40, symSize: 0x20 }
  - { offset: 0xCEE53, size: 0x8, addend: 0x0, symName: __ZN4Tbin10TbinPlugin6toTbinEPKN5Tiled3MapERK4QDir, symObjAddr: 0x3AD0, symBinAddr: 0xBA60, symSize: 0x2270 }
  - { offset: 0xCF36E, size: 0x8, addend: 0x0, symName: __ZNK5Tiled6Object10propertiesEv, symObjAddr: 0x6A60, symBinAddr: 0xE9D0, symSize: 0x20 }
  - { offset: 0xCF394, size: 0x8, addend: 0x0, symName: __ZNK5Tiled3Map8tilesetsEv, symObjAddr: 0x6A80, symBinAddr: 0xE9F0, symSize: 0x20 }
  - { offset: 0xCF3BC, size: 0x8, addend: 0x0, symName: __ZNK5QListI14QSharedPointerIN5Tiled7TilesetEEE5beginEv, symObjAddr: 0x6AA0, symBinAddr: 0xEA10, symSize: 0x40 }
  - { offset: 0xCF3E2, size: 0x8, addend: 0x0, symName: __ZNK5QListI14QSharedPointerIN5Tiled7TilesetEEE3endEv, symObjAddr: 0x6AE0, symBinAddr: 0xEA50, symSize: 0x40 }
  - { offset: 0xCF408, size: 0x8, addend: 0x0, symName: __ZNK5QListI14QSharedPointerIN5Tiled7TilesetEEE14const_iteratorneES5_, symObjAddr: 0x6B20, symBinAddr: 0xEA90, symSize: 0x20 }
  - { offset: 0xCF43C, size: 0x8, addend: 0x0, symName: __ZNK5QListI14QSharedPointerIN5Tiled7TilesetEEE14const_iteratordeEv, symObjAddr: 0x6B40, symBinAddr: 0xEAB0, symSize: 0x20 }
  - { offset: 0xCF467, size: 0x8, addend: 0x0, symName: __ZN4tbin9TileSheetC1Ev, symObjAddr: 0x6B60, symBinAddr: 0xEAD0, symSize: 0x20 }
  - { offset: 0xCF493, size: 0x8, addend: 0x0, symName: __ZNK5Tiled7Tileset4nameEv, symObjAddr: 0x6B80, symBinAddr: 0xEAF0, symSize: 0x20 }
  - { offset: 0xCF4BB, size: 0x8, addend: 0x0, symName: __ZNSt3__112basic_stringIcNS_11char_traitsIcEENS_9allocatorIcEEEaSB9nqe210106EOS5_, symObjAddr: 0x6BA0, symBinAddr: 0xEB10, symSize: 0x30 }
  - { offset: 0xCF4F0, size: 0x8, addend: 0x0, symName: __ZNK5Tiled7Tileset11imageSourceEv, symObjAddr: 0x6C50, symBinAddr: 0xEBC0, symSize: 0x20 }
  - { offset: 0xCF518, size: 0x8, addend: 0x0, symName: __ZNK5Tiled7Tileset6marginEv, symObjAddr: 0x6C70, symBinAddr: 0xEBE0, symSize: 0x20 }
  - { offset: 0xCF540, size: 0x8, addend: 0x0, symName: __ZNK5Tiled7Tileset11tileSpacingEv, symObjAddr: 0x6C90, symBinAddr: 0xEC00, symSize: 0x20 }
  - { offset: 0xCF568, size: 0x8, addend: 0x0, symName: __ZNK5Tiled7Tileset11columnCountEv, symObjAddr: 0x6CB0, symBinAddr: 0xEC20, symSize: 0x20 }
  - { offset: 0xCF590, size: 0x8, addend: 0x0, symName: __ZNK5Tiled7Tileset8tileSizeEv, symObjAddr: 0x6CD0, symBinAddr: 0xEC40, symSize: 0x30 }
  - { offset: 0xCF5B8, size: 0x8, addend: 0x0, symName: __ZNK5QSize5widthEv, symObjAddr: 0x6D00, symBinAddr: 0xEC70, symSize: 0x20 }
  - { offset: 0xCF5DF, size: 0x8, addend: 0x0, symName: __ZNK5QSize6heightEv, symObjAddr: 0x6D20, symBinAddr: 0xEC90, symSize: 0x20 }
  - { offset: 0xCF606, size: 0x8, addend: 0x0, symName: __ZN4QMapI7QString8QVariantEC1Ev, symObjAddr: 0x6D40, symBinAddr: 0xECB0, symSize: 0x20 }
  - { offset: 0xCF630, size: 0x8, addend: 0x0, symName: __ZNK5Tiled7Tileset5tilesEv, symObjAddr: 0x6D60, symBinAddr: 0xECD0, symSize: 0x20 }
  - { offset: 0xCF658, size: 0x8, addend: 0x0, symName: __ZNK5QListIPN5Tiled4TileEE5beginEv, symObjAddr: 0x6D80, symBinAddr: 0xECF0, symSize: 0x40 }
  - { offset: 0xCF67E, size: 0x8, addend: 0x0, symName: __ZNK5QListIPN5Tiled4TileEE3endEv, symObjAddr: 0x6DC0, symBinAddr: 0xED30, symSize: 0x40 }
  - { offset: 0xCF6A4, size: 0x8, addend: 0x0, symName: __ZNK5QListIPN5Tiled4TileEE14const_iteratorneES4_, symObjAddr: 0x6E00, symBinAddr: 0xED70, symSize: 0x20 }
  - { offset: 0xCF6D8, size: 0x8, addend: 0x0, symName: __ZNK5QListIPN5Tiled4TileEE14const_iteratordeEv, symObjAddr: 0x6E20, symBinAddr: 0xED90, symSize: 0x20 }
  - { offset: 0xCF6FE, size: 0x8, addend: 0x0, symName: __ZNK4QMapI7QString8QVariantE5beginEv, symObjAddr: 0x6E40, symBinAddr: 0xEDB0, symSize: 0x70 }
  - { offset: 0xCF724, size: 0x8, addend: 0x0, symName: __ZNK4QMapI7QString8QVariantE3endEv, symObjAddr: 0x6EB0, symBinAddr: 0xEE20, symSize: 0x70 }
  - { offset: 0xCF749, size: 0x8, addend: 0x0, symName: __ZneRKN4QMapI7QString8QVariantE14const_iteratorES5_, symObjAddr: 0x6F20, symBinAddr: 0xEE90, symSize: 0x30 }
  - { offset: 0xCF787, size: 0x8, addend: 0x0, symName: __ZN4QMapI7QString8QVariantE6insertERKS0_RKS1_, symObjAddr: 0x6F50, symBinAddr: 0xEEC0, symSize: 0xC0 }
  - { offset: 0xCF7D9, size: 0x8, addend: 0x0, symName: __ZplO7QStringRKS_, symObjAddr: 0x7010, symBinAddr: 0xEF80, symSize: 0x50 }
  - { offset: 0xCF816, size: 0x8, addend: 0x0, symName: __ZplO7QString5QChar, symObjAddr: 0x7060, symBinAddr: 0xEFD0, symSize: 0x50 }
  - { offset: 0xCF854, size: 0x8, addend: 0x0, symName: __ZN7QStringC1E13QLatin1String, symObjAddr: 0x70B0, symBinAddr: 0xF020, symSize: 0x60 }
  - { offset: 0xCF88F, size: 0x8, addend: 0x0, symName: __ZNK5Tiled4Tile2idEv, symObjAddr: 0x7110, symBinAddr: 0xF080, symSize: 0x20 }
  - { offset: 0xCF8B6, size: 0x8, addend: 0x0, symName: __ZNK4QMapI7QString8QVariantE14const_iterator3keyEv, symObjAddr: 0x7130, symBinAddr: 0xF0A0, symSize: 0x20 }
  - { offset: 0xCF8DC, size: 0x8, addend: 0x0, symName: __ZNK4QMapI7QString8QVariantE14const_iterator5valueEv, symObjAddr: 0x7150, symBinAddr: 0xF0C0, symSize: 0x20 }
  - { offset: 0xCF902, size: 0x8, addend: 0x0, symName: __ZN4QMapI7QString8QVariantE14const_iteratorppEv, symObjAddr: 0x7170, symBinAddr: 0xF0E0, symSize: 0x30 }
  - { offset: 0xCF928, size: 0x8, addend: 0x0, symName: __ZN5QListIPN5Tiled4TileEE14const_iteratorppEv, symObjAddr: 0x71A0, symBinAddr: 0xF110, symSize: 0x20 }
  - { offset: 0xCF94E, size: 0x8, addend: 0x0, symName: __ZNSt3__16vectorIN4tbin9TileSheetENS_9allocatorIS2_EEE9push_backB9nqe210106EOS2_, symObjAddr: 0x71C0, symBinAddr: 0xF130, symSize: 0x30 }
  - { offset: 0xCF983, size: 0x8, addend: 0x0, symName: __ZN4QMapI7QString8QVariantED1Ev, symObjAddr: 0x71F0, symBinAddr: 0xF160, symSize: 0x20 }
  - { offset: 0xCF9AF, size: 0x8, addend: 0x0, symName: __ZN5QListI14QSharedPointerIN5Tiled7TilesetEEE14const_iteratorppEv, symObjAddr: 0x7230, symBinAddr: 0xF180, symSize: 0x20 }
  - { offset: 0xCF9D5, size: 0x8, addend: 0x0, symName: __ZNSt3__16vectorIPN5Tiled11ObjectGroupENS_9allocatorIS3_EEEC1B9nqe210106Ev, symObjAddr: 0x7250, symBinAddr: 0xF1A0, symSize: 0x20 }
  - { offset: 0xCF9FF, size: 0x8, addend: 0x0, symName: __ZNSt3__13mapINS_12basic_stringIcNS_11char_traitsIcEENS_9allocatorIcEEEEPN4tbin5LayerENS_4lessIS6_EENS4_INS_4pairIKS6_S9_EEEEEC1B9nqe210106Ev, symObjAddr: 0x7270, symBinAddr: 0xF1C0, symSize: 0x20 }
  - { offset: 0xCFA29, size: 0x8, addend: 0x0, symName: __ZNSt3__16vectorIN4tbin5LayerENS_9allocatorIS2_EEE7reserveEm, symObjAddr: 0x7290, symBinAddr: 0xF1E0, symSize: 0xD0 }
  - { offset: 0xCFA76, size: 0x8, addend: 0x0, symName: __ZNK5Tiled3Map6layersEv, symObjAddr: 0x7360, symBinAddr: 0xF2B0, symSize: 0x20 }
  - { offset: 0xCFA9E, size: 0x8, addend: 0x0, symName: __ZNK5QListIPN5Tiled5LayerEE4sizeEv, symObjAddr: 0x7380, symBinAddr: 0xF2D0, symSize: 0x50 }
  - { offset: 0xCFAF8, size: 0x8, addend: 0x0, symName: __ZNK5QListIPN5Tiled5LayerEE5beginEv, symObjAddr: 0x73D0, symBinAddr: 0xF320, symSize: 0x40 }
  - { offset: 0xCFB1E, size: 0x8, addend: 0x0, symName: __ZNK5QListIPN5Tiled5LayerEE3endEv, symObjAddr: 0x7410, symBinAddr: 0xF360, symSize: 0x40 }
  - { offset: 0xCFB44, size: 0x8, addend: 0x0, symName: __ZNK5QListIPN5Tiled5LayerEE14const_iteratorneES4_, symObjAddr: 0x7450, symBinAddr: 0xF3A0, symSize: 0x20 }
  - { offset: 0xCFB78, size: 0x8, addend: 0x0, symName: __ZNK5QListIPN5Tiled5LayerEE14const_iteratordeEv, symObjAddr: 0x7470, symBinAddr: 0xF3C0, symSize: 0x20 }
  - { offset: 0xCFB9E, size: 0x8, addend: 0x0, symName: __ZNSt3__16vectorIPN5Tiled11ObjectGroupENS_9allocatorIS3_EEE9push_backB9nqe210106ERKS3_, symObjAddr: 0x7490, symBinAddr: 0xF3E0, symSize: 0x30 }
  - { offset: 0xCFBD8, size: 0x8, addend: 0x0, symName: __ZN4tbin5LayerC1Ev, symObjAddr: 0x74C0, symBinAddr: 0xF410, symSize: 0x20 }
  - { offset: 0xCFC04, size: 0x8, addend: 0x0, symName: __ZNK5Tiled5Layer4nameEv, symObjAddr: 0x74E0, symBinAddr: 0xF430, symSize: 0x20 }
  - { offset: 0xCFC2A, size: 0x8, addend: 0x0, symName: __ZNK5Tiled9TileLayer5widthEv, symObjAddr: 0x7500, symBinAddr: 0xF450, symSize: 0x20 }
  - { offset: 0xCFC50, size: 0x8, addend: 0x0, symName: __ZNK5Tiled9TileLayer6heightEv, symObjAddr: 0x7520, symBinAddr: 0xF470, symSize: 0x20 }
  - { offset: 0xCFC76, size: 0x8, addend: 0x0, symName: __ZNK5Tiled3Map9tileWidthEv, symObjAddr: 0x7540, symBinAddr: 0xF490, symSize: 0x20 }
  - { offset: 0xCFC9E, size: 0x8, addend: 0x0, symName: __ZNK5Tiled3Map10tileHeightEv, symObjAddr: 0x7560, symBinAddr: 0xF4B0, symSize: 0x20 }
  - { offset: 0xCFCC6, size: 0x8, addend: 0x0, symName: __ZNK5Tiled5Layer9isVisibleEv, symObjAddr: 0x7580, symBinAddr: 0xF4D0, symSize: 0x20 }
  - { offset: 0xCFCEC, size: 0x8, addend: 0x0, symName: __ZNK5Tiled9TileLayer6cellAtEii, symObjAddr: 0x75A0, symBinAddr: 0xF4F0, symSize: 0x60 }
  - { offset: 0xCFD50, size: 0x8, addend: 0x0, symName: __ZN4tbin4TileC1Ev, symObjAddr: 0x7600, symBinAddr: 0xF550, symSize: 0x20 }
  - { offset: 0xCFD7C, size: 0x8, addend: 0x0, symName: __ZNK5Tiled5Layer1xEv, symObjAddr: 0x77B0, symBinAddr: 0xF700, symSize: 0x20 }
  - { offset: 0xCFDA2, size: 0x8, addend: 0x0, symName: __ZNK5Tiled5Layer1yEv, symObjAddr: 0x77D0, symBinAddr: 0xF720, symSize: 0x20 }
  - { offset: 0xCFDC8, size: 0x8, addend: 0x0, symName: __ZN6QPointC1Eii, symObjAddr: 0x77F0, symBinAddr: 0xF740, symSize: 0x30 }
  - { offset: 0xCFE0F, size: 0x8, addend: 0x0, symName: __ZNSt3__18functionIFvvEEC1IN5Tiled10JumpToTileEvEET_, symObjAddr: 0x7820, symBinAddr: 0xF770, symSize: 0x20 }
  - { offset: 0xCFE53, size: 0x8, addend: 0x0, symName: __ZNSt3__18functionIFvvEED1Ev, symObjAddr: 0x7840, symBinAddr: 0xF790, symSize: 0x20 }
  - { offset: 0xCFE7D, size: 0x8, addend: 0x0, symName: __ZN5Tiled10JumpToTileD1Ev, symObjAddr: 0x7860, symBinAddr: 0xF7B0, symSize: 0x20 }
  - { offset: 0xCFEA9, size: 0x8, addend: 0x0, symName: __ZNK5Tiled4Cell4tileEv, symObjAddr: 0x7880, symBinAddr: 0xF7D0, symSize: 0x50 }
  - { offset: 0xCFED0, size: 0x8, addend: 0x0, symName: __ZNK5Tiled4Tile7tilesetEv, symObjAddr: 0x78D0, symBinAddr: 0xF820, symSize: 0x20 }
  - { offset: 0xCFEF7, size: 0x8, addend: 0x0, symName: __ZNK5Tiled4Tile6framesEv, symObjAddr: 0x78F0, symBinAddr: 0xF840, symSize: 0x20 }
  - { offset: 0xCFF1E, size: 0x8, addend: 0x0, symName: __ZNK5QListIN5Tiled5FrameEE4sizeEv, symObjAddr: 0x7910, symBinAddr: 0xF860, symSize: 0x50 }
  - { offset: 0xCFF78, size: 0x8, addend: 0x0, symName: __ZNK5Tiled5Layer9blendModeEv, symObjAddr: 0x7960, symBinAddr: 0xF8B0, symSize: 0x20 }
  - { offset: 0xCFFA0, size: 0x8, addend: 0x0, symName: __ZNK5QListIN5Tiled5FrameEE2atEx, symObjAddr: 0x7980, symBinAddr: 0xF8D0, symSize: 0x70 }
  - { offset: 0xCFFD5, size: 0x8, addend: 0x0, symName: __ZNK5QListIN5Tiled5FrameEE5beginEv, symObjAddr: 0x79F0, symBinAddr: 0xF940, symSize: 0x40 }
  - { offset: 0xCFFFB, size: 0x8, addend: 0x0, symName: __ZNK5QListIN5Tiled5FrameEE3endEv, symObjAddr: 0x7A30, symBinAddr: 0xF980, symSize: 0x40 }
  - { offset: 0xD0021, size: 0x8, addend: 0x0, symName: __ZNK5QListIN5Tiled5FrameEE14const_iteratorneES3_, symObjAddr: 0x7A70, symBinAddr: 0xF9C0, symSize: 0x20 }
  - { offset: 0xD0055, size: 0x8, addend: 0x0, symName: __ZNK5QListIN5Tiled5FrameEE14const_iteratordeEv, symObjAddr: 0x7A90, symBinAddr: 0xF9E0, symSize: 0x20 }
  - { offset: 0xD007B, size: 0x8, addend: 0x0, symName: __ZNSt3__18functionIFvvEEC1IN5Tiled10SelectTileEvEET_, symObjAddr: 0x7AB0, symBinAddr: 0xFA00, symSize: 0x20 }
  - { offset: 0xD00BF, size: 0x8, addend: 0x0, symName: __ZN5Tiled10SelectTileD1Ev, symObjAddr: 0x7AD0, symBinAddr: 0xFA20, symSize: 0x20 }
  - { offset: 0xD00EB, size: 0x8, addend: 0x0, symName: __ZNSt3__16vectorIN4tbin4TileENS_9allocatorIS2_EEE9push_backB9nqe210106ERKS2_, symObjAddr: 0x7AF0, symBinAddr: 0xFA40, symSize: 0x30 }
  - { offset: 0xD0120, size: 0x8, addend: 0x0, symName: __ZN5QListIN5Tiled5FrameEE14const_iteratorppEv, symObjAddr: 0x7B20, symBinAddr: 0xFA70, symSize: 0x20 }
  - { offset: 0xD0146, size: 0x8, addend: 0x0, symName: __ZNSt3__16vectorIN4tbin5LayerENS_9allocatorIS2_EEE9push_backB9nqe210106EOS2_, symObjAddr: 0x7B40, symBinAddr: 0xFA90, symSize: 0x30 }
  - { offset: 0xD017B, size: 0x8, addend: 0x0, symName: __ZNSt3__16vectorIN4tbin5LayerENS_9allocatorIS2_EEE4backB9nqe210106Ev, symObjAddr: 0x7B70, symBinAddr: 0xFAC0, symSize: 0x20 }
  - { offset: 0xD01A1, size: 0x8, addend: 0x0, symName: __ZNSt3__13mapINS_12basic_stringIcNS_11char_traitsIcEENS_9allocatorIcEEEEPN4tbin5LayerENS_4lessIS6_EENS4_INS_4pairIKS6_S9_EEEEEixERSD_, symObjAddr: 0x7B90, symBinAddr: 0xFAE0, symSize: 0x80 }
  - { offset: 0xD01D8, size: 0x8, addend: 0x0, symName: __ZN5QListIPN5Tiled5LayerEE14const_iteratorppEv, symObjAddr: 0x7C30, symBinAddr: 0xFB60, symSize: 0x20 }
  - { offset: 0xD01FE, size: 0x8, addend: 0x0, symName: __ZNSt3__16vectorIPN5Tiled11ObjectGroupENS_9allocatorIS3_EEE5beginB9nqe210106Ev, symObjAddr: 0x7C50, symBinAddr: 0xFB80, symSize: 0x40 }
  - { offset: 0xD0224, size: 0x8, addend: 0x0, symName: __ZNSt3__16vectorIPN5Tiled11ObjectGroupENS_9allocatorIS3_EEE3endB9nqe210106Ev, symObjAddr: 0x7C90, symBinAddr: 0xFBC0, symSize: 0x40 }
  - { offset: 0xD024A, size: 0x8, addend: 0x0, symName: __ZNKSt3__111__wrap_iterIPPN5Tiled11ObjectGroupEEdeB9nqe210106Ev, symObjAddr: 0x7D00, symBinAddr: 0xFC30, symSize: 0x20 }
  - { offset: 0xD0270, size: 0x8, addend: 0x0, symName: __ZNSt3__13mapINS_12basic_stringIcNS_11char_traitsIcEENS_9allocatorIcEEEEPN4tbin5LayerENS_4lessIS6_EENS4_INS_4pairIKS6_S9_EEEEEixEOS6_, symObjAddr: 0x7D50, symBinAddr: 0xFC50, symSize: 0x80 }
  - { offset: 0xD02A7, size: 0x8, addend: 0x0, symName: __ZNSt3__18functionIFvvEEC1IN5Tiled11SelectLayerEvEET_, symObjAddr: 0x7F90, symBinAddr: 0xFDF0, symSize: 0x20 }
  - { offset: 0xD02EB, size: 0x8, addend: 0x0, symName: __ZN5Tiled11SelectLayerD1Ev, symObjAddr: 0x7FB0, symBinAddr: 0xFE10, symSize: 0x20 }
  - { offset: 0xD0317, size: 0x8, addend: 0x0, symName: __ZNK5Tiled11ObjectGroup7objectsEv, symObjAddr: 0x7FD0, symBinAddr: 0xFE30, symSize: 0x20 }
  - { offset: 0xD033D, size: 0x8, addend: 0x0, symName: __ZNK5QListIPN5Tiled9MapObjectEE5beginEv, symObjAddr: 0x7FF0, symBinAddr: 0xFE50, symSize: 0x40 }
  - { offset: 0xD0363, size: 0x8, addend: 0x0, symName: __ZNK5QListIPN5Tiled9MapObjectEE3endEv, symObjAddr: 0x8030, symBinAddr: 0xFE90, symSize: 0x40 }
  - { offset: 0xD0389, size: 0x8, addend: 0x0, symName: __ZNK5QListIPN5Tiled9MapObjectEE14const_iteratorneES4_, symObjAddr: 0x8070, symBinAddr: 0xFED0, symSize: 0x20 }
  - { offset: 0xD03BD, size: 0x8, addend: 0x0, symName: __ZNK5QListIPN5Tiled9MapObjectEE14const_iteratordeEv, symObjAddr: 0x8090, symBinAddr: 0xFEF0, symSize: 0x20 }
  - { offset: 0xD03E2, size: 0x8, addend: 0x0, symName: __ZneRK7QStringRK13QLatin1String, symObjAddr: 0x80B0, symBinAddr: 0xFF10, symSize: 0x40 }
  - { offset: 0xD0420, size: 0x8, addend: 0x0, symName: __ZNK5Tiled9MapObject4nameEv, symObjAddr: 0x80F0, symBinAddr: 0xFF50, symSize: 0x20 }
  - { offset: 0xD0448, size: 0x8, addend: 0x0, symName: __ZNK7QString3argIiLb1EEES_T_ii5QChar, symObjAddr: 0x8110, symBinAddr: 0xFF70, symSize: 0x60 }
  - { offset: 0xD04B9, size: 0x8, addend: 0x0, symName: __ZNK5Tiled9MapObject2idEv, symObjAddr: 0x8170, symBinAddr: 0xFFD0, symSize: 0x20 }
  - { offset: 0xD04E1, size: 0x8, addend: 0x0, symName: __ZNSt3__18functionIFvvEEC1IN5Tiled12JumpToObjectEvEET_, symObjAddr: 0x8190, symBinAddr: 0xFFF0, symSize: 0x20 }
  - { offset: 0xD0525, size: 0x8, addend: 0x0, symName: __ZN5Tiled12JumpToObjectD1Ev, symObjAddr: 0x81B0, symBinAddr: 0x10010, symSize: 0x20 }
  - { offset: 0xD0551, size: 0x8, addend: 0x0, symName: __ZNK4QMapI7QString8QVariantE7isEmptyEv, symObjAddr: 0x81D0, symBinAddr: 0x10030, symSize: 0x50 }
  - { offset: 0xD0577, size: 0x8, addend: 0x0, symName: __ZNK5Tiled9MapObject5shapeEv, symObjAddr: 0x8220, symBinAddr: 0x10080, symSize: 0x20 }
  - { offset: 0xD059F, size: 0x8, addend: 0x0, symName: __ZNSt3__16vectorIN4tbin4TileENS_9allocatorIS2_EEEixB9nqe210106Em, symObjAddr: 0x8240, symBinAddr: 0x100A0, symSize: 0x20 }
  - { offset: 0xD05D4, size: 0x8, addend: 0x0, symName: __ZN5QListIPN5Tiled9MapObjectEE14const_iteratorppEv, symObjAddr: 0x8260, symBinAddr: 0x100C0, symSize: 0x20 }
  - { offset: 0xD05FA, size: 0x8, addend: 0x0, symName: __ZNSt3__111__wrap_iterIPPN5Tiled11ObjectGroupEEppB9nqe210106Ev, symObjAddr: 0x8280, symBinAddr: 0x100E0, symSize: 0x20 }
  - { offset: 0xD0620, size: 0x8, addend: 0x0, symName: __ZNSt3__13mapINS_12basic_stringIcNS_11char_traitsIcEENS_9allocatorIcEEEEPN4tbin5LayerENS_4lessIS6_EENS4_INS_4pairIKS6_S9_EEEEED1B9nqe210106Ev, symObjAddr: 0x82A0, symBinAddr: 0x10100, symSize: 0x20 }
  - { offset: 0xD064A, size: 0x8, addend: 0x0, symName: __ZNSt3__16vectorIPN5Tiled11ObjectGroupENS_9allocatorIS3_EEED1B9nqe210106Ev, symObjAddr: 0x82C0, symBinAddr: 0x10120, symSize: 0x20 }
  - { offset: 0xD0674, size: 0x8, addend: 0x0, symName: ___cxx_global_var_init, symObjAddr: 0x27560, symBinAddr: 0x2BD30, symSize: 0x40 }
  - { offset: 0xD0688, size: 0x8, addend: 0x0, symName: __ZNSt3__18functionIFvRKN5Tiled10JumpToTileEEEC1B9nqe210106Ev, symObjAddr: 0x8300, symBinAddr: 0x10140, symSize: 0x20 }
  - { offset: 0xD06B2, size: 0x8, addend: 0x0, symName: __ZNSt3__18functionIFvRKN5Tiled10JumpToTileEEED1Ev, symObjAddr: 0x8320, symBinAddr: 0x10160, symSize: 0x20 }
  - { offset: 0xD06DC, size: 0x8, addend: 0x0, symName: ___cxx_global_var_init.17, symObjAddr: 0x275A0, symBinAddr: 0x2BD70, symSize: 0x40 }
  - { offset: 0xD06F0, size: 0x8, addend: 0x0, symName: __ZNSt3__18functionIFvRKN5Tiled10SelectTileEEEC1B9nqe210106Ev, symObjAddr: 0x8340, symBinAddr: 0x10180, symSize: 0x20 }
  - { offset: 0xD071A, size: 0x8, addend: 0x0, symName: __ZNSt3__18functionIFvRKN5Tiled10SelectTileEEED1Ev, symObjAddr: 0x8360, symBinAddr: 0x101A0, symSize: 0x20 }
  - { offset: 0xD0744, size: 0x8, addend: 0x0, symName: ___cxx_global_var_init.18, symObjAddr: 0x275E0, symBinAddr: 0x2BDB0, symSize: 0x40 }
  - { offset: 0xD0758, size: 0x8, addend: 0x0, symName: __ZNSt3__18functionIFvRKN5Tiled11SelectLayerEEEC1B9nqe210106Ev, symObjAddr: 0x8380, symBinAddr: 0x101C0, symSize: 0x20 }
  - { offset: 0xD0782, size: 0x8, addend: 0x0, symName: __ZNSt3__18functionIFvRKN5Tiled11SelectLayerEEED1Ev, symObjAddr: 0x83A0, symBinAddr: 0x101E0, symSize: 0x20 }
  - { offset: 0xD07AC, size: 0x8, addend: 0x0, symName: ___cxx_global_var_init.19, symObjAddr: 0x27620, symBinAddr: 0x2BDF0, symSize: 0x3C }
  - { offset: 0xD07C0, size: 0x8, addend: 0x0, symName: __ZNSt3__18functionIFvRKN5Tiled12JumpToObjectEEEC1B9nqe210106Ev, symObjAddr: 0x83C0, symBinAddr: 0x10200, symSize: 0x20 }
  - { offset: 0xD07EA, size: 0x8, addend: 0x0, symName: __ZNSt3__18functionIFvRKN5Tiled12JumpToObjectEEED1Ev, symObjAddr: 0x83E0, symBinAddr: 0x10220, symSize: 0x20 }
  - { offset: 0xD0814, size: 0x8, addend: 0x0, symName: __ZNSt3__110unique_ptrIN5Tiled3MapENS_14default_deleteIS2_EEEC2B9nqe210106ILb1EvEEv, symObjAddr: 0x8400, symBinAddr: 0x10240, symSize: 0x20 }
  - { offset: 0xD0849, size: 0x8, addend: 0x0, symName: __ZNSt16invalid_argumentC2B9nqe210106EPKc, symObjAddr: 0x8420, symBinAddr: 0x10260, symSize: 0x40 }
  - { offset: 0xD0881, size: 0x8, addend: 0x0, symName: __ZN5Tiled3Map10ParametersC2Ev, symObjAddr: 0x8460, symBinAddr: 0x102A0, symSize: 0x80 }
  - { offset: 0xD08AD, size: 0x8, addend: 0x0, symName: __ZN7QPointFC1Ev, symObjAddr: 0x84E0, symBinAddr: 0x10320, symSize: 0x20 }
  - { offset: 0xD08D9, size: 0x8, addend: 0x0, symName: __ZN6QColorC1Ev, symObjAddr: 0x8500, symBinAddr: 0x10340, symSize: 0x20 }
  - { offset: 0xD0903, size: 0x8, addend: 0x0, symName: __ZN7QPointFC2Ev, symObjAddr: 0x8520, symBinAddr: 0x10360, symSize: 0x20 }
  - { offset: 0xD092F, size: 0x8, addend: 0x0, symName: __ZN6QColorC2Ev, symObjAddr: 0x8540, symBinAddr: 0x10380, symSize: 0x40 }
  - { offset: 0xD0959, size: 0x8, addend: 0x0, symName: __ZN6QColor2CTC1Ettttt, symObjAddr: 0x8580, symBinAddr: 0x103C0, symSize: 0x80 }
  - { offset: 0xD09C9, size: 0x8, addend: 0x0, symName: __ZN6QColor2CTC2Ettttt, symObjAddr: 0x8600, symBinAddr: 0x10440, symSize: 0x70 }
  - { offset: 0xD0A39, size: 0x8, addend: 0x0, symName: __ZN5Tiled6Object11setPropertyERK7QStringRK8QVariant, symObjAddr: 0x8670, symBinAddr: 0x104B0, symSize: 0x40 }
  - { offset: 0xD0A7B, size: 0x8, addend: 0x0, symName: __ZN7QString8fromUtf8EPKcx, symObjAddr: 0x86B0, symBinAddr: 0x104F0, symSize: 0x80 }
  - { offset: 0xD0AAD, size: 0x8, addend: 0x0, symName: __Z7qstrlenPKc, symObjAddr: 0x87B0, symBinAddr: 0x10570, symSize: 0x40 }
  - { offset: 0xD0ADA, size: 0x8, addend: 0x0, symName: __ZN14QByteArrayViewC1IcLb1EEEPKT_x, symObjAddr: 0x87F0, symBinAddr: 0x105B0, symSize: 0x30 }
  - { offset: 0xD0B2F, size: 0x8, addend: 0x0, symName: __ZN14QByteArrayViewC2IcLb1EEEPKT_x, symObjAddr: 0x8820, symBinAddr: 0x105E0, symSize: 0x90 }
  - { offset: 0xD0B84, size: 0x8, addend: 0x0, symName: __ZN14QByteArrayView10castHelperEPKc, symObjAddr: 0x88B0, symBinAddr: 0x10670, symSize: 0x10 }
  - { offset: 0xD0BA7, size: 0x8, addend: 0x0, symName: __ZN11QLatin1CharC2Ec, symObjAddr: 0x89F0, symBinAddr: 0x10680, symSize: 0x20 }
  - { offset: 0xD0BDF, size: 0x8, addend: 0x0, symName: __ZN5QCharC2I11QLatin1CharLb1EEET_, symObjAddr: 0x8A10, symBinAddr: 0x106A0, symSize: 0x40 }
  - { offset: 0xD0C26, size: 0x8, addend: 0x0, symName: __ZNK11QLatin1CharcvDsEv, symObjAddr: 0x8A50, symBinAddr: 0x106E0, symSize: 0x20 }
  - { offset: 0xD0C4C, size: 0x8, addend: 0x0, symName: __ZNK11QLatin1Char7unicodeEv, symObjAddr: 0x8A70, symBinAddr: 0x10700, symSize: 0x20 }
  - { offset: 0xD0C72, size: 0x8, addend: 0x0, symName: __ZN6QFlagsIN2Qt18SplitBehaviorFlagsEEC2ES1_, symObjAddr: 0x8A90, symBinAddr: 0x10720, symSize: 0x30 }
  - { offset: 0xD0CAA, size: 0x8, addend: 0x0, symName: __ZN9QtPrivate19QFlagsStorageHelperIN2Qt18SplitBehaviorFlagsELi4EECI2NS_13QFlagsStorageIS2_EEENSt3__110in_place_tEj, symObjAddr: 0x8AC0, symBinAddr: 0x10750, symSize: 0x30 }
  - { offset: 0xD0CE8, size: 0x8, addend: 0x0, symName: __ZN9QtPrivate13QFlagsStorageIN2Qt18SplitBehaviorFlagsEEC2ENSt3__110in_place_tEj, symObjAddr: 0x8B00, symBinAddr: 0x10780, symSize: 0x20 }
  - { offset: 0xD0D2A, size: 0x8, addend: 0x0, symName: __Z13comparesEqualRK13QLatin1StringRK11QStringView, symObjAddr: 0x8B20, symBinAddr: 0x107A0, symSize: 0x80 }
  - { offset: 0xD0D68, size: 0x8, addend: 0x0, symName: __ZNK13QLatin1String4sizeEv, symObjAddr: 0x8BA0, symBinAddr: 0x10820, symSize: 0x20 }
  - { offset: 0xD0D8E, size: 0x8, addend: 0x0, symName: __ZNK11QStringView4sizeEv, symObjAddr: 0x8BC0, symBinAddr: 0x10840, symSize: 0x20 }
  - { offset: 0xD0DB4, size: 0x8, addend: 0x0, symName: __ZN13QLatin1StringC2EPKc, symObjAddr: 0x8BE0, symBinAddr: 0x10860, symSize: 0x50 }
  - { offset: 0xD0DFD, size: 0x8, addend: 0x0, symName: __ZNSt3__14pairIPKcN4tbin13PropertyValueEEC1B9nqe210106IS2_RKS4_Li0EEEOT_OT0_, symObjAddr: 0x8CF0, symBinAddr: 0x10970, symSize: 0x30 }
  - { offset: 0xD0E5B, size: 0x8, addend: 0x0, symName: __ZNSt3__14pairIPKcN4tbin13PropertyValueEEC2B9nqe210106IS2_RKS4_Li0EEEOT_OT0_, symObjAddr: 0x8D20, symBinAddr: 0x109A0, symSize: 0x40 }
  - { offset: 0xD0EBE, size: 0x8, addend: 0x0, symName: __ZN4tbin13PropertyValueC1ERKS0_, symObjAddr: 0x8D60, symBinAddr: 0x109E0, symSize: 0x30 }
  - { offset: 0xD0EF3, size: 0x8, addend: 0x0, symName: __ZN4tbin13PropertyValueC2ERKS0_, symObjAddr: 0x8D90, symBinAddr: 0x10A10, symSize: 0x40 }
  - { offset: 0xD0F28, size: 0x8, addend: 0x0, symName: __ZNK10QByteArray4dataEv, symObjAddr: 0x8DD0, symBinAddr: 0x10A50, symSize: 0x50 }
  - { offset: 0xD0F50, size: 0x8, addend: 0x0, symName: __ZNK17QArrayDataPointerIcE4dataEv, symObjAddr: 0x8E20, symBinAddr: 0x10AA0, symSize: 0x20 }
  - { offset: 0xD0F76, size: 0x8, addend: 0x0, symName: __ZNSt3__14pairIPKcN4tbin13PropertyValueEED2Ev, symObjAddr: 0x8E40, symBinAddr: 0x10AC0, symSize: 0x20 }
  - { offset: 0xD0FA2, size: 0x8, addend: 0x0, symName: __ZN10QByteArrayD2Ev, symObjAddr: 0x8EA0, symBinAddr: 0x10AE0, symSize: 0x20 }
  - { offset: 0xD0FCE, size: 0x8, addend: 0x0, symName: __ZN17QArrayDataPointerIcED1Ev, symObjAddr: 0x8EC0, symBinAddr: 0x10B00, symSize: 0x20 }
  - { offset: 0xD0FF8, size: 0x8, addend: 0x0, symName: __ZN17QArrayDataPointerIcED2Ev, symObjAddr: 0x8EE0, symBinAddr: 0x10B20, symSize: 0x40 }
  - { offset: 0xD1022, size: 0x8, addend: 0x0, symName: __ZN17QArrayDataPointerIcE5derefEv, symObjAddr: 0x8F20, symBinAddr: 0x10B60, symSize: 0x40 }
  - { offset: 0xD1048, size: 0x8, addend: 0x0, symName: __ZN17QArrayDataPointerIcEptEv, symObjAddr: 0x8F60, symBinAddr: 0x10BA0, symSize: 0x10 }
  - { offset: 0xD106E, size: 0x8, addend: 0x0, symName: __ZN9QtPrivate12QPodArrayOpsIcE10destroyAllEv, symObjAddr: 0x8F70, symBinAddr: 0x10BB0, symSize: 0x70 }
  - { offset: 0xD1094, size: 0x8, addend: 0x0, symName: __ZN15QTypedArrayDataIcE10deallocateEP10QArrayData, symObjAddr: 0x8FE0, symBinAddr: 0x10C20, symSize: 0x30 }
  - { offset: 0xD10B7, size: 0x8, addend: 0x0, symName: __ZN5QListI11QStringViewED2Ev, symObjAddr: 0x9230, symBinAddr: 0x10C50, symSize: 0x20 }
  - { offset: 0xD10E3, size: 0x8, addend: 0x0, symName: __ZN17QArrayDataPointerI11QStringViewED1Ev, symObjAddr: 0x9250, symBinAddr: 0x10C70, symSize: 0x20 }
  - { offset: 0xD110D, size: 0x8, addend: 0x0, symName: __ZN17QArrayDataPointerI11QStringViewED2Ev, symObjAddr: 0x9270, symBinAddr: 0x10C90, symSize: 0x40 }
  - { offset: 0xD1137, size: 0x8, addend: 0x0, symName: __ZN17QArrayDataPointerI11QStringViewE5derefEv, symObjAddr: 0x92B0, symBinAddr: 0x10CD0, symSize: 0x40 }
  - { offset: 0xD115D, size: 0x8, addend: 0x0, symName: __ZN17QArrayDataPointerI11QStringViewEptEv, symObjAddr: 0x92F0, symBinAddr: 0x10D10, symSize: 0x10 }
  - { offset: 0xD1183, size: 0x8, addend: 0x0, symName: __ZN9QtPrivate12QPodArrayOpsI11QStringViewE10destroyAllEv, symObjAddr: 0x9300, symBinAddr: 0x10D20, symSize: 0x70 }
  - { offset: 0xD11A9, size: 0x8, addend: 0x0, symName: __ZN15QTypedArrayDataI11QStringViewE10deallocateEP10QArrayData, symObjAddr: 0x9370, symBinAddr: 0x10D90, symSize: 0x30 }
  - { offset: 0xD11CC, size: 0x8, addend: 0x0, symName: __ZNKSt3__111__wrap_iterIPKN4tbin5LayerEE4baseB9nqe210106Ev, symObjAddr: 0x93E0, symBinAddr: 0x10E00, symSize: 0x20 }
  - { offset: 0xD11F2, size: 0x8, addend: 0x0, symName: __ZN5Tiled4CellC2Ev, symObjAddr: 0x9400, symBinAddr: 0x10E20, symSize: 0x30 }
  - { offset: 0xD121C, size: 0x8, addend: 0x0, symName: __ZN4tbin4TileC2ERKS0_, symObjAddr: 0x9430, symBinAddr: 0x10E50, symSize: 0xB0 }
  - { offset: 0xD1261, size: 0x8, addend: 0x0, symName: __ZN4tbin4TileUt0_C1ERKS1_, symObjAddr: 0x94E0, symBinAddr: 0x10F00, symSize: 0x30 }
  - { offset: 0xD1296, size: 0x8, addend: 0x0, symName: __ZNSt3__13mapINS_12basic_stringIcNS_11char_traitsIcEENS_9allocatorIcEEEEN4tbin13PropertyValueENS_4lessIS6_EENS4_INS_4pairIKS6_S8_EEEEEC1B9nqe210106ERKSF_, symObjAddr: 0x9510, symBinAddr: 0x10F30, symSize: 0x30 }
  - { offset: 0xD12CF, size: 0x8, addend: 0x0, symName: __ZN4tbin4TileUt0_C2ERKS1_, symObjAddr: 0x9560, symBinAddr: 0x10F60, symSize: 0x40 }
  - { offset: 0xD1304, size: 0x8, addend: 0x0, symName: __ZNSt3__16vectorIN4tbin4TileENS_9allocatorIS2_EEEC1B9nqe210106ERKS5_, symObjAddr: 0x95A0, symBinAddr: 0x10FA0, symSize: 0x30 }
  - { offset: 0xD133D, size: 0x8, addend: 0x0, symName: __ZNSt3__16vectorIN4tbin4TileENS_9allocatorIS2_EEEC2B9nqe210106ERKS5_, symObjAddr: 0x95D0, symBinAddr: 0x10FD0, symSize: 0x80 }
  - { offset: 0xD1381, size: 0x8, addend: 0x0, symName: __ZNSt3__116allocator_traitsINS_9allocatorIN4tbin4TileEEEE37select_on_container_copy_constructionB9nqe210106IS4_Li0EEES4_RKS4_, symObjAddr: 0x9650, symBinAddr: 0x11050, symSize: 0x10 }
  - { offset: 0xD13B4, size: 0x8, addend: 0x0, symName: __ZNSt3__16vectorIN4tbin4TileENS_9allocatorIS2_EEE16__init_with_sizeB9nqe210106IPS2_S7_EEvT_T0_m, symObjAddr: 0x9660, symBinAddr: 0x11060, symSize: 0xA0 }
  - { offset: 0xD1428, size: 0x8, addend: 0x0, symName: __ZNSt3__16vectorIN4tbin4TileENS_9allocatorIS2_EEE11__vallocateB9nqe210106Em, symObjAddr: 0x9770, symBinAddr: 0x11140, symSize: 0x80 }
  - { offset: 0xD146C, size: 0x8, addend: 0x0, symName: __ZNSt3__16vectorIN4tbin4TileENS_9allocatorIS2_EEE18__construct_at_endIPS2_S7_EEvT_T0_m, symObjAddr: 0x97F0, symBinAddr: 0x111C0, symSize: 0x90 }
  - { offset: 0xD14E0, size: 0x8, addend: 0x0, symName: __ZNSt3__128__exception_guard_exceptionsINS_6vectorIN4tbin4TileENS_9allocatorIS3_EEE16__destroy_vectorEE10__completeB9nqe210106Ev, symObjAddr: 0x9880, symBinAddr: 0x11250, symSize: 0x20 }
  - { offset: 0xD1506, size: 0x8, addend: 0x0, symName: __ZNSt3__128__exception_guard_exceptionsINS_6vectorIN4tbin4TileENS_9allocatorIS3_EEE16__destroy_vectorEED1B9nqe210106Ev, symObjAddr: 0x98A0, symBinAddr: 0x11270, symSize: 0x20 }
  - { offset: 0xD1530, size: 0x8, addend: 0x0, symName: __ZNSt3__128__exception_guard_exceptionsINS_6vectorIN4tbin4TileENS_9allocatorIS3_EEE16__destroy_vectorEEC1B9nqe210106ES7_, symObjAddr: 0x98C0, symBinAddr: 0x11290, symSize: 0x30 }
  - { offset: 0xD1568, size: 0x8, addend: 0x0, symName: __ZNSt3__128__exception_guard_exceptionsINS_6vectorIN4tbin4TileENS_9allocatorIS3_EEE16__destroy_vectorEEC2B9nqe210106ES7_, symObjAddr: 0x98F0, symBinAddr: 0x112C0, symSize: 0x20 }
  - { offset: 0xD15A0, size: 0x8, addend: 0x0, symName: __ZNKSt3__16vectorIN4tbin4TileENS_9allocatorIS2_EEE8max_sizeB9nqe210106Ev, symObjAddr: 0x9930, symBinAddr: 0x112E0, symSize: 0x50 }
  - { offset: 0xD15C6, size: 0x8, addend: 0x0, symName: __ZNSt3__16vectorIN4tbin4TileENS_9allocatorIS2_EEE20__throw_length_errorB9nqe210106Ev, symObjAddr: 0x9980, symBinAddr: 0x11330, symSize: 0x10 }
  - { offset: 0xD15DA, size: 0x8, addend: 0x0, symName: __ZNKSt3__16vectorIN4tbin4TileENS_9allocatorIS2_EEE14__annotate_newB9nqe210106Em, symObjAddr: 0x99D0, symBinAddr: 0x11380, symSize: 0x70 }
  - { offset: 0xD160F, size: 0x8, addend: 0x0, symName: __ZNSt3__116allocator_traitsINS_9allocatorIN4tbin4TileEEEE8max_sizeB9nqe210106IS4_Li0EEEmRKS4_, symObjAddr: 0x9A70, symBinAddr: 0x11420, symSize: 0x20 }
  - { offset: 0xD1642, size: 0x8, addend: 0x0, symName: __ZNSt3__114numeric_limitsIlE3maxB9nqe210106Ev, symObjAddr: 0x9A90, symBinAddr: 0x11440, symSize: 0x10 }
  - { offset: 0xD166B, size: 0x8, addend: 0x0, symName: __ZNKSt3__16__lessIvvEclB9nqe210106ImmEEbRKT_RKT0_, symObjAddr: 0x9AF0, symBinAddr: 0x114A0, symSize: 0x30 }
  - { offset: 0xD16BF, size: 0x8, addend: 0x0, symName: __ZNKSt3__19allocatorIN4tbin4TileEE8max_sizeB9nqe210106Ev, symObjAddr: 0x9B20, symBinAddr: 0x114D0, symSize: 0x20 }
  - { offset: 0xD16E5, size: 0x8, addend: 0x0, symName: __ZNSt3__123__libcpp_numeric_limitsIlLb1EE3maxB9nqe210106Ev, symObjAddr: 0x9B40, symBinAddr: 0x114F0, symSize: 0x10 }
  - { offset: 0xD16F9, size: 0x8, addend: 0x0, symName: __ZNSt12length_errorC1B9nqe210106EPKc, symObjAddr: 0x9BB0, symBinAddr: 0x11560, symSize: 0x30 }
  - { offset: 0xD1731, size: 0x8, addend: 0x0, symName: __ZNSt12length_errorC2B9nqe210106EPKc, symObjAddr: 0x9BE0, symBinAddr: 0x11590, symSize: 0x40 }
  - { offset: 0xD1769, size: 0x8, addend: 0x0, symName: __ZNSt3__19allocatorIN4tbin4TileEE8allocateB9nqe210106Em, symObjAddr: 0x9C20, symBinAddr: 0x115D0, symSize: 0x50 }
  - { offset: 0xD17B8, size: 0x8, addend: 0x0, symName: __ZNSt3__16vectorIN4tbin4TileENS_9allocatorIS2_EEE21_ConstructTransactionC1B9nqe210106ERS5_m, symObjAddr: 0x9E10, symBinAddr: 0x116C0, symSize: 0x30 }
  - { offset: 0xD1800, size: 0x8, addend: 0x0, symName: __ZNSt3__16vectorIN4tbin4TileENS_9allocatorIS2_EEE21_ConstructTransactionD1B9nqe210106Ev, symObjAddr: 0x9EC0, symBinAddr: 0x11770, symSize: 0x20 }
  - { offset: 0xD182A, size: 0x8, addend: 0x0, symName: __ZNSt3__16vectorIN4tbin4TileENS_9allocatorIS2_EEE21_ConstructTransactionC2B9nqe210106ERS5_m, symObjAddr: 0x9EE0, symBinAddr: 0x11790, symSize: 0x60 }
  - { offset: 0xD1872, size: 0x8, addend: 0x0, symName: __ZNKSt3__16vectorIN4tbin4TileENS_9allocatorIS2_EEE19__annotate_increaseB9nqe210106Em, symObjAddr: 0x9F40, symBinAddr: 0x117F0, symSize: 0x90 }
  - { offset: 0xD18C9, size: 0x8, addend: 0x0, symName: __ZNSt3__14pairIPN4tbin4TileES3_EC1B9nqe210106IS3_S3_Li0EEEOT_OT0_, symObjAddr: 0xA1A0, symBinAddr: 0x11A50, symSize: 0x30 }
  - { offset: 0xD1927, size: 0x8, addend: 0x0, symName: __ZNSt3__14pairIPN4tbin4TileES3_EC2B9nqe210106IS3_S3_Li0EEEOT_OT0_, symObjAddr: 0xA1D0, symBinAddr: 0x11A80, symSize: 0x30 }
  - { offset: 0xD1985, size: 0x8, addend: 0x0, symName: __ZNSt3__129_AllocatorDestroyRangeReverseINS_9allocatorIN4tbin4TileEEEPS3_EC1B9nqe210106ERS4_RS5_S8_, symObjAddr: 0xA260, symBinAddr: 0x11B10, symSize: 0x40 }
  - { offset: 0xD19DC, size: 0x8, addend: 0x0, symName: __ZNSt3__116allocator_traitsINS_9allocatorIN4tbin4TileEEEE9constructB9nqe210106IS3_JRS3_ELi0EEEvRS4_PT_DpOT0_, symObjAddr: 0xA2A0, symBinAddr: 0x11B50, symSize: 0x30 }
  - { offset: 0xD1A3A, size: 0x8, addend: 0x0, symName: __ZNSt3__128__exception_guard_exceptionsINS_29_AllocatorDestroyRangeReverseINS_9allocatorIN4tbin4TileEEEPS4_EEE10__completeB9nqe210106Ev, symObjAddr: 0xA2D0, symBinAddr: 0x11B80, symSize: 0x20 }
  - { offset: 0xD1A60, size: 0x8, addend: 0x0, symName: __ZNSt3__128__exception_guard_exceptionsINS_29_AllocatorDestroyRangeReverseINS_9allocatorIN4tbin4TileEEEPS4_EEED1B9nqe210106Ev, symObjAddr: 0xA2F0, symBinAddr: 0x11BA0, symSize: 0x20 }
  - { offset: 0xD1A8A, size: 0x8, addend: 0x0, symName: __ZNSt3__128__exception_guard_exceptionsINS_29_AllocatorDestroyRangeReverseINS_9allocatorIN4tbin4TileEEEPS4_EEEC1B9nqe210106ES7_, symObjAddr: 0xA310, symBinAddr: 0x11BC0, symSize: 0x40 }
  - { offset: 0xD1AC2, size: 0x8, addend: 0x0, symName: __ZNSt3__128__exception_guard_exceptionsINS_29_AllocatorDestroyRangeReverseINS_9allocatorIN4tbin4TileEEEPS4_EEEC2B9nqe210106ES7_, symObjAddr: 0xA350, symBinAddr: 0x11C00, symSize: 0x30 }
  - { offset: 0xD1AFA, size: 0x8, addend: 0x0, symName: __ZNSt3__129_AllocatorDestroyRangeReverseINS_9allocatorIN4tbin4TileEEEPS3_EC2B9nqe210106ERS4_RS5_S8_, symObjAddr: 0xA380, symBinAddr: 0x11C30, symSize: 0x40 }
  - { offset: 0xD1B51, size: 0x8, addend: 0x0, symName: __ZNSt3__19allocatorIN4tbin4TileEE9constructB9nqe210106IS2_JRS2_EEEvPT_DpOT0_, symObjAddr: 0xA3C0, symBinAddr: 0x11C70, symSize: 0x30 }
  - { offset: 0xD1BA9, size: 0x8, addend: 0x0, symName: __ZNSt3__128__exception_guard_exceptionsINS_29_AllocatorDestroyRangeReverseINS_9allocatorIN4tbin4TileEEEPS4_EEED2B9nqe210106Ev, symObjAddr: 0xA3F0, symBinAddr: 0x11CA0, symSize: 0x40 }
  - { offset: 0xD1BD3, size: 0x8, addend: 0x0, symName: __ZNKSt3__129_AllocatorDestroyRangeReverseINS_9allocatorIN4tbin4TileEEEPS3_EclB9nqe210106Ev, symObjAddr: 0xA430, symBinAddr: 0x11CE0, symSize: 0x60 }
  - { offset: 0xD1BF9, size: 0x8, addend: 0x0, symName: __ZNSt3__116reverse_iteratorIPN4tbin4TileEEC1B9nqe210106ES3_, symObjAddr: 0xA4F0, symBinAddr: 0x11DA0, symSize: 0x30 }
  - { offset: 0xD1C31, size: 0x8, addend: 0x0, symName: __ZNKSt3__116reverse_iteratorIPN4tbin4TileEEdeB9nqe210106Ev, symObjAddr: 0xA590, symBinAddr: 0x11E10, symSize: 0x30 }
  - { offset: 0xD1C65, size: 0x8, addend: 0x0, symName: __ZNSt3__116reverse_iteratorIPN4tbin4TileEEppB9nqe210106Ev, symObjAddr: 0xA5C0, symBinAddr: 0x11E40, symSize: 0x20 }
  - { offset: 0xD1C8B, size: 0x8, addend: 0x0, symName: __ZNKSt3__116reverse_iteratorIPN4tbin4TileEE4baseB9nqe210106Ev, symObjAddr: 0xA5E0, symBinAddr: 0x11E60, symSize: 0x20 }
  - { offset: 0xD1CB1, size: 0x8, addend: 0x0, symName: __ZNSt3__116reverse_iteratorIPN4tbin4TileEEC2B9nqe210106ES3_, symObjAddr: 0xA620, symBinAddr: 0x11E80, symSize: 0x30 }
  - { offset: 0xD1CE9, size: 0x8, addend: 0x0, symName: __ZNSt3__118__unwrap_iter_implIPN4tbin4TileELb1EE8__unwrapB9nqe210106ES3_, symObjAddr: 0xA650, symBinAddr: 0x11EB0, symSize: 0x20 }
  - { offset: 0xD1D0C, size: 0x8, addend: 0x0, symName: __ZNSt3__118__unwrap_iter_implIPN4tbin4TileELb1EE8__rewrapB9nqe210106ES3_S3_, symObjAddr: 0xA670, symBinAddr: 0x11ED0, symSize: 0x60 }
  - { offset: 0xD1D3D, size: 0x8, addend: 0x0, symName: __ZNSt3__16vectorIN4tbin4TileENS_9allocatorIS2_EEE21_ConstructTransactionD2B9nqe210106Ev, symObjAddr: 0xA6D0, symBinAddr: 0x11F30, symSize: 0x60 }
  - { offset: 0xD1D67, size: 0x8, addend: 0x0, symName: __ZNSt3__128__exception_guard_exceptionsINS_6vectorIN4tbin4TileENS_9allocatorIS3_EEE16__destroy_vectorEED2B9nqe210106Ev, symObjAddr: 0xA7A0, symBinAddr: 0x11F90, symSize: 0x40 }
  - { offset: 0xD1D91, size: 0x8, addend: 0x0, symName: __ZNSt3__13mapINS_12basic_stringIcNS_11char_traitsIcEENS_9allocatorIcEEEEN4tbin13PropertyValueENS_4lessIS6_EENS4_INS_4pairIKS6_S8_EEEEEC2B9nqe210106ERKSF_, symObjAddr: 0xAA40, symBinAddr: 0x11FD0, symSize: 0x80 }
  - { offset: 0xD1DCA, size: 0x8, addend: 0x0, symName: __ZNSt3__16__treeINS_12__value_typeINS_12basic_stringIcNS_11char_traitsIcEENS_9allocatorIcEEEEN4tbin13PropertyValueEEENS_19__map_value_compareIS7_NS_4pairIKS7_S9_EENS_4lessIS7_EELb1EEENS5_ISE_EEEC1ERKSJ_, symObjAddr: 0xAAC0, symBinAddr: 0x12050, symSize: 0x30 }
  - { offset: 0xD1E05, size: 0x8, addend: 0x0, symName: __ZNSt3__13mapINS_12basic_stringIcNS_11char_traitsIcEENS_9allocatorIcEEEEN4tbin13PropertyValueENS_4lessIS6_EENS4_INS_4pairIKS6_S8_EEEEE6insertB9nqe210106INS_20__map_const_iteratorINS_21__tree_const_iteratorINS_12__value_typeIS6_S8_EEPNS_11__tree_nodeISK_PvEElEEEEEEvT_SR_, symObjAddr: 0xAAF0, symBinAddr: 0x12080, symSize: 0x80 }
  - { offset: 0xD1E70, size: 0x8, addend: 0x0, symName: __ZNSt3__16__treeINS_12__value_typeINS_12basic_stringIcNS_11char_traitsIcEENS_9allocatorIcEEEEN4tbin13PropertyValueEEENS_19__map_value_compareIS7_NS_4pairIKS7_S9_EENS_4lessIS7_EELb1EEENS5_ISE_EEEC2ERKSJ_, symObjAddr: 0xAB90, symBinAddr: 0x12100, symSize: 0x80 }
  - { offset: 0xD1EB6, size: 0x8, addend: 0x0, symName: __ZNSt3__116allocator_traitsINS_9allocatorINS_11__tree_nodeINS_12__value_typeINS_12basic_stringIcNS_11char_traitsIcEENS1_IcEEEEN4tbin13PropertyValueEEEPvEEEEE37select_on_container_copy_constructionB9nqe210106ISE_Li0EEESE_RKSE_, symObjAddr: 0xAC30, symBinAddr: 0x12180, symSize: 0x10 }
  - { offset: 0xD1EE9, size: 0x8, addend: 0x0, symName: __ZNKSt3__16__treeINS_12__value_typeINS_12basic_stringIcNS_11char_traitsIcEENS_9allocatorIcEEEEN4tbin13PropertyValueEEENS_19__map_value_compareIS7_NS_4pairIKS7_S9_EENS_4lessIS7_EELb1EEENS5_ISE_EEE12__node_allocB9nqe210106Ev, symObjAddr: 0xAC40, symBinAddr: 0x12190, symSize: 0x20 }
  - { offset: 0xD1F0F, size: 0x8, addend: 0x0, symName: __ZNKSt3__16__treeINS_12__value_typeINS_12basic_stringIcNS_11char_traitsIcEENS_9allocatorIcEEEEN4tbin13PropertyValueEEENS_19__map_value_compareIS7_NS_4pairIKS7_S9_EENS_4lessIS7_EELb1EEENS5_ISE_EEE10value_compB9nqe210106Ev, symObjAddr: 0xAC60, symBinAddr: 0x121B0, symSize: 0x20 }
  - { offset: 0xD1F35, size: 0x8, addend: 0x0, symName: __ZNKSt3__13mapINS_12basic_stringIcNS_11char_traitsIcEENS_9allocatorIcEEEEN4tbin13PropertyValueENS_4lessIS6_EENS4_INS_4pairIKS6_S8_EEEEE4cendB9nqe210106Ev, symObjAddr: 0xACE0, symBinAddr: 0x121D0, symSize: 0x30 }
  - { offset: 0xD1F5B, size: 0x8, addend: 0x0, symName: __ZNSt3__13mapINS_12basic_stringIcNS_11char_traitsIcEENS_9allocatorIcEEEEN4tbin13PropertyValueENS_4lessIS6_EENS4_INS_4pairIKS6_S8_EEEEE6insertB9nqe210106ENS_20__map_const_iteratorINS_21__tree_const_iteratorINS_12__value_typeIS6_S8_EEPNS_11__tree_nodeISJ_PvEElEEEERKSD_, symObjAddr: 0xAD10, symBinAddr: 0x12200, symSize: 0x50 }
  - { offset: 0xD1F9F, size: 0x8, addend: 0x0, symName: __ZNSt3__120__map_const_iteratorINS_21__tree_const_iteratorINS_12__value_typeINS_12basic_stringIcNS_11char_traitsIcEENS_9allocatorIcEEEEN4tbin13PropertyValueEEEPNS_11__tree_nodeISB_PvEElEEEC1B9nqe210106ESG_, symObjAddr: 0xAD60, symBinAddr: 0x12250, symSize: 0x30 }
  - { offset: 0xD1FD8, size: 0x8, addend: 0x0, symName: __ZNSt3__16__treeINS_12__value_typeINS_12basic_stringIcNS_11char_traitsIcEENS_9allocatorIcEEEEN4tbin13PropertyValueEEENS_19__map_value_compareIS7_NS_4pairIKS7_S9_EENS_4lessIS7_EELb1EEENS5_ISE_EEE21__emplace_hint_uniqueB9nqe210106IRKSE_EENS_15__tree_iteratorISA_PNS_11__tree_nodeISA_PvEElEENS_21__tree_const_iteratorISA_SR_lEEOT_, symObjAddr: 0xAD90, symBinAddr: 0x12280, symSize: 0x40 }
  - { offset: 0xD2025, size: 0x8, addend: 0x0, symName: __ZNSt3__114__map_iteratorINS_15__tree_iteratorINS_12__value_typeINS_12basic_stringIcNS_11char_traitsIcEENS_9allocatorIcEEEEN4tbin13PropertyValueEEEPNS_11__tree_nodeISB_PvEElEEEC1B9nqe210106ESG_, symObjAddr: 0xADD0, symBinAddr: 0x122C0, symSize: 0x30 }
  - { offset: 0xD205E, size: 0x8, addend: 0x0, symName: __ZNSt3__16__treeINS_12__value_typeINS_12basic_stringIcNS_11char_traitsIcEENS_9allocatorIcEEEEN4tbin13PropertyValueEEENS_19__map_value_compareIS7_NS_4pairIKS7_S9_EENS_4lessIS7_EELb1EEENS5_ISE_EEE33__emplace_hint_unique_extract_keyB9nqe210106IRKSE_EENS_15__tree_iteratorISA_PNS_11__tree_nodeISA_PvEElEENS_21__tree_const_iteratorISA_SR_lEEOT_NS_23__extract_key_first_tagE, symObjAddr: 0xAE00, symBinAddr: 0x122F0, symSize: 0x60 }
  - { offset: 0xD20B7, size: 0x8, addend: 0x0, symName: __ZNSt3__16__treeINS_12__value_typeINS_12basic_stringIcNS_11char_traitsIcEENS_9allocatorIcEEEEN4tbin13PropertyValueEEENS_19__map_value_compareIS7_NS_4pairIKS7_S9_EENS_4lessIS7_EELb1EEENS5_ISE_EEE30__emplace_hint_unique_key_argsIS7_JRKSE_EEENSC_INS_15__tree_iteratorISA_PNS_11__tree_nodeISA_PvEElEEbEENS_21__tree_const_iteratorISA_SR_lEERKT_DpOT0_, symObjAddr: 0xAE60, symBinAddr: 0x12350, symSize: 0x110 }
  - { offset: 0xD218D, size: 0x8, addend: 0x0, symName: __ZNSt3__16__treeINS_12__value_typeINS_12basic_stringIcNS_11char_traitsIcEENS_9allocatorIcEEEEN4tbin13PropertyValueEEENS_19__map_value_compareIS7_NS_4pairIKS7_S9_EENS_4lessIS7_EELb1EEENS5_ISE_EEE12__find_equalIS7_EERPNS_16__tree_node_baseIPvEENS_21__tree_const_iteratorISA_PNS_11__tree_nodeISA_SM_EElEERPNS_15__tree_end_nodeISO_EESP_RKT_, symObjAddr: 0xAF70, symBinAddr: 0x12460, symSize: 0x2F0 }
  - { offset: 0xD2236, size: 0x8, addend: 0x0, symName: __ZNSt3__16__treeINS_12__value_typeINS_12basic_stringIcNS_11char_traitsIcEENS_9allocatorIcEEEEN4tbin13PropertyValueEEENS_19__map_value_compareIS7_NS_4pairIKS7_S9_EENS_4lessIS7_EELb1EEENS5_ISE_EEE16__construct_nodeIJRKSE_EEENS_10unique_ptrINS_11__tree_nodeISA_PvEENS_22__tree_node_destructorINS5_ISQ_EEEEEEDpOT_, symObjAddr: 0xB260, symBinAddr: 0x12750, symSize: 0xE0 }
  - { offset: 0xD2297, size: 0x8, addend: 0x0, symName: __ZNSt3__16__treeINS_12__value_typeINS_12basic_stringIcNS_11char_traitsIcEENS_9allocatorIcEEEEN4tbin13PropertyValueEEENS_19__map_value_compareIS7_NS_4pairIKS7_S9_EENS_4lessIS7_EELb1EEENS5_ISE_EEE16__insert_node_atEPNS_15__tree_end_nodeIPNS_16__tree_node_baseIPvEEEERSO_SO_, symObjAddr: 0xB340, symBinAddr: 0x12830, symSize: 0xB0 }
  - { offset: 0xD22EC, size: 0x8, addend: 0x0, symName: __ZNKSt3__110unique_ptrINS_11__tree_nodeINS_12__value_typeINS_12basic_stringIcNS_11char_traitsIcEENS_9allocatorIcEEEEN4tbin13PropertyValueEEEPvEENS_22__tree_node_destructorINS6_ISD_EEEEE3getB9nqe210106Ev, symObjAddr: 0xB3F0, symBinAddr: 0x128E0, symSize: 0x20 }
  - { offset: 0xD2312, size: 0x8, addend: 0x0, symName: __ZNSt3__110unique_ptrINS_11__tree_nodeINS_12__value_typeINS_12basic_stringIcNS_11char_traitsIcEENS_9allocatorIcEEEEN4tbin13PropertyValueEEEPvEENS_22__tree_node_destructorINS6_ISD_EEEEE7releaseB9nqe210106Ev, symObjAddr: 0xB410, symBinAddr: 0x12900, symSize: 0x20 }
  - { offset: 0xD2347, size: 0x8, addend: 0x0, symName: __ZNSt3__110unique_ptrINS_11__tree_nodeINS_12__value_typeINS_12basic_stringIcNS_11char_traitsIcEENS_9allocatorIcEEEEN4tbin13PropertyValueEEEPvEENS_22__tree_node_destructorINS6_ISD_EEEEED1B9nqe210106Ev, symObjAddr: 0xB430, symBinAddr: 0x12920, symSize: 0x20 }
  - { offset: 0xD2371, size: 0x8, addend: 0x0, symName: __ZNSt3__115__tree_iteratorINS_12__value_typeINS_12basic_stringIcNS_11char_traitsIcEENS_9allocatorIcEEEEN4tbin13PropertyValueEEEPNS_11__tree_nodeISA_PvEElEC1B9nqe210106ESE_, symObjAddr: 0xB450, symBinAddr: 0x12940, symSize: 0x30 }
  - { offset: 0xD23B0, size: 0x8, addend: 0x0, symName: __ZNSt3__14pairINS_15__tree_iteratorINS_12__value_typeINS_12basic_stringIcNS_11char_traitsIcEENS_9allocatorIcEEEEN4tbin13PropertyValueEEEPNS_11__tree_nodeISB_PvEElEEbEC1B9nqe210106ISG_RbLi0EEEOT_OT0_, symObjAddr: 0xB480, symBinAddr: 0x12970, symSize: 0x30 }
  - { offset: 0xD240E, size: 0x8, addend: 0x0, symName: __ZNSt3__16__treeINS_12__value_typeINS_12basic_stringIcNS_11char_traitsIcEENS_9allocatorIcEEEEN4tbin13PropertyValueEEENS_19__map_value_compareIS7_NS_4pairIKS7_S9_EENS_4lessIS7_EELb1EEENS5_ISE_EEE3endB9nqe210106Ev, symObjAddr: 0xB4E0, symBinAddr: 0x129D0, symSize: 0x30 }
  - { offset: 0xD2434, size: 0x8, addend: 0x0, symName: __ZNSt3__121__tree_const_iteratorINS_12__value_typeINS_12basic_stringIcNS_11char_traitsIcEENS_9allocatorIcEEEEN4tbin13PropertyValueEEEPNS_11__tree_nodeISA_PvEElEC1B9nqe210106ENS_15__tree_iteratorISA_SE_lEE, symObjAddr: 0xB510, symBinAddr: 0x12A00, symSize: 0x30 }
  - { offset: 0xD246D, size: 0x8, addend: 0x0, symName: __ZNSt3__16__treeINS_12__value_typeINS_12basic_stringIcNS_11char_traitsIcEENS_9allocatorIcEEEEN4tbin13PropertyValueEEENS_19__map_value_compareIS7_NS_4pairIKS7_S9_EENS_4lessIS7_EELb1EEENS5_ISE_EEE10value_compB9nqe210106Ev, symObjAddr: 0xB540, symBinAddr: 0x12A30, symSize: 0x20 }
  - { offset: 0xD2493, size: 0x8, addend: 0x0, symName: __ZNKSt3__119__map_value_compareINS_12basic_stringIcNS_11char_traitsIcEENS_9allocatorIcEEEENS_4pairIKS6_N4tbin13PropertyValueEEENS_4lessIS6_EELb1EEclB9nqe210106ERS8_RKSB_, symObjAddr: 0xB560, symBinAddr: 0x12A50, symSize: 0x30 }
  - { offset: 0xD24D7, size: 0x8, addend: 0x0, symName: __ZNKSt3__121__tree_const_iteratorINS_12__value_typeINS_12basic_stringIcNS_11char_traitsIcEENS_9allocatorIcEEEEN4tbin13PropertyValueEEEPNS_11__tree_nodeISA_PvEElEdeB9nqe210106Ev, symObjAddr: 0xB590, symBinAddr: 0x12A80, symSize: 0x20 }
  - { offset: 0xD24FD, size: 0x8, addend: 0x0, symName: __ZNSt3__16__treeINS_12__value_typeINS_12basic_stringIcNS_11char_traitsIcEENS_9allocatorIcEEEEN4tbin13PropertyValueEEENS_19__map_value_compareIS7_NS_4pairIKS7_S9_EENS_4lessIS7_EELb1EEENS5_ISE_EEE5beginB9nqe210106Ev, symObjAddr: 0xB5B0, symBinAddr: 0x12AA0, symSize: 0x30 }
  - { offset: 0xD2523, size: 0x8, addend: 0x0, symName: __ZNKSt3__119__map_value_compareINS_12basic_stringIcNS_11char_traitsIcEENS_9allocatorIcEEEENS_4pairIKS6_N4tbin13PropertyValueEEENS_4lessIS6_EELb1EEclB9nqe210106ERKSB_RS8_, symObjAddr: 0xB5E0, symBinAddr: 0x12AD0, symSize: 0x30 }
  - { offset: 0xD2567, size: 0x8, addend: 0x0, symName: __ZNSt3__121__tree_const_iteratorINS_12__value_typeINS_12basic_stringIcNS_11char_traitsIcEENS_9allocatorIcEEEEN4tbin13PropertyValueEEEPNS_11__tree_nodeISA_PvEElEmmB9nqe210106Ev, symObjAddr: 0xB610, symBinAddr: 0x12B00, symSize: 0x30 }
  - { offset: 0xD258D, size: 0x8, addend: 0x0, symName: __ZNSt3__16__treeINS_12__value_typeINS_12basic_stringIcNS_11char_traitsIcEENS_9allocatorIcEEEEN4tbin13PropertyValueEEENS_19__map_value_compareIS7_NS_4pairIKS7_S9_EENS_4lessIS7_EELb1EEENS5_ISE_EEE12__find_equalIS7_EERPNS_16__tree_node_baseIPvEERPNS_15__tree_end_nodeISO_EERKT_, symObjAddr: 0xB640, symBinAddr: 0x12B30, symSize: 0x150 }
  - { offset: 0xD25F8, size: 0x8, addend: 0x0, symName: __ZNKSt3__121__tree_const_iteratorINS_12__value_typeINS_12basic_stringIcNS_11char_traitsIcEENS_9allocatorIcEEEEN4tbin13PropertyValueEEEPNS_11__tree_nodeISA_PvEElE8__get_npB9nqe210106Ev, symObjAddr: 0xB7C0, symBinAddr: 0x12CB0, symSize: 0x20 }
  - { offset: 0xD261E, size: 0x8, addend: 0x0, symName: __ZNSt3__115__tree_iteratorINS_12__value_typeINS_12basic_stringIcNS_11char_traitsIcEENS_9allocatorIcEEEEN4tbin13PropertyValueEEEPNS_11__tree_nodeISA_PvEElEC1B9nqe210106EPNS_15__tree_end_nodeIPNS_16__tree_node_baseISC_EEEE, symObjAddr: 0xB7E0, symBinAddr: 0x12CD0, symSize: 0x30 }
  - { offset: 0xD2657, size: 0x8, addend: 0x0, symName: __ZNSt3__115__tree_iteratorINS_12__value_typeINS_12basic_stringIcNS_11char_traitsIcEENS_9allocatorIcEEEEN4tbin13PropertyValueEEEPNS_11__tree_nodeISA_PvEElEC2B9nqe210106EPNS_15__tree_end_nodeIPNS_16__tree_node_baseISC_EEEE, symObjAddr: 0xB810, symBinAddr: 0x12D00, symSize: 0x20 }
  - { offset: 0xD2690, size: 0x8, addend: 0x0, symName: __ZNSt3__121__tree_const_iteratorINS_12__value_typeINS_12basic_stringIcNS_11char_traitsIcEENS_9allocatorIcEEEEN4tbin13PropertyValueEEEPNS_11__tree_nodeISA_PvEElEC2B9nqe210106ENS_15__tree_iteratorISA_SE_lEE, symObjAddr: 0xB830, symBinAddr: 0x12D20, symSize: 0x20 }
  - { offset: 0xD26C9, size: 0x8, addend: 0x0, symName: __ZNKSt3__14lessINS_12basic_stringIcNS_11char_traitsIcEENS_9allocatorIcEEEEEclB9nqe210106ERKS6_S9_, symObjAddr: 0xB850, symBinAddr: 0x12D40, symSize: 0x30 }
  - { offset: 0xD270D, size: 0x8, addend: 0x0, symName: __ZNKSt3__112basic_stringIcNS_11char_traitsIcEENS_9allocatorIcEEE7compareB9nqe210106ERKS5_, symObjAddr: 0xB8B0, symBinAddr: 0x12DA0, symSize: 0x40 }
  - { offset: 0xD2742, size: 0x8, addend: 0x0, symName: __ZNKSt3__112basic_stringIcNS_11char_traitsIcEENS_9allocatorIcEEE7compareB9nqe210106INS_17basic_string_viewIcS2_EELi0EEEiRKT_, symObjAddr: 0xB8F0, symBinAddr: 0x12DE0, symSize: 0xD0 }
  - { offset: 0xD27C3, size: 0x8, addend: 0x0, symName: __ZNKSt3__112basic_stringIcNS_11char_traitsIcEENS_9allocatorIcEEEcvNS_17basic_string_viewIcS2_EEB9nqe210106Ev, symObjAddr: 0xB9C0, symBinAddr: 0x12EB0, symSize: 0x50 }
  - { offset: 0xD27E9, size: 0x8, addend: 0x0, symName: __ZNKSt3__117basic_string_viewIcNS_11char_traitsIcEEE4sizeB9nqe210106Ev, symObjAddr: 0xBA10, symBinAddr: 0x12F00, symSize: 0x20 }
  - { offset: 0xD280F, size: 0x8, addend: 0x0, symName: __ZNSt3__111char_traitsIcE7compareB9nqe210106EPKcS3_m, symObjAddr: 0xBA30, symBinAddr: 0x12F20, symSize: 0x30 }
  - { offset: 0xD284E, size: 0x8, addend: 0x0, symName: __ZNKSt3__117basic_string_viewIcNS_11char_traitsIcEEE4dataB9nqe210106Ev, symObjAddr: 0xBA60, symBinAddr: 0x12F50, symSize: 0x20 }
  - { offset: 0xD2874, size: 0x8, addend: 0x0, symName: __ZNSt3__117basic_string_viewIcNS_11char_traitsIcEEEC1B9nqe210106ENS3_14__assume_validEPKcm, symObjAddr: 0xBA80, symBinAddr: 0x12F70, symSize: 0x30 }
  - { offset: 0xD28C8, size: 0x8, addend: 0x0, symName: __ZNSt3__117basic_string_viewIcNS_11char_traitsIcEEEC2B9nqe210106ENS3_14__assume_validEPKcm, symObjAddr: 0xBAB0, symBinAddr: 0x12FA0, symSize: 0x30 }
  - { offset: 0xD291C, size: 0x8, addend: 0x0, symName: __ZNKSt3__116__tree_node_baseIPvE15__parent_unsafeB9nqe210106Ev, symObjAddr: 0xBBC0, symBinAddr: 0x130B0, symSize: 0x20 }
  - { offset: 0xD2942, size: 0x8, addend: 0x0, symName: __ZNKSt3__16__treeINS_12__value_typeINS_12basic_stringIcNS_11char_traitsIcEENS_9allocatorIcEEEEN4tbin13PropertyValueEEENS_19__map_value_compareIS7_NS_4pairIKS7_S9_EENS_4lessIS7_EELb1EEENS5_ISE_EEE10__root_ptrB9nqe210106Ev, symObjAddr: 0xBC00, symBinAddr: 0x130D0, symSize: 0x20 }
  - { offset: 0xD2968, size: 0x8, addend: 0x0, symName: __ZNSt3__121__tree_const_iteratorINS_12__value_typeINS_12basic_stringIcNS_11char_traitsIcEENS_9allocatorIcEEEEN4tbin13PropertyValueEEEPNS_11__tree_nodeISA_PvEElEppB9nqe210106Ev, symObjAddr: 0xBCF0, symBinAddr: 0x131A0, symSize: 0x30 }
  - { offset: 0xD298E, size: 0x8, addend: 0x0, symName: __ZNSt3__116allocator_traitsINS_9allocatorINS_11__tree_nodeINS_12__value_typeINS_12basic_stringIcNS_11char_traitsIcEENS1_IcEEEEN4tbin13PropertyValueEEEPvEEEEE8allocateB9nqe210106ERSE_m, symObjAddr: 0xBDE0, symBinAddr: 0x13270, symSize: 0x30 }
  - { offset: 0xD29C1, size: 0x8, addend: 0x0, symName: __ZNSt3__122__tree_node_destructorINS_9allocatorINS_11__tree_nodeINS_12__value_typeINS_12basic_stringIcNS_11char_traitsIcEENS1_IcEEEEN4tbin13PropertyValueEEEPvEEEEEC1B9nqe210106ERSE_b, symObjAddr: 0xBE10, symBinAddr: 0x132A0, symSize: 0x40 }
  - { offset: 0xD2A0F, size: 0x8, addend: 0x0, symName: __ZNSt3__110unique_ptrINS_11__tree_nodeINS_12__value_typeINS_12basic_stringIcNS_11char_traitsIcEENS_9allocatorIcEEEEN4tbin13PropertyValueEEEPvEENS_22__tree_node_destructorINS6_ISD_EEEEEC1B9nqe210106ILb1EvEEPSD_NS_16__dependent_typeINS_27__unique_ptr_deleter_sfinaeISG_EEXT_EE20__good_rval_ref_typeE, symObjAddr: 0xBE50, symBinAddr: 0x132E0, symSize: 0x30 }
  - { offset: 0xD2A60, size: 0x8, addend: 0x0, symName: __ZNSt3__116allocator_traitsINS_9allocatorINS_11__tree_nodeINS_12__value_typeINS_12basic_stringIcNS_11char_traitsIcEENS1_IcEEEEN4tbin13PropertyValueEEEPvEEEEE9constructB9nqe210106INS_4pairIKS8_SA_EEJRKSJ_ELi0EEEvRSE_PT_DpOT0_, symObjAddr: 0xBE80, symBinAddr: 0x13310, symSize: 0x30 }
  - { offset: 0xD2ABE, size: 0x8, addend: 0x0, symName: __ZNKSt3__110unique_ptrINS_11__tree_nodeINS_12__value_typeINS_12basic_stringIcNS_11char_traitsIcEENS_9allocatorIcEEEEN4tbin13PropertyValueEEEPvEENS_22__tree_node_destructorINS6_ISD_EEEEEptB9nqe210106Ev, symObjAddr: 0xBEB0, symBinAddr: 0x13340, symSize: 0x20 }
  - { offset: 0xD2AE4, size: 0x8, addend: 0x0, symName: __ZNSt3__110unique_ptrINS_11__tree_nodeINS_12__value_typeINS_12basic_stringIcNS_11char_traitsIcEENS_9allocatorIcEEEEN4tbin13PropertyValueEEEPvEENS_22__tree_node_destructorINS6_ISD_EEEEE11get_deleterB9nqe210106Ev, symObjAddr: 0xBED0, symBinAddr: 0x13360, symSize: 0x20 }
  - { offset: 0xD2B0A, size: 0x8, addend: 0x0, symName: __ZNSt3__19allocatorINS_11__tree_nodeINS_12__value_typeINS_12basic_stringIcNS_11char_traitsIcEENS0_IcEEEEN4tbin13PropertyValueEEEPvEEE8allocateB9nqe210106Em, symObjAddr: 0xBEF0, symBinAddr: 0x13380, symSize: 0x50 }
  - { offset: 0xD2B3E, size: 0x8, addend: 0x0, symName: __ZNSt3__116allocator_traitsINS_9allocatorINS_11__tree_nodeINS_12__value_typeINS_12basic_stringIcNS_11char_traitsIcEENS1_IcEEEEN4tbin13PropertyValueEEEPvEEEEE8max_sizeB9nqe210106ISE_Li0EEEmRKSE_, symObjAddr: 0xBF40, symBinAddr: 0x133D0, symSize: 0x20 }
  - { offset: 0xD2B71, size: 0x8, addend: 0x0, symName: __ZNKSt3__19allocatorINS_11__tree_nodeINS_12__value_typeINS_12basic_stringIcNS_11char_traitsIcEENS0_IcEEEEN4tbin13PropertyValueEEEPvEEE8max_sizeB9nqe210106Ev, symObjAddr: 0xBFC0, symBinAddr: 0x13450, symSize: 0x20 }
  - { offset: 0xD2B97, size: 0x8, addend: 0x0, symName: __ZNSt3__122__tree_node_destructorINS_9allocatorINS_11__tree_nodeINS_12__value_typeINS_12basic_stringIcNS_11char_traitsIcEENS1_IcEEEEN4tbin13PropertyValueEEEPvEEEEEC2B9nqe210106ERSE_b, symObjAddr: 0xBFE0, symBinAddr: 0x13470, symSize: 0x30 }
  - { offset: 0xD2BDF, size: 0x8, addend: 0x0, symName: __ZNSt3__110unique_ptrINS_11__tree_nodeINS_12__value_typeINS_12basic_stringIcNS_11char_traitsIcEENS_9allocatorIcEEEEN4tbin13PropertyValueEEEPvEENS_22__tree_node_destructorINS6_ISD_EEEEEC2B9nqe210106ILb1EvEEPSD_NS_16__dependent_typeINS_27__unique_ptr_deleter_sfinaeISG_EEXT_EE20__good_rval_ref_typeE, symObjAddr: 0xC010, symBinAddr: 0x134A0, symSize: 0x50 }
  - { offset: 0xD2C35, size: 0x8, addend: 0x0, symName: __ZNSt3__125__compressed_pair_paddingINS_22__tree_node_destructorINS_9allocatorINS_11__tree_nodeINS_12__value_typeINS_12basic_stringIcNS_11char_traitsIcEENS2_IcEEEEN4tbin13PropertyValueEEEPvEEEEEELb0EEC1Ev, symObjAddr: 0xC060, symBinAddr: 0x134F0, symSize: 0x20 }
  - { offset: 0xD2C61, size: 0x8, addend: 0x0, symName: __ZNSt3__125__compressed_pair_paddingINS_22__tree_node_destructorINS_9allocatorINS_11__tree_nodeINS_12__value_typeINS_12basic_stringIcNS_11char_traitsIcEENS2_IcEEEEN4tbin13PropertyValueEEEPvEEEEEELb0EEC2Ev, symObjAddr: 0xC080, symBinAddr: 0x13510, symSize: 0x40 }
  - { offset: 0xD2C8D, size: 0x8, addend: 0x0, symName: __ZNSt3__19allocatorINS_11__tree_nodeINS_12__value_typeINS_12basic_stringIcNS_11char_traitsIcEENS0_IcEEEEN4tbin13PropertyValueEEEPvEEE9constructB9nqe210106INS_4pairIKS7_S9_EEJRKSH_EEEvPT_DpOT0_, symObjAddr: 0xC0C0, symBinAddr: 0x13550, symSize: 0x30 }
  - { offset: 0xD2CE5, size: 0x8, addend: 0x0, symName: __ZNSt3__14pairIKNS_12basic_stringIcNS_11char_traitsIcEENS_9allocatorIcEEEEN4tbin13PropertyValueEEC1B9nqe210106ERKSA_, symObjAddr: 0xC0F0, symBinAddr: 0x13580, symSize: 0x30 }
  - { offset: 0xD2D1A, size: 0x8, addend: 0x0, symName: __ZNSt3__14pairIKNS_12basic_stringIcNS_11char_traitsIcEENS_9allocatorIcEEEEN4tbin13PropertyValueEEC2B9nqe210106ERKSA_, symObjAddr: 0xC120, symBinAddr: 0x135B0, symSize: 0x60 }
  - { offset: 0xD2D4F, size: 0x8, addend: 0x0, symName: __ZNSt3__16__treeINS_12__value_typeINS_12basic_stringIcNS_11char_traitsIcEENS_9allocatorIcEEEEN4tbin13PropertyValueEEENS_19__map_value_compareIS7_NS_4pairIKS7_S9_EENS_4lessIS7_EELb1EEENS5_ISE_EEE4sizeB9nqe210106Ev, symObjAddr: 0xC390, symBinAddr: 0x13820, symSize: 0x20 }
  - { offset: 0xD2D75, size: 0x8, addend: 0x0, symName: __ZNSt3__116__tree_node_baseIPvE12__set_parentB9nqe210106EPS2_, symObjAddr: 0xC520, symBinAddr: 0x139B0, symSize: 0x20 }
  - { offset: 0xD2DAA, size: 0x8, addend: 0x0, symName: __ZNSt3__110unique_ptrINS_11__tree_nodeINS_12__value_typeINS_12basic_stringIcNS_11char_traitsIcEENS_9allocatorIcEEEEN4tbin13PropertyValueEEEPvEENS_22__tree_node_destructorINS6_ISD_EEEEED2B9nqe210106Ev, symObjAddr: 0xC540, symBinAddr: 0x139D0, symSize: 0x20 }
  - { offset: 0xD2DD4, size: 0x8, addend: 0x0, symName: __ZNSt3__110unique_ptrINS_11__tree_nodeINS_12__value_typeINS_12basic_stringIcNS_11char_traitsIcEENS_9allocatorIcEEEEN4tbin13PropertyValueEEEPvEENS_22__tree_node_destructorINS6_ISD_EEEEE5resetB9nqe210106EPSD_, symObjAddr: 0xC560, symBinAddr: 0x139F0, symSize: 0x50 }
  - { offset: 0xD2E18, size: 0x8, addend: 0x0, symName: __ZNSt3__122__tree_node_destructorINS_9allocatorINS_11__tree_nodeINS_12__value_typeINS_12basic_stringIcNS_11char_traitsIcEENS1_IcEEEEN4tbin13PropertyValueEEEPvEEEEEclB9nqe210106EPSD_, symObjAddr: 0xC5B0, symBinAddr: 0x13A40, symSize: 0x60 }
  - { offset: 0xD2E4D, size: 0x8, addend: 0x0, symName: __ZNSt3__115__tree_iteratorINS_12__value_typeINS_12basic_stringIcNS_11char_traitsIcEENS_9allocatorIcEEEEN4tbin13PropertyValueEEEPNS_11__tree_nodeISA_PvEElEC2B9nqe210106ESE_, symObjAddr: 0xC750, symBinAddr: 0x13AA0, symSize: 0x20 }
  - { offset: 0xD2E86, size: 0x8, addend: 0x0, symName: __ZNSt3__14pairINS_15__tree_iteratorINS_12__value_typeINS_12basic_stringIcNS_11char_traitsIcEENS_9allocatorIcEEEEN4tbin13PropertyValueEEEPNS_11__tree_nodeISB_PvEElEEbEC2B9nqe210106ISG_RbLi0EEEOT_OT0_, symObjAddr: 0xC770, symBinAddr: 0x13AC0, symSize: 0x30 }
  - { offset: 0xD2EE4, size: 0x8, addend: 0x0, symName: __ZNSt3__114__map_iteratorINS_15__tree_iteratorINS_12__value_typeINS_12basic_stringIcNS_11char_traitsIcEENS_9allocatorIcEEEEN4tbin13PropertyValueEEEPNS_11__tree_nodeISB_PvEElEEEC2B9nqe210106ESG_, symObjAddr: 0xC7A0, symBinAddr: 0x13AF0, symSize: 0x20 }
  - { offset: 0xD2F1D, size: 0x8, addend: 0x0, symName: __ZNSt3__120__map_const_iteratorINS_21__tree_const_iteratorINS_12__value_typeINS_12basic_stringIcNS_11char_traitsIcEENS_9allocatorIcEEEEN4tbin13PropertyValueEEEPNS_11__tree_nodeISB_PvEElEEEC2B9nqe210106ESG_, symObjAddr: 0xC7C0, symBinAddr: 0x13B10, symSize: 0x20 }
  - { offset: 0xD2F56, size: 0x8, addend: 0x0, symName: __ZNK5QListI14QSharedPointerIN5Tiled7TilesetEEE2atEx, symObjAddr: 0xC910, symBinAddr: 0x13B30, symSize: 0x70 }
  - { offset: 0xD2F8B, size: 0x8, addend: 0x0, symName: __ZN14QSharedPointerIN5Tiled7TilesetEEC1ERKS2_, symObjAddr: 0xC980, symBinAddr: 0x13BA0, symSize: 0x30 }
  - { offset: 0xD2FC4, size: 0x8, addend: 0x0, symName: __ZNK17QArrayDataPointerI14QSharedPointerIN5Tiled7TilesetEEEptEv, symObjAddr: 0xC9B0, symBinAddr: 0x13BD0, symSize: 0x10 }
  - { offset: 0xD2FEA, size: 0x8, addend: 0x0, symName: __ZNK5QListI14QSharedPointerIN5Tiled7TilesetEEE4dataEv, symObjAddr: 0xC9C0, symBinAddr: 0x13BE0, symSize: 0x30 }
  - { offset: 0xD3010, size: 0x8, addend: 0x0, symName: __ZNK17QArrayDataPointerI14QSharedPointerIN5Tiled7TilesetEEE4dataEv, symObjAddr: 0xC9F0, symBinAddr: 0x13C10, symSize: 0x20 }
  - { offset: 0xD3036, size: 0x8, addend: 0x0, symName: __ZN14QSharedPointerIN5Tiled7TilesetEEC2ERKS2_, symObjAddr: 0xCA10, symBinAddr: 0x13C30, symSize: 0x60 }
  - { offset: 0xD306F, size: 0x8, addend: 0x0, symName: __ZNK2Qt23totally_ordered_wrapperIPN5Tiled7TilesetEE3getEv, symObjAddr: 0xCA70, symBinAddr: 0x13C90, symSize: 0x20 }
  - { offset: 0xD3095, size: 0x8, addend: 0x0, symName: __ZN2Qt23totally_ordered_wrapperIPN5Tiled7TilesetEEC1ES3_, symObjAddr: 0xCA90, symBinAddr: 0x13CB0, symSize: 0x30 }
  - { offset: 0xD30CE, size: 0x8, addend: 0x0, symName: __ZNK14QSharedPointerIN5Tiled7TilesetEE3refEv, symObjAddr: 0xCAC0, symBinAddr: 0x13CE0, symSize: 0x40 }
  - { offset: 0xD30F4, size: 0x8, addend: 0x0, symName: __ZN2Qt23totally_ordered_wrapperIPN5Tiled7TilesetEEC2ES3_, symObjAddr: 0xCB00, symBinAddr: 0x13D20, symSize: 0x20 }
  - { offset: 0xD312D, size: 0x8, addend: 0x0, symName: __ZN19QBasicAtomicIntegerIiE3refEv, symObjAddr: 0xCB20, symBinAddr: 0x13D40, symSize: 0x30 }
  - { offset: 0xD3153, size: 0x8, addend: 0x0, symName: __ZN10QAtomicOpsIiE3refIiEEbRNSt3__16atomicIT_EE, symObjAddr: 0xCB50, symBinAddr: 0x13D70, symSize: 0x30 }
  - { offset: 0xD317F, size: 0x8, addend: 0x0, symName: __ZN5QListIN5Tiled5FrameEEC2Ev, symObjAddr: 0xCC60, symBinAddr: 0x13DA0, symSize: 0x20 }
  - { offset: 0xD31A9, size: 0x8, addend: 0x0, symName: __ZN17QArrayDataPointerIN5Tiled5FrameEEC1Ev, symObjAddr: 0xCC80, symBinAddr: 0x13DC0, symSize: 0x20 }
  - { offset: 0xD31D3, size: 0x8, addend: 0x0, symName: __ZN17QArrayDataPointerIN5Tiled5FrameEEC2Ev, symObjAddr: 0xCCA0, symBinAddr: 0x13DE0, symSize: 0x30 }
  - { offset: 0xD31FD, size: 0x8, addend: 0x0, symName: __ZNKSt3__111__wrap_iterIPKN4tbin4TileEE4baseB9nqe210106Ev, symObjAddr: 0xCD10, symBinAddr: 0x13E50, symSize: 0x20 }
  - { offset: 0xD3223, size: 0x8, addend: 0x0, symName: __ZN5Tiled4CellC2EPNS_4TileE, symObjAddr: 0xCD30, symBinAddr: 0x13E70, symSize: 0x90 }
  - { offset: 0xD325B, size: 0x8, addend: 0x0, symName: __ZN5QListIN5Tiled5FrameEED2Ev, symObjAddr: 0xCDC0, symBinAddr: 0x13F00, symSize: 0x20 }
  - { offset: 0xD3287, size: 0x8, addend: 0x0, symName: __ZN17QArrayDataPointerIN5Tiled5FrameEED1Ev, symObjAddr: 0xCDE0, symBinAddr: 0x13F20, symSize: 0x20 }
  - { offset: 0xD32B1, size: 0x8, addend: 0x0, symName: __ZN17QArrayDataPointerIN5Tiled5FrameEED2Ev, symObjAddr: 0xCE00, symBinAddr: 0x13F40, symSize: 0x40 }
  - { offset: 0xD32DB, size: 0x8, addend: 0x0, symName: __ZN17QArrayDataPointerIN5Tiled5FrameEE5derefEv, symObjAddr: 0xCE40, symBinAddr: 0x13F80, symSize: 0x40 }
  - { offset: 0xD3301, size: 0x8, addend: 0x0, symName: __ZN17QArrayDataPointerIN5Tiled5FrameEEptEv, symObjAddr: 0xCE80, symBinAddr: 0x13FC0, symSize: 0x10 }
  - { offset: 0xD3327, size: 0x8, addend: 0x0, symName: __ZN9QtPrivate12QPodArrayOpsIN5Tiled5FrameEE10destroyAllEv, symObjAddr: 0xCE90, symBinAddr: 0x13FD0, symSize: 0x70 }
  - { offset: 0xD334D, size: 0x8, addend: 0x0, symName: __ZN15QTypedArrayDataIN5Tiled5FrameEE10deallocateEP10QArrayData, symObjAddr: 0xCF00, symBinAddr: 0x14040, symSize: 0x30 }
  - { offset: 0xD3370, size: 0x8, addend: 0x0, symName: __ZN5Tiled4CellC2EPNS_7TilesetEi, symObjAddr: 0xCF70, symBinAddr: 0x14070, symSize: 0x30 }
  - { offset: 0xD33B6, size: 0x8, addend: 0x0, symName: __ZN7QPointFC2Edd, symObjAddr: 0xD120, symBinAddr: 0x140A0, symSize: 0x30 }
  - { offset: 0xD3400, size: 0x8, addend: 0x0, symName: __ZN6QSizeFC2Edd, symObjAddr: 0xD150, symBinAddr: 0x140D0, symSize: 0x30 }
  - { offset: 0xD344A, size: 0x8, addend: 0x0, symName: __ZN5QListIPN5Tiled9MapObjectEE5beginEv, symObjAddr: 0xD180, symBinAddr: 0x14100, symSize: 0x40 }
  - { offset: 0xD3470, size: 0x8, addend: 0x0, symName: __ZN5QListIPN5Tiled9MapObjectEE6detachEv, symObjAddr: 0xD1C0, symBinAddr: 0x14140, symSize: 0x20 }
  - { offset: 0xD3496, size: 0x8, addend: 0x0, symName: __ZN17QArrayDataPointerIPN5Tiled9MapObjectEEptEv, symObjAddr: 0xD1E0, symBinAddr: 0x14160, symSize: 0x10 }
  - { offset: 0xD34BC, size: 0x8, addend: 0x0, symName: __ZN17QArrayDataPointerIPN5Tiled9MapObjectEE5beginEv, symObjAddr: 0xD1F0, symBinAddr: 0x14170, symSize: 0x20 }
  - { offset: 0xD34E2, size: 0x8, addend: 0x0, symName: __ZN5QListIPN5Tiled9MapObjectEE8iteratorC1EPS2_, symObjAddr: 0xD210, symBinAddr: 0x14190, symSize: 0x30 }
  - { offset: 0xD351A, size: 0x8, addend: 0x0, symName: __ZN17QArrayDataPointerIPN5Tiled9MapObjectEE6detachEPS3_, symObjAddr: 0xD240, symBinAddr: 0x141C0, symSize: 0x40 }
  - { offset: 0xD354E, size: 0x8, addend: 0x0, symName: __ZNK17QArrayDataPointerIPN5Tiled9MapObjectEE11needsDetachEv, symObjAddr: 0xD280, symBinAddr: 0x14200, symSize: 0x40 }
  - { offset: 0xD3574, size: 0x8, addend: 0x0, symName: __ZN17QArrayDataPointerIPN5Tiled9MapObjectEE17reallocateAndGrowEN10QArrayData14GrowthPositionExPS3_, symObjAddr: 0xD2C0, symBinAddr: 0x14240, symSize: 0x260 }
  - { offset: 0xD35F0, size: 0x8, addend: 0x0, symName: __ZN10QArrayData11needsDetachEv, symObjAddr: 0xD520, symBinAddr: 0x144A0, symSize: 0x30 }
  - { offset: 0xD3616, size: 0x8, addend: 0x0, symName: __ZN9QtPrivate12QPodArrayOpsIPN5Tiled9MapObjectEE10reallocateExN10QArrayData16AllocationOptionE, symObjAddr: 0xD550, symBinAddr: 0x144D0, symSize: 0x80 }
  - { offset: 0xD3669, size: 0x8, addend: 0x0, symName: __ZNK17QArrayDataPointerIPN5Tiled9MapObjectEE22constAllocatedCapacityEv, symObjAddr: 0xD5D0, symBinAddr: 0x14550, symSize: 0x40 }
  - { offset: 0xD368F, size: 0x8, addend: 0x0, symName: __ZNK17QArrayDataPointerIPN5Tiled9MapObjectEE14freeSpaceAtEndEv, symObjAddr: 0xD610, symBinAddr: 0x14590, symSize: 0x60 }
  - { offset: 0xD36B5, size: 0x8, addend: 0x0, symName: __ZN17QArrayDataPointerIPN5Tiled9MapObjectEE12allocateGrowERKS3_xN10QArrayData14GrowthPositionE, symObjAddr: 0xD670, symBinAddr: 0x145F0, symSize: 0x230 }
  - { offset: 0xD3750, size: 0x8, addend: 0x0, symName: __ZN17QArrayDataPointerIPN5Tiled9MapObjectEE4dataEv, symObjAddr: 0xD8A0, symBinAddr: 0x14820, symSize: 0x20 }
  - { offset: 0xD3776, size: 0x8, addend: 0x0, symName: __ZNK17QArrayDataPointerIPN5Tiled9MapObjectEE16freeSpaceAtBeginEv, symObjAddr: 0xD8C0, symBinAddr: 0x14840, symSize: 0x60 }
  - { offset: 0xD379C, size: 0x8, addend: 0x0, symName: __ZN9QtPrivate12QPodArrayOpsIPN5Tiled9MapObjectEE10copyAppendEPKS3_S6_, symObjAddr: 0xD920, symBinAddr: 0x148A0, symSize: 0x140 }
  - { offset: 0xD37DE, size: 0x8, addend: 0x0, symName: __ZN9QtPrivate12QPodArrayOpsIPN5Tiled9MapObjectEE10moveAppendEPS3_S5_, symObjAddr: 0xDA60, symBinAddr: 0x149E0, symSize: 0x30 }
  - { offset: 0xD3820, size: 0x8, addend: 0x0, symName: __ZN17QArrayDataPointerIPN5Tiled9MapObjectEE4swapERS3_, symObjAddr: 0xDA90, symBinAddr: 0x14A10, symSize: 0x60 }
  - { offset: 0xD3854, size: 0x8, addend: 0x0, symName: __ZN17QArrayDataPointerIPN5Tiled9MapObjectEED1Ev, symObjAddr: 0xDAF0, symBinAddr: 0x14A70, symSize: 0x20 }
  - { offset: 0xD387E, size: 0x8, addend: 0x0, symName: __ZN15QTypedArrayDataIPN5Tiled9MapObjectEE19reallocateUnalignedEPS3_PS2_xN10QArrayData16AllocationOptionE, symObjAddr: 0xDB10, symBinAddr: 0x14A90, symSize: 0x70 }
  - { offset: 0xD38E5, size: 0x8, addend: 0x0, symName: __ZNSt3__14pairIP15QTypedArrayDataIPN5Tiled9MapObjectEEPS4_EC1B9nqe210106IS6_S7_Li0EEEOT_OT0_, symObjAddr: 0xDB80, symBinAddr: 0x14B00, symSize: 0x30 }
  - { offset: 0xD3943, size: 0x8, addend: 0x0, symName: __ZNSt3__14pairIP15QTypedArrayDataIPN5Tiled9MapObjectEEPS4_EC2B9nqe210106IS6_S7_Li0EEEOT_OT0_, symObjAddr: 0xDBB0, symBinAddr: 0x14B30, symSize: 0x30 }
  - { offset: 0xD39A1, size: 0x8, addend: 0x0, symName: __ZNK10QArrayData22constAllocatedCapacityEv, symObjAddr: 0xDBE0, symBinAddr: 0x14B60, symSize: 0x20 }
  - { offset: 0xD39C6, size: 0x8, addend: 0x0, symName: __Z4qMaxIxERKT_S2_S2_, symObjAddr: 0xDC00, symBinAddr: 0x14B80, symSize: 0x40 }
  - { offset: 0xD3A0A, size: 0x8, addend: 0x0, symName: __ZNK17QArrayDataPointerIPN5Tiled9MapObjectEE14detachCapacityEx, symObjAddr: 0xDC40, symBinAddr: 0x14BC0, symSize: 0x50 }
  - { offset: 0xD3A3F, size: 0x8, addend: 0x0, symName: __ZN15QTypedArrayDataIPN5Tiled9MapObjectEE8allocateExN10QArrayData16AllocationOptionE, symObjAddr: 0xDC90, symBinAddr: 0x14C10, symSize: 0x60 }
  - { offset: 0xD3A8C, size: 0x8, addend: 0x0, symName: __ZN17QArrayDataPointerIPN5Tiled9MapObjectEEC1EP15QTypedArrayDataIS2_EPS2_x, symObjAddr: 0xDD30, symBinAddr: 0x14CB0, symSize: 0x40 }
  - { offset: 0xD3ADF, size: 0x8, addend: 0x0, symName: __Z4qMaxIixEN11QTypeTraits6detail8PromotedIT_T0_NSt3__19enable_ifIXaaaaaaaaaaaaaasr3stdE15is_arithmetic_vIS3_Esr3stdE15is_arithmetic_vIS4_Eeqsr3stdE19is_floating_point_vIS3_Esr3stdE19is_floating_point_vIS4_Eeqsr3stdE11is_signed_vIS3_Esr3stdE11is_signed_vIS4_Entsr3stdE9is_same_vIS3_bEntsr3stdE9is_same_vIS4_bEntsr3stdE9is_same_vIS3_cEntsr3stdE9is_same_vIS4_cEEvE4typeEE4typeERKS3_RKS4_, symObjAddr: 0xDD70, symBinAddr: 0x14CF0, symSize: 0x50 }
  - { offset: 0xD3B53, size: 0x8, addend: 0x0, symName: __ZNK17QArrayDataPointerIPN5Tiled9MapObjectEE5flagsEv, symObjAddr: 0xDDC0, symBinAddr: 0x14D40, symSize: 0x40 }
  - { offset: 0xD3B79, size: 0x8, addend: 0x0, symName: __ZNK10QArrayData14detachCapacityEx, symObjAddr: 0xDE00, symBinAddr: 0x14D80, symSize: 0x90 }
  - { offset: 0xD3BAD, size: 0x8, addend: 0x0, symName: __ZNK6QFlagsIN10QArrayData11ArrayOptionEEanES1_, symObjAddr: 0xDE90, symBinAddr: 0x14E10, symSize: 0x40 }
  - { offset: 0xD3BE1, size: 0x8, addend: 0x0, symName: __ZNK6QFlagsIN10QArrayData11ArrayOptionEEcvjEv, symObjAddr: 0xDED0, symBinAddr: 0x14E50, symSize: 0x10 }
  - { offset: 0xD3C07, size: 0x8, addend: 0x0, symName: __ZN6QFlagsIN10QArrayData11ArrayOptionEECI1N9QtPrivate13QFlagsStorageIS1_EEENSt3__110in_place_tEj, symObjAddr: 0xDEE0, symBinAddr: 0x14E60, symSize: 0x30 }
  - { offset: 0xD3C45, size: 0x8, addend: 0x0, symName: __ZN6QFlagsIN10QArrayData11ArrayOptionEECI2N9QtPrivate13QFlagsStorageIS1_EEENSt3__110in_place_tEj, symObjAddr: 0xDF10, symBinAddr: 0x14E90, symSize: 0x30 }
  - { offset: 0xD3C83, size: 0x8, addend: 0x0, symName: __ZN9QtPrivate19QFlagsStorageHelperIN10QArrayData11ArrayOptionELi4EECI2NS_13QFlagsStorageIS2_EEENSt3__110in_place_tEj, symObjAddr: 0xDF40, symBinAddr: 0x14EC0, symSize: 0x30 }
  - { offset: 0xD3CC1, size: 0x8, addend: 0x0, symName: __ZN9QtPrivate13QFlagsStorageIN10QArrayData11ArrayOptionEEC2ENSt3__110in_place_tEj, symObjAddr: 0xDF70, symBinAddr: 0x14EF0, symSize: 0x20 }
  - { offset: 0xD3D04, size: 0x8, addend: 0x0, symName: __ZNSt3__110__get_pairILm0EE3getB9nqe210106IP15QTypedArrayDataIPN5Tiled9MapObjectEEPS6_EEOT_ONS_4pairISA_T0_EE, symObjAddr: 0xDF90, symBinAddr: 0x14F10, symSize: 0x10 }
  - { offset: 0xD3D3A, size: 0x8, addend: 0x0, symName: __ZNSt3__110__get_pairILm1EE3getB9nqe210106IP15QTypedArrayDataIPN5Tiled9MapObjectEEPS6_EEOT0_ONS_4pairIT_SA_EE, symObjAddr: 0xDFA0, symBinAddr: 0x14F20, symSize: 0x20 }
  - { offset: 0xD3D70, size: 0x8, addend: 0x0, symName: __ZN17QArrayDataPointerIPN5Tiled9MapObjectEEC2EP15QTypedArrayDataIS2_EPS2_x, symObjAddr: 0xDFC0, symBinAddr: 0x14F40, symSize: 0x40 }
  - { offset: 0xD3DC4, size: 0x8, addend: 0x0, symName: __ZN6QFlagsIN10QArrayData11ArrayOptionEEC1ES1_, symObjAddr: 0xE000, symBinAddr: 0x14F80, symSize: 0x30 }
  - { offset: 0xD3DFC, size: 0x8, addend: 0x0, symName: __ZN6QFlagsIN10QArrayData11ArrayOptionEEC2ES1_, symObjAddr: 0xE030, symBinAddr: 0x14FB0, symSize: 0x30 }
  - { offset: 0xD3E34, size: 0x8, addend: 0x0, symName: __ZN15QTypedArrayDataIPN5Tiled9MapObjectEE9dataStartEP10QArrayDatax, symObjAddr: 0xE060, symBinAddr: 0x14FE0, symSize: 0x80 }
  - { offset: 0xD3E73, size: 0x8, addend: 0x0, symName: __ZNK17QArrayDataPointerIPN5Tiled9MapObjectEE9isMutableEv, symObjAddr: 0xE0E0, symBinAddr: 0x15060, symSize: 0x20 }
  - { offset: 0xD3E99, size: 0x8, addend: 0x0, symName: __ZNK17QArrayDataPointerIPN5Tiled9MapObjectEE8isSharedEv, symObjAddr: 0xE100, symBinAddr: 0x15080, symSize: 0x40 }
  - { offset: 0xD3EBF, size: 0x8, addend: 0x0, symName: __ZN17QArrayDataPointerIPN5Tiled9MapObjectEE3endEv, symObjAddr: 0xE140, symBinAddr: 0x150C0, symSize: 0x30 }
  - { offset: 0xD3EE5, size: 0x8, addend: 0x0, symName: __ZNK10QArrayData8isSharedEv, symObjAddr: 0xE170, symBinAddr: 0x150F0, symSize: 0x30 }
  - { offset: 0xD3F0A, size: 0x8, addend: 0x0, symName: __Z11qt_ptr_swapI15QTypedArrayDataIPN5Tiled9MapObjectEEEvRPT_S7_, symObjAddr: 0xE1A0, symBinAddr: 0x15120, symSize: 0x40 }
  - { offset: 0xD3F57, size: 0x8, addend: 0x0, symName: __Z11qt_ptr_swapIPN5Tiled9MapObjectEEvRPT_S5_, symObjAddr: 0xE1E0, symBinAddr: 0x15160, symSize: 0x40 }
  - { offset: 0xD3FA5, size: 0x8, addend: 0x0, symName: __ZN17QArrayDataPointerIPN5Tiled9MapObjectEED2Ev, symObjAddr: 0xE260, symBinAddr: 0x151A0, symSize: 0x40 }
  - { offset: 0xD3FCF, size: 0x8, addend: 0x0, symName: __ZN17QArrayDataPointerIPN5Tiled9MapObjectEE5derefEv, symObjAddr: 0xE2A0, symBinAddr: 0x151E0, symSize: 0x40 }
  - { offset: 0xD3FF5, size: 0x8, addend: 0x0, symName: __ZN9QtPrivate12QPodArrayOpsIPN5Tiled9MapObjectEE10destroyAllEv, symObjAddr: 0xE2E0, symBinAddr: 0x15220, symSize: 0x70 }
  - { offset: 0xD401B, size: 0x8, addend: 0x0, symName: __ZN15QTypedArrayDataIPN5Tiled9MapObjectEE10deallocateEP10QArrayData, symObjAddr: 0xE350, symBinAddr: 0x15290, symSize: 0x30 }
  - { offset: 0xD403E, size: 0x8, addend: 0x0, symName: __ZN5QListIPN5Tiled9MapObjectEE8iteratorC2EPS2_, symObjAddr: 0xE380, symBinAddr: 0x152C0, symSize: 0x20 }
  - { offset: 0xD4076, size: 0x8, addend: 0x0, symName: __ZN5QListIPN5Tiled9MapObjectEE3endEv, symObjAddr: 0xE3A0, symBinAddr: 0x152E0, symSize: 0x40 }
  - { offset: 0xD409C, size: 0x8, addend: 0x0, symName: __ZNK7QPointF1xEv, symObjAddr: 0xE3E0, symBinAddr: 0x15320, symSize: 0x20 }
  - { offset: 0xD40C4, size: 0x8, addend: 0x0, symName: __ZNK7QPointF1yEv, symObjAddr: 0xE400, symBinAddr: 0x15340, symSize: 0x20 }
  - { offset: 0xD40EC, size: 0x8, addend: 0x0, symName: __ZNK6QSizeF5widthEv, symObjAddr: 0xE420, symBinAddr: 0x15360, symSize: 0x20 }
  - { offset: 0xD4114, size: 0x8, addend: 0x0, symName: __ZNK6QSizeF6heightEv, symObjAddr: 0xE440, symBinAddr: 0x15380, symSize: 0x20 }
  - { offset: 0xD413B, size: 0x8, addend: 0x0, symName: __Z13comparesEqualRK8QVariantS1_, symObjAddr: 0xE460, symBinAddr: 0x153A0, symSize: 0x30 }
  - { offset: 0xD4179, size: 0x8, addend: 0x0, symName: __ZN5QListI7QStringED2Ev, symObjAddr: 0xE490, symBinAddr: 0x153D0, symSize: 0x20 }
  - { offset: 0xD41A5, size: 0x8, addend: 0x0, symName: __ZN17QArrayDataPointerI7QStringED1Ev, symObjAddr: 0xE4B0, symBinAddr: 0x153F0, symSize: 0x20 }
  - { offset: 0xD41CF, size: 0x8, addend: 0x0, symName: __ZN17QArrayDataPointerI7QStringED2Ev, symObjAddr: 0xE4D0, symBinAddr: 0x15410, symSize: 0x50 }
  - { offset: 0xD41F9, size: 0x8, addend: 0x0, symName: __ZN17QArrayDataPointerI7QStringE5derefEv, symObjAddr: 0xE520, symBinAddr: 0x15460, symSize: 0x40 }
  - { offset: 0xD421F, size: 0x8, addend: 0x0, symName: __ZN17QArrayDataPointerI7QStringEptEv, symObjAddr: 0xE560, symBinAddr: 0x154A0, symSize: 0x10 }
  - { offset: 0xD4245, size: 0x8, addend: 0x0, symName: __ZN9QtPrivate16QGenericArrayOpsI7QStringE10destroyAllEv, symObjAddr: 0xE570, symBinAddr: 0x154B0, symSize: 0x90 }
  - { offset: 0xD426B, size: 0x8, addend: 0x0, symName: __ZN15QTypedArrayDataI7QStringE10deallocateEP10QArrayData, symObjAddr: 0xE600, symBinAddr: 0x15540, symSize: 0x30 }
  - { offset: 0xD428E, size: 0x8, addend: 0x0, symName: __ZN17QArrayDataPointerI7QStringE5beginEv, symObjAddr: 0xE660, symBinAddr: 0x155A0, symSize: 0x20 }
  - { offset: 0xD42B4, size: 0x8, addend: 0x0, symName: __ZN17QArrayDataPointerI7QStringE3endEv, symObjAddr: 0xE680, symBinAddr: 0x155C0, symSize: 0x30 }
  - { offset: 0xD42DA, size: 0x8, addend: 0x0, symName: __ZN17QArrayDataPointerI7QStringE4dataEv, symObjAddr: 0xE710, symBinAddr: 0x15650, symSize: 0x20 }
  - { offset: 0xD4300, size: 0x8, addend: 0x0, symName: __ZNSt3__110unique_ptrIN5Tiled5LayerENS_14default_deleteIS2_EEE7releaseB9nqe210106Ev, symObjAddr: 0xE730, symBinAddr: 0x15670, symSize: 0x20 }
  - { offset: 0xD4335, size: 0x8, addend: 0x0, symName: __ZNK4QMapI7QString8QVariantE6cbeginEv, symObjAddr: 0xEAC0, symBinAddr: 0x15690, symSize: 0x30 }
  - { offset: 0xD435B, size: 0x8, addend: 0x0, symName: __ZNK4QMapI7QString8QVariantE4cendEv, symObjAddr: 0xEAF0, symBinAddr: 0x156C0, symSize: 0x30 }
  - { offset: 0xD4381, size: 0x8, addend: 0x0, symName: __ZNK8QVariant8userTypeEv, symObjAddr: 0xEB20, symBinAddr: 0x156F0, symSize: 0x20 }
  - { offset: 0xD43A7, size: 0x8, addend: 0x0, symName: __ZNSt3__18functionIFvvEEC1B9nqe210106Ev, symObjAddr: 0xEB50, symBinAddr: 0x15720, symSize: 0x20 }
  - { offset: 0xD43D1, size: 0x8, addend: 0x0, symName: __ZNKR8QVariant5valueIN5Tiled8FilePathEEET_v, symObjAddr: 0xEB70, symBinAddr: 0x15740, symSize: 0x30 }
  - { offset: 0xD4400, size: 0x8, addend: 0x0, symName: __ZN8QVariantaSEOS_, symObjAddr: 0xEBA0, symBinAddr: 0x15770, symSize: 0x70 }
  - { offset: 0xD4444, size: 0x8, addend: 0x0, symName: __ZN5Tiled8FilePathD1Ev, symObjAddr: 0xEC10, symBinAddr: 0x157E0, symSize: 0x20 }
  - { offset: 0xD4470, size: 0x8, addend: 0x0, symName: __ZNKR8QVariant5valueIN5Tiled9ObjectRefEEET_v, symObjAddr: 0xEC40, symBinAddr: 0x15810, symSize: 0x30 }
  - { offset: 0xD449F, size: 0x8, addend: 0x0, symName: __ZN5Tiled9ObjectRef5toIntERKS0_, symObjAddr: 0xEC70, symBinAddr: 0x15840, symSize: 0x10 }
  - { offset: 0xD44C2, size: 0x8, addend: 0x0, symName: __ZNKR8QVariant5valueI6QColorEET_v, symObjAddr: 0xEC80, symBinAddr: 0x15850, symSize: 0x40 }
  - { offset: 0xD44F1, size: 0x8, addend: 0x0, symName: __ZNK6QColor7isValidEv, symObjAddr: 0xECC0, symBinAddr: 0x15890, symSize: 0x20 }
  - { offset: 0xD4519, size: 0x8, addend: 0x0, symName: __ZN4tbin13PropertyValueC1Ev, symObjAddr: 0xED00, symBinAddr: 0x158B0, symSize: 0x20 }
  - { offset: 0xD4545, size: 0x8, addend: 0x0, symName: __ZNSt3__13mapINS_12basic_stringIcNS_11char_traitsIcEENS_9allocatorIcEEEEN4tbin13PropertyValueENS_4lessIS6_EENS4_INS_4pairIKS6_S8_EEEEE4findB9nqe210106ERSC_, symObjAddr: 0xED50, symBinAddr: 0x15900, symSize: 0x40 }
  - { offset: 0xD457A, size: 0x8, addend: 0x0, symName: __ZNSt3__13mapINS_12basic_stringIcNS_11char_traitsIcEENS_9allocatorIcEEEEN4tbin13PropertyValueENS_4lessIS6_EENS4_INS_4pairIKS6_S8_EEEEE3endB9nqe210106Ev, symObjAddr: 0xED90, symBinAddr: 0x15940, symSize: 0x30 }
  - { offset: 0xD45A0, size: 0x8, addend: 0x0, symName: __ZNSt3__13mapINS_12basic_stringIcNS_11char_traitsIcEENS_9allocatorIcEEEEN4tbin13PropertyValueENS_4lessIS6_EENS4_INS_4pairIKS6_S8_EEEEEixEOS6_, symObjAddr: 0xEDC0, symBinAddr: 0x15970, symSize: 0x80 }
  - { offset: 0xD45DD, size: 0x8, addend: 0x0, symName: __ZN4tbin13PropertyValueaSERKS0_, symObjAddr: 0xEE40, symBinAddr: 0x159F0, symSize: 0x40 }
  - { offset: 0xD462A, size: 0x8, addend: 0x0, symName: __ZNSt3__13mapINS_12basic_stringIcNS_11char_traitsIcEENS_9allocatorIcEEEEN4tbin13PropertyValueENS_4lessIS6_EENS4_INS_4pairIKS6_S8_EEEEE6insertB9nqe210106INSB_IS6_S8_EELi0EEENSB_INS_14__map_iteratorINS_15__tree_iteratorINS_12__value_typeIS6_S8_EEPNS_11__tree_nodeISL_PvEElEEEEbEEOT_, symObjAddr: 0xEE80, symBinAddr: 0x15A30, symSize: 0x50 }
  - { offset: 0xD466E, size: 0x8, addend: 0x0, symName: __ZNSt3__14pairINS_12basic_stringIcNS_11char_traitsIcEENS_9allocatorIcEEEEN4tbin13PropertyValueEED1Ev, symObjAddr: 0xEF10, symBinAddr: 0x15AC0, symSize: 0x20 }
  - { offset: 0xD469A, size: 0x8, addend: 0x0, symName: __ZNK8QVariant6typeIdEv, symObjAddr: 0xEF30, symBinAddr: 0x15AE0, symSize: 0x70 }
  - { offset: 0xD4703, size: 0x8, addend: 0x0, symName: __ZNK8QVariant8metaTypeEv, symObjAddr: 0xEFA0, symBinAddr: 0x15B50, symSize: 0x30 }
  - { offset: 0xD472B, size: 0x8, addend: 0x0, symName: __ZN9QMetaType5ifaceEv, symObjAddr: 0xEFD0, symBinAddr: 0x15B80, symSize: 0x20 }
  - { offset: 0xD475B, size: 0x8, addend: 0x0, symName: __ZZNK8QVariant6typeIdEvENKUlvE_clEv, symObjAddr: 0xEFF0, symBinAddr: 0x15BA0, symSize: 0x40 }
  - { offset: 0xD4785, size: 0x8, addend: 0x0, symName: __ZNK8QVariant7Private4typeEv, symObjAddr: 0xF030, symBinAddr: 0x15BE0, symSize: 0x30 }
  - { offset: 0xD47AB, size: 0x8, addend: 0x0, symName: __ZNK8QVariant7Private13typeInterfaceEv, symObjAddr: 0xF060, symBinAddr: 0x15C10, symSize: 0x20 }
  - { offset: 0xD47D1, size: 0x8, addend: 0x0, symName: __ZN9QMetaTypeC1EPKN9QtPrivate18QMetaTypeInterfaceE, symObjAddr: 0xF080, symBinAddr: 0x15C30, symSize: 0x30 }
  - { offset: 0xD480A, size: 0x8, addend: 0x0, symName: __ZN9QMetaTypeC2EPKN9QtPrivate18QMetaTypeInterfaceE, symObjAddr: 0xF0B0, symBinAddr: 0x15C60, symSize: 0x20 }
  - { offset: 0xD4842, size: 0x8, addend: 0x0, symName: __Z11qMetaTypeIdIN5Tiled8FilePathEEiv, symObjAddr: 0xF0D0, symBinAddr: 0x15C80, symSize: 0x30 }
  - { offset: 0xD486B, size: 0x8, addend: 0x0, symName: __ZN9QMetaType8fromTypeIN5Tiled8FilePathEEES_v, symObjAddr: 0xF100, symBinAddr: 0x15CB0, symSize: 0x30 }
  - { offset: 0xD4889, size: 0x8, addend: 0x0, symName: __ZNK9QMetaType2idEi, symObjAddr: 0xF130, symBinAddr: 0x15CE0, symSize: 0x20 }
  - { offset: 0xD48BB, size: 0x8, addend: 0x0, symName: __ZN9QtPrivate17MetaObjectForTypeIN5Tiled8FilePathEvE18metaObjectFunctionEPKNS_18QMetaTypeInterfaceE, symObjAddr: 0xF170, symBinAddr: 0x15D20, symSize: 0x20 }
  - { offset: 0xD490F, size: 0x8, addend: 0x0, symName: __ZZN9QtPrivate16QMetaTypeForTypeIN5Tiled8FilePathEE13getDefaultCtrEvENUlPKNS_18QMetaTypeInterfaceEPvE_8__invokeES6_S7_, symObjAddr: 0xF190, symBinAddr: 0x15D40, symSize: 0x30 }
  - { offset: 0xD497E, size: 0x8, addend: 0x0, symName: __ZZN9QtPrivate16QMetaTypeForTypeIN5Tiled8FilePathEE10getCopyCtrEvENUlPKNS_18QMetaTypeInterfaceEPvPKvE_8__invokeES6_S7_S9_, symObjAddr: 0xF1C0, symBinAddr: 0x15D70, symSize: 0x30 }
  - { offset: 0xD49FA, size: 0x8, addend: 0x0, symName: __ZZN9QtPrivate16QMetaTypeForTypeIN5Tiled8FilePathEE10getMoveCtrEvENUlPKNS_18QMetaTypeInterfaceEPvS7_E_8__invokeES6_S7_S7_, symObjAddr: 0xF1F0, symBinAddr: 0x15DA0, symSize: 0x30 }
  - { offset: 0xD4A6C, size: 0x8, addend: 0x0, symName: __ZZN9QtPrivate16QMetaTypeForTypeIN5Tiled8FilePathEE7getDtorEvENUlPKNS_18QMetaTypeInterfaceEPvE_8__invokeES6_S7_, symObjAddr: 0xF220, symBinAddr: 0x15DD0, symSize: 0x30 }
  - { offset: 0xD4A9E, size: 0x8, addend: 0x0, symName: __ZN9QtPrivate24QEqualityOperatorForTypeIN5Tiled8FilePathELb1EE6equalsEPKNS_18QMetaTypeInterfaceEPKvS8_, symObjAddr: 0xF250, symBinAddr: 0x15E00, symSize: 0x30 }
  - { offset: 0xD4AFB, size: 0x8, addend: 0x0, symName: __ZZN9QtPrivate16QMetaTypeForTypeIN5Tiled8FilePathEE17getLegacyRegisterEvENUlvE_8__invokeEv, symObjAddr: 0xF280, symBinAddr: 0x15E30, symSize: 0x20 }
  - { offset: 0xD4B20, size: 0x8, addend: 0x0, symName: __ZZN9QtPrivate16QMetaTypeForTypeIN5Tiled8FilePathEE13getDefaultCtrEvENKUlPKNS_18QMetaTypeInterfaceEPvE_clES6_S7_, symObjAddr: 0xF2A0, symBinAddr: 0x15E50, symSize: 0x40 }
  - { offset: 0xD4B65, size: 0x8, addend: 0x0, symName: __ZN5Tiled8FilePathC1Ev, symObjAddr: 0xF2E0, symBinAddr: 0x15E90, symSize: 0x20 }
  - { offset: 0xD4B91, size: 0x8, addend: 0x0, symName: __ZN5Tiled8FilePathC2Ev, symObjAddr: 0xF300, symBinAddr: 0x15EB0, symSize: 0x20 }
  - { offset: 0xD4BC7, size: 0x8, addend: 0x0, symName: __ZZN9QtPrivate16QMetaTypeForTypeIN5Tiled8FilePathEE10getCopyCtrEvENKUlPKNS_18QMetaTypeInterfaceEPvPKvE_clES6_S7_S9_, symObjAddr: 0xF320, symBinAddr: 0x15ED0, symSize: 0x30 }
  - { offset: 0xD4C1B, size: 0x8, addend: 0x0, symName: __ZN5Tiled8FilePathC1ERKS0_, symObjAddr: 0xF350, symBinAddr: 0x15F00, symSize: 0x30 }
  - { offset: 0xD4C50, size: 0x8, addend: 0x0, symName: __ZN5Tiled8FilePathC2ERKS0_, symObjAddr: 0xF380, symBinAddr: 0x15F30, symSize: 0x30 }
  - { offset: 0xD4C8F, size: 0x8, addend: 0x0, symName: __ZZN9QtPrivate16QMetaTypeForTypeIN5Tiled8FilePathEE10getMoveCtrEvENKUlPKNS_18QMetaTypeInterfaceEPvS7_E_clES6_S7_S7_, symObjAddr: 0xF3B0, symBinAddr: 0x15F60, symSize: 0x30 }
  - { offset: 0xD4CE9, size: 0x8, addend: 0x0, symName: __ZN5Tiled8FilePathC1EOS0_, symObjAddr: 0xF3E0, symBinAddr: 0x15F90, symSize: 0x30 }
  - { offset: 0xD4D1E, size: 0x8, addend: 0x0, symName: __ZN5Tiled8FilePathC2EOS0_, symObjAddr: 0xF410, symBinAddr: 0x15FC0, symSize: 0x30 }
  - { offset: 0xD4D53, size: 0x8, addend: 0x0, symName: __ZN4QUrlC1EOS_, symObjAddr: 0xF440, symBinAddr: 0x15FF0, symSize: 0x30 }
  - { offset: 0xD4D8B, size: 0x8, addend: 0x0, symName: __ZN4QUrlC2EOS_, symObjAddr: 0xF470, symBinAddr: 0x16020, symSize: 0x30 }
  - { offset: 0xD4DCD, size: 0x8, addend: 0x0, symName: __ZZN9QtPrivate16QMetaTypeForTypeIN5Tiled8FilePathEE7getDtorEvENKUlPKNS_18QMetaTypeInterfaceEPvE_clES6_S7_, symObjAddr: 0xF4A0, symBinAddr: 0x16050, symSize: 0x30 }
  - { offset: 0xD4E12, size: 0x8, addend: 0x0, symName: __ZNK5Tiled8FilePatheqERKS0_, symObjAddr: 0xF4D0, symBinAddr: 0x16080, symSize: 0x30 }
  - { offset: 0xD4E45, size: 0x8, addend: 0x0, symName: __ZeqRK4QUrlS1_, symObjAddr: 0xF500, symBinAddr: 0x160B0, symSize: 0x30 }
  - { offset: 0xD4EA3, size: 0x8, addend: 0x0, symName: __ZZN9QtPrivate16QMetaTypeForTypeIN5Tiled8FilePathEE17getLegacyRegisterEvENKUlvE_clEv, symObjAddr: 0xF530, symBinAddr: 0x160E0, symSize: 0x20 }
  - { offset: 0xD4EF1, size: 0x8, addend: 0x0, symName: __ZN12QMetaTypeId2IN5Tiled8FilePathEE14qt_metatype_idEv, symObjAddr: 0xF550, symBinAddr: 0x16100, symSize: 0x10 }
  - { offset: 0xD4F05, size: 0x8, addend: 0x0, symName: __ZNK19QBasicAtomicIntegerIiE11loadAcquireEv, symObjAddr: 0xF610, symBinAddr: 0x161C0, symSize: 0x20 }
  - { offset: 0xD4F2A, size: 0x8, addend: 0x0, symName: __Z27qRegisterNormalizedMetaTypeIN5Tiled8FilePathEEiRK10QByteArray, symObjAddr: 0xF630, symBinAddr: 0x161E0, symSize: 0x20 }
  - { offset: 0xD4F62, size: 0x8, addend: 0x0, symName: __ZN19QBasicAtomicIntegerIiE12storeReleaseEi, symObjAddr: 0xF650, symBinAddr: 0x16200, symSize: 0x30 }
  - { offset: 0xD4F96, size: 0x8, addend: 0x0, symName: __ZN10QAtomicOpsIiE11loadAcquireIiEET_RKNSt3__16atomicIS2_EE, symObjAddr: 0xF680, symBinAddr: 0x16230, symSize: 0x20 }
  - { offset: 0xD4FC1, size: 0x8, addend: 0x0, symName: __Z41qRegisterNormalizedMetaTypeImplementationIN5Tiled8FilePathEEiRK10QByteArray, symObjAddr: 0xF6A0, symBinAddr: 0x16250, symSize: 0xF0 }
  - { offset: 0xD5016, size: 0x8, addend: 0x0, symName: __ZeqRK10QByteArrayS1_, symObjAddr: 0xF790, symBinAddr: 0x16340, symSize: 0x50 }
  - { offset: 0xD506A, size: 0x8, addend: 0x0, symName: __ZN9QtPrivate39SequentialContainerTransformationHelperIN5Tiled8FilePathELb0EE17registerConverterEv, symObjAddr: 0xF7E0, symBinAddr: 0x16390, symSize: 0x10 }
  - { offset: 0xD507E, size: 0x8, addend: 0x0, symName: __ZN9QtPrivate39SequentialContainerTransformationHelperIN5Tiled8FilePathELb0EE19registerMutableViewEv, symObjAddr: 0xF7F0, symBinAddr: 0x163A0, symSize: 0x10 }
  - { offset: 0xD5092, size: 0x8, addend: 0x0, symName: __ZN9QtPrivate40AssociativeContainerTransformationHelperIN5Tiled8FilePathELb0EE17registerConverterEv, symObjAddr: 0xF800, symBinAddr: 0x163B0, symSize: 0x10 }
  - { offset: 0xD50A6, size: 0x8, addend: 0x0, symName: __ZN9QtPrivate40AssociativeContainerTransformationHelperIN5Tiled8FilePathELb0EE19registerMutableViewEv, symObjAddr: 0xF810, symBinAddr: 0x163C0, symSize: 0x10 }
  - { offset: 0xD50BA, size: 0x8, addend: 0x0, symName: __ZN9QtPrivate6IsPairIN5Tiled8FilePathEE17registerConverterEv, symObjAddr: 0xF820, symBinAddr: 0x163D0, symSize: 0x10 }
  - { offset: 0xD50CE, size: 0x8, addend: 0x0, symName: __ZN9QtPrivate26MetaTypeSmartPointerHelperIN5Tiled8FilePathEvE17registerConverterEv, symObjAddr: 0xF830, symBinAddr: 0x163E0, symSize: 0x10 }
  - { offset: 0xD50E2, size: 0x8, addend: 0x0, symName: __ZN9QtPrivate21MetaTypeQFutureHelperIN5Tiled8FilePathEE17registerConverterEv, symObjAddr: 0xF840, symBinAddr: 0x163F0, symSize: 0x10 }
  - { offset: 0xD50F5, size: 0x8, addend: 0x0, symName: __ZneRK10QByteArrayRKPKc, symObjAddr: 0xF850, symBinAddr: 0x16400, symSize: 0x40 }
  - { offset: 0xD5133, size: 0x8, addend: 0x0, symName: __ZNK9QMetaType4nameEv, symObjAddr: 0xF890, symBinAddr: 0x16440, symSize: 0x40 }
  - { offset: 0xD515A, size: 0x8, addend: 0x0, symName: __Z13comparesEqualRK10QByteArrayRK14QByteArrayView, symObjAddr: 0xF8D0, symBinAddr: 0x16480, symSize: 0x40 }
  - { offset: 0xD5198, size: 0x8, addend: 0x0, symName: __ZN14QByteArrayViewC1I10QByteArrayLb1EEERKT_, symObjAddr: 0xF910, symBinAddr: 0x164C0, symSize: 0x50 }
  - { offset: 0xD51DE, size: 0x8, addend: 0x0, symName: __ZeqRK14QByteArrayViewS1_, symObjAddr: 0xF960, symBinAddr: 0x16510, symSize: 0x30 }
  - { offset: 0xD5231, size: 0x8, addend: 0x0, symName: __Z13comparesEqualRK14QByteArrayViewS1_, symObjAddr: 0xF990, symBinAddr: 0x16540, symSize: 0xA0 }
  - { offset: 0xD526F, size: 0x8, addend: 0x0, symName: __ZNK14QByteArrayView4sizeEv, symObjAddr: 0xFA30, symBinAddr: 0x165E0, symSize: 0x20 }
  - { offset: 0xD5295, size: 0x8, addend: 0x0, symName: __ZNK14QByteArrayView4dataEv, symObjAddr: 0xFA50, symBinAddr: 0x16600, symSize: 0x20 }
  - { offset: 0xD52BB, size: 0x8, addend: 0x0, symName: __ZNK10QByteArray5beginEv, symObjAddr: 0xFA70, symBinAddr: 0x16620, symSize: 0x20 }
  - { offset: 0xD52E1, size: 0x8, addend: 0x0, symName: __ZNK10QByteArray4sizeEv, symObjAddr: 0xFA90, symBinAddr: 0x16640, symSize: 0x50 }
  - { offset: 0xD5345, size: 0x8, addend: 0x0, symName: __ZZNK10QByteArray4sizeEvENKUlvE_clEv, symObjAddr: 0xFAE0, symBinAddr: 0x16690, symSize: 0x50 }
  - { offset: 0xD5375, size: 0x8, addend: 0x0, symName: __ZN14QByteArrayViewC1IPKcLb1EEERKT_, symObjAddr: 0xFB30, symBinAddr: 0x166E0, symSize: 0x70 }
  - { offset: 0xD53BC, size: 0x8, addend: 0x0, symName: __ZN10QAtomicOpsIiE12storeReleaseIiEEvRNSt3__16atomicIT_EES4_, symObjAddr: 0xFBA0, symBinAddr: 0x16750, symSize: 0x30 }
  - { offset: 0xD53F6, size: 0x8, addend: 0x0, symName: __ZNSt3__113__atomic_baseIiLb0EE5storeB9nqe210106EiNS_12memory_orderE, symObjAddr: 0xFBD0, symBinAddr: 0x16780, symSize: 0x30 }
  - { offset: 0xD5438, size: 0x8, addend: 0x0, symName: __ZNK9QMetaType14registerHelperEv, symObjAddr: 0xFC60, symBinAddr: 0x16810, symSize: 0x70 }
  - { offset: 0xD547C, size: 0x8, addend: 0x0, symName: __ZNSt3__18functionIFvvEEC2B9nqe210106Ev, symObjAddr: 0xFD50, symBinAddr: 0x16880, symSize: 0x20 }
  - { offset: 0xD54A6, size: 0x8, addend: 0x0, symName: __ZNSt3__110__function12__value_funcIFvvEEC1B9nqe210106Ev, symObjAddr: 0xFD70, symBinAddr: 0x168A0, symSize: 0x20 }
  - { offset: 0xD54D0, size: 0x8, addend: 0x0, symName: __ZNSt3__110__function12__value_funcIFvvEEC2B9nqe210106Ev, symObjAddr: 0xFD90, symBinAddr: 0x168C0, symSize: 0x20 }
  - { offset: 0xD54F9, size: 0x8, addend: 0x0, symName: __Z13qvariant_castIN5Tiled8FilePathEET_RK8QVariant, symObjAddr: 0xFDB0, symBinAddr: 0x168E0, symSize: 0x80 }
  - { offset: 0xD553E, size: 0x8, addend: 0x0, symName: __ZeqRK9QMetaTypeS1_, symObjAddr: 0xFE30, symBinAddr: 0x16960, symSize: 0x30 }
  - { offset: 0xD5592, size: 0x8, addend: 0x0, symName: __ZNK8QVariant7Private3getIN5Tiled8FilePathEEERKT_v, symObjAddr: 0xFE60, symBinAddr: 0x16990, symSize: 0x20 }
  - { offset: 0xD55C0, size: 0x8, addend: 0x0, symName: __Z13comparesEqualRK9QMetaTypeS1_, symObjAddr: 0xFF30, symBinAddr: 0x16A60, symSize: 0x80 }
  - { offset: 0xD561C, size: 0x8, addend: 0x0, symName: __ZNK8QVariant7Private7storageEv, symObjAddr: 0xFFB0, symBinAddr: 0x16AE0, symSize: 0x50 }
  - { offset: 0xD5642, size: 0x8, addend: 0x0, symName: __ZN8QVariant13PrivateShared4dataEv, symObjAddr: 0x10000, symBinAddr: 0x16B30, symSize: 0x20 }
  - { offset: 0xD5668, size: 0x8, addend: 0x0, symName: __ZNK8QVariant9constDataEv, symObjAddr: 0x10020, symBinAddr: 0x16B50, symSize: 0x20 }
  - { offset: 0xD568E, size: 0x8, addend: 0x0, symName: __ZN8QVariantC1EOS_, symObjAddr: 0x10040, symBinAddr: 0x16B70, symSize: 0x30 }
  - { offset: 0xD56C7, size: 0x8, addend: 0x0, symName: __ZN8QVariant4swapERS_, symObjAddr: 0x10070, symBinAddr: 0x16BA0, symSize: 0x30 }
  - { offset: 0xD56FC, size: 0x8, addend: 0x0, symName: __ZN8QVariantC2EOS_, symObjAddr: 0x100A0, symBinAddr: 0x16BD0, symSize: 0x90 }
  - { offset: 0xD5735, size: 0x8, addend: 0x0, symName: __ZN8QVariant7PrivateC1Ev, symObjAddr: 0x10130, symBinAddr: 0x16C60, symSize: 0x20 }
  - { offset: 0xD575F, size: 0x8, addend: 0x0, symName: __ZN8QVariant7PrivateC2Ev, symObjAddr: 0x10150, symBinAddr: 0x16C80, symSize: 0x60 }
  - { offset: 0xD578E, size: 0x8, addend: 0x0, symName: __ZN8QVariant7PrivateUt_C1Ev, symObjAddr: 0x101B0, symBinAddr: 0x16CE0, symSize: 0x20 }
  - { offset: 0xD57BA, size: 0x8, addend: 0x0, symName: __ZN8QVariant7PrivateUt_C2Ev, symObjAddr: 0x101D0, symBinAddr: 0x16D00, symSize: 0x40 }
  - { offset: 0xD57E6, size: 0x8, addend: 0x0, symName: __ZN5Tiled8FilePathD2Ev, symObjAddr: 0x102C0, symBinAddr: 0x16DF0, symSize: 0x20 }
  - { offset: 0xD5811, size: 0x8, addend: 0x0, symName: __Z11qMetaTypeIdIN5Tiled9ObjectRefEEiv, symObjAddr: 0x102E0, symBinAddr: 0x16E10, symSize: 0x30 }
  - { offset: 0xD583A, size: 0x8, addend: 0x0, symName: __ZN9QMetaType8fromTypeIN5Tiled9ObjectRefEEES_v, symObjAddr: 0x10310, symBinAddr: 0x16E40, symSize: 0x30 }
  - { offset: 0xD5858, size: 0x8, addend: 0x0, symName: __ZN9QtPrivate17MetaObjectForTypeIN5Tiled9ObjectRefEvE18metaObjectFunctionEPKNS_18QMetaTypeInterfaceE, symObjAddr: 0x10360, symBinAddr: 0x16E90, symSize: 0x20 }
  - { offset: 0xD58AC, size: 0x8, addend: 0x0, symName: __ZZN9QtPrivate16QMetaTypeForTypeIN5Tiled9ObjectRefEE13getDefaultCtrEvENUlPKNS_18QMetaTypeInterfaceEPvE_8__invokeES6_S7_, symObjAddr: 0x10380, symBinAddr: 0x16EB0, symSize: 0x30 }
  - { offset: 0xD58DE, size: 0x8, addend: 0x0, symName: __ZN9QtPrivate24QEqualityOperatorForTypeIN5Tiled9ObjectRefELb1EE6equalsEPKNS_18QMetaTypeInterfaceEPKvS8_, symObjAddr: 0x103B0, symBinAddr: 0x16EE0, symSize: 0x30 }
  - { offset: 0xD593B, size: 0x8, addend: 0x0, symName: __ZZN9QtPrivate16QMetaTypeForTypeIN5Tiled9ObjectRefEE17getLegacyRegisterEvENUlvE_8__invokeEv, symObjAddr: 0x103E0, symBinAddr: 0x16F10, symSize: 0x20 }
  - { offset: 0xD5960, size: 0x8, addend: 0x0, symName: __ZZN9QtPrivate16QMetaTypeForTypeIN5Tiled9ObjectRefEE13getDefaultCtrEvENKUlPKNS_18QMetaTypeInterfaceEPvE_clES6_S7_, symObjAddr: 0x10400, symBinAddr: 0x16F30, symSize: 0x40 }
  - { offset: 0xD59A5, size: 0x8, addend: 0x0, symName: __ZN5Tiled9ObjectRefC1Ev, symObjAddr: 0x10440, symBinAddr: 0x16F70, symSize: 0x20 }
  - { offset: 0xD59D1, size: 0x8, addend: 0x0, symName: __ZN5Tiled9ObjectRefC2Ev, symObjAddr: 0x10460, symBinAddr: 0x16F90, symSize: 0x20 }
  - { offset: 0xD59FD, size: 0x8, addend: 0x0, symName: __ZNK5Tiled9ObjectRefeqERKS0_, symObjAddr: 0x10480, symBinAddr: 0x16FB0, symSize: 0x20 }
  - { offset: 0xD5A3B, size: 0x8, addend: 0x0, symName: __ZZN9QtPrivate16QMetaTypeForTypeIN5Tiled9ObjectRefEE17getLegacyRegisterEvENKUlvE_clEv, symObjAddr: 0x104A0, symBinAddr: 0x16FD0, symSize: 0x20 }
  - { offset: 0xD5A89, size: 0x8, addend: 0x0, symName: __ZN12QMetaTypeId2IN5Tiled9ObjectRefEE14qt_metatype_idEv, symObjAddr: 0x104C0, symBinAddr: 0x16FF0, symSize: 0x10 }
  - { offset: 0xD5A9C, size: 0x8, addend: 0x0, symName: __Z27qRegisterNormalizedMetaTypeIN5Tiled9ObjectRefEEiRK10QByteArray, symObjAddr: 0x10580, symBinAddr: 0x170B0, symSize: 0x20 }
  - { offset: 0xD5AD3, size: 0x8, addend: 0x0, symName: __Z41qRegisterNormalizedMetaTypeImplementationIN5Tiled9ObjectRefEEiRK10QByteArray, symObjAddr: 0x105A0, symBinAddr: 0x170D0, symSize: 0xF0 }
  - { offset: 0xD5B29, size: 0x8, addend: 0x0, symName: __ZN9QtPrivate39SequentialContainerTransformationHelperIN5Tiled9ObjectRefELb0EE17registerConverterEv, symObjAddr: 0x10690, symBinAddr: 0x171C0, symSize: 0x10 }
  - { offset: 0xD5B3D, size: 0x8, addend: 0x0, symName: __ZN9QtPrivate39SequentialContainerTransformationHelperIN5Tiled9ObjectRefELb0EE19registerMutableViewEv, symObjAddr: 0x106A0, symBinAddr: 0x171D0, symSize: 0x10 }
  - { offset: 0xD5B51, size: 0x8, addend: 0x0, symName: __ZN9QtPrivate40AssociativeContainerTransformationHelperIN5Tiled9ObjectRefELb0EE17registerConverterEv, symObjAddr: 0x106B0, symBinAddr: 0x171E0, symSize: 0x10 }
  - { offset: 0xD5B65, size: 0x8, addend: 0x0, symName: __ZN9QtPrivate40AssociativeContainerTransformationHelperIN5Tiled9ObjectRefELb0EE19registerMutableViewEv, symObjAddr: 0x106C0, symBinAddr: 0x171F0, symSize: 0x10 }
  - { offset: 0xD5B79, size: 0x8, addend: 0x0, symName: __ZN9QtPrivate6IsPairIN5Tiled9ObjectRefEE17registerConverterEv, symObjAddr: 0x106D0, symBinAddr: 0x17200, symSize: 0x10 }
  - { offset: 0xD5B8D, size: 0x8, addend: 0x0, symName: __ZN9QtPrivate26MetaTypeSmartPointerHelperIN5Tiled9ObjectRefEvE17registerConverterEv, symObjAddr: 0x106E0, symBinAddr: 0x17210, symSize: 0x10 }
  - { offset: 0xD5BA1, size: 0x8, addend: 0x0, symName: __ZN9QtPrivate21MetaTypeQFutureHelperIN5Tiled9ObjectRefEE17registerConverterEv, symObjAddr: 0x106F0, symBinAddr: 0x17220, symSize: 0x10 }
  - { offset: 0xD5BB4, size: 0x8, addend: 0x0, symName: __Z13qvariant_castIN5Tiled9ObjectRefEET_RK8QVariant, symObjAddr: 0x10700, symBinAddr: 0x17230, symSize: 0x70 }
  - { offset: 0xD5BFA, size: 0x8, addend: 0x0, symName: __ZNK8QVariant7Private3getIN5Tiled9ObjectRefEEERKT_v, symObjAddr: 0x10770, symBinAddr: 0x172A0, symSize: 0x20 }
  - { offset: 0xD5C28, size: 0x8, addend: 0x0, symName: __Z13qvariant_castI6QColorET_RK8QVariant, symObjAddr: 0x107F0, symBinAddr: 0x17320, symSize: 0x90 }
  - { offset: 0xD5C6E, size: 0x8, addend: 0x0, symName: __ZN9QMetaType8fromTypeI6QColorEES_v, symObjAddr: 0x10880, symBinAddr: 0x173B0, symSize: 0x30 }
  - { offset: 0xD5C8C, size: 0x8, addend: 0x0, symName: __ZNK8QVariant7Private3getI6QColorEERKT_v, symObjAddr: 0x108B0, symBinAddr: 0x173E0, symSize: 0x20 }
  - { offset: 0xD5CEE, size: 0x8, addend: 0x0, symName: __ZZN9QtPrivate16QMetaTypeForTypeI6QColorE13getDefaultCtrEvENUlPKNS_18QMetaTypeInterfaceEPvE_8__invokeES5_S6_, symObjAddr: 0x10950, symBinAddr: 0x17480, symSize: 0x30 }
  - { offset: 0xD5D20, size: 0x8, addend: 0x0, symName: __ZN9QtPrivate24QEqualityOperatorForTypeI6QColorLb1EE6equalsEPKNS_18QMetaTypeInterfaceEPKvS7_, symObjAddr: 0x10980, symBinAddr: 0x174B0, symSize: 0x30 }
  - { offset: 0xD5D5F, size: 0x8, addend: 0x0, symName: __ZN9QtPrivate27QDebugStreamOperatorForTypeI6QColorLb1EE11debugStreamEPKNS_18QMetaTypeInterfaceER6QDebugPKv, symObjAddr: 0x109B0, symBinAddr: 0x174E0, symSize: 0x70 }
  - { offset: 0xD5D9E, size: 0x8, addend: 0x0, symName: __ZN9QtPrivate26QDataStreamOperatorForTypeI6QColorLb1EE13dataStreamOutEPKNS_18QMetaTypeInterfaceER11QDataStreamPKv, symObjAddr: 0x10A20, symBinAddr: 0x17550, symSize: 0x30 }
  - { offset: 0xD5DDD, size: 0x8, addend: 0x0, symName: __ZN9QtPrivate26QDataStreamOperatorForTypeI6QColorLb1EE12dataStreamInEPKNS_18QMetaTypeInterfaceER11QDataStreamPv, symObjAddr: 0x10A50, symBinAddr: 0x17580, symSize: 0x30 }
  - { offset: 0xD5E26, size: 0x8, addend: 0x0, symName: __ZZN9QtPrivate16QMetaTypeForTypeI6QColorE13getDefaultCtrEvENKUlPKNS_18QMetaTypeInterfaceEPvE_clES5_S6_, symObjAddr: 0x10A80, symBinAddr: 0x175B0, symSize: 0x30 }
  - { offset: 0xD5E6B, size: 0x8, addend: 0x0, symName: __ZN6QDebugC1ERKS_, symObjAddr: 0x10AB0, symBinAddr: 0x175E0, symSize: 0x30 }
  - { offset: 0xD5EA3, size: 0x8, addend: 0x0, symName: __ZN6QDebugC2ERKS_, symObjAddr: 0x10AE0, symBinAddr: 0x17610, symSize: 0x30 }
  - { offset: 0xD5EDB, size: 0x8, addend: 0x0, symName: __ZN4tbin13PropertyValueC2Ev, symObjAddr: 0x10B80, symBinAddr: 0x17640, symSize: 0x20 }
  - { offset: 0xD5F07, size: 0x8, addend: 0x0, symName: __ZNSt3__16__treeINS_12__value_typeINS_12basic_stringIcNS_11char_traitsIcEENS_9allocatorIcEEEEN4tbin13PropertyValueEEENS_19__map_value_compareIS7_NS_4pairIKS7_S9_EENS_4lessIS7_EELb1EEENS5_ISE_EEE4findIS7_EENS_15__tree_iteratorISA_PNS_11__tree_nodeISA_PvEElEERKT_, symObjAddr: 0x10C00, symBinAddr: 0x176C0, symSize: 0xD0 }
  - { offset: 0xD5F54, size: 0x8, addend: 0x0, symName: __ZNSt3__16__treeINS_12__value_typeINS_12basic_stringIcNS_11char_traitsIcEENS_9allocatorIcEEEEN4tbin13PropertyValueEEENS_19__map_value_compareIS7_NS_4pairIKS7_S9_EENS_4lessIS7_EELb1EEENS5_ISE_EEE13__lower_boundIS7_EENS_15__tree_iteratorISA_PNS_11__tree_nodeISA_PvEElEERKT_SP_PNS_15__tree_end_nodeIPNS_16__tree_node_baseISN_EEEE, symObjAddr: 0x10CD0, symBinAddr: 0x17790, symSize: 0x90 }
  - { offset: 0xD5FB0, size: 0x8, addend: 0x0, symName: __ZNKSt3__115__tree_iteratorINS_12__value_typeINS_12basic_stringIcNS_11char_traitsIcEENS_9allocatorIcEEEEN4tbin13PropertyValueEEEPNS_11__tree_nodeISA_PvEElEdeB9nqe210106Ev, symObjAddr: 0x10D60, symBinAddr: 0x17820, symSize: 0x20 }
  - { offset: 0xD5FD6, size: 0x8, addend: 0x0, symName: __ZNKSt3__115__tree_iteratorINS_12__value_typeINS_12basic_stringIcNS_11char_traitsIcEENS_9allocatorIcEEEEN4tbin13PropertyValueEEEPNS_11__tree_nodeISA_PvEElE8__get_npB9nqe210106Ev, symObjAddr: 0x10D80, symBinAddr: 0x17840, symSize: 0x20 }
  - { offset: 0xD6013, size: 0x8, addend: 0x0, symName: __ZNSt3__16__treeINS_12__value_typeINS_12basic_stringIcNS_11char_traitsIcEENS_9allocatorIcEEEEN4tbin13PropertyValueEEENS_19__map_value_compareIS7_NS_4pairIKS7_S9_EENS_4lessIS7_EELb1EEENS5_ISE_EEE25__emplace_unique_key_argsIS7_JRKNS_21piecewise_construct_tENS_5tupleIJOS7_EEENSO_IJEEEEEENSC_INS_15__tree_iteratorISA_PNS_11__tree_nodeISA_PvEElEEbEERKT_DpOT0_, symObjAddr: 0x10DA0, symBinAddr: 0x17860, symSize: 0x100 }
  - { offset: 0xD60F5, size: 0x8, addend: 0x0, symName: __ZNKSt3__115__tree_iteratorINS_12__value_typeINS_12basic_stringIcNS_11char_traitsIcEENS_9allocatorIcEEEEN4tbin13PropertyValueEEEPNS_11__tree_nodeISA_PvEElEptB9nqe210106Ev, symObjAddr: 0x10EE0, symBinAddr: 0x179A0, symSize: 0x30 }
  - { offset: 0xD611B, size: 0x8, addend: 0x0, symName: __ZNSt3__16__treeINS_12__value_typeINS_12basic_stringIcNS_11char_traitsIcEENS_9allocatorIcEEEEN4tbin13PropertyValueEEENS_19__map_value_compareIS7_NS_4pairIKS7_S9_EENS_4lessIS7_EELb1EEENS5_ISE_EEE16__construct_nodeIJRKNS_21piecewise_construct_tENS_5tupleIJOS7_EEENSO_IJEEEEEENS_10unique_ptrINS_11__tree_nodeISA_PvEENS_22__tree_node_destructorINS5_ISV_EEEEEEDpOT_, symObjAddr: 0x10F10, symBinAddr: 0x179D0, symSize: 0xF0 }
  - { offset: 0xD61A6, size: 0x8, addend: 0x0, symName: __ZNSt3__116allocator_traitsINS_9allocatorINS_11__tree_nodeINS_12__value_typeINS_12basic_stringIcNS_11char_traitsIcEENS1_IcEEEEN4tbin13PropertyValueEEEPvEEEEE9constructB9nqe210106INS_4pairIKS8_SA_EEJRKNS_21piecewise_construct_tENS_5tupleIJOS8_EEENSN_IJEEEELi0EEEvRSE_PT_DpOT0_, symObjAddr: 0x11000, symBinAddr: 0x17AC0, symSize: 0x40 }
  - { offset: 0xD622E, size: 0x8, addend: 0x0, symName: __ZNSt3__19allocatorINS_11__tree_nodeINS_12__value_typeINS_12basic_stringIcNS_11char_traitsIcEENS0_IcEEEEN4tbin13PropertyValueEEEPvEEE9constructB9nqe210106INS_4pairIKS7_S9_EEJRKNS_21piecewise_construct_tENS_5tupleIJOS7_EEENSL_IJEEEEEEvPT_DpOT0_, symObjAddr: 0x11040, symBinAddr: 0x17B00, symSize: 0x40 }
  - { offset: 0xD62AE, size: 0x8, addend: 0x0, symName: __ZNSt3__14pairIKNS_12basic_stringIcNS_11char_traitsIcEENS_9allocatorIcEEEEN4tbin13PropertyValueEEC1B9nqe210106IJOS6_EJEEENS_21piecewise_construct_tENS_5tupleIJDpT_EEENSE_IJDpT0_EEE, symObjAddr: 0x11080, symBinAddr: 0x17B40, symSize: 0x40 }
  - { offset: 0xD6315, size: 0x8, addend: 0x0, symName: __ZNSt3__14pairIKNS_12basic_stringIcNS_11char_traitsIcEENS_9allocatorIcEEEEN4tbin13PropertyValueEEC1B9nqe210106IJOS6_EJEJLm0EEJEEENS_21piecewise_construct_tERNS_5tupleIJDpT_EEERNSE_IJDpT0_EEENS_15__tuple_indicesIJXspT1_EEEENSN_IJXspT2_EEEE, symObjAddr: 0x110C0, symBinAddr: 0x17B80, symSize: 0x30 }
  - { offset: 0xD63A7, size: 0x8, addend: 0x0, symName: __ZNSt3__14pairIKNS_12basic_stringIcNS_11char_traitsIcEENS_9allocatorIcEEEEN4tbin13PropertyValueEEC2B9nqe210106IJOS6_EJEJLm0EEJEEENS_21piecewise_construct_tERNS_5tupleIJDpT_EEERNSE_IJDpT0_EEENS_15__tuple_indicesIJXspT1_EEEENSN_IJXspT2_EEEE, symObjAddr: 0x110F0, symBinAddr: 0x17BB0, symSize: 0x60 }
  - { offset: 0xD6439, size: 0x8, addend: 0x0, symName: __ZNSt3__112__tuple_leafILm0EONS_12basic_stringIcNS_11char_traitsIcEENS_9allocatorIcEEEELb0EE3getB9nqe210106Ev, symObjAddr: 0x111A0, symBinAddr: 0x17C30, symSize: 0x20 }
  - { offset: 0xD645F, size: 0x8, addend: 0x0, symName: __ZNSt3__15tupleIJONS_12basic_stringIcNS_11char_traitsIcEENS_9allocatorIcEEEEEEC1B9nqe210106IJS6_ELi0EEEDpOT_, symObjAddr: 0x11320, symBinAddr: 0x17C50, symSize: 0x30 }
  - { offset: 0xD64AB, size: 0x8, addend: 0x0, symName: __ZNSt3__15tupleIJONS_12basic_stringIcNS_11char_traitsIcEENS_9allocatorIcEEEEEEC2B9nqe210106IJS6_ELi0EEEDpOT_, symObjAddr: 0x11350, symBinAddr: 0x17C80, symSize: 0x30 }
  - { offset: 0xD64F7, size: 0x8, addend: 0x0, symName: __ZNSt3__112__tuple_implINS_15__tuple_indicesIJLm0EEEEJONS_12basic_stringIcNS_11char_traitsIcEENS_9allocatorIcEEEEEEC1B9nqe210106IJLm0EEJS9_EJEJEJS8_EEENS1_IJXspT_EEEENS_13__tuple_typesIJDpT0_EEENS1_IJXspT1_EEEENSD_IJDpT2_EEEDpOT3_, symObjAddr: 0x11380, symBinAddr: 0x17CB0, symSize: 0x30 }
  - { offset: 0xD6593, size: 0x8, addend: 0x0, symName: __ZNSt3__112__tuple_implINS_15__tuple_indicesIJLm0EEEEJONS_12basic_stringIcNS_11char_traitsIcEENS_9allocatorIcEEEEEEC2B9nqe210106IJLm0EEJS9_EJEJEJS8_EEENS1_IJXspT_EEEENS_13__tuple_typesIJDpT0_EEENS1_IJXspT1_EEEENSD_IJDpT2_EEEDpOT3_, symObjAddr: 0x113B0, symBinAddr: 0x17CE0, symSize: 0x30 }
  - { offset: 0xD662F, size: 0x8, addend: 0x0, symName: __ZNSt3__112__tuple_leafILm0EONS_12basic_stringIcNS_11char_traitsIcEENS_9allocatorIcEEEELb0EEC2B9nqe210106IS6_Li0EEEOT_, symObjAddr: 0x113E0, symBinAddr: 0x17D10, symSize: 0x20 }
  - { offset: 0xD6677, size: 0x8, addend: 0x0, symName: __ZNSt3__114pointer_traitsIPNS_4pairIKNS_12basic_stringIcNS_11char_traitsIcEENS_9allocatorIcEEEEN4tbin13PropertyValueEEEE10pointer_toB9nqe210106ERSB_, symObjAddr: 0x11400, symBinAddr: 0x17D30, symSize: 0x10 }
  - { offset: 0xD669A, size: 0x8, addend: 0x0, symName: __ZNSt3__16__treeINS_12__value_typeINS_12basic_stringIcNS_11char_traitsIcEENS_9allocatorIcEEEEN4tbin13PropertyValueEEENS_19__map_value_compareIS7_NS_4pairIKS7_S9_EENS_4lessIS7_EELb1EEENS5_ISE_EEE16__emplace_uniqueB9nqe210106INSC_IS7_S9_EEEENSC_INS_15__tree_iteratorISA_PNS_11__tree_nodeISA_PvEElEEbEEOT_, symObjAddr: 0x11410, symBinAddr: 0x17D40, symSize: 0x40 }
  - { offset: 0xD66D8, size: 0x8, addend: 0x0, symName: __ZNSt3__14pairINS_14__map_iteratorINS_15__tree_iteratorINS_12__value_typeINS_12basic_stringIcNS_11char_traitsIcEENS_9allocatorIcEEEEN4tbin13PropertyValueEEEPNS_11__tree_nodeISC_PvEElEEEEbEC1B9nqe210106ISH_bLi0EEEONS0_IT_T0_EE, symObjAddr: 0x11450, symBinAddr: 0x17D80, symSize: 0x30 }
  - { offset: 0xD6728, size: 0x8, addend: 0x0, symName: __ZNSt3__16__treeINS_12__value_typeINS_12basic_stringIcNS_11char_traitsIcEENS_9allocatorIcEEEEN4tbin13PropertyValueEEENS_19__map_value_compareIS7_NS_4pairIKS7_S9_EENS_4lessIS7_EELb1EEENS5_ISE_EEE28__emplace_unique_extract_keyB9nqe210106INSC_IS7_S9_EEEENSC_INS_15__tree_iteratorISA_PNS_11__tree_nodeISA_PvEElEEbEEOT_NS_23__extract_key_first_tagE, symObjAddr: 0x11480, symBinAddr: 0x17DB0, symSize: 0x50 }
  - { offset: 0xD6772, size: 0x8, addend: 0x0, symName: __ZNSt3__16__treeINS_12__value_typeINS_12basic_stringIcNS_11char_traitsIcEENS_9allocatorIcEEEEN4tbin13PropertyValueEEENS_19__map_value_compareIS7_NS_4pairIKS7_S9_EENS_4lessIS7_EELb1EEENS5_ISE_EEE25__emplace_unique_key_argsIS7_JNSC_IS7_S9_EEEEENSC_INS_15__tree_iteratorISA_PNS_11__tree_nodeISA_PvEElEEbEERKT_DpOT0_, symObjAddr: 0x114D0, symBinAddr: 0x17E00, symSize: 0xE0 }
  - { offset: 0xD6828, size: 0x8, addend: 0x0, symName: __ZNSt3__16__treeINS_12__value_typeINS_12basic_stringIcNS_11char_traitsIcEENS_9allocatorIcEEEEN4tbin13PropertyValueEEENS_19__map_value_compareIS7_NS_4pairIKS7_S9_EENS_4lessIS7_EELb1EEENS5_ISE_EEE16__construct_nodeIJNSC_IS7_S9_EEEEENS_10unique_ptrINS_11__tree_nodeISA_PvEENS_22__tree_node_destructorINS5_ISP_EEEEEEDpOT_, symObjAddr: 0x115B0, symBinAddr: 0x17EE0, symSize: 0xE0 }
  - { offset: 0xD6889, size: 0x8, addend: 0x0, symName: __ZNSt3__116allocator_traitsINS_9allocatorINS_11__tree_nodeINS_12__value_typeINS_12basic_stringIcNS_11char_traitsIcEENS1_IcEEEEN4tbin13PropertyValueEEEPvEEEEE9constructB9nqe210106INS_4pairIKS8_SA_EEJNSH_IS8_SA_EEELi0EEEvRSE_PT_DpOT0_, symObjAddr: 0x11690, symBinAddr: 0x17FC0, symSize: 0x30 }
  - { offset: 0xD68E7, size: 0x8, addend: 0x0, symName: __ZNSt3__19allocatorINS_11__tree_nodeINS_12__value_typeINS_12basic_stringIcNS_11char_traitsIcEENS0_IcEEEEN4tbin13PropertyValueEEEPvEEE9constructB9nqe210106INS_4pairIKS7_S9_EEJNSF_IS7_S9_EEEEEvPT_DpOT0_, symObjAddr: 0x116C0, symBinAddr: 0x17FF0, symSize: 0x30 }
  - { offset: 0xD693F, size: 0x8, addend: 0x0, symName: __ZNSt3__14pairIKNS_12basic_stringIcNS_11char_traitsIcEENS_9allocatorIcEEEEN4tbin13PropertyValueEEC1B9nqe210106IS6_S9_Li0EEEONS0_IT_T0_EE, symObjAddr: 0x116F0, symBinAddr: 0x18020, symSize: 0x30 }
  - { offset: 0xD698F, size: 0x8, addend: 0x0, symName: __ZNSt3__14pairIKNS_12basic_stringIcNS_11char_traitsIcEENS_9allocatorIcEEEEN4tbin13PropertyValueEEC2B9nqe210106IS6_S9_Li0EEEONS0_IT_T0_EE, symObjAddr: 0x11720, symBinAddr: 0x18050, symSize: 0x40 }
  - { offset: 0xD69E5, size: 0x8, addend: 0x0, symName: __ZN4tbin13PropertyValueC1EOS0_, symObjAddr: 0x11760, symBinAddr: 0x18090, symSize: 0x30 }
  - { offset: 0xD6A1A, size: 0x8, addend: 0x0, symName: __ZN4tbin13PropertyValueC2EOS0_, symObjAddr: 0x11790, symBinAddr: 0x180C0, symSize: 0x40 }
  - { offset: 0xD6A4F, size: 0x8, addend: 0x0, symName: __ZNSt3__14pairINS_14__map_iteratorINS_15__tree_iteratorINS_12__value_typeINS_12basic_stringIcNS_11char_traitsIcEENS_9allocatorIcEEEEN4tbin13PropertyValueEEEPNS_11__tree_nodeISC_PvEElEEEEbEC2B9nqe210106ISH_bLi0EEEONS0_IT_T0_EE, symObjAddr: 0x117D0, symBinAddr: 0x18100, symSize: 0x50 }
  - { offset: 0xD6A9F, size: 0x8, addend: 0x0, symName: __ZNSt3__14pairINS_12basic_stringIcNS_11char_traitsIcEENS_9allocatorIcEEEEN4tbin13PropertyValueEEC1B9nqe210106IS6_RS8_Li0EEEOT_OT0_, symObjAddr: 0x11820, symBinAddr: 0x18150, symSize: 0x30 }
  - { offset: 0xD6AFD, size: 0x8, addend: 0x0, symName: __ZNSt3__14pairINS_12basic_stringIcNS_11char_traitsIcEENS_9allocatorIcEEEEN4tbin13PropertyValueEEC2B9nqe210106IS6_RS8_Li0EEEOT_OT0_, symObjAddr: 0x11850, symBinAddr: 0x18180, symSize: 0x60 }
  - { offset: 0xD6B5B, size: 0x8, addend: 0x0, symName: __ZNSt3__14pairINS_12basic_stringIcNS_11char_traitsIcEENS_9allocatorIcEEEEN4tbin13PropertyValueEED2Ev, symObjAddr: 0x118B0, symBinAddr: 0x181E0, symSize: 0x30 }
  - { offset: 0xD6B87, size: 0x8, addend: 0x0, symName: __ZN4tbin9TileSheetC2Ev, symObjAddr: 0x118E0, symBinAddr: 0x18210, symSize: 0xD0 }
  - { offset: 0xD6BB3, size: 0x8, addend: 0x0, symName: __ZN4tbin8Vector2iC1Ev, symObjAddr: 0x119B0, symBinAddr: 0x182E0, symSize: 0x20 }
  - { offset: 0xD6BDD, size: 0x8, addend: 0x0, symName: __ZN4tbin8Vector2iC2Ev, symObjAddr: 0x119D0, symBinAddr: 0x18300, symSize: 0x20 }
  - { offset: 0xD6C07, size: 0x8, addend: 0x0, symName: __ZN5QSizeC1Eii, symObjAddr: 0x119F0, symBinAddr: 0x18320, symSize: 0x30 }
  - { offset: 0xD6C4E, size: 0x8, addend: 0x0, symName: __ZN5QSizeC2Eii, symObjAddr: 0x11A20, symBinAddr: 0x18350, symSize: 0x40 }
  - { offset: 0xD6C95, size: 0x8, addend: 0x0, symName: __ZN9QtPrivate16QCheckedIntegers11QCheckedIntIiNS0_13SafeCheckImplIiEENS0_18AssertReportPolicyEEC1Ei, symObjAddr: 0x11A60, symBinAddr: 0x18390, symSize: 0x30 }
  - { offset: 0xD6CCD, size: 0x8, addend: 0x0, symName: __ZN9QtPrivate16QCheckedIntegers11QCheckedIntIiNS0_13SafeCheckImplIiEENS0_18AssertReportPolicyEEC2Ei, symObjAddr: 0x11A90, symBinAddr: 0x183C0, symSize: 0x20 }
  - { offset: 0xD6D05, size: 0x8, addend: 0x0, symName: __ZNK9QtPrivate16QCheckedIntegers11QCheckedIntIiNS0_13SafeCheckImplIiEENS0_18AssertReportPolicyEE5valueEv, symObjAddr: 0x11AB0, symBinAddr: 0x183E0, symSize: 0x10 }
  - { offset: 0xD6D2B, size: 0x8, addend: 0x0, symName: __ZN4QMapI7QString8QVariantEC2Ev, symObjAddr: 0x11AC0, symBinAddr: 0x183F0, symSize: 0x20 }
  - { offset: 0xD6D55, size: 0x8, addend: 0x0, symName: __ZN9QtPrivate30QExplicitlySharedDataPointerV2I8QMapDataINSt3__13mapI7QString8QVariantNS2_4lessIS4_EENS2_9allocatorINS2_4pairIKS4_S5_EEEEEEEEC1Ev, symObjAddr: 0x11AE0, symBinAddr: 0x18410, symSize: 0x20 }
  - { offset: 0xD6D7F, size: 0x8, addend: 0x0, symName: __ZN9QtPrivate30QExplicitlySharedDataPointerV2I8QMapDataINSt3__13mapI7QString8QVariantNS2_4lessIS4_EENS2_9allocatorINS2_4pairIKS4_S5_EEEEEEEEC2Ev, symObjAddr: 0x11B00, symBinAddr: 0x18430, symSize: 0x30 }
  - { offset: 0xD6DA9, size: 0x8, addend: 0x0, symName: __ZN2Qt23totally_ordered_wrapperIP8QMapDataINSt3__13mapI7QString8QVariantNS2_4lessIS4_EENS2_9allocatorINS2_4pairIKS4_S5_EEEEEEEEC1EDn, symObjAddr: 0x11B30, symBinAddr: 0x18460, symSize: 0x30 }
  - { offset: 0xD6DDF, size: 0x8, addend: 0x0, symName: __ZN2Qt23totally_ordered_wrapperIP8QMapDataINSt3__13mapI7QString8QVariantNS2_4lessIS4_EENS2_9allocatorINS2_4pairIKS4_S5_EEEEEEEEC1ESF_, symObjAddr: 0x11B60, symBinAddr: 0x18490, symSize: 0x30 }
  - { offset: 0xD6E18, size: 0x8, addend: 0x0, symName: __ZN2Qt23totally_ordered_wrapperIP8QMapDataINSt3__13mapI7QString8QVariantNS2_4lessIS4_EENS2_9allocatorINS2_4pairIKS4_S5_EEEEEEEEC2ESF_, symObjAddr: 0x11B90, symBinAddr: 0x184C0, symSize: 0x20 }
  - { offset: 0xD6E51, size: 0x8, addend: 0x0, symName: __ZN7QStringpLERKS_, symObjAddr: 0x11BB0, symBinAddr: 0x184E0, symSize: 0x30 }
  - { offset: 0xD6E86, size: 0x8, addend: 0x0, symName: __ZN7QStringC1EOS_, symObjAddr: 0x11BE0, symBinAddr: 0x18510, symSize: 0x30 }
  - { offset: 0xD6EBF, size: 0x8, addend: 0x0, symName: __ZN7QStringC2EOS_, symObjAddr: 0x11C10, symBinAddr: 0x18540, symSize: 0x30 }
  - { offset: 0xD6EF8, size: 0x8, addend: 0x0, symName: __ZN7QStringpLE5QChar, symObjAddr: 0x11C40, symBinAddr: 0x18570, symSize: 0x30 }
  - { offset: 0xD6F2D, size: 0x8, addend: 0x0, symName: __ZN7QString10fromLatin1EPKcx, symObjAddr: 0x11C70, symBinAddr: 0x185A0, symSize: 0x80 }
  - { offset: 0xD6F60, size: 0x8, addend: 0x0, symName: __ZNK13QLatin1String4dataEv, symObjAddr: 0x11CF0, symBinAddr: 0x18620, symSize: 0x20 }
  - { offset: 0xD6F86, size: 0x8, addend: 0x0, symName: __ZN4QMapI7QString8QVariantED2Ev, symObjAddr: 0x11D10, symBinAddr: 0x18640, symSize: 0x20 }
  - { offset: 0xD6FB2, size: 0x8, addend: 0x0, symName: __ZN9QtPrivate30QExplicitlySharedDataPointerV2I8QMapDataINSt3__13mapI7QString8QVariantNS2_4lessIS4_EENS2_9allocatorINS2_4pairIKS4_S5_EEEEEEEED1Ev, symObjAddr: 0x11D30, symBinAddr: 0x18660, symSize: 0x20 }
  - { offset: 0xD6FDC, size: 0x8, addend: 0x0, symName: __ZN9QtPrivate30QExplicitlySharedDataPointerV2I8QMapDataINSt3__13mapI7QString8QVariantNS2_4lessIS4_EENS2_9allocatorINS2_4pairIKS4_S5_EEEEEEEED2Ev, symObjAddr: 0x11D50, symBinAddr: 0x18680, symSize: 0x70 }
  - { offset: 0xD7006, size: 0x8, addend: 0x0, symName: __ZNK2Qt23totally_ordered_wrapperIP8QMapDataINSt3__13mapI7QString8QVariantNS2_4lessIS4_EENS2_9allocatorINS2_4pairIKS4_S5_EEEEEEEEcvbEv, symObjAddr: 0x11DC0, symBinAddr: 0x186F0, symSize: 0x30 }
  - { offset: 0xD702C, size: 0x8, addend: 0x0, symName: __ZNK2Qt23totally_ordered_wrapperIP8QMapDataINSt3__13mapI7QString8QVariantNS2_4lessIS4_EENS2_9allocatorINS2_4pairIKS4_S5_EEEEEEEEptEv, symObjAddr: 0x11DF0, symBinAddr: 0x18720, symSize: 0x20 }
  - { offset: 0xD7052, size: 0x8, addend: 0x0, symName: __ZNK2Qt23totally_ordered_wrapperIP8QMapDataINSt3__13mapI7QString8QVariantNS2_4lessIS4_EENS2_9allocatorINS2_4pairIKS4_S5_EEEEEEEE3getEv, symObjAddr: 0x11E10, symBinAddr: 0x18740, symSize: 0x20 }
  - { offset: 0xD7078, size: 0x8, addend: 0x0, symName: __ZN8QMapDataINSt3__13mapI7QString8QVariantNS0_4lessIS2_EENS0_9allocatorINS0_4pairIKS2_S3_EEEEEEED1Ev, symObjAddr: 0x11E30, symBinAddr: 0x18760, symSize: 0x20 }
  - { offset: 0xD70A4, size: 0x8, addend: 0x0, symName: __ZN8QMapDataINSt3__13mapI7QString8QVariantNS0_4lessIS2_EENS0_9allocatorINS0_4pairIKS2_S3_EEEEEEED2Ev, symObjAddr: 0x11E50, symBinAddr: 0x18780, symSize: 0x20 }
  - { offset: 0xD70D0, size: 0x8, addend: 0x0, symName: __ZNSt3__13mapI7QString8QVariantNS_4lessIS1_EENS_9allocatorINS_4pairIKS1_S2_EEEEED1B9nqe210106Ev, symObjAddr: 0x11E70, symBinAddr: 0x187A0, symSize: 0x20 }
  - { offset: 0xD70FA, size: 0x8, addend: 0x0, symName: __ZNSt3__13mapI7QString8QVariantNS_4lessIS1_EENS_9allocatorINS_4pairIKS1_S2_EEEEED2B9nqe210106Ev, symObjAddr: 0x11E90, symBinAddr: 0x187C0, symSize: 0x20 }
  - { offset: 0xD7124, size: 0x8, addend: 0x0, symName: __ZNSt3__16__treeINS_12__value_typeI7QString8QVariantEENS_19__map_value_compareIS2_NS_4pairIKS2_S3_EENS_4lessIS2_EELb1EEENS_9allocatorIS8_EEED1Ev, symObjAddr: 0x11EB0, symBinAddr: 0x187E0, symSize: 0x20 }
  - { offset: 0xD7150, size: 0x8, addend: 0x0, symName: __ZNSt3__16__treeINS_12__value_typeI7QString8QVariantEENS_19__map_value_compareIS2_NS_4pairIKS2_S3_EENS_4lessIS2_EELb1EEENS_9allocatorIS8_EEED2Ev, symObjAddr: 0x11ED0, symBinAddr: 0x18800, symSize: 0x30 }
  - { offset: 0xD717C, size: 0x8, addend: 0x0, symName: __ZNSt3__16__treeINS_12__value_typeI7QString8QVariantEENS_19__map_value_compareIS2_NS_4pairIKS2_S3_EENS_4lessIS2_EELb1EEENS_9allocatorIS8_EEE7destroyEPNS_11__tree_nodeIS4_PvEE, symObjAddr: 0x11F00, symBinAddr: 0x18830, symSize: 0x80 }
  - { offset: 0xD71C9, size: 0x8, addend: 0x0, symName: __ZNKSt3__16__treeINS_12__value_typeI7QString8QVariantEENS_19__map_value_compareIS2_NS_4pairIKS2_S3_EENS_4lessIS2_EELb1EEENS_9allocatorIS8_EEE6__rootB9nqe210106Ev, symObjAddr: 0x11F80, symBinAddr: 0x188B0, symSize: 0x20 }
  - { offset: 0xD71EF, size: 0x8, addend: 0x0, symName: __ZNSt3__16__treeINS_12__value_typeI7QString8QVariantEENS_19__map_value_compareIS2_NS_4pairIKS2_S3_EENS_4lessIS2_EELb1EEENS_9allocatorIS8_EEE12__node_allocB9nqe210106Ev, symObjAddr: 0x11FA0, symBinAddr: 0x188D0, symSize: 0x20 }
  - { offset: 0xD7215, size: 0x8, addend: 0x0, symName: __ZNSt3__116allocator_traitsINS_9allocatorINS_11__tree_nodeINS_12__value_typeI7QString8QVariantEEPvEEEEE7destroyB9nqe210106INS_4pairIKS4_S5_EELi0EEEvRS9_PT_, symObjAddr: 0x11FC0, symBinAddr: 0x188F0, symSize: 0x20 }
  - { offset: 0xD7254, size: 0x8, addend: 0x0, symName: __ZNSt3__116allocator_traitsINS_9allocatorINS_11__tree_nodeINS_12__value_typeI7QString8QVariantEEPvEEEEE10deallocateB9nqe210106ERS9_PS8_m, symObjAddr: 0x11FE0, symBinAddr: 0x18910, symSize: 0x30 }
  - { offset: 0xD7296, size: 0x8, addend: 0x0, symName: __ZNSt3__14pairIK7QString8QVariantED1Ev, symObjAddr: 0x12030, symBinAddr: 0x18960, symSize: 0x20 }
  - { offset: 0xD72C2, size: 0x8, addend: 0x0, symName: __ZNSt3__14pairIK7QString8QVariantED2Ev, symObjAddr: 0x12050, symBinAddr: 0x18980, symSize: 0x30 }
  - { offset: 0xD72EE, size: 0x8, addend: 0x0, symName: __ZNSt3__19allocatorINS_11__tree_nodeINS_12__value_typeI7QString8QVariantEEPvEEE10deallocateB9nqe210106EPS7_m, symObjAddr: 0x12080, symBinAddr: 0x189B0, symSize: 0x30 }
  - { offset: 0xD7330, size: 0x8, addend: 0x0, symName: __ZNKSt3__16__treeINS_12__value_typeI7QString8QVariantEENS_19__map_value_compareIS2_NS_4pairIKS2_S3_EENS_4lessIS2_EELb1EEENS_9allocatorIS8_EEE10__end_nodeB9nqe210106Ev, symObjAddr: 0x12100, symBinAddr: 0x18A30, symSize: 0x20 }
  - { offset: 0xD7365, size: 0x8, addend: 0x0, symName: __ZZNK5QListIPN5Tiled5LayerEE4sizeEvENKUlvE_clEv, symObjAddr: 0x12170, symBinAddr: 0x18A50, symSize: 0x50 }
  - { offset: 0xD738F, size: 0x8, addend: 0x0, symName: __ZN4tbin5LayerC2Ev, symObjAddr: 0x121C0, symBinAddr: 0x18AA0, symSize: 0xA0 }
  - { offset: 0xD73BB, size: 0x8, addend: 0x0, symName: __ZNSt3__16vectorIN4tbin4TileENS_9allocatorIS2_EEEC1B9nqe210106Ev, symObjAddr: 0x12260, symBinAddr: 0x18B40, symSize: 0x20 }
  - { offset: 0xD73E5, size: 0x8, addend: 0x0, symName: __ZNSt3__16vectorIN4tbin4TileENS_9allocatorIS2_EEEC2B9nqe210106Ev, symObjAddr: 0x12280, symBinAddr: 0x18B60, symSize: 0x40 }
  - { offset: 0xD740F, size: 0x8, addend: 0x0, symName: __ZNSt3__19allocatorIN4tbin4TileEEC1B9nqe210106Ev, symObjAddr: 0x122C0, symBinAddr: 0x18BA0, symSize: 0x20 }
  - { offset: 0xD7439, size: 0x8, addend: 0x0, symName: __ZNSt3__19allocatorIN4tbin4TileEEC2B9nqe210106Ev, symObjAddr: 0x122E0, symBinAddr: 0x18BC0, symSize: 0x20 }
  - { offset: 0xD7463, size: 0x8, addend: 0x0, symName: __ZNSt3__116__non_trivial_ifILb1ENS_9allocatorIN4tbin4TileEEEEC2B9nqe210106Ev, symObjAddr: 0x12300, symBinAddr: 0x18BE0, symSize: 0x10 }
  - { offset: 0xD748D, size: 0x8, addend: 0x0, symName: __ZNK5Tiled9TileLayer9findChunkEii, symObjAddr: 0x12310, symBinAddr: 0x18BF0, symSize: 0xA0 }
  - { offset: 0xD74F1, size: 0x8, addend: 0x0, symName: __ZNK5Tiled5Chunk6cellAtEii, symObjAddr: 0x123B0, symBinAddr: 0x18C90, symSize: 0x30 }
  - { offset: 0xD7534, size: 0x8, addend: 0x0, symName: __ZNK5QHashI6QPointN5Tiled5ChunkEE4findERKS0_, symObjAddr: 0x123E0, symBinAddr: 0x18CC0, symSize: 0x40 }
  - { offset: 0xD7569, size: 0x8, addend: 0x0, symName: __ZNK5QHashI6QPointN5Tiled5ChunkEE14const_iteratorneERKS4_, symObjAddr: 0x12420, symBinAddr: 0x18D00, symSize: 0x40 }
  - { offset: 0xD759E, size: 0x8, addend: 0x0, symName: __ZNK5QHashI6QPointN5Tiled5ChunkEE3endEv, symObjAddr: 0x12460, symBinAddr: 0x18D40, symSize: 0x30 }
  - { offset: 0xD75C4, size: 0x8, addend: 0x0, symName: __ZNK5QHashI6QPointN5Tiled5ChunkEE14const_iterator5valueEv, symObjAddr: 0x12490, symBinAddr: 0x18D70, symSize: 0x20 }
  - { offset: 0xD75EA, size: 0x8, addend: 0x0, symName: __ZNK5QHashI6QPointN5Tiled5ChunkEE13constFindImplIS0_EENS3_14const_iteratorERKT_, symObjAddr: 0x124B0, symBinAddr: 0x18D90, symSize: 0xC0 }
  - { offset: 0xD7637, size: 0x8, addend: 0x0, symName: __ZNK5QHashI6QPointN5Tiled5ChunkEE7isEmptyEv, symObjAddr: 0x12570, symBinAddr: 0x18E50, symSize: 0x40 }
  - { offset: 0xD765D, size: 0x8, addend: 0x0, symName: __ZNK12QHashPrivate4DataINS_4NodeI6QPointN5Tiled5ChunkEEEE10findBucketIS2_EENS6_6BucketERKT_, symObjAddr: 0x125B0, symBinAddr: 0x18E90, symSize: 0x70 }
  - { offset: 0xD76AA, size: 0x8, addend: 0x0, symName: __ZNK12QHashPrivate4DataINS_4NodeI6QPointN5Tiled5ChunkEEEE6Bucket8isUnusedEv, symObjAddr: 0x12620, symBinAddr: 0x18F00, symSize: 0x30 }
  - { offset: 0xD76D0, size: 0x8, addend: 0x0, symName: __ZNK12QHashPrivate4DataINS_4NodeI6QPointN5Tiled5ChunkEEEE6Bucket13toBucketIndexEPKS6_, symObjAddr: 0x12650, symBinAddr: 0x18F30, symSize: 0x40 }
  - { offset: 0xD7705, size: 0x8, addend: 0x0, symName: __ZN5QHashI6QPointN5Tiled5ChunkEE14const_iteratorC1EN12QHashPrivate8iteratorINS5_4NodeIS0_S2_EEEE, symObjAddr: 0x12690, symBinAddr: 0x18F70, symSize: 0x30 }
  - { offset: 0xD773E, size: 0x8, addend: 0x0, symName: __ZNK12QHashPrivate4DataINS_4NodeI6QPointN5Tiled5ChunkEEEE18findBucketWithHashIS2_EENS6_6BucketERKT_m, symObjAddr: 0x126F0, symBinAddr: 0x18FD0, symSize: 0xE0 }
  - { offset: 0xD77C6, size: 0x8, addend: 0x0, symName: __ZN12QHashPrivate4DataINS_4NodeI6QPointN5Tiled5ChunkEEEE6BucketC1EPKS6_m, symObjAddr: 0x127F0, symBinAddr: 0x190D0, symSize: 0x30 }
  - { offset: 0xD780E, size: 0x8, addend: 0x0, symName: __ZNK12QHashPrivate4DataINS_4NodeI6QPointN5Tiled5ChunkEEEE6Bucket6offsetEv, symObjAddr: 0x12820, symBinAddr: 0x19100, symSize: 0x30 }
  - { offset: 0xD7834, size: 0x8, addend: 0x0, symName: __ZN12QHashPrivate4DataINS_4NodeI6QPointN5Tiled5ChunkEEEE6Bucket12nodeAtOffsetEm, symObjAddr: 0x12850, symBinAddr: 0x19130, symSize: 0x30 }
  - { offset: 0xD7868, size: 0x8, addend: 0x0, symName: __Z11qHashEqualsI6QPointEbRKT_S3_, symObjAddr: 0x12880, symBinAddr: 0x19160, symSize: 0x30 }
  - { offset: 0xD78AF, size: 0x8, addend: 0x0, symName: __ZN12QHashPrivate4DataINS_4NodeI6QPointN5Tiled5ChunkEEEE6Bucket14advanceWrappedEPKS6_, symObjAddr: 0x128B0, symBinAddr: 0x19190, symSize: 0x30 }
  - { offset: 0xD78E4, size: 0x8, addend: 0x0, symName: __ZN12QHashPrivate4DataINS_4NodeI6QPointN5Tiled5ChunkEEEE6BucketC2EPKS6_m, symObjAddr: 0x128E0, symBinAddr: 0x191C0, symSize: 0x40 }
  - { offset: 0xD792C, size: 0x8, addend: 0x0, symName: __ZNK12QHashPrivate4SpanINS_4NodeI6QPointN5Tiled5ChunkEEEE6offsetEm, symObjAddr: 0x12920, symBinAddr: 0x19200, symSize: 0x20 }
  - { offset: 0xD7961, size: 0x8, addend: 0x0, symName: __ZN12QHashPrivate4SpanINS_4NodeI6QPointN5Tiled5ChunkEEEE8atOffsetEm, symObjAddr: 0x12940, symBinAddr: 0x19220, symSize: 0x80 }
  - { offset: 0xD7996, size: 0x8, addend: 0x0, symName: __ZN12QHashPrivate4SpanINS_4NodeI6QPointN5Tiled5ChunkEEEE5Entry4nodeEv, symObjAddr: 0x129C0, symBinAddr: 0x192A0, symSize: 0x10 }
  - { offset: 0xD79BB, size: 0x8, addend: 0x0, symName: __ZeqRK6QPointS1_, symObjAddr: 0x129D0, symBinAddr: 0x192B0, symSize: 0x30 }
  - { offset: 0xD7A09, size: 0x8, addend: 0x0, symName: __Z13comparesEqualRK6QPointS1_, symObjAddr: 0x12A00, symBinAddr: 0x192E0, symSize: 0x50 }
  - { offset: 0xD7A44, size: 0x8, addend: 0x0, symName: __ZN12QHashPrivate4DataINS_4NodeI6QPointN5Tiled5ChunkEEEE6Bucket12advance_implEPKS6_PNS_4SpanIS5_EE, symObjAddr: 0x12AB0, symBinAddr: 0x19390, symSize: 0xC0 }
  - { offset: 0xD7A88, size: 0x8, addend: 0x0, symName: __ZNK12QHashPrivate4SpanINS_4NodeI6QPointN5Tiled5ChunkEEEE7hasNodeEm, symObjAddr: 0x12B70, symBinAddr: 0x19450, symSize: 0x30 }
  - { offset: 0xD7ABD, size: 0x8, addend: 0x0, symName: __ZN5QHashI6QPointN5Tiled5ChunkEE14const_iteratorC2EN12QHashPrivate8iteratorINS5_4NodeIS0_S2_EEEE, symObjAddr: 0x12BA0, symBinAddr: 0x19480, symSize: 0x30 }
  - { offset: 0xD7AF6, size: 0x8, addend: 0x0, symName: __ZNK12QHashPrivate8iteratorINS_4NodeI6QPointN5Tiled5ChunkEEEEneES6_, symObjAddr: 0x12BD0, symBinAddr: 0x194B0, symSize: 0x40 }
  - { offset: 0xD7B2B, size: 0x8, addend: 0x0, symName: __ZNK12QHashPrivate8iteratorINS_4NodeI6QPointN5Tiled5ChunkEEEEeqES6_, symObjAddr: 0x12C10, symBinAddr: 0x194F0, symSize: 0x40 }
  - { offset: 0xD7B60, size: 0x8, addend: 0x0, symName: __ZN5QHashI6QPointN5Tiled5ChunkEE14const_iteratorC1Ev, symObjAddr: 0x12C50, symBinAddr: 0x19530, symSize: 0x20 }
  - { offset: 0xD7B8A, size: 0x8, addend: 0x0, symName: __ZN5QHashI6QPointN5Tiled5ChunkEE14const_iteratorC2Ev, symObjAddr: 0x12C70, symBinAddr: 0x19550, symSize: 0x20 }
  - { offset: 0xD7BB4, size: 0x8, addend: 0x0, symName: __ZN12QHashPrivate8iteratorINS_4NodeI6QPointN5Tiled5ChunkEEEEC1Ev, symObjAddr: 0x12C90, symBinAddr: 0x19570, symSize: 0x20 }
  - { offset: 0xD7BE1, size: 0x8, addend: 0x0, symName: __ZN12QHashPrivate8iteratorINS_4NodeI6QPointN5Tiled5ChunkEEEEC2Ev, symObjAddr: 0x12CB0, symBinAddr: 0x19590, symSize: 0x20 }
  - { offset: 0xD7C0E, size: 0x8, addend: 0x0, symName: __ZNK12QHashPrivate8iteratorINS_4NodeI6QPointN5Tiled5ChunkEEEE4nodeEv, symObjAddr: 0x12CD0, symBinAddr: 0x195B0, symSize: 0x80 }
  - { offset: 0xD7C34, size: 0x8, addend: 0x0, symName: __ZNK12QHashPrivate8iteratorINS_4NodeI6QPointN5Tiled5ChunkEEEE8isUnusedEv, symObjAddr: 0x12D50, symBinAddr: 0x19630, symSize: 0x60 }
  - { offset: 0xD7C5A, size: 0x8, addend: 0x0, symName: __ZNK12QHashPrivate8iteratorINS_4NodeI6QPointN5Tiled5ChunkEEEE4spanEv, symObjAddr: 0x12DB0, symBinAddr: 0x19690, symSize: 0x20 }
  - { offset: 0xD7C80, size: 0x8, addend: 0x0, symName: __ZN12QHashPrivate4SpanINS_4NodeI6QPointN5Tiled5ChunkEEEE2atEm, symObjAddr: 0x12DD0, symBinAddr: 0x196B0, symSize: 0x90 }
  - { offset: 0xD7CB5, size: 0x8, addend: 0x0, symName: __ZNK12QHashPrivate8iteratorINS_4NodeI6QPointN5Tiled5ChunkEEEE5indexEv, symObjAddr: 0x12E60, symBinAddr: 0x19740, symSize: 0x20 }
  - { offset: 0xD7CDB, size: 0x8, addend: 0x0, symName: __ZNK5QListIN5Tiled4CellEE2atEx, symObjAddr: 0x12E80, symBinAddr: 0x19760, symSize: 0x70 }
  - { offset: 0xD7D10, size: 0x8, addend: 0x0, symName: __ZNK17QArrayDataPointerIN5Tiled4CellEEptEv, symObjAddr: 0x12EF0, symBinAddr: 0x197D0, symSize: 0x10 }
  - { offset: 0xD7D36, size: 0x8, addend: 0x0, symName: __ZNK5QListIN5Tiled4CellEE4dataEv, symObjAddr: 0x12F00, symBinAddr: 0x197E0, symSize: 0x30 }
  - { offset: 0xD7D5C, size: 0x8, addend: 0x0, symName: __ZNK17QArrayDataPointerIN5Tiled4CellEE4dataEv, symObjAddr: 0x12F30, symBinAddr: 0x19810, symSize: 0x20 }
  - { offset: 0xD7D82, size: 0x8, addend: 0x0, symName: __ZN4tbin4TileC2Ev, symObjAddr: 0x12F50, symBinAddr: 0x19830, symSize: 0x50 }
  - { offset: 0xD7DB3, size: 0x8, addend: 0x0, symName: __ZN4tbin4TileUt_C1Ev, symObjAddr: 0x12FA0, symBinAddr: 0x19880, symSize: 0x20 }
  - { offset: 0xD7DDF, size: 0x8, addend: 0x0, symName: __ZN4tbin4TileUt0_C1Ev, symObjAddr: 0x12FC0, symBinAddr: 0x198A0, symSize: 0x20 }
  - { offset: 0xD7E0B, size: 0x8, addend: 0x0, symName: __ZN4tbin4TileUt_C2Ev, symObjAddr: 0x12FE0, symBinAddr: 0x198C0, symSize: 0x20 }
  - { offset: 0xD7E37, size: 0x8, addend: 0x0, symName: __ZN4tbin4TileUt0_C2Ev, symObjAddr: 0x13000, symBinAddr: 0x198E0, symSize: 0x30 }
  - { offset: 0xD7E63, size: 0x8, addend: 0x0, symName: __ZNK5Tiled4Cell19flippedHorizontallyEv, symObjAddr: 0x13030, symBinAddr: 0x19910, symSize: 0x20 }
  - { offset: 0xD7E89, size: 0x8, addend: 0x0, symName: __ZNK5Tiled4Cell17flippedVerticallyEv, symObjAddr: 0x13050, symBinAddr: 0x19930, symSize: 0x20 }
  - { offset: 0xD7EAF, size: 0x8, addend: 0x0, symName: __ZNK5Tiled4Cell21flippedAntiDiagonallyEv, symObjAddr: 0x13070, symBinAddr: 0x19950, symSize: 0x20 }
  - { offset: 0xD7ED5, size: 0x8, addend: 0x0, symName: __ZNK5Tiled4Cell19rotatedHexagonal120Ev, symObjAddr: 0x13090, symBinAddr: 0x19970, symSize: 0x20 }
  - { offset: 0xD7EFB, size: 0x8, addend: 0x0, symName: __ZNSt3__18functionIFvvEEC1EOS2_, symObjAddr: 0x131D0, symBinAddr: 0x19AB0, symSize: 0x30 }
  - { offset: 0xD7F34, size: 0x8, addend: 0x0, symName: __ZN5Tiled5IssueD1Ev, symObjAddr: 0x13230, symBinAddr: 0x19B10, symSize: 0x20 }
  - { offset: 0xD7F60, size: 0x8, addend: 0x0, symName: __ZN5Tiled5IssueD2Ev, symObjAddr: 0x13250, symBinAddr: 0x19B30, symSize: 0x30 }
  - { offset: 0xD7F8C, size: 0x8, addend: 0x0, symName: __ZNSt3__18functionIFvvEEC2EOS2_, symObjAddr: 0x13280, symBinAddr: 0x19B60, symSize: 0x30 }
  - { offset: 0xD7FC5, size: 0x8, addend: 0x0, symName: __ZNSt3__110__function12__value_funcIFvvEEC1B9nqe210106EOS3_, symObjAddr: 0x132B0, symBinAddr: 0x19B90, symSize: 0x30 }
  - { offset: 0xD7FFD, size: 0x8, addend: 0x0, symName: __ZNSt3__110__function12__value_funcIFvvEEC2B9nqe210106EOS3_, symObjAddr: 0x132E0, symBinAddr: 0x19BC0, symSize: 0xB0 }
  - { offset: 0xD8035, size: 0x8, addend: 0x0, symName: __ZNSt3__110__function12__value_funcIFvvEE9__as_baseB9nqe210106EPv, symObjAddr: 0x13390, symBinAddr: 0x19C70, symSize: 0x10 }
  - { offset: 0xD8058, size: 0x8, addend: 0x0, symName: __ZN6QPointC2Eii, symObjAddr: 0x133A0, symBinAddr: 0x19C80, symSize: 0x40 }
  - { offset: 0xD809F, size: 0x8, addend: 0x0, symName: __ZN5Tiled10JumpToTileD2Ev, symObjAddr: 0x133E0, symBinAddr: 0x19CC0, symSize: 0x20 }
  - { offset: 0xD80CB, size: 0x8, addend: 0x0, symName: __ZNK5Tiled7Tileset8findTileEi, symObjAddr: 0x13400, symBinAddr: 0x19CE0, symSize: 0x40 }
  - { offset: 0xD8102, size: 0x8, addend: 0x0, symName: __ZNK4QMapIiPN5Tiled4TileEE5valueERKiRKS2_, symObjAddr: 0x13440, symBinAddr: 0x19D20, symSize: 0xB0 }
  - { offset: 0xD8155, size: 0x8, addend: 0x0, symName: __ZNK9QtPrivate30QExplicitlySharedDataPointerV2I8QMapDataINSt3__13mapIiPN5Tiled4TileENS2_4lessIiEENS2_9allocatorINS2_4pairIKiS6_EEEEEEEEcvbEv, symObjAddr: 0x134F0, symBinAddr: 0x19DD0, symSize: 0x30 }
  - { offset: 0xD817B, size: 0x8, addend: 0x0, symName: __ZNK9QtPrivate30QExplicitlySharedDataPointerV2I8QMapDataINSt3__13mapIiPN5Tiled4TileENS2_4lessIiEENS2_9allocatorINS2_4pairIKiS6_EEEEEEEEptEv, symObjAddr: 0x13520, symBinAddr: 0x19E00, symSize: 0x20 }
  - { offset: 0xD81A1, size: 0x8, addend: 0x0, symName: __ZNKSt3__13mapIiPN5Tiled4TileENS_4lessIiEENS_9allocatorINS_4pairIKiS3_EEEEE4findB9nqe210106ERS8_, symObjAddr: 0x13540, symBinAddr: 0x19E20, symSize: 0x40 }
  - { offset: 0xD81D6, size: 0x8, addend: 0x0, symName: __ZNKSt3__13mapIiPN5Tiled4TileENS_4lessIiEENS_9allocatorINS_4pairIKiS3_EEEEE4cendB9nqe210106Ev, symObjAddr: 0x135B0, symBinAddr: 0x19E90, symSize: 0x30 }
  - { offset: 0xD81FC, size: 0x8, addend: 0x0, symName: __ZNKSt3__120__map_const_iteratorINS_21__tree_const_iteratorINS_12__value_typeIiPN5Tiled4TileEEEPNS_11__tree_nodeIS6_PvEElEEEptB9nqe210106Ev, symObjAddr: 0x135E0, symBinAddr: 0x19EC0, symSize: 0x30 }
  - { offset: 0xD8222, size: 0x8, addend: 0x0, symName: __ZNK2Qt23totally_ordered_wrapperIP8QMapDataINSt3__13mapIiPN5Tiled4TileENS2_4lessIiEENS2_9allocatorINS2_4pairIKiS6_EEEEEEEE3getEv, symObjAddr: 0x13610, symBinAddr: 0x19EF0, symSize: 0x20 }
  - { offset: 0xD8248, size: 0x8, addend: 0x0, symName: __ZNKSt3__16__treeINS_12__value_typeIiPN5Tiled4TileEEENS_19__map_value_compareIiNS_4pairIKiS4_EENS_4lessIiEELb1EEENS_9allocatorIS9_EEE4findIiEENS_21__tree_const_iteratorIS5_PNS_11__tree_nodeIS5_PvEElEERKT_, symObjAddr: 0x13630, symBinAddr: 0x19F10, symSize: 0xD0 }
  - { offset: 0xD8295, size: 0x8, addend: 0x0, symName: __ZNSt3__120__map_const_iteratorINS_21__tree_const_iteratorINS_12__value_typeIiPN5Tiled4TileEEEPNS_11__tree_nodeIS6_PvEElEEEC1B9nqe210106ESB_, symObjAddr: 0x13700, symBinAddr: 0x19FE0, symSize: 0x30 }
  - { offset: 0xD82CE, size: 0x8, addend: 0x0, symName: __ZNKSt3__16__treeINS_12__value_typeIiPN5Tiled4TileEEENS_19__map_value_compareIiNS_4pairIKiS4_EENS_4lessIiEELb1EEENS_9allocatorIS9_EEE13__lower_boundIiEENS_21__tree_const_iteratorIS5_PNS_11__tree_nodeIS5_PvEElEERKT_SL_PNS_15__tree_end_nodeIPNS_16__tree_node_baseISJ_EEEE, symObjAddr: 0x13730, symBinAddr: 0x1A010, symSize: 0x90 }
  - { offset: 0xD832A, size: 0x8, addend: 0x0, symName: __ZNKSt3__16__treeINS_12__value_typeIiPN5Tiled4TileEEENS_19__map_value_compareIiNS_4pairIKiS4_EENS_4lessIiEELb1EEENS_9allocatorIS9_EEE6__rootB9nqe210106Ev, symObjAddr: 0x137C0, symBinAddr: 0x1A0A0, symSize: 0x20 }
  - { offset: 0xD8350, size: 0x8, addend: 0x0, symName: __ZNKSt3__16__treeINS_12__value_typeIiPN5Tiled4TileEEENS_19__map_value_compareIiNS_4pairIKiS4_EENS_4lessIiEELb1EEENS_9allocatorIS9_EEE10__end_nodeB9nqe210106Ev, symObjAddr: 0x137E0, symBinAddr: 0x1A0C0, symSize: 0x20 }
  - { offset: 0xD8376, size: 0x8, addend: 0x0, symName: __ZNKSt3__16__treeINS_12__value_typeIiPN5Tiled4TileEEENS_19__map_value_compareIiNS_4pairIKiS4_EENS_4lessIiEELb1EEENS_9allocatorIS9_EEE3endB9nqe210106Ev, symObjAddr: 0x13830, symBinAddr: 0x1A110, symSize: 0x30 }
  - { offset: 0xD839C, size: 0x8, addend: 0x0, symName: __ZNKSt3__16__treeINS_12__value_typeIiPN5Tiled4TileEEENS_19__map_value_compareIiNS_4pairIKiS4_EENS_4lessIiEELb1EEENS_9allocatorIS9_EEE10value_compB9nqe210106Ev, symObjAddr: 0x13860, symBinAddr: 0x1A140, symSize: 0x20 }
  - { offset: 0xD83C2, size: 0x8, addend: 0x0, symName: __ZNKSt3__119__map_value_compareIiNS_4pairIKiPN5Tiled4TileEEENS_4lessIiEELb1EEclB9nqe210106ERS2_RKS6_, symObjAddr: 0x13880, symBinAddr: 0x1A160, symSize: 0x30 }
  - { offset: 0xD8406, size: 0x8, addend: 0x0, symName: __ZNKSt3__121__tree_const_iteratorINS_12__value_typeIiPN5Tiled4TileEEEPNS_11__tree_nodeIS5_PvEElEdeB9nqe210106Ev, symObjAddr: 0x138B0, symBinAddr: 0x1A190, symSize: 0x20 }
  - { offset: 0xD842C, size: 0x8, addend: 0x0, symName: __ZNKSt3__119__map_value_compareIiNS_4pairIKiPN5Tiled4TileEEENS_4lessIiEELb1EEclB9nqe210106ERKS6_RS2_, symObjAddr: 0x138D0, symBinAddr: 0x1A1B0, symSize: 0x30 }
  - { offset: 0xD8470, size: 0x8, addend: 0x0, symName: __ZNSt3__121__tree_const_iteratorINS_12__value_typeIiPN5Tiled4TileEEEPNS_11__tree_nodeIS5_PvEElEC1B9nqe210106EPNS_15__tree_end_nodeIPNS_16__tree_node_baseIS7_EEEE, symObjAddr: 0x13900, symBinAddr: 0x1A1E0, symSize: 0x30 }
  - { offset: 0xD84A9, size: 0x8, addend: 0x0, symName: __ZNKSt3__14lessIiEclB9nqe210106ERKiS3_, symObjAddr: 0x13930, symBinAddr: 0x1A210, symSize: 0x30 }
  - { offset: 0xD84ED, size: 0x8, addend: 0x0, symName: __ZNSt3__121__tree_const_iteratorINS_12__value_typeIiPN5Tiled4TileEEEPNS_11__tree_nodeIS5_PvEElEC2B9nqe210106EPNS_15__tree_end_nodeIPNS_16__tree_node_baseIS7_EEEE, symObjAddr: 0x13960, symBinAddr: 0x1A240, symSize: 0x20 }
  - { offset: 0xD8526, size: 0x8, addend: 0x0, symName: __ZNKSt3__121__tree_const_iteratorINS_12__value_typeIiPN5Tiled4TileEEEPNS_11__tree_nodeIS5_PvEElE8__get_npB9nqe210106Ev, symObjAddr: 0x139B0, symBinAddr: 0x1A290, symSize: 0x20 }
  - { offset: 0xD854C, size: 0x8, addend: 0x0, symName: __ZNSt3__120__map_const_iteratorINS_21__tree_const_iteratorINS_12__value_typeIiPN5Tiled4TileEEEPNS_11__tree_nodeIS6_PvEElEEEC2B9nqe210106ESB_, symObjAddr: 0x139D0, symBinAddr: 0x1A2B0, symSize: 0x20 }
  - { offset: 0xD8585, size: 0x8, addend: 0x0, symName: __ZNKSt3__13mapIiPN5Tiled4TileENS_4lessIiEENS_9allocatorINS_4pairIKiS3_EEEEE3endB9nqe210106Ev, symObjAddr: 0x139F0, symBinAddr: 0x1A2D0, symSize: 0x30 }
  - { offset: 0xD85AB, size: 0x8, addend: 0x0, symName: __ZNSt3__114pointer_traitsIPKNS_4pairIKiPN5Tiled4TileEEEE10pointer_toB9nqe210106ERS7_, symObjAddr: 0x13A20, symBinAddr: 0x1A300, symSize: 0x10 }
  - { offset: 0xD85DD, size: 0x8, addend: 0x0, symName: __ZZNK5QListIN5Tiled5FrameEE4sizeEvENKUlvE_clEv, symObjAddr: 0x13A30, symBinAddr: 0x1A310, symSize: 0x50 }
  - { offset: 0xD8607, size: 0x8, addend: 0x0, symName: __ZN5Tiled10SelectTileD2Ev, symObjAddr: 0x13A80, symBinAddr: 0x1A360, symSize: 0x30 }
  - { offset: 0xD8633, size: 0x8, addend: 0x0, symName: __ZN12QWeakPointerIN5Tiled7TilesetEED1Ev, symObjAddr: 0x13AB0, symBinAddr: 0x1A390, symSize: 0x20 }
  - { offset: 0xD865D, size: 0x8, addend: 0x0, symName: __ZN12QWeakPointerIN5Tiled7TilesetEED2Ev, symObjAddr: 0x13AD0, symBinAddr: 0x1A3B0, symSize: 0x60 }
  - { offset: 0xD8687, size: 0x8, addend: 0x0, symName: __ZN15QtSharedPointer20ExternalRefCountDataD1Ev, symObjAddr: 0x13B30, symBinAddr: 0x1A410, symSize: 0x20 }
  - { offset: 0xD86B1, size: 0x8, addend: 0x0, symName: __ZN15QtSharedPointer20ExternalRefCountDatadlEPv, symObjAddr: 0x13B50, symBinAddr: 0x1A430, symSize: 0x20 }
  - { offset: 0xD86D4, size: 0x8, addend: 0x0, symName: __ZN15QtSharedPointer20ExternalRefCountDataD2Ev, symObjAddr: 0x13B70, symBinAddr: 0x1A450, symSize: 0x70 }
  - { offset: 0xD86FE, size: 0x8, addend: 0x0, symName: __ZNKSt3__111__wrap_iterIPPN5Tiled11ObjectGroupEE4baseB9nqe210106Ev, symObjAddr: 0x13C70, symBinAddr: 0x1A500, symSize: 0x20 }
  - { offset: 0xD8724, size: 0x8, addend: 0x0, symName: __ZN5Tiled11SelectLayerD2Ev, symObjAddr: 0x13E00, symBinAddr: 0x1A520, symSize: 0x20 }
  - { offset: 0xD874F, size: 0x8, addend: 0x0, symName: __Z13comparesEqualRK7QString13QLatin1String, symObjAddr: 0x13E20, symBinAddr: 0x1A540, symSize: 0x80 }
  - { offset: 0xD878D, size: 0x8, addend: 0x0, symName: __ZN5Tiled12JumpToObjectD2Ev, symObjAddr: 0x13F40, symBinAddr: 0x1A5C0, symSize: 0x20 }
  - { offset: 0xD87B9, size: 0x8, addend: 0x0, symName: __ZN11QStringViewC1I5QCharLb1EEEPKT_x, symObjAddr: 0x14960, symBinAddr: 0x1A5E0, symSize: 0x30 }
  - { offset: 0xD880E, size: 0x8, addend: 0x0, symName: __ZN11QStringViewC2I5QCharLb1EEEPKT_x, symObjAddr: 0x149B0, symBinAddr: 0x1A610, symSize: 0x90 }
  - { offset: 0xD8863, size: 0x8, addend: 0x0, symName: __ZN11QStringView10castHelperI5QCharEEPKDsPKT_, symObjAddr: 0x14A40, symBinAddr: 0x1A6A0, symSize: 0x10 }
  - { offset: 0xD888F, size: 0x8, addend: 0x0, symName: __ZNSt3__112basic_stringIcNS_11char_traitsIcEENS_9allocatorIcEEE13__move_assignB9nqe210106ERS5_NS_17integral_constantIbLb1EEE, symObjAddr: 0x14B80, symBinAddr: 0x1A6B0, symSize: 0x120 }
  - { offset: 0xD88F0, size: 0x8, addend: 0x0, symName: __ZNSt3__116allocator_traitsINS_9allocatorIcEEE10deallocateB9nqe210106ERS2_Pcm, symObjAddr: 0x14CA0, symBinAddr: 0x1A7D0, symSize: 0x30 }
  - { offset: 0xD8932, size: 0x8, addend: 0x0, symName: __ZNSt3__112basic_stringIcNS_11char_traitsIcEENS_9allocatorIcEEE19__move_assign_allocB9nqe210106ERS5_, symObjAddr: 0x14CF0, symBinAddr: 0x1A800, symSize: 0x30 }
  - { offset: 0xD8967, size: 0x8, addend: 0x0, symName: __ZNSt3__112basic_stringIcNS_11char_traitsIcEENS_9allocatorIcEEE16__set_short_sizeB9nqe210106Em, symObjAddr: 0x14D20, symBinAddr: 0x1A830, symSize: 0x30 }
  - { offset: 0xD899C, size: 0x8, addend: 0x0, symName: __ZNSt3__111char_traitsIcE6assignB9nqe210106ERcRKc, symObjAddr: 0x14D50, symBinAddr: 0x1A860, symSize: 0x20 }
  - { offset: 0xD89CD, size: 0x8, addend: 0x0, symName: __ZNKSt3__112basic_stringIcNS_11char_traitsIcEENS_9allocatorIcEEE17__annotate_shrinkB9nqe210106Em, symObjAddr: 0x14D90, symBinAddr: 0x1A880, symSize: 0x60 }
  - { offset: 0xD8A02, size: 0x8, addend: 0x0, symName: __ZNSt3__19allocatorIcE10deallocateB9nqe210106EPcm, symObjAddr: 0x14DF0, symBinAddr: 0x1A8E0, symSize: 0x30 }
  - { offset: 0xD8A44, size: 0x8, addend: 0x0, symName: __ZNSt3__112basic_stringIcNS_11char_traitsIcEENS_9allocatorIcEEE19__move_assign_allocB9nqe210106ERS5_NS_17integral_constantIbLb1EEE, symObjAddr: 0x14E70, symBinAddr: 0x1A960, symSize: 0x10 }
  - { offset: 0xD8A85, size: 0x8, addend: 0x0, symName: __ZNK9QtPrivate30QExplicitlySharedDataPointerV2I8QMapDataINSt3__13mapI7QString8QVariantNS2_4lessIS4_EENS2_9allocatorINS2_4pairIKS4_S5_EEEEEEEEcvbEv, symObjAddr: 0x14E90, symBinAddr: 0x1A970, symSize: 0x30 }
  - { offset: 0xD8AAB, size: 0x8, addend: 0x0, symName: __ZNK9QtPrivate30QExplicitlySharedDataPointerV2I8QMapDataINSt3__13mapI7QString8QVariantNS2_4lessIS4_EENS2_9allocatorINS2_4pairIKS4_S5_EEEEEEEEptEv, symObjAddr: 0x14EC0, symBinAddr: 0x1A9A0, symSize: 0x20 }
  - { offset: 0xD8AD1, size: 0x8, addend: 0x0, symName: __ZNKSt3__13mapI7QString8QVariantNS_4lessIS1_EENS_9allocatorINS_4pairIKS1_S2_EEEEE4findB9nqe210106ERS7_, symObjAddr: 0x14EE0, symBinAddr: 0x1A9C0, symSize: 0x40 }
  - { offset: 0xD8B06, size: 0x8, addend: 0x0, symName: __ZNKSt3__13mapI7QString8QVariantNS_4lessIS1_EENS_9allocatorINS_4pairIKS1_S2_EEEEE3endB9nqe210106Ev, symObjAddr: 0x14F50, symBinAddr: 0x1AA30, symSize: 0x30 }
  - { offset: 0xD8B2C, size: 0x8, addend: 0x0, symName: __ZNKSt3__16__treeINS_12__value_typeI7QString8QVariantEENS_19__map_value_compareIS2_NS_4pairIKS2_S3_EENS_4lessIS2_EELb1EEENS_9allocatorIS8_EEE4findIS2_EENS_21__tree_const_iteratorIS4_PNS_11__tree_nodeIS4_PvEElEERKT_, symObjAddr: 0x14F80, symBinAddr: 0x1AA60, symSize: 0xD0 }
  - { offset: 0xD8B79, size: 0x8, addend: 0x0, symName: __ZNSt3__120__map_const_iteratorINS_21__tree_const_iteratorINS_12__value_typeI7QString8QVariantEEPNS_11__tree_nodeIS5_PvEElEEEC1B9nqe210106ESA_, symObjAddr: 0x15050, symBinAddr: 0x1AB30, symSize: 0x30 }
  - { offset: 0xD8BB2, size: 0x8, addend: 0x0, symName: __ZNKSt3__16__treeINS_12__value_typeI7QString8QVariantEENS_19__map_value_compareIS2_NS_4pairIKS2_S3_EENS_4lessIS2_EELb1EEENS_9allocatorIS8_EEE13__lower_boundIS2_EENS_21__tree_const_iteratorIS4_PNS_11__tree_nodeIS4_PvEElEERKT_SK_PNS_15__tree_end_nodeIPNS_16__tree_node_baseISI_EEEE, symObjAddr: 0x15080, symBinAddr: 0x1AB60, symSize: 0x90 }
  - { offset: 0xD8C0E, size: 0x8, addend: 0x0, symName: __ZNKSt3__16__treeINS_12__value_typeI7QString8QVariantEENS_19__map_value_compareIS2_NS_4pairIKS2_S3_EENS_4lessIS2_EELb1EEENS_9allocatorIS8_EEE3endB9nqe210106Ev, symObjAddr: 0x15140, symBinAddr: 0x1AC20, symSize: 0x30 }
  - { offset: 0xD8C34, size: 0x8, addend: 0x0, symName: __ZNKSt3__16__treeINS_12__value_typeI7QString8QVariantEENS_19__map_value_compareIS2_NS_4pairIKS2_S3_EENS_4lessIS2_EELb1EEENS_9allocatorIS8_EEE10value_compB9nqe210106Ev, symObjAddr: 0x15170, symBinAddr: 0x1AC50, symSize: 0x20 }
  - { offset: 0xD8C5A, size: 0x8, addend: 0x0, symName: __ZNKSt3__119__map_value_compareI7QStringNS_4pairIKS1_8QVariantEENS_4lessIS1_EELb1EEclB9nqe210106ERS3_RKS5_, symObjAddr: 0x15190, symBinAddr: 0x1AC70, symSize: 0x30 }
  - { offset: 0xD8C9E, size: 0x8, addend: 0x0, symName: __ZNKSt3__121__tree_const_iteratorINS_12__value_typeI7QString8QVariantEEPNS_11__tree_nodeIS4_PvEElEdeB9nqe210106Ev, symObjAddr: 0x151C0, symBinAddr: 0x1ACA0, symSize: 0x20 }
  - { offset: 0xD8CC4, size: 0x8, addend: 0x0, symName: __ZNKSt3__119__map_value_compareI7QStringNS_4pairIKS1_8QVariantEENS_4lessIS1_EELb1EEclB9nqe210106ERKS5_RS3_, symObjAddr: 0x151E0, symBinAddr: 0x1ACC0, symSize: 0x30 }
  - { offset: 0xD8D08, size: 0x8, addend: 0x0, symName: __ZNSt3__121__tree_const_iteratorINS_12__value_typeI7QString8QVariantEEPNS_11__tree_nodeIS4_PvEElEC1B9nqe210106EPNS_15__tree_end_nodeIPNS_16__tree_node_baseIS6_EEEE, symObjAddr: 0x15210, symBinAddr: 0x1ACF0, symSize: 0x30 }
  - { offset: 0xD8D41, size: 0x8, addend: 0x0, symName: __ZNKSt3__14lessI7QStringEclB9nqe210106ERKS1_S4_, symObjAddr: 0x15240, symBinAddr: 0x1AD20, symSize: 0x30 }
  - { offset: 0xD8D84, size: 0x8, addend: 0x0, symName: __ZltRK7QStringS1_, symObjAddr: 0x15270, symBinAddr: 0x1AD50, symSize: 0x40 }
  - { offset: 0xD8DD7, size: 0x8, addend: 0x0, symName: __Z15compareThreeWayRK7QStringS1_, symObjAddr: 0x15300, symBinAddr: 0x1ADE0, symSize: 0x50 }
  - { offset: 0xD8E2C, size: 0x8, addend: 0x0, symName: __ZN9QtPrivate25CompareAgainstLiteralZeroC1EMS0_FvvE, symObjAddr: 0x15370, symBinAddr: 0x1AE50, symSize: 0x50 }
  - { offset: 0xD8E61, size: 0x8, addend: 0x0, symName: __ZN9QtPrivate25CompareAgainstLiteralZeroC2EMS0_FvvE, symObjAddr: 0x153C0, symBinAddr: 0x1AEA0, symSize: 0x30 }
  - { offset: 0xD8E95, size: 0x8, addend: 0x0, symName: __Z15compareThreeWayRK11QStringViewS1_, symObjAddr: 0x153F0, symBinAddr: 0x1AED0, symSize: 0x70 }
  - { offset: 0xD8EE2, size: 0x8, addend: 0x0, symName: __ZNSt3__121__tree_const_iteratorINS_12__value_typeI7QString8QVariantEEPNS_11__tree_nodeIS4_PvEElEC2B9nqe210106EPNS_15__tree_end_nodeIPNS_16__tree_node_baseIS6_EEEE, symObjAddr: 0x154A0, symBinAddr: 0x1AF80, symSize: 0x20 }
  - { offset: 0xD8F1B, size: 0x8, addend: 0x0, symName: __ZNKSt3__121__tree_const_iteratorINS_12__value_typeI7QString8QVariantEEPNS_11__tree_nodeIS4_PvEElE8__get_npB9nqe210106Ev, symObjAddr: 0x154F0, symBinAddr: 0x1AFD0, symSize: 0x20 }
  - { offset: 0xD8F41, size: 0x8, addend: 0x0, symName: __ZNSt3__120__map_const_iteratorINS_21__tree_const_iteratorINS_12__value_typeI7QString8QVariantEEPNS_11__tree_nodeIS5_PvEElEEEC2B9nqe210106ESA_, symObjAddr: 0x15510, symBinAddr: 0x1AFF0, symSize: 0x20 }
  - { offset: 0xD8F7A, size: 0x8, addend: 0x0, symName: __ZN4QMapI7QString8QVariantE28referenceHoldingDetachExceptERKS0_, symObjAddr: 0x15530, symBinAddr: 0x1B010, symSize: 0x170 }
  - { offset: 0xD8FD5, size: 0x8, addend: 0x0, symName: __ZN9QtPrivate30QExplicitlySharedDataPointerV2I8QMapDataINSt3__13mapI7QString8QVariantNS2_4lessIS4_EENS2_9allocatorINS2_4pairIKS4_S5_EEEEEEEEptEv, symObjAddr: 0x156A0, symBinAddr: 0x1B180, symSize: 0x20 }
  - { offset: 0xD8FFB, size: 0x8, addend: 0x0, symName: __ZNSt3__13mapI7QString8QVariantNS_4lessIS1_EENS_9allocatorINS_4pairIKS1_S2_EEEEE16insert_or_assignB9nqe210106IRKS2_EENS6_INS_14__map_iteratorINS_15__tree_iteratorINS_12__value_typeIS1_S2_EEPNS_11__tree_nodeISH_PvEElEEEEbEERS7_OT_, symObjAddr: 0x156C0, symBinAddr: 0x1B1A0, symSize: 0x170 }
  - { offset: 0xD9057, size: 0x8, addend: 0x0, symName: __ZN4QMapI7QString8QVariantE8iteratorC1ENSt3__114__map_iteratorINS4_15__tree_iteratorINS4_12__value_typeIS0_S1_EEPNS4_11__tree_nodeIS8_PvEElEEEE, symObjAddr: 0x15830, symBinAddr: 0x1B310, symSize: 0x30 }
  - { offset: 0xD9090, size: 0x8, addend: 0x0, symName: __ZN9QtPrivate30QExplicitlySharedDataPointerV2I8QMapDataINSt3__13mapI7QString8QVariantNS2_4lessIS4_EENS2_9allocatorINS2_4pairIKS4_S5_EEEEEEEE5resetEPSE_, symObjAddr: 0x15860, symBinAddr: 0x1B340, symSize: 0xA0 }
  - { offset: 0xD90C4, size: 0x8, addend: 0x0, symName: __ZN8QMapDataINSt3__13mapI7QString8QVariantNS0_4lessIS2_EENS0_9allocatorINS0_4pairIKS2_S3_EEEEEEEC1Ev, symObjAddr: 0x15900, symBinAddr: 0x1B3E0, symSize: 0x20 }
  - { offset: 0xD90EE, size: 0x8, addend: 0x0, symName: __ZNK9QtPrivate30QExplicitlySharedDataPointerV2I8QMapDataINSt3__13mapI7QString8QVariantNS2_4lessIS4_EENS2_9allocatorINS2_4pairIKS4_S5_EEEEEEEE8isSharedEv, symObjAddr: 0x15920, symBinAddr: 0x1B400, symSize: 0x50 }
  - { offset: 0xD9114, size: 0x8, addend: 0x0, symName: __ZN4QMapI7QString8QVariantEC1ERKS2_, symObjAddr: 0x15970, symBinAddr: 0x1B450, symSize: 0x30 }
  - { offset: 0xD9149, size: 0x8, addend: 0x0, symName: __ZN9QtPrivate30QExplicitlySharedDataPointerV2I8QMapDataINSt3__13mapI7QString8QVariantNS2_4lessIS4_EENS2_9allocatorINS2_4pairIKS4_S5_EEEEEEEEC1EPSE_, symObjAddr: 0x159A0, symBinAddr: 0x1B480, symSize: 0x30 }
  - { offset: 0xD9181, size: 0x8, addend: 0x0, symName: __ZN8QMapDataINSt3__13mapI7QString8QVariantNS0_4lessIS2_EENS0_9allocatorINS0_4pairIKS2_S3_EEEEEEE21copyIfNotEquivalentToERKSB_RS8_, symObjAddr: 0x159D0, symBinAddr: 0x1B4B0, symSize: 0x1B0 }
  - { offset: 0xD9239, size: 0x8, addend: 0x0, symName: __ZN9QtPrivate30QExplicitlySharedDataPointerV2I8QMapDataINSt3__13mapI7QString8QVariantNS2_4lessIS4_EENS2_9allocatorINS2_4pairIKS4_S5_EEEEEEEE4swapERSF_, symObjAddr: 0x15B80, symBinAddr: 0x1B660, symSize: 0x30 }
  - { offset: 0xD926D, size: 0x8, addend: 0x0, symName: __ZN2Qt23totally_ordered_wrapperIP8QMapDataINSt3__13mapI7QString8QVariantNS2_4lessIS4_EENS2_9allocatorINS2_4pairIKS4_S5_EEEEEEEE5resetESF_, symObjAddr: 0x15BB0, symBinAddr: 0x1B690, symSize: 0x20 }
  - { offset: 0xD92A2, size: 0x8, addend: 0x0, symName: __ZN8QMapDataINSt3__13mapI7QString8QVariantNS0_4lessIS2_EENS0_9allocatorINS0_4pairIKS2_S3_EEEEEEEC2Ev, symObjAddr: 0x15BD0, symBinAddr: 0x1B6B0, symSize: 0x30 }
  - { offset: 0xD92CC, size: 0x8, addend: 0x0, symName: __ZN11QSharedDataC2Ev, symObjAddr: 0x15C00, symBinAddr: 0x1B6E0, symSize: 0x20 }
  - { offset: 0xD92F6, size: 0x8, addend: 0x0, symName: __ZNSt3__13mapI7QString8QVariantNS_4lessIS1_EENS_9allocatorINS_4pairIKS1_S2_EEEEEC1B9nqe210106Ev, symObjAddr: 0x15C20, symBinAddr: 0x1B700, symSize: 0x20 }
  - { offset: 0xD9320, size: 0x8, addend: 0x0, symName: __ZN10QAtomicIntC1Ei, symObjAddr: 0x15C40, symBinAddr: 0x1B720, symSize: 0x30 }
  - { offset: 0xD9358, size: 0x8, addend: 0x0, symName: __ZN10QAtomicIntC2Ei, symObjAddr: 0x15C70, symBinAddr: 0x1B750, symSize: 0x30 }
  - { offset: 0xD9390, size: 0x8, addend: 0x0, symName: __ZN14QAtomicIntegerIiEC2Ei, symObjAddr: 0x15CA0, symBinAddr: 0x1B780, symSize: 0x30 }
  - { offset: 0xD93C8, size: 0x8, addend: 0x0, symName: __ZN19QBasicAtomicIntegerIiEC2Ei, symObjAddr: 0x15CD0, symBinAddr: 0x1B7B0, symSize: 0x30 }
  - { offset: 0xD9400, size: 0x8, addend: 0x0, symName: __ZNSt3__16atomicIiEC1B9nqe210106Ei, symObjAddr: 0x15D00, symBinAddr: 0x1B7E0, symSize: 0x30 }
  - { offset: 0xD9438, size: 0x8, addend: 0x0, symName: __ZNSt3__16atomicIiEC2B9nqe210106Ei, symObjAddr: 0x15D30, symBinAddr: 0x1B810, symSize: 0x30 }
  - { offset: 0xD9470, size: 0x8, addend: 0x0, symName: __ZNSt3__113__atomic_baseIiLb1EEC2B9nqe210106Ei, symObjAddr: 0x15D60, symBinAddr: 0x1B840, symSize: 0x30 }
  - { offset: 0xD94A8, size: 0x8, addend: 0x0, symName: __ZNSt3__113__atomic_baseIiLb0EEC2B9nqe210106Ei, symObjAddr: 0x15D90, symBinAddr: 0x1B870, symSize: 0x30 }
  - { offset: 0xD94E0, size: 0x8, addend: 0x0, symName: __ZNSt3__117__cxx_atomic_implIiNS_22__cxx_atomic_base_implIiEEEC1B9nqe210106Ei, symObjAddr: 0x15DC0, symBinAddr: 0x1B8A0, symSize: 0x30 }
  - { offset: 0xD9518, size: 0x8, addend: 0x0, symName: __ZNSt3__117__cxx_atomic_implIiNS_22__cxx_atomic_base_implIiEEEC2B9nqe210106Ei, symObjAddr: 0x15DF0, symBinAddr: 0x1B8D0, symSize: 0x30 }
  - { offset: 0xD9550, size: 0x8, addend: 0x0, symName: __ZNSt3__122__cxx_atomic_base_implIiEC2Ei, symObjAddr: 0x15E20, symBinAddr: 0x1B900, symSize: 0x20 }
  - { offset: 0xD9588, size: 0x8, addend: 0x0, symName: __ZNSt3__13mapI7QString8QVariantNS_4lessIS1_EENS_9allocatorINS_4pairIKS1_S2_EEEEEC2B9nqe210106Ev, symObjAddr: 0x15E40, symBinAddr: 0x1B920, symSize: 0x30 }
  - { offset: 0xD95B2, size: 0x8, addend: 0x0, symName: __ZNSt3__119__map_value_compareI7QStringNS_4pairIKS1_8QVariantEENS_4lessIS1_EELb1EEC1B9nqe210106ES7_, symObjAddr: 0x15E70, symBinAddr: 0x1B950, symSize: 0x20 }
  - { offset: 0xD95EB, size: 0x8, addend: 0x0, symName: __ZNSt3__16__treeINS_12__value_typeI7QString8QVariantEENS_19__map_value_compareIS2_NS_4pairIKS2_S3_EENS_4lessIS2_EELb1EEENS_9allocatorIS8_EEEC1ERKSB_, symObjAddr: 0x15E90, symBinAddr: 0x1B970, symSize: 0x30 }
  - { offset: 0xD9626, size: 0x8, addend: 0x0, symName: __ZNSt3__119__map_value_compareI7QStringNS_4pairIKS1_8QVariantEENS_4lessIS1_EELb1EEC2B9nqe210106ES7_, symObjAddr: 0x15EC0, symBinAddr: 0x1B9A0, symSize: 0x10 }
  - { offset: 0xD965F, size: 0x8, addend: 0x0, symName: __ZNSt3__16__treeINS_12__value_typeI7QString8QVariantEENS_19__map_value_compareIS2_NS_4pairIKS2_S3_EENS_4lessIS2_EELb1EEENS_9allocatorIS8_EEEC2ERKSB_, symObjAddr: 0x15ED0, symBinAddr: 0x1B9B0, symSize: 0x60 }
  - { offset: 0xD969A, size: 0x8, addend: 0x0, symName: __ZNSt3__19allocatorINS_11__tree_nodeINS_12__value_typeI7QString8QVariantEEPvEEEC1B9nqe210106Ev, symObjAddr: 0x15F30, symBinAddr: 0x1BA10, symSize: 0x20 }
  - { offset: 0xD96C4, size: 0x8, addend: 0x0, symName: __ZNSt3__16__treeINS_12__value_typeI7QString8QVariantEENS_19__map_value_compareIS2_NS_4pairIKS2_S3_EENS_4lessIS2_EELb1EEENS_9allocatorIS8_EEE10__end_nodeB9nqe210106Ev, symObjAddr: 0x15F50, symBinAddr: 0x1BA30, symSize: 0x20 }
  - { offset: 0xD96EA, size: 0x8, addend: 0x0, symName: __ZNSt3__16__treeINS_12__value_typeI7QString8QVariantEENS_19__map_value_compareIS2_NS_4pairIKS2_S3_EENS_4lessIS2_EELb1EEENS_9allocatorIS8_EEE12__begin_nodeB9nqe210106Ev, symObjAddr: 0x15F70, symBinAddr: 0x1BA50, symSize: 0x10 }
  - { offset: 0xD9710, size: 0x8, addend: 0x0, symName: __ZNSt3__19allocatorINS_11__tree_nodeINS_12__value_typeI7QString8QVariantEEPvEEEC2B9nqe210106Ev, symObjAddr: 0x15F80, symBinAddr: 0x1BA60, symSize: 0x20 }
  - { offset: 0xD973A, size: 0x8, addend: 0x0, symName: __ZNSt3__116__non_trivial_ifILb1ENS_9allocatorINS_11__tree_nodeINS_12__value_typeI7QString8QVariantEEPvEEEEEC2B9nqe210106Ev, symObjAddr: 0x15FA0, symBinAddr: 0x1BA80, symSize: 0x10 }
  - { offset: 0xD9764, size: 0x8, addend: 0x0, symName: __ZN4QMapI7QString8QVariantEC2ERKS2_, symObjAddr: 0x15FB0, symBinAddr: 0x1BA90, symSize: 0x30 }
  - { offset: 0xD9799, size: 0x8, addend: 0x0, symName: __ZN9QtPrivate30QExplicitlySharedDataPointerV2I8QMapDataINSt3__13mapI7QString8QVariantNS2_4lessIS4_EENS2_9allocatorINS2_4pairIKS4_S5_EEEEEEEEC1ERKSF_, symObjAddr: 0x15FE0, symBinAddr: 0x1BAC0, symSize: 0x30 }
  - { offset: 0xD97D1, size: 0x8, addend: 0x0, symName: __ZN9QtPrivate30QExplicitlySharedDataPointerV2I8QMapDataINSt3__13mapI7QString8QVariantNS2_4lessIS4_EENS2_9allocatorINS2_4pairIKS4_S5_EEEEEEEEC2ERKSF_, symObjAddr: 0x16010, symBinAddr: 0x1BAF0, symSize: 0x50 }
  - { offset: 0xD9809, size: 0x8, addend: 0x0, symName: __ZN9QtPrivate30QExplicitlySharedDataPointerV2I8QMapDataINSt3__13mapI7QString8QVariantNS2_4lessIS4_EENS2_9allocatorINS2_4pairIKS4_S5_EEEEEEEEC2EPSE_, symObjAddr: 0x16060, symBinAddr: 0x1BB40, symSize: 0x50 }
  - { offset: 0xD9841, size: 0x8, addend: 0x0, symName: __ZNKSt3__13mapI7QString8QVariantNS_4lessIS1_EENS_9allocatorINS_4pairIKS1_S2_EEEEE5emptyB9nqe210106Ev, symObjAddr: 0x160B0, symBinAddr: 0x1BB90, symSize: 0x30 }
  - { offset: 0xD9867, size: 0x8, addend: 0x0, symName: __ZNKSt3__13mapI7QString8QVariantNS_4lessIS1_EENS_9allocatorINS_4pairIKS1_S2_EEEEE6cbeginB9nqe210106Ev, symObjAddr: 0x160E0, symBinAddr: 0x1BBC0, symSize: 0x30 }
  - { offset: 0xD988D, size: 0x8, addend: 0x0, symName: __ZNKSt3__13mapI7QString8QVariantNS_4lessIS1_EENS_9allocatorINS_4pairIKS1_S2_EEEEE4cendB9nqe210106Ev, symObjAddr: 0x16110, symBinAddr: 0x1BBF0, symSize: 0x30 }
  - { offset: 0xD98B3, size: 0x8, addend: 0x0, symName: __ZNKSt3__13mapI7QString8QVariantNS_4lessIS1_EENS_9allocatorINS_4pairIKS1_S2_EEEEE8key_compB9nqe210106Ev, symObjAddr: 0x16140, symBinAddr: 0x1BC20, symSize: 0x30 }
  - { offset: 0xD98D9, size: 0x8, addend: 0x0, symName: __ZNKSt3__120__map_const_iteratorINS_21__tree_const_iteratorINS_12__value_typeI7QString8QVariantEEPNS_11__tree_nodeIS5_PvEElEEEptB9nqe210106Ev, symObjAddr: 0x16170, symBinAddr: 0x1BC50, symSize: 0x30 }
  - { offset: 0xD9909, size: 0x8, addend: 0x0, symName: __ZZN8QMapDataINSt3__13mapI7QString8QVariantNS0_4lessIS2_EENS0_9allocatorINS0_4pairIKS2_S3_EEEEEEE21copyIfNotEquivalentToERKSB_RS8_ENKUlT_E_clINS0_20__map_const_iteratorINS0_21__tree_const_iteratorINS0_12__value_typeIS2_S3_EEPNS0_11__tree_nodeISM_PvEElEEEEEEDaSG_, symObjAddr: 0x161A0, symBinAddr: 0x1BC80, symSize: 0x60 }
  - { offset: 0xD994A, size: 0x8, addend: 0x0, symName: __ZNSt3__120__map_const_iteratorINS_21__tree_const_iteratorINS_12__value_typeI7QString8QVariantEEPNS_11__tree_nodeIS5_PvEElEEEppB9nqe210106Ev, symObjAddr: 0x16200, symBinAddr: 0x1BCE0, symSize: 0x30 }
  - { offset: 0xD9970, size: 0x8, addend: 0x0, symName: __ZNKSt3__16__treeINS_12__value_typeI7QString8QVariantEENS_19__map_value_compareIS2_NS_4pairIKS2_S3_EENS_4lessIS2_EELb1EEENS_9allocatorIS8_EEE4sizeB9nqe210106Ev, symObjAddr: 0x16230, symBinAddr: 0x1BD10, symSize: 0x20 }
  - { offset: 0xD9996, size: 0x8, addend: 0x0, symName: __ZNKSt3__13mapI7QString8QVariantNS_4lessIS1_EENS_9allocatorINS_4pairIKS1_S2_EEEEE5beginB9nqe210106Ev, symObjAddr: 0x16250, symBinAddr: 0x1BD30, symSize: 0x30 }
  - { offset: 0xD99BC, size: 0x8, addend: 0x0, symName: __ZNKSt3__16__treeINS_12__value_typeI7QString8QVariantEENS_19__map_value_compareIS2_NS_4pairIKS2_S3_EENS_4lessIS2_EELb1EEENS_9allocatorIS8_EEE5beginB9nqe210106Ev, symObjAddr: 0x16280, symBinAddr: 0x1BD60, symSize: 0x30 }
  - { offset: 0xD99E2, size: 0x8, addend: 0x0, symName: __ZNKSt3__16__treeINS_12__value_typeI7QString8QVariantEENS_19__map_value_compareIS2_NS_4pairIKS2_S3_EENS_4lessIS2_EELb1EEENS_9allocatorIS8_EEE12__begin_nodeB9nqe210106Ev, symObjAddr: 0x162B0, symBinAddr: 0x1BD90, symSize: 0x10 }
  - { offset: 0xD9A08, size: 0x8, addend: 0x0, symName: __ZNKSt3__119__map_value_compareI7QStringNS_4pairIKS1_8QVariantEENS_4lessIS1_EELb1EE8key_compB9nqe210106Ev, symObjAddr: 0x162C0, symBinAddr: 0x1BDA0, symSize: 0x10 }
  - { offset: 0xD9A2E, size: 0x8, addend: 0x0, symName: __ZNSt3__114pointer_traitsIPKNS_4pairIK7QString8QVariantEEE10pointer_toB9nqe210106ERS6_, symObjAddr: 0x162D0, symBinAddr: 0x1BDB0, symSize: 0x10 }
  - { offset: 0xD9A51, size: 0x8, addend: 0x0, symName: __ZNSt3__13mapI7QString8QVariantNS_4lessIS1_EENS_9allocatorINS_4pairIKS1_S2_EEEEE6insertB9nqe210106ENS_20__map_const_iteratorINS_21__tree_const_iteratorINS_12__value_typeIS1_S2_EEPNS_11__tree_nodeISE_PvEElEEEERKS8_, symObjAddr: 0x162E0, symBinAddr: 0x1BDC0, symSize: 0x50 }
  - { offset: 0xD9A95, size: 0x8, addend: 0x0, symName: __ZNKSt3__120__map_const_iteratorINS_21__tree_const_iteratorINS_12__value_typeI7QString8QVariantEEPNS_11__tree_nodeIS5_PvEElEEEdeB9nqe210106Ev, symObjAddr: 0x16330, symBinAddr: 0x1BE10, symSize: 0x20 }
  - { offset: 0xD9ABB, size: 0x8, addend: 0x0, symName: __ZNSt3__16__treeINS_12__value_typeI7QString8QVariantEENS_19__map_value_compareIS2_NS_4pairIKS2_S3_EENS_4lessIS2_EELb1EEENS_9allocatorIS8_EEE21__emplace_hint_uniqueB9nqe210106IRKS8_EENS_15__tree_iteratorIS4_PNS_11__tree_nodeIS4_PvEElEENS_21__tree_const_iteratorIS4_SM_lEEOT_, symObjAddr: 0x16350, symBinAddr: 0x1BE30, symSize: 0x40 }
  - { offset: 0xD9B08, size: 0x8, addend: 0x0, symName: __ZNSt3__114__map_iteratorINS_15__tree_iteratorINS_12__value_typeI7QString8QVariantEEPNS_11__tree_nodeIS5_PvEElEEEC1B9nqe210106ESA_, symObjAddr: 0x16390, symBinAddr: 0x1BE70, symSize: 0x30 }
  - { offset: 0xD9B41, size: 0x8, addend: 0x0, symName: __ZNSt3__16__treeINS_12__value_typeI7QString8QVariantEENS_19__map_value_compareIS2_NS_4pairIKS2_S3_EENS_4lessIS2_EELb1EEENS_9allocatorIS8_EEE33__emplace_hint_unique_extract_keyB9nqe210106IRKS8_EENS_15__tree_iteratorIS4_PNS_11__tree_nodeIS4_PvEElEENS_21__tree_const_iteratorIS4_SM_lEEOT_NS_23__extract_key_first_tagE, symObjAddr: 0x163C0, symBinAddr: 0x1BEA0, symSize: 0x60 }
  - { offset: 0xD9B9A, size: 0x8, addend: 0x0, symName: __ZNSt3__16__treeINS_12__value_typeI7QString8QVariantEENS_19__map_value_compareIS2_NS_4pairIKS2_S3_EENS_4lessIS2_EELb1EEENS_9allocatorIS8_EEE30__emplace_hint_unique_key_argsIS2_JRKS8_EEENS6_INS_15__tree_iteratorIS4_PNS_11__tree_nodeIS4_PvEElEEbEENS_21__tree_const_iteratorIS4_SM_lEERKT_DpOT0_, symObjAddr: 0x16420, symBinAddr: 0x1BF00, symSize: 0x110 }
  - { offset: 0xD9C70, size: 0x8, addend: 0x0, symName: __ZNSt3__16__treeINS_12__value_typeI7QString8QVariantEENS_19__map_value_compareIS2_NS_4pairIKS2_S3_EENS_4lessIS2_EELb1EEENS_9allocatorIS8_EEE12__find_equalIS2_EERPNS_16__tree_node_baseIPvEENS_21__tree_const_iteratorIS4_PNS_11__tree_nodeIS4_SH_EElEERPNS_15__tree_end_nodeISJ_EESK_RKT_, symObjAddr: 0x16530, symBinAddr: 0x1C010, symSize: 0x2F0 }
  - { offset: 0xD9D19, size: 0x8, addend: 0x0, symName: __ZNSt3__16__treeINS_12__value_typeI7QString8QVariantEENS_19__map_value_compareIS2_NS_4pairIKS2_S3_EENS_4lessIS2_EELb1EEENS_9allocatorIS8_EEE16__construct_nodeIJRKS8_EEENS_10unique_ptrINS_11__tree_nodeIS4_PvEENS_22__tree_node_destructorINSC_ISL_EEEEEEDpOT_, symObjAddr: 0x16820, symBinAddr: 0x1C300, symSize: 0xE0 }
  - { offset: 0xD9D7A, size: 0x8, addend: 0x0, symName: __ZNSt3__16__treeINS_12__value_typeI7QString8QVariantEENS_19__map_value_compareIS2_NS_4pairIKS2_S3_EENS_4lessIS2_EELb1EEENS_9allocatorIS8_EEE16__insert_node_atEPNS_15__tree_end_nodeIPNS_16__tree_node_baseIPvEEEERSJ_SJ_, symObjAddr: 0x16900, symBinAddr: 0x1C3E0, symSize: 0xB0 }
  - { offset: 0xD9DCF, size: 0x8, addend: 0x0, symName: __ZNKSt3__110unique_ptrINS_11__tree_nodeINS_12__value_typeI7QString8QVariantEEPvEENS_22__tree_node_destructorINS_9allocatorIS7_EEEEE3getB9nqe210106Ev, symObjAddr: 0x169B0, symBinAddr: 0x1C490, symSize: 0x20 }
  - { offset: 0xD9DF5, size: 0x8, addend: 0x0, symName: __ZNSt3__110unique_ptrINS_11__tree_nodeINS_12__value_typeI7QString8QVariantEEPvEENS_22__tree_node_destructorINS_9allocatorIS7_EEEEE7releaseB9nqe210106Ev, symObjAddr: 0x169D0, symBinAddr: 0x1C4B0, symSize: 0x20 }
  - { offset: 0xD9E2A, size: 0x8, addend: 0x0, symName: __ZNSt3__110unique_ptrINS_11__tree_nodeINS_12__value_typeI7QString8QVariantEEPvEENS_22__tree_node_destructorINS_9allocatorIS7_EEEEED1B9nqe210106Ev, symObjAddr: 0x169F0, symBinAddr: 0x1C4D0, symSize: 0x20 }
  - { offset: 0xD9E54, size: 0x8, addend: 0x0, symName: __ZNSt3__115__tree_iteratorINS_12__value_typeI7QString8QVariantEEPNS_11__tree_nodeIS4_PvEElEC1B9nqe210106ES8_, symObjAddr: 0x16A10, symBinAddr: 0x1C4F0, symSize: 0x30 }
  - { offset: 0xD9E93, size: 0x8, addend: 0x0, symName: __ZNSt3__14pairINS_15__tree_iteratorINS_12__value_typeI7QString8QVariantEEPNS_11__tree_nodeIS5_PvEElEEbEC1B9nqe210106ISA_RbLi0EEEOT_OT0_, symObjAddr: 0x16A40, symBinAddr: 0x1C520, symSize: 0x30 }
  - { offset: 0xD9EF1, size: 0x8, addend: 0x0, symName: __ZNSt3__16__treeINS_12__value_typeI7QString8QVariantEENS_19__map_value_compareIS2_NS_4pairIKS2_S3_EENS_4lessIS2_EELb1EEENS_9allocatorIS8_EEE3endB9nqe210106Ev, symObjAddr: 0x16A70, symBinAddr: 0x1C550, symSize: 0x30 }
  - { offset: 0xD9F17, size: 0x8, addend: 0x0, symName: __ZNSt3__121__tree_const_iteratorINS_12__value_typeI7QString8QVariantEEPNS_11__tree_nodeIS4_PvEElEC1B9nqe210106ENS_15__tree_iteratorIS4_S8_lEE, symObjAddr: 0x16AA0, symBinAddr: 0x1C580, symSize: 0x30 }
  - { offset: 0xD9F50, size: 0x8, addend: 0x0, symName: __ZNSt3__16__treeINS_12__value_typeI7QString8QVariantEENS_19__map_value_compareIS2_NS_4pairIKS2_S3_EENS_4lessIS2_EELb1EEENS_9allocatorIS8_EEE10value_compB9nqe210106Ev, symObjAddr: 0x16AD0, symBinAddr: 0x1C5B0, symSize: 0x20 }
  - { offset: 0xD9F76, size: 0x8, addend: 0x0, symName: __ZNSt3__16__treeINS_12__value_typeI7QString8QVariantEENS_19__map_value_compareIS2_NS_4pairIKS2_S3_EENS_4lessIS2_EELb1EEENS_9allocatorIS8_EEE5beginB9nqe210106Ev, symObjAddr: 0x16AF0, symBinAddr: 0x1C5D0, symSize: 0x30 }
  - { offset: 0xD9F9C, size: 0x8, addend: 0x0, symName: __ZNSt3__121__tree_const_iteratorINS_12__value_typeI7QString8QVariantEEPNS_11__tree_nodeIS4_PvEElEmmB9nqe210106Ev, symObjAddr: 0x16B20, symBinAddr: 0x1C600, symSize: 0x30 }
  - { offset: 0xD9FC2, size: 0x8, addend: 0x0, symName: __ZNSt3__16__treeINS_12__value_typeI7QString8QVariantEENS_19__map_value_compareIS2_NS_4pairIKS2_S3_EENS_4lessIS2_EELb1EEENS_9allocatorIS8_EEE12__find_equalIS2_EERPNS_16__tree_node_baseIPvEERPNS_15__tree_end_nodeISJ_EERKT_, symObjAddr: 0x16B50, symBinAddr: 0x1C630, symSize: 0x150 }
  - { offset: 0xDA02D, size: 0x8, addend: 0x0, symName: __ZNSt3__115__tree_iteratorINS_12__value_typeI7QString8QVariantEEPNS_11__tree_nodeIS4_PvEElEC1B9nqe210106EPNS_15__tree_end_nodeIPNS_16__tree_node_baseIS6_EEEE, symObjAddr: 0x16CD0, symBinAddr: 0x1C7B0, symSize: 0x30 }
  - { offset: 0xDA066, size: 0x8, addend: 0x0, symName: __ZNSt3__115__tree_iteratorINS_12__value_typeI7QString8QVariantEEPNS_11__tree_nodeIS4_PvEElEC2B9nqe210106EPNS_15__tree_end_nodeIPNS_16__tree_node_baseIS6_EEEE, symObjAddr: 0x16D00, symBinAddr: 0x1C7E0, symSize: 0x20 }
  - { offset: 0xDA09F, size: 0x8, addend: 0x0, symName: __ZNSt3__121__tree_const_iteratorINS_12__value_typeI7QString8QVariantEEPNS_11__tree_nodeIS4_PvEElEC2B9nqe210106ENS_15__tree_iteratorIS4_S8_lEE, symObjAddr: 0x16D20, symBinAddr: 0x1C800, symSize: 0x20 }
  - { offset: 0xDA0D8, size: 0x8, addend: 0x0, symName: __ZNKSt3__16__treeINS_12__value_typeI7QString8QVariantEENS_19__map_value_compareIS2_NS_4pairIKS2_S3_EENS_4lessIS2_EELb1EEENS_9allocatorIS8_EEE10__root_ptrB9nqe210106Ev, symObjAddr: 0x16D40, symBinAddr: 0x1C820, symSize: 0x20 }
  - { offset: 0xDA0FE, size: 0x8, addend: 0x0, symName: __ZNSt3__121__tree_const_iteratorINS_12__value_typeI7QString8QVariantEEPNS_11__tree_nodeIS4_PvEElEppB9nqe210106Ev, symObjAddr: 0x16E00, symBinAddr: 0x1C8E0, symSize: 0x30 }
  - { offset: 0xDA124, size: 0x8, addend: 0x0, symName: __ZNSt3__116allocator_traitsINS_9allocatorINS_11__tree_nodeINS_12__value_typeI7QString8QVariantEEPvEEEEE8allocateB9nqe210106ERS9_m, symObjAddr: 0x16E30, symBinAddr: 0x1C910, symSize: 0x30 }
  - { offset: 0xDA157, size: 0x8, addend: 0x0, symName: __ZNSt3__122__tree_node_destructorINS_9allocatorINS_11__tree_nodeINS_12__value_typeI7QString8QVariantEEPvEEEEEC1B9nqe210106ERS9_b, symObjAddr: 0x16E60, symBinAddr: 0x1C940, symSize: 0x40 }
  - { offset: 0xDA1A5, size: 0x8, addend: 0x0, symName: __ZNSt3__110unique_ptrINS_11__tree_nodeINS_12__value_typeI7QString8QVariantEEPvEENS_22__tree_node_destructorINS_9allocatorIS7_EEEEEC1B9nqe210106ILb1EvEEPS7_NS_16__dependent_typeINS_27__unique_ptr_deleter_sfinaeISB_EEXT_EE20__good_rval_ref_typeE, symObjAddr: 0x16EA0, symBinAddr: 0x1C980, symSize: 0x30 }
  - { offset: 0xDA1F6, size: 0x8, addend: 0x0, symName: __ZNSt3__116allocator_traitsINS_9allocatorINS_11__tree_nodeINS_12__value_typeI7QString8QVariantEEPvEEEEE9constructB9nqe210106INS_4pairIKS4_S5_EEJRKSE_ELi0EEEvRS9_PT_DpOT0_, symObjAddr: 0x16ED0, symBinAddr: 0x1C9B0, symSize: 0x30 }
  - { offset: 0xDA254, size: 0x8, addend: 0x0, symName: __ZNKSt3__110unique_ptrINS_11__tree_nodeINS_12__value_typeI7QString8QVariantEEPvEENS_22__tree_node_destructorINS_9allocatorIS7_EEEEEptB9nqe210106Ev, symObjAddr: 0x16F00, symBinAddr: 0x1C9E0, symSize: 0x20 }
  - { offset: 0xDA27A, size: 0x8, addend: 0x0, symName: __ZNSt3__110unique_ptrINS_11__tree_nodeINS_12__value_typeI7QString8QVariantEEPvEENS_22__tree_node_destructorINS_9allocatorIS7_EEEEE11get_deleterB9nqe210106Ev, symObjAddr: 0x16F20, symBinAddr: 0x1CA00, symSize: 0x20 }
  - { offset: 0xDA2A0, size: 0x8, addend: 0x0, symName: __ZNSt3__19allocatorINS_11__tree_nodeINS_12__value_typeI7QString8QVariantEEPvEEE8allocateB9nqe210106Em, symObjAddr: 0x16F40, symBinAddr: 0x1CA20, symSize: 0x50 }
  - { offset: 0xDA2DF, size: 0x8, addend: 0x0, symName: __ZNSt3__116allocator_traitsINS_9allocatorINS_11__tree_nodeINS_12__value_typeI7QString8QVariantEEPvEEEEE8max_sizeB9nqe210106IS9_Li0EEEmRKS9_, symObjAddr: 0x16F90, symBinAddr: 0x1CA70, symSize: 0x20 }
  - { offset: 0xDA312, size: 0x8, addend: 0x0, symName: __ZNKSt3__19allocatorINS_11__tree_nodeINS_12__value_typeI7QString8QVariantEEPvEEE8max_sizeB9nqe210106Ev, symObjAddr: 0x17010, symBinAddr: 0x1CAF0, symSize: 0x20 }
  - { offset: 0xDA338, size: 0x8, addend: 0x0, symName: __ZNSt3__122__tree_node_destructorINS_9allocatorINS_11__tree_nodeINS_12__value_typeI7QString8QVariantEEPvEEEEEC2B9nqe210106ERS9_b, symObjAddr: 0x17030, symBinAddr: 0x1CB10, symSize: 0x30 }
  - { offset: 0xDA380, size: 0x8, addend: 0x0, symName: __ZNSt3__110unique_ptrINS_11__tree_nodeINS_12__value_typeI7QString8QVariantEEPvEENS_22__tree_node_destructorINS_9allocatorIS7_EEEEEC2B9nqe210106ILb1EvEEPS7_NS_16__dependent_typeINS_27__unique_ptr_deleter_sfinaeISB_EEXT_EE20__good_rval_ref_typeE, symObjAddr: 0x17060, symBinAddr: 0x1CB40, symSize: 0x50 }
  - { offset: 0xDA3D6, size: 0x8, addend: 0x0, symName: __ZNSt3__125__compressed_pair_paddingINS_22__tree_node_destructorINS_9allocatorINS_11__tree_nodeINS_12__value_typeI7QString8QVariantEEPvEEEEEELb0EEC1Ev, symObjAddr: 0x170B0, symBinAddr: 0x1CB90, symSize: 0x20 }
  - { offset: 0xDA402, size: 0x8, addend: 0x0, symName: __ZNSt3__125__compressed_pair_paddingINS_22__tree_node_destructorINS_9allocatorINS_11__tree_nodeINS_12__value_typeI7QString8QVariantEEPvEEEEEELb0EEC2Ev, symObjAddr: 0x170D0, symBinAddr: 0x1CBB0, symSize: 0x40 }
  - { offset: 0xDA42E, size: 0x8, addend: 0x0, symName: __ZNSt3__19allocatorINS_11__tree_nodeINS_12__value_typeI7QString8QVariantEEPvEEE9constructB9nqe210106INS_4pairIKS3_S4_EEJRKSC_EEEvPT_DpOT0_, symObjAddr: 0x17110, symBinAddr: 0x1CBF0, symSize: 0x30 }
  - { offset: 0xDA486, size: 0x8, addend: 0x0, symName: __ZNSt3__14pairIK7QString8QVariantEC1B9nqe210106ERKS4_, symObjAddr: 0x17140, symBinAddr: 0x1CC20, symSize: 0x30 }
  - { offset: 0xDA4BB, size: 0x8, addend: 0x0, symName: __ZNSt3__14pairIK7QString8QVariantEC2B9nqe210106ERKS4_, symObjAddr: 0x17170, symBinAddr: 0x1CC50, symSize: 0x60 }
  - { offset: 0xDA4F0, size: 0x8, addend: 0x0, symName: __ZNSt3__16__treeINS_12__value_typeI7QString8QVariantEENS_19__map_value_compareIS2_NS_4pairIKS2_S3_EENS_4lessIS2_EELb1EEENS_9allocatorIS8_EEE4sizeB9nqe210106Ev, symObjAddr: 0x171D0, symBinAddr: 0x1CCB0, symSize: 0x20 }
  - { offset: 0xDA516, size: 0x8, addend: 0x0, symName: __ZNSt3__110unique_ptrINS_11__tree_nodeINS_12__value_typeI7QString8QVariantEEPvEENS_22__tree_node_destructorINS_9allocatorIS7_EEEEED2B9nqe210106Ev, symObjAddr: 0x171F0, symBinAddr: 0x1CCD0, symSize: 0x20 }
  - { offset: 0xDA540, size: 0x8, addend: 0x0, symName: __ZNSt3__110unique_ptrINS_11__tree_nodeINS_12__value_typeI7QString8QVariantEEPvEENS_22__tree_node_destructorINS_9allocatorIS7_EEEEE5resetB9nqe210106EPS7_, symObjAddr: 0x17210, symBinAddr: 0x1CCF0, symSize: 0x50 }
  - { offset: 0xDA584, size: 0x8, addend: 0x0, symName: __ZNSt3__122__tree_node_destructorINS_9allocatorINS_11__tree_nodeINS_12__value_typeI7QString8QVariantEEPvEEEEEclB9nqe210106EPS8_, symObjAddr: 0x17260, symBinAddr: 0x1CD40, symSize: 0x60 }
  - { offset: 0xDA5B9, size: 0x8, addend: 0x0, symName: __ZNSt3__115__tree_iteratorINS_12__value_typeI7QString8QVariantEEPNS_11__tree_nodeIS4_PvEElEC2B9nqe210106ES8_, symObjAddr: 0x172C0, symBinAddr: 0x1CDA0, symSize: 0x20 }
  - { offset: 0xDA5F2, size: 0x8, addend: 0x0, symName: __ZNSt3__14pairINS_15__tree_iteratorINS_12__value_typeI7QString8QVariantEEPNS_11__tree_nodeIS5_PvEElEEbEC2B9nqe210106ISA_RbLi0EEEOT_OT0_, symObjAddr: 0x172E0, symBinAddr: 0x1CDC0, symSize: 0x30 }
  - { offset: 0xDA650, size: 0x8, addend: 0x0, symName: __ZNSt3__114__map_iteratorINS_15__tree_iteratorINS_12__value_typeI7QString8QVariantEEPNS_11__tree_nodeIS5_PvEElEEEC2B9nqe210106ESA_, symObjAddr: 0x17310, symBinAddr: 0x1CDF0, symSize: 0x20 }
  - { offset: 0xDA688, size: 0x8, addend: 0x0, symName: __Z11qt_ptr_swapI8QMapDataINSt3__13mapI7QString8QVariantNS1_4lessIS3_EENS1_9allocatorINS1_4pairIKS3_S4_EEEEEEEEvRPT_SG_, symObjAddr: 0x17360, symBinAddr: 0x1CE40, symSize: 0x40 }
  - { offset: 0xDA6D6, size: 0x8, addend: 0x0, symName: __ZNSt3__13mapI7QString8QVariantNS_4lessIS1_EENS_9allocatorINS_4pairIKS1_S2_EEEEE11lower_boundB9nqe210106ERS7_, symObjAddr: 0x173A0, symBinAddr: 0x1CE80, symSize: 0x40 }
  - { offset: 0xDA70B, size: 0x8, addend: 0x0, symName: __ZNSt3__13mapI7QString8QVariantNS_4lessIS1_EENS_9allocatorINS_4pairIKS1_S2_EEEEE3endB9nqe210106Ev, symObjAddr: 0x17410, symBinAddr: 0x1CEF0, symSize: 0x30 }
  - { offset: 0xDA731, size: 0x8, addend: 0x0, symName: __ZNKSt3__114__map_iteratorINS_15__tree_iteratorINS_12__value_typeI7QString8QVariantEEPNS_11__tree_nodeIS5_PvEElEEEptB9nqe210106Ev, symObjAddr: 0x17440, symBinAddr: 0x1CF20, symSize: 0x30 }
  - { offset: 0xDA757, size: 0x8, addend: 0x0, symName: __ZNSt3__13mapI7QString8QVariantNS_4lessIS1_EENS_9allocatorINS_4pairIKS1_S2_EEEEE12emplace_hintB9nqe210106IJRS7_RKS2_EEENS_14__map_iteratorINS_15__tree_iteratorINS_12__value_typeIS1_S2_EEPNS_11__tree_nodeISI_PvEElEEEENS_20__map_const_iteratorINS_21__tree_const_iteratorISI_SM_lEEEEDpOT_, symObjAddr: 0x174D0, symBinAddr: 0x1CFB0, symSize: 0x50 }
  - { offset: 0xDA7BD, size: 0x8, addend: 0x0, symName: __ZNSt3__120__map_const_iteratorINS_21__tree_const_iteratorINS_12__value_typeI7QString8QVariantEEPNS_11__tree_nodeIS5_PvEElEEEC1B9nqe210106ENS_14__map_iteratorINS_15__tree_iteratorIS5_S9_lEEEE, symObjAddr: 0x17520, symBinAddr: 0x1D000, symSize: 0x30 }
  - { offset: 0xDA7F6, size: 0x8, addend: 0x0, symName: __ZNSt3__16__treeINS_12__value_typeI7QString8QVariantEENS_19__map_value_compareIS2_NS_4pairIKS2_S3_EENS_4lessIS2_EELb1EEENS_9allocatorIS8_EEE11lower_boundB9nqe210106IS2_EENS_15__tree_iteratorIS4_PNS_11__tree_nodeIS4_PvEElEERKT_, symObjAddr: 0x17550, symBinAddr: 0x1D030, symSize: 0x60 }
  - { offset: 0xDA834, size: 0x8, addend: 0x0, symName: __ZNSt3__16__treeINS_12__value_typeI7QString8QVariantEENS_19__map_value_compareIS2_NS_4pairIKS2_S3_EENS_4lessIS2_EELb1EEENS_9allocatorIS8_EEE13__lower_boundIS2_EENS_15__tree_iteratorIS4_PNS_11__tree_nodeIS4_PvEElEERKT_SK_PNS_15__tree_end_nodeIPNS_16__tree_node_baseISI_EEEE, symObjAddr: 0x175B0, symBinAddr: 0x1D090, symSize: 0x90 }
  - { offset: 0xDA890, size: 0x8, addend: 0x0, symName: __ZNSt3__114pointer_traitsIPNS_4pairIK7QString8QVariantEEE10pointer_toB9nqe210106ERS5_, symObjAddr: 0x176A0, symBinAddr: 0x1D180, symSize: 0x10 }
  - { offset: 0xDA8B3, size: 0x8, addend: 0x0, symName: __ZNKSt3__115__tree_iteratorINS_12__value_typeI7QString8QVariantEEPNS_11__tree_nodeIS4_PvEElEdeB9nqe210106Ev, symObjAddr: 0x176B0, symBinAddr: 0x1D190, symSize: 0x20 }
  - { offset: 0xDA8D9, size: 0x8, addend: 0x0, symName: __ZNKSt3__115__tree_iteratorINS_12__value_typeI7QString8QVariantEEPNS_11__tree_nodeIS4_PvEElE8__get_npB9nqe210106Ev, symObjAddr: 0x176D0, symBinAddr: 0x1D1B0, symSize: 0x20 }
  - { offset: 0xDA905, size: 0x8, addend: 0x0, symName: __ZNSt3__14pairINS_14__map_iteratorINS_15__tree_iteratorINS_12__value_typeI7QString8QVariantEEPNS_11__tree_nodeIS6_PvEElEEEEbEC1B9nqe210106IRSC_bLi0EEEOT_OT0_, symObjAddr: 0x176F0, symBinAddr: 0x1D1D0, symSize: 0x30 }
  - { offset: 0xDA963, size: 0x8, addend: 0x0, symName: __ZNSt3__14pairINS_14__map_iteratorINS_15__tree_iteratorINS_12__value_typeI7QString8QVariantEEPNS_11__tree_nodeIS6_PvEElEEEEbEC2B9nqe210106IRSC_bLi0EEEOT_OT0_, symObjAddr: 0x17720, symBinAddr: 0x1D200, symSize: 0x30 }
  - { offset: 0xDA9C7, size: 0x8, addend: 0x0, symName: __ZNSt3__14pairINS_14__map_iteratorINS_15__tree_iteratorINS_12__value_typeI7QString8QVariantEEPNS_11__tree_nodeIS6_PvEElEEEEbEC1B9nqe210106ISC_bLi0EEEOT_OT0_, symObjAddr: 0x17750, symBinAddr: 0x1D230, symSize: 0x30 }
  - { offset: 0xDAA25, size: 0x8, addend: 0x0, symName: __ZNSt3__14pairINS_14__map_iteratorINS_15__tree_iteratorINS_12__value_typeI7QString8QVariantEEPNS_11__tree_nodeIS6_PvEElEEEEbEC2B9nqe210106ISC_bLi0EEEOT_OT0_, symObjAddr: 0x17780, symBinAddr: 0x1D260, symSize: 0x30 }
  - { offset: 0xDAA83, size: 0x8, addend: 0x0, symName: __ZNSt3__16__treeINS_12__value_typeI7QString8QVariantEENS_19__map_value_compareIS2_NS_4pairIKS2_S3_EENS_4lessIS2_EELb1EEENS_9allocatorIS8_EEE21__emplace_hint_uniqueB9nqe210106IRS7_RKS3_Li0EEENS_15__tree_iteratorIS4_PNS_11__tree_nodeIS4_PvEElEENS_21__tree_const_iteratorIS4_SN_lEEOT_OT0_, symObjAddr: 0x177B0, symBinAddr: 0x1D290, symSize: 0x60 }
  - { offset: 0xDAAEE, size: 0x8, addend: 0x0, symName: __ZNSt3__16__treeINS_12__value_typeI7QString8QVariantEENS_19__map_value_compareIS2_NS_4pairIKS2_S3_EENS_4lessIS2_EELb1EEENS_9allocatorIS8_EEE30__emplace_hint_unique_key_argsIS2_JRS7_RKS3_EEENS6_INS_15__tree_iteratorIS4_PNS_11__tree_nodeIS4_PvEElEEbEENS_21__tree_const_iteratorIS4_SN_lEERKT_DpOT0_, symObjAddr: 0x17810, symBinAddr: 0x1D2F0, symSize: 0x110 }
  - { offset: 0xDABDA, size: 0x8, addend: 0x0, symName: __ZNSt3__16__treeINS_12__value_typeI7QString8QVariantEENS_19__map_value_compareIS2_NS_4pairIKS2_S3_EENS_4lessIS2_EELb1EEENS_9allocatorIS8_EEE16__construct_nodeIJRS7_RKS3_EEENS_10unique_ptrINS_11__tree_nodeIS4_PvEENS_22__tree_node_destructorINSC_ISM_EEEEEEDpOT_, symObjAddr: 0x17920, symBinAddr: 0x1D400, symSize: 0xF0 }
  - { offset: 0xDAC50, size: 0x8, addend: 0x0, symName: __ZNSt3__116allocator_traitsINS_9allocatorINS_11__tree_nodeINS_12__value_typeI7QString8QVariantEEPvEEEEE9constructB9nqe210106INS_4pairIKS4_S5_EEJRSD_RKS5_ELi0EEEvRS9_PT_DpOT0_, symObjAddr: 0x17A10, symBinAddr: 0x1D4F0, symSize: 0x40 }
  - { offset: 0xDACC3, size: 0x8, addend: 0x0, symName: __ZNSt3__19allocatorINS_11__tree_nodeINS_12__value_typeI7QString8QVariantEEPvEEE9constructB9nqe210106INS_4pairIKS3_S4_EEJRSB_RKS4_EEEvPT_DpOT0_, symObjAddr: 0x17A50, symBinAddr: 0x1D530, symSize: 0x30 }
  - { offset: 0xDAD2F, size: 0x8, addend: 0x0, symName: __ZNSt3__14pairIK7QString8QVariantEC1B9nqe210106INS_25__check_pair_constructionIS2_S3_EELi0EEERS2_RKS3_, symObjAddr: 0x17A80, symBinAddr: 0x1D560, symSize: 0x30 }
  - { offset: 0xDAD84, size: 0x8, addend: 0x0, symName: __ZNSt3__14pairIK7QString8QVariantEC2B9nqe210106INS_25__check_pair_constructionIS2_S3_EELi0EEERS2_RKS3_, symObjAddr: 0x17AB0, symBinAddr: 0x1D590, symSize: 0x60 }
  - { offset: 0xDADD9, size: 0x8, addend: 0x0, symName: __ZNSt3__120__map_const_iteratorINS_21__tree_const_iteratorINS_12__value_typeI7QString8QVariantEEPNS_11__tree_nodeIS5_PvEElEEEC2B9nqe210106ENS_14__map_iteratorINS_15__tree_iteratorIS5_S9_lEEEE, symObjAddr: 0x17B10, symBinAddr: 0x1D5F0, symSize: 0x30 }
  - { offset: 0xDAE12, size: 0x8, addend: 0x0, symName: __ZN4QMapI7QString8QVariantE8iteratorC2ENSt3__114__map_iteratorINS4_15__tree_iteratorINS4_12__value_typeIS0_S1_EEPNS4_11__tree_nodeIS8_PvEElEEEE, symObjAddr: 0x17B40, symBinAddr: 0x1D620, symSize: 0x20 }
  - { offset: 0xDAE4B, size: 0x8, addend: 0x0, symName: __ZNSt3__13mapI7QString8QVariantNS_4lessIS1_EENS_9allocatorINS_4pairIKS1_S2_EEEEE5eraseB9nqe210106ERS7_, symObjAddr: 0x17B60, symBinAddr: 0x1D640, symSize: 0x30 }
  - { offset: 0xDAE80, size: 0x8, addend: 0x0, symName: __ZNSt3__16__treeINS_12__value_typeI7QString8QVariantEENS_19__map_value_compareIS2_NS_4pairIKS2_S3_EENS_4lessIS2_EELb1EEENS_9allocatorIS8_EEE14__erase_uniqueIS2_EEmRKT_, symObjAddr: 0x17B90, symBinAddr: 0x1D670, symSize: 0x90 }
  - { offset: 0xDAECD, size: 0x8, addend: 0x0, symName: __ZNSt3__16__treeINS_12__value_typeI7QString8QVariantEENS_19__map_value_compareIS2_NS_4pairIKS2_S3_EENS_4lessIS2_EELb1EEENS_9allocatorIS8_EEE4findIS2_EENS_15__tree_iteratorIS4_PNS_11__tree_nodeIS4_PvEElEERKT_, symObjAddr: 0x17C20, symBinAddr: 0x1D700, symSize: 0xD0 }
  - { offset: 0xDAF1A, size: 0x8, addend: 0x0, symName: __ZNSt3__16__treeINS_12__value_typeI7QString8QVariantEENS_19__map_value_compareIS2_NS_4pairIKS2_S3_EENS_4lessIS2_EELb1EEENS_9allocatorIS8_EEE5eraseENS_21__tree_const_iteratorIS4_PNS_11__tree_nodeIS4_PvEElEE, symObjAddr: 0x17CF0, symBinAddr: 0x1D7D0, symSize: 0x80 }
  - { offset: 0xDAF7E, size: 0x8, addend: 0x0, symName: __ZNSt3__16__treeINS_12__value_typeI7QString8QVariantEENS_19__map_value_compareIS2_NS_4pairIKS2_S3_EENS_4lessIS2_EELb1EEENS_9allocatorIS8_EEE21__remove_node_pointerEPNS_11__tree_nodeIS4_PvEE, symObjAddr: 0x17D70, symBinAddr: 0x1D850, symSize: 0xA0 }
  - { offset: 0xDAFC4, size: 0x8, addend: 0x0, symName: __ZNSt3__115__tree_iteratorINS_12__value_typeI7QString8QVariantEEPNS_11__tree_nodeIS4_PvEElEppB9nqe210106Ev, symObjAddr: 0x17E10, symBinAddr: 0x1D8F0, symSize: 0x30 }
  - { offset: 0xDAFEA, size: 0x8, addend: 0x0, symName: __ZN14QSharedPointerIN5Tiled7TilesetEED2Ev, symObjAddr: 0x183E0, symBinAddr: 0x1DEC0, symSize: 0x20 }
  - { offset: 0xDB014, size: 0x8, addend: 0x0, symName: __ZN14QSharedPointerIN5Tiled7TilesetEE5derefEv, symObjAddr: 0x18400, symBinAddr: 0x1DEE0, symSize: 0x20 }
  - { offset: 0xDB03A, size: 0x8, addend: 0x0, symName: __ZN14QSharedPointerIN5Tiled7TilesetEE5derefEPN15QtSharedPointer20ExternalRefCountDataE, symObjAddr: 0x18420, symBinAddr: 0x1DF00, symSize: 0x70 }
  - { offset: 0xDB05E, size: 0x8, addend: 0x0, symName: __ZN15QtSharedPointer20ExternalRefCountData7destroyEv, symObjAddr: 0x18490, symBinAddr: 0x1DF70, symSize: 0x20 }
  - { offset: 0xDB084, size: 0x8, addend: 0x0, symName: __ZNSt3__18functionIFvvEED2Ev, symObjAddr: 0x184B0, symBinAddr: 0x1DF90, symSize: 0x20 }
  - { offset: 0xDB0AE, size: 0x8, addend: 0x0, symName: __ZNSt3__110__function12__value_funcIFvvEED1B9nqe210106Ev, symObjAddr: 0x184D0, symBinAddr: 0x1DFB0, symSize: 0x20 }
  - { offset: 0xDB0D8, size: 0x8, addend: 0x0, symName: __ZNSt3__110__function12__value_funcIFvvEED2B9nqe210106Ev, symObjAddr: 0x184F0, symBinAddr: 0x1DFD0, symSize: 0x50 }
  - { offset: 0xDB102, size: 0x8, addend: 0x0, symName: __ZNSt3__110unique_ptrIN5Tiled9TileLayerENS_14default_deleteIS2_EEED2B9nqe210106Ev, symObjAddr: 0x18540, symBinAddr: 0x1E020, symSize: 0x20 }
  - { offset: 0xDB12C, size: 0x8, addend: 0x0, symName: __ZNSt3__110unique_ptrIN5Tiled9TileLayerENS_14default_deleteIS2_EEE5resetB9nqe210106EPS2_, symObjAddr: 0x18560, symBinAddr: 0x1E040, symSize: 0x40 }
  - { offset: 0xDB170, size: 0x8, addend: 0x0, symName: __ZNKSt3__114default_deleteIN5Tiled9TileLayerEEclB9nqe210106EPS2_, symObjAddr: 0x185A0, symBinAddr: 0x1E080, symSize: 0x30 }
  - { offset: 0xDB1A4, size: 0x8, addend: 0x0, symName: __ZNK17QArrayDataPointerIPN5Tiled9MapObjectEEptEv, symObjAddr: 0x185D0, symBinAddr: 0x1E0B0, symSize: 0x10 }
  - { offset: 0xDB1CA, size: 0x8, addend: 0x0, symName: __ZNK17QArrayDataPointerIPN5Tiled9MapObjectEE10constBeginEv, symObjAddr: 0x185E0, symBinAddr: 0x1E0C0, symSize: 0x20 }
  - { offset: 0xDB1F0, size: 0x8, addend: 0x0, symName: __ZN5QListIPN5Tiled9MapObjectEE14const_iteratorC1EPKS2_, symObjAddr: 0x18600, symBinAddr: 0x1E0E0, symSize: 0x30 }
  - { offset: 0xDB228, size: 0x8, addend: 0x0, symName: __ZNK17QArrayDataPointerIPN5Tiled9MapObjectEE4dataEv, symObjAddr: 0x18630, symBinAddr: 0x1E110, symSize: 0x20 }
  - { offset: 0xDB24E, size: 0x8, addend: 0x0, symName: __ZN5QListIPN5Tiled9MapObjectEE14const_iteratorC2EPKS2_, symObjAddr: 0x18650, symBinAddr: 0x1E130, symSize: 0x20 }
  - { offset: 0xDB286, size: 0x8, addend: 0x0, symName: __ZNK17QArrayDataPointerIPN5Tiled9MapObjectEE8constEndEv, symObjAddr: 0x18670, symBinAddr: 0x1E150, symSize: 0x30 }
  - { offset: 0xDB2AC, size: 0x8, addend: 0x0, symName: __ZNKSt3__16__treeINS_12__value_typeINS_12basic_stringIcNS_11char_traitsIcEENS_9allocatorIcEEEEN4tbin13PropertyValueEEENS_19__map_value_compareIS7_NS_4pairIKS7_S9_EENS_4lessIS7_EELb1EEENS5_ISE_EEE5beginB9nqe210106Ev, symObjAddr: 0x186A0, symBinAddr: 0x1E180, symSize: 0x30 }
  - { offset: 0xDB2D2, size: 0x8, addend: 0x0, symName: __ZNKSt3__16__treeINS_12__value_typeINS_12basic_stringIcNS_11char_traitsIcEENS_9allocatorIcEEEEN4tbin13PropertyValueEEENS_19__map_value_compareIS7_NS_4pairIKS7_S9_EENS_4lessIS7_EELb1EEENS5_ISE_EEE12__begin_nodeB9nqe210106Ev, symObjAddr: 0x186D0, symBinAddr: 0x1E1B0, symSize: 0x10 }
  - { offset: 0xDB2F8, size: 0x8, addend: 0x0, symName: __ZNSt3__121__tree_const_iteratorINS_12__value_typeINS_12basic_stringIcNS_11char_traitsIcEENS_9allocatorIcEEEEN4tbin13PropertyValueEEEPNS_11__tree_nodeISA_PvEElEC1B9nqe210106EPNS_15__tree_end_nodeIPNS_16__tree_node_baseISC_EEEE, symObjAddr: 0x186E0, symBinAddr: 0x1E1C0, symSize: 0x30 }
  - { offset: 0xDB331, size: 0x8, addend: 0x0, symName: __ZNSt3__121__tree_const_iteratorINS_12__value_typeINS_12basic_stringIcNS_11char_traitsIcEENS_9allocatorIcEEEEN4tbin13PropertyValueEEEPNS_11__tree_nodeISA_PvEElEC2B9nqe210106EPNS_15__tree_end_nodeIPNS_16__tree_node_baseISC_EEEE, symObjAddr: 0x18710, symBinAddr: 0x1E1F0, symSize: 0x20 }
  - { offset: 0xDB36A, size: 0x8, addend: 0x0, symName: __ZNKSt3__16__treeINS_12__value_typeINS_12basic_stringIcNS_11char_traitsIcEENS_9allocatorIcEEEEN4tbin13PropertyValueEEENS_19__map_value_compareIS7_NS_4pairIKS7_S9_EENS_4lessIS7_EELb1EEENS5_ISE_EEE3endB9nqe210106Ev, symObjAddr: 0x18730, symBinAddr: 0x1E210, symSize: 0x30 }
  - { offset: 0xDB390, size: 0x8, addend: 0x0, symName: __ZNSt3__110unique_ptrIN5Tiled3MapENS_14default_deleteIS2_EEED2B9nqe210106Ev, symObjAddr: 0x18970, symBinAddr: 0x1E270, symSize: 0x20 }
  - { offset: 0xDB3BA, size: 0x8, addend: 0x0, symName: __ZNSt3__110unique_ptrIN5Tiled3MapENS_14default_deleteIS2_EEE5resetB9nqe210106EPS2_, symObjAddr: 0x18990, symBinAddr: 0x1E290, symSize: 0x40 }
  - { offset: 0xDB3FE, size: 0x8, addend: 0x0, symName: __ZNKSt3__114default_deleteIN5Tiled3MapEEclB9nqe210106EPS2_, symObjAddr: 0x189D0, symBinAddr: 0x1E2D0, symSize: 0x30 }
  - { offset: 0xDB432, size: 0x8, addend: 0x0, symName: __ZNSt3__110unique_ptrIN5Tiled3MapENS_14default_deleteIS2_EEEC1B9nqe210106ILb1EvEEPS2_, symObjAddr: 0x18A00, symBinAddr: 0x1E300, symSize: 0x30 }
  - { offset: 0xDB475, size: 0x8, addend: 0x0, symName: __ZNSt3__110unique_ptrIN5Tiled3MapENS_14default_deleteIS2_EEEC2B9nqe210106ILb1EvEEPS2_, symObjAddr: 0x18A30, symBinAddr: 0x1E330, symSize: 0x20 }
  - { offset: 0xDB4B8, size: 0x8, addend: 0x0, symName: __ZNSt3__110unique_ptrIN5Tiled3MapENS_14default_deleteIS2_EEE7releaseB9nqe210106Ev, symObjAddr: 0x18A50, symBinAddr: 0x1E350, symSize: 0x20 }
  - { offset: 0xDB4ED, size: 0x8, addend: 0x0, symName: __ZNSt3__110unique_ptrIN5Tiled3MapENS_14default_deleteIS2_EEE11get_deleterB9nqe210106Ev, symObjAddr: 0x18A70, symBinAddr: 0x1E370, symSize: 0x10 }
  - { offset: 0xDB513, size: 0x8, addend: 0x0, symName: __ZNSt3__13mapINS_12basic_stringIcNS_11char_traitsIcEENS_9allocatorIcEEEEiNS_4lessIS6_EENS4_INS_4pairIKS6_iEEEEEC2B9nqe210106Ev, symObjAddr: 0x18A80, symBinAddr: 0x1E380, symSize: 0x30 }
  - { offset: 0xDB53D, size: 0x8, addend: 0x0, symName: __ZNSt3__119__map_value_compareINS_12basic_stringIcNS_11char_traitsIcEENS_9allocatorIcEEEENS_4pairIKS6_iEENS_4lessIS6_EELb1EEC1B9nqe210106ESB_, symObjAddr: 0x18AB0, symBinAddr: 0x1E3B0, symSize: 0x20 }
  - { offset: 0xDB576, size: 0x8, addend: 0x0, symName: __ZNSt3__16__treeINS_12__value_typeINS_12basic_stringIcNS_11char_traitsIcEENS_9allocatorIcEEEEiEENS_19__map_value_compareIS7_NS_4pairIKS7_iEENS_4lessIS7_EELb1EEENS5_ISC_EEEC1ERKSF_, symObjAddr: 0x18AD0, symBinAddr: 0x1E3D0, symSize: 0x30 }
  - { offset: 0xDB5B1, size: 0x8, addend: 0x0, symName: __ZNSt3__119__map_value_compareINS_12basic_stringIcNS_11char_traitsIcEENS_9allocatorIcEEEENS_4pairIKS6_iEENS_4lessIS6_EELb1EEC2B9nqe210106ESB_, symObjAddr: 0x18B00, symBinAddr: 0x1E400, symSize: 0x10 }
  - { offset: 0xDB5EA, size: 0x8, addend: 0x0, symName: __ZNSt3__16__treeINS_12__value_typeINS_12basic_stringIcNS_11char_traitsIcEENS_9allocatorIcEEEEiEENS_19__map_value_compareIS7_NS_4pairIKS7_iEENS_4lessIS7_EELb1EEENS5_ISC_EEEC2ERKSF_, symObjAddr: 0x18B10, symBinAddr: 0x1E410, symSize: 0x60 }
  - { offset: 0xDB625, size: 0x8, addend: 0x0, symName: __ZNSt3__19allocatorINS_11__tree_nodeINS_12__value_typeINS_12basic_stringIcNS_11char_traitsIcEENS0_IcEEEEiEEPvEEEC1B9nqe210106Ev, symObjAddr: 0x18B70, symBinAddr: 0x1E470, symSize: 0x20 }
  - { offset: 0xDB64F, size: 0x8, addend: 0x0, symName: __ZNSt3__16__treeINS_12__value_typeINS_12basic_stringIcNS_11char_traitsIcEENS_9allocatorIcEEEEiEENS_19__map_value_compareIS7_NS_4pairIKS7_iEENS_4lessIS7_EELb1EEENS5_ISC_EEE10__end_nodeB9nqe210106Ev, symObjAddr: 0x18B90, symBinAddr: 0x1E490, symSize: 0x20 }
  - { offset: 0xDB675, size: 0x8, addend: 0x0, symName: __ZNSt3__16__treeINS_12__value_typeINS_12basic_stringIcNS_11char_traitsIcEENS_9allocatorIcEEEEiEENS_19__map_value_compareIS7_NS_4pairIKS7_iEENS_4lessIS7_EELb1EEENS5_ISC_EEE12__begin_nodeB9nqe210106Ev, symObjAddr: 0x18BB0, symBinAddr: 0x1E4B0, symSize: 0x10 }
  - { offset: 0xDB69B, size: 0x8, addend: 0x0, symName: __ZNSt3__19allocatorINS_11__tree_nodeINS_12__value_typeINS_12basic_stringIcNS_11char_traitsIcEENS0_IcEEEEiEEPvEEEC2B9nqe210106Ev, symObjAddr: 0x18BC0, symBinAddr: 0x1E4C0, symSize: 0x20 }
  - { offset: 0xDB6C5, size: 0x8, addend: 0x0, symName: __ZNSt3__116__non_trivial_ifILb1ENS_9allocatorINS_11__tree_nodeINS_12__value_typeINS_12basic_stringIcNS_11char_traitsIcEENS1_IcEEEEiEEPvEEEEEC2B9nqe210106Ev, symObjAddr: 0x18BE0, symBinAddr: 0x1E4E0, symSize: 0x10 }
  - { offset: 0xDB6EF, size: 0x8, addend: 0x0, symName: __ZNSt3__13mapINS_12basic_stringIcNS_11char_traitsIcEENS_9allocatorIcEEEEiNS_4lessIS6_EENS4_INS_4pairIKS6_iEEEEED2B9nqe210106Ev, symObjAddr: 0x18BF0, symBinAddr: 0x1E4F0, symSize: 0x20 }
  - { offset: 0xDB719, size: 0x8, addend: 0x0, symName: __ZNSt3__16__treeINS_12__value_typeINS_12basic_stringIcNS_11char_traitsIcEENS_9allocatorIcEEEEiEENS_19__map_value_compareIS7_NS_4pairIKS7_iEENS_4lessIS7_EELb1EEENS5_ISC_EEED1Ev, symObjAddr: 0x18C10, symBinAddr: 0x1E510, symSize: 0x20 }
  - { offset: 0xDB745, size: 0x8, addend: 0x0, symName: __ZNSt3__16__treeINS_12__value_typeINS_12basic_stringIcNS_11char_traitsIcEENS_9allocatorIcEEEEiEENS_19__map_value_compareIS7_NS_4pairIKS7_iEENS_4lessIS7_EELb1EEENS5_ISC_EEED2Ev, symObjAddr: 0x18C30, symBinAddr: 0x1E530, symSize: 0x30 }
  - { offset: 0xDB771, size: 0x8, addend: 0x0, symName: __ZNSt3__16__treeINS_12__value_typeINS_12basic_stringIcNS_11char_traitsIcEENS_9allocatorIcEEEEiEENS_19__map_value_compareIS7_NS_4pairIKS7_iEENS_4lessIS7_EELb1EEENS5_ISC_EEE7destroyEPNS_11__tree_nodeIS8_PvEE, symObjAddr: 0x18C60, symBinAddr: 0x1E560, symSize: 0x80 }
  - { offset: 0xDB7BE, size: 0x8, addend: 0x0, symName: __ZNKSt3__16__treeINS_12__value_typeINS_12basic_stringIcNS_11char_traitsIcEENS_9allocatorIcEEEEiEENS_19__map_value_compareIS7_NS_4pairIKS7_iEENS_4lessIS7_EELb1EEENS5_ISC_EEE6__rootB9nqe210106Ev, symObjAddr: 0x18CE0, symBinAddr: 0x1E5E0, symSize: 0x20 }
  - { offset: 0xDB7E4, size: 0x8, addend: 0x0, symName: __ZNSt3__16__treeINS_12__value_typeINS_12basic_stringIcNS_11char_traitsIcEENS_9allocatorIcEEEEiEENS_19__map_value_compareIS7_NS_4pairIKS7_iEENS_4lessIS7_EELb1EEENS5_ISC_EEE12__node_allocB9nqe210106Ev, symObjAddr: 0x18D00, symBinAddr: 0x1E600, symSize: 0x20 }
  - { offset: 0xDB80A, size: 0x8, addend: 0x0, symName: __ZNSt3__116allocator_traitsINS_9allocatorINS_11__tree_nodeINS_12__value_typeINS_12basic_stringIcNS_11char_traitsIcEENS1_IcEEEEiEEPvEEEEE7destroyB9nqe210106INS_4pairIKS8_iEELi0EEEvRSC_PT_, symObjAddr: 0x18D20, symBinAddr: 0x1E620, symSize: 0x20 }
  - { offset: 0xDB849, size: 0x8, addend: 0x0, symName: __ZNSt3__116allocator_traitsINS_9allocatorINS_11__tree_nodeINS_12__value_typeINS_12basic_stringIcNS_11char_traitsIcEENS1_IcEEEEiEEPvEEEEE10deallocateB9nqe210106ERSC_PSB_m, symObjAddr: 0x18D40, symBinAddr: 0x1E640, symSize: 0x30 }
  - { offset: 0xDB88B, size: 0x8, addend: 0x0, symName: __ZNSt3__14pairIKNS_12basic_stringIcNS_11char_traitsIcEENS_9allocatorIcEEEEiED1Ev, symObjAddr: 0x18D90, symBinAddr: 0x1E690, symSize: 0x20 }
  - { offset: 0xDB8B7, size: 0x8, addend: 0x0, symName: __ZNSt3__14pairIKNS_12basic_stringIcNS_11char_traitsIcEENS_9allocatorIcEEEEiED2Ev, symObjAddr: 0x18DB0, symBinAddr: 0x1E6B0, symSize: 0x20 }
  - { offset: 0xDB8E3, size: 0x8, addend: 0x0, symName: __ZNSt3__19allocatorINS_11__tree_nodeINS_12__value_typeINS_12basic_stringIcNS_11char_traitsIcEENS0_IcEEEEiEEPvEEE10deallocateB9nqe210106EPSA_m, symObjAddr: 0x18DD0, symBinAddr: 0x1E6D0, symSize: 0x30 }
  - { offset: 0xDB925, size: 0x8, addend: 0x0, symName: __ZNKSt3__16__treeINS_12__value_typeINS_12basic_stringIcNS_11char_traitsIcEENS_9allocatorIcEEEEiEENS_19__map_value_compareIS7_NS_4pairIKS7_iEENS_4lessIS7_EELb1EEENS5_ISC_EEE10__end_nodeB9nqe210106Ev, symObjAddr: 0x18E50, symBinAddr: 0x1E750, symSize: 0x20 }
  - { offset: 0xDB94B, size: 0x8, addend: 0x0, symName: __ZNSt3__16__treeINS_12__value_typeINS_12basic_stringIcNS_11char_traitsIcEENS_9allocatorIcEEEEiEENS_19__map_value_compareIS7_NS_4pairIKS7_iEENS_4lessIS7_EELb1EEENS5_ISC_EEE25__emplace_unique_key_argsIS7_JRKNS_21piecewise_construct_tENS_5tupleIJRSB_EEENSM_IJEEEEEENSA_INS_15__tree_iteratorIS8_PNS_11__tree_nodeIS8_PvEElEEbEERKT_DpOT0_, symObjAddr: 0x18E70, symBinAddr: 0x1E770, symSize: 0x100 }
  - { offset: 0xDBA2D, size: 0x8, addend: 0x0, symName: __ZNKSt3__115__tree_iteratorINS_12__value_typeINS_12basic_stringIcNS_11char_traitsIcEENS_9allocatorIcEEEEiEEPNS_11__tree_nodeIS8_PvEElEptB9nqe210106Ev, symObjAddr: 0x18FA0, symBinAddr: 0x1E8A0, symSize: 0x30 }
  - { offset: 0xDBA53, size: 0x8, addend: 0x0, symName: __ZNSt3__16__treeINS_12__value_typeINS_12basic_stringIcNS_11char_traitsIcEENS_9allocatorIcEEEEiEENS_19__map_value_compareIS7_NS_4pairIKS7_iEENS_4lessIS7_EELb1EEENS5_ISC_EEE12__find_equalIS7_EERPNS_16__tree_node_baseIPvEERPNS_15__tree_end_nodeISM_EERKT_, symObjAddr: 0x18FD0, symBinAddr: 0x1E8D0, symSize: 0x150 }
  - { offset: 0xDBABE, size: 0x8, addend: 0x0, symName: __ZNSt3__16__treeINS_12__value_typeINS_12basic_stringIcNS_11char_traitsIcEENS_9allocatorIcEEEEiEENS_19__map_value_compareIS7_NS_4pairIKS7_iEENS_4lessIS7_EELb1EEENS5_ISC_EEE16__construct_nodeIJRKNS_21piecewise_construct_tENS_5tupleIJRSB_EEENSM_IJEEEEEENS_10unique_ptrINS_11__tree_nodeIS8_PvEENS_22__tree_node_destructorINS5_IST_EEEEEEDpOT_, symObjAddr: 0x19120, symBinAddr: 0x1EA20, symSize: 0xF0 }
  - { offset: 0xDBB49, size: 0x8, addend: 0x0, symName: __ZNSt3__16__treeINS_12__value_typeINS_12basic_stringIcNS_11char_traitsIcEENS_9allocatorIcEEEEiEENS_19__map_value_compareIS7_NS_4pairIKS7_iEENS_4lessIS7_EELb1EEENS5_ISC_EEE16__insert_node_atEPNS_15__tree_end_nodeIPNS_16__tree_node_baseIPvEEEERSM_SM_, symObjAddr: 0x19210, symBinAddr: 0x1EB10, symSize: 0xB0 }
  - { offset: 0xDBB9E, size: 0x8, addend: 0x0, symName: __ZNKSt3__110unique_ptrINS_11__tree_nodeINS_12__value_typeINS_12basic_stringIcNS_11char_traitsIcEENS_9allocatorIcEEEEiEEPvEENS_22__tree_node_destructorINS6_ISB_EEEEE3getB9nqe210106Ev, symObjAddr: 0x192C0, symBinAddr: 0x1EBC0, symSize: 0x20 }
  - { offset: 0xDBBC4, size: 0x8, addend: 0x0, symName: __ZNSt3__110unique_ptrINS_11__tree_nodeINS_12__value_typeINS_12basic_stringIcNS_11char_traitsIcEENS_9allocatorIcEEEEiEEPvEENS_22__tree_node_destructorINS6_ISB_EEEEE7releaseB9nqe210106Ev, symObjAddr: 0x192E0, symBinAddr: 0x1EBE0, symSize: 0x20 }
  - { offset: 0xDBBF9, size: 0x8, addend: 0x0, symName: __ZNSt3__110unique_ptrINS_11__tree_nodeINS_12__value_typeINS_12basic_stringIcNS_11char_traitsIcEENS_9allocatorIcEEEEiEEPvEENS_22__tree_node_destructorINS6_ISB_EEEEED1B9nqe210106Ev, symObjAddr: 0x19300, symBinAddr: 0x1EC00, symSize: 0x20 }
  - { offset: 0xDBC23, size: 0x8, addend: 0x0, symName: __ZNSt3__115__tree_iteratorINS_12__value_typeINS_12basic_stringIcNS_11char_traitsIcEENS_9allocatorIcEEEEiEEPNS_11__tree_nodeIS8_PvEElEC1B9nqe210106ESC_, symObjAddr: 0x19320, symBinAddr: 0x1EC20, symSize: 0x30 }
  - { offset: 0xDBC62, size: 0x8, addend: 0x0, symName: __ZNSt3__14pairINS_15__tree_iteratorINS_12__value_typeINS_12basic_stringIcNS_11char_traitsIcEENS_9allocatorIcEEEEiEEPNS_11__tree_nodeIS9_PvEElEEbEC1B9nqe210106ISE_RbLi0EEEOT_OT0_, symObjAddr: 0x19350, symBinAddr: 0x1EC50, symSize: 0x30 }
  - { offset: 0xDBCC0, size: 0x8, addend: 0x0, symName: __ZNKSt3__16__treeINS_12__value_typeINS_12basic_stringIcNS_11char_traitsIcEENS_9allocatorIcEEEEiEENS_19__map_value_compareIS7_NS_4pairIKS7_iEENS_4lessIS7_EELb1EEENS5_ISC_EEE10__root_ptrB9nqe210106Ev, symObjAddr: 0x19380, symBinAddr: 0x1EC80, symSize: 0x20 }
  - { offset: 0xDBCE6, size: 0x8, addend: 0x0, symName: __ZNSt3__16__treeINS_12__value_typeINS_12basic_stringIcNS_11char_traitsIcEENS_9allocatorIcEEEEiEENS_19__map_value_compareIS7_NS_4pairIKS7_iEENS_4lessIS7_EELb1EEENS5_ISC_EEE10value_compB9nqe210106Ev, symObjAddr: 0x193A0, symBinAddr: 0x1ECA0, symSize: 0x20 }
  - { offset: 0xDBD0C, size: 0x8, addend: 0x0, symName: __ZNKSt3__119__map_value_compareINS_12basic_stringIcNS_11char_traitsIcEENS_9allocatorIcEEEENS_4pairIKS6_iEENS_4lessIS6_EELb1EEclB9nqe210106ERS8_RKS9_, symObjAddr: 0x193C0, symBinAddr: 0x1ECC0, symSize: 0x30 }
  - { offset: 0xDBD50, size: 0x8, addend: 0x0, symName: __ZNKSt3__119__map_value_compareINS_12basic_stringIcNS_11char_traitsIcEENS_9allocatorIcEEEENS_4pairIKS6_iEENS_4lessIS6_EELb1EEclB9nqe210106ERKS9_RS8_, symObjAddr: 0x193F0, symBinAddr: 0x1ECF0, symSize: 0x30 }
  - { offset: 0xDBD94, size: 0x8, addend: 0x0, symName: __ZNSt3__116allocator_traitsINS_9allocatorINS_11__tree_nodeINS_12__value_typeINS_12basic_stringIcNS_11char_traitsIcEENS1_IcEEEEiEEPvEEEEE8allocateB9nqe210106ERSC_m, symObjAddr: 0x19420, symBinAddr: 0x1ED20, symSize: 0x30 }
  - { offset: 0xDBDC7, size: 0x8, addend: 0x0, symName: __ZNSt3__122__tree_node_destructorINS_9allocatorINS_11__tree_nodeINS_12__value_typeINS_12basic_stringIcNS_11char_traitsIcEENS1_IcEEEEiEEPvEEEEEC1B9nqe210106ERSC_b, symObjAddr: 0x19450, symBinAddr: 0x1ED50, symSize: 0x40 }
  - { offset: 0xDBE15, size: 0x8, addend: 0x0, symName: __ZNSt3__110unique_ptrINS_11__tree_nodeINS_12__value_typeINS_12basic_stringIcNS_11char_traitsIcEENS_9allocatorIcEEEEiEEPvEENS_22__tree_node_destructorINS6_ISB_EEEEEC1B9nqe210106ILb1EvEEPSB_NS_16__dependent_typeINS_27__unique_ptr_deleter_sfinaeISE_EEXT_EE20__good_rval_ref_typeE, symObjAddr: 0x19490, symBinAddr: 0x1ED90, symSize: 0x30 }
  - { offset: 0xDBE66, size: 0x8, addend: 0x0, symName: __ZNSt3__116allocator_traitsINS_9allocatorINS_11__tree_nodeINS_12__value_typeINS_12basic_stringIcNS_11char_traitsIcEENS1_IcEEEEiEEPvEEEEE9constructB9nqe210106INS_4pairIKS8_iEEJRKNS_21piecewise_construct_tENS_5tupleIJRSG_EEENSL_IJEEEELi0EEEvRSC_PT_DpOT0_, symObjAddr: 0x194C0, symBinAddr: 0x1EDC0, symSize: 0x40 }
  - { offset: 0xDBEEE, size: 0x8, addend: 0x0, symName: __ZNKSt3__110unique_ptrINS_11__tree_nodeINS_12__value_typeINS_12basic_stringIcNS_11char_traitsIcEENS_9allocatorIcEEEEiEEPvEENS_22__tree_node_destructorINS6_ISB_EEEEEptB9nqe210106Ev, symObjAddr: 0x19500, symBinAddr: 0x1EE00, symSize: 0x20 }
  - { offset: 0xDBF14, size: 0x8, addend: 0x0, symName: __ZNSt3__110unique_ptrINS_11__tree_nodeINS_12__value_typeINS_12basic_stringIcNS_11char_traitsIcEENS_9allocatorIcEEEEiEEPvEENS_22__tree_node_destructorINS6_ISB_EEEEE11get_deleterB9nqe210106Ev, symObjAddr: 0x19520, symBinAddr: 0x1EE20, symSize: 0x20 }
  - { offset: 0xDBF3A, size: 0x8, addend: 0x0, symName: __ZNSt3__19allocatorINS_11__tree_nodeINS_12__value_typeINS_12basic_stringIcNS_11char_traitsIcEENS0_IcEEEEiEEPvEEE8allocateB9nqe210106Em, symObjAddr: 0x19540, symBinAddr: 0x1EE40, symSize: 0x50 }
  - { offset: 0xDBF79, size: 0x8, addend: 0x0, symName: __ZNSt3__116allocator_traitsINS_9allocatorINS_11__tree_nodeINS_12__value_typeINS_12basic_stringIcNS_11char_traitsIcEENS1_IcEEEEiEEPvEEEEE8max_sizeB9nqe210106ISC_Li0EEEmRKSC_, symObjAddr: 0x19590, symBinAddr: 0x1EE90, symSize: 0x20 }
  - { offset: 0xDBFAC, size: 0x8, addend: 0x0, symName: __ZNKSt3__19allocatorINS_11__tree_nodeINS_12__value_typeINS_12basic_stringIcNS_11char_traitsIcEENS0_IcEEEEiEEPvEEE8max_sizeB9nqe210106Ev, symObjAddr: 0x19610, symBinAddr: 0x1EF10, symSize: 0x20 }
  - { offset: 0xDBFD2, size: 0x8, addend: 0x0, symName: __ZNSt3__122__tree_node_destructorINS_9allocatorINS_11__tree_nodeINS_12__value_typeINS_12basic_stringIcNS_11char_traitsIcEENS1_IcEEEEiEEPvEEEEEC2B9nqe210106ERSC_b, symObjAddr: 0x19630, symBinAddr: 0x1EF30, symSize: 0x30 }
  - { offset: 0xDC01A, size: 0x8, addend: 0x0, symName: __ZNSt3__110unique_ptrINS_11__tree_nodeINS_12__value_typeINS_12basic_stringIcNS_11char_traitsIcEENS_9allocatorIcEEEEiEEPvEENS_22__tree_node_destructorINS6_ISB_EEEEEC2B9nqe210106ILb1EvEEPSB_NS_16__dependent_typeINS_27__unique_ptr_deleter_sfinaeISE_EEXT_EE20__good_rval_ref_typeE, symObjAddr: 0x19660, symBinAddr: 0x1EF60, symSize: 0x50 }
  - { offset: 0xDC070, size: 0x8, addend: 0x0, symName: __ZNSt3__125__compressed_pair_paddingINS_22__tree_node_destructorINS_9allocatorINS_11__tree_nodeINS_12__value_typeINS_12basic_stringIcNS_11char_traitsIcEENS2_IcEEEEiEEPvEEEEEELb0EEC1Ev, symObjAddr: 0x196B0, symBinAddr: 0x1EFB0, symSize: 0x20 }
  - { offset: 0xDC09C, size: 0x8, addend: 0x0, symName: __ZNSt3__125__compressed_pair_paddingINS_22__tree_node_destructorINS_9allocatorINS_11__tree_nodeINS_12__value_typeINS_12basic_stringIcNS_11char_traitsIcEENS2_IcEEEEiEEPvEEEEEELb0EEC2Ev, symObjAddr: 0x196D0, symBinAddr: 0x1EFD0, symSize: 0x40 }
  - { offset: 0xDC0C8, size: 0x8, addend: 0x0, symName: __ZNSt3__19allocatorINS_11__tree_nodeINS_12__value_typeINS_12basic_stringIcNS_11char_traitsIcEENS0_IcEEEEiEEPvEEE9constructB9nqe210106INS_4pairIKS7_iEEJRKNS_21piecewise_construct_tENS_5tupleIJRSE_EEENSJ_IJEEEEEEvPT_DpOT0_, symObjAddr: 0x19710, symBinAddr: 0x1F010, symSize: 0x40 }
  - { offset: 0xDC148, size: 0x8, addend: 0x0, symName: __ZNSt3__14pairIKNS_12basic_stringIcNS_11char_traitsIcEENS_9allocatorIcEEEEiEC1B9nqe210106IJRS7_EJEEENS_21piecewise_construct_tENS_5tupleIJDpT_EEENSC_IJDpT0_EEE, symObjAddr: 0x19750, symBinAddr: 0x1F050, symSize: 0x30 }
  - { offset: 0xDC1AF, size: 0x8, addend: 0x0, symName: __ZNSt3__14pairIKNS_12basic_stringIcNS_11char_traitsIcEENS_9allocatorIcEEEEiEC1B9nqe210106IJRS7_EJEJLm0EEJEEENS_21piecewise_construct_tERNS_5tupleIJDpT_EEERNSC_IJDpT0_EEENS_15__tuple_indicesIJXspT1_EEEENSL_IJXspT2_EEEE, symObjAddr: 0x19780, symBinAddr: 0x1F080, symSize: 0x30 }
  - { offset: 0xDC241, size: 0x8, addend: 0x0, symName: __ZNSt3__14pairIKNS_12basic_stringIcNS_11char_traitsIcEENS_9allocatorIcEEEEiEC2B9nqe210106IJRS7_EJEJLm0EEJEEENS_21piecewise_construct_tERNS_5tupleIJDpT_EEERNSC_IJDpT0_EEENS_15__tuple_indicesIJXspT1_EEEENSL_IJXspT2_EEEE, symObjAddr: 0x197B0, symBinAddr: 0x1F0B0, symSize: 0x50 }
  - { offset: 0xDC2D3, size: 0x8, addend: 0x0, symName: __ZNSt3__112__tuple_leafILm0ERKNS_12basic_stringIcNS_11char_traitsIcEENS_9allocatorIcEEEELb0EE3getB9nqe210106Ev, symObjAddr: 0x19820, symBinAddr: 0x1F120, symSize: 0x20 }
  - { offset: 0xDC2F9, size: 0x8, addend: 0x0, symName: __ZNSt3__16__treeINS_12__value_typeINS_12basic_stringIcNS_11char_traitsIcEENS_9allocatorIcEEEEiEENS_19__map_value_compareIS7_NS_4pairIKS7_iEENS_4lessIS7_EELb1EEENS5_ISC_EEE4sizeB9nqe210106Ev, symObjAddr: 0x19840, symBinAddr: 0x1F140, symSize: 0x20 }
  - { offset: 0xDC31F, size: 0x8, addend: 0x0, symName: __ZNSt3__110unique_ptrINS_11__tree_nodeINS_12__value_typeINS_12basic_stringIcNS_11char_traitsIcEENS_9allocatorIcEEEEiEEPvEENS_22__tree_node_destructorINS6_ISB_EEEEED2B9nqe210106Ev, symObjAddr: 0x19860, symBinAddr: 0x1F160, symSize: 0x20 }
  - { offset: 0xDC349, size: 0x8, addend: 0x0, symName: __ZNSt3__110unique_ptrINS_11__tree_nodeINS_12__value_typeINS_12basic_stringIcNS_11char_traitsIcEENS_9allocatorIcEEEEiEEPvEENS_22__tree_node_destructorINS6_ISB_EEEEE5resetB9nqe210106EPSB_, symObjAddr: 0x19880, symBinAddr: 0x1F180, symSize: 0x50 }
  - { offset: 0xDC38D, size: 0x8, addend: 0x0, symName: __ZNSt3__122__tree_node_destructorINS_9allocatorINS_11__tree_nodeINS_12__value_typeINS_12basic_stringIcNS_11char_traitsIcEENS1_IcEEEEiEEPvEEEEEclB9nqe210106EPSB_, symObjAddr: 0x198D0, symBinAddr: 0x1F1D0, symSize: 0x60 }
  - { offset: 0xDC3C2, size: 0x8, addend: 0x0, symName: __ZNSt3__115__tree_iteratorINS_12__value_typeINS_12basic_stringIcNS_11char_traitsIcEENS_9allocatorIcEEEEiEEPNS_11__tree_nodeIS8_PvEElEC2B9nqe210106ESC_, symObjAddr: 0x19930, symBinAddr: 0x1F230, symSize: 0x20 }
  - { offset: 0xDC3FB, size: 0x8, addend: 0x0, symName: __ZNSt3__14pairINS_15__tree_iteratorINS_12__value_typeINS_12basic_stringIcNS_11char_traitsIcEENS_9allocatorIcEEEEiEEPNS_11__tree_nodeIS9_PvEElEEbEC2B9nqe210106ISE_RbLi0EEEOT_OT0_, symObjAddr: 0x19950, symBinAddr: 0x1F250, symSize: 0x30 }
  - { offset: 0xDC459, size: 0x8, addend: 0x0, symName: __ZNSt3__15tupleIJRKNS_12basic_stringIcNS_11char_traitsIcEENS_9allocatorIcEEEEEEC1B9nqe210106INS_4_AndELi0EEES8_, symObjAddr: 0x19980, symBinAddr: 0x1F280, symSize: 0x30 }
  - { offset: 0xDC4A1, size: 0x8, addend: 0x0, symName: __ZNSt3__15tupleIJRKNS_12basic_stringIcNS_11char_traitsIcEENS_9allocatorIcEEEEEEC2B9nqe210106INS_4_AndELi0EEES8_, symObjAddr: 0x199B0, symBinAddr: 0x1F2B0, symSize: 0x30 }
  - { offset: 0xDC4E9, size: 0x8, addend: 0x0, symName: __ZNSt3__112__tuple_implINS_15__tuple_indicesIJLm0EEEEJRKNS_12basic_stringIcNS_11char_traitsIcEENS_9allocatorIcEEEEEEC1B9nqe210106IJLm0EEJSA_EJEJEJSA_EEENS1_IJXspT_EEEENS_13__tuple_typesIJDpT0_EEENS1_IJXspT1_EEEENSE_IJDpT2_EEEDpOT3_, symObjAddr: 0x199E0, symBinAddr: 0x1F2E0, symSize: 0x30 }
  - { offset: 0xDC585, size: 0x8, addend: 0x0, symName: __ZNSt3__112__tuple_implINS_15__tuple_indicesIJLm0EEEEJRKNS_12basic_stringIcNS_11char_traitsIcEENS_9allocatorIcEEEEEEC2B9nqe210106IJLm0EEJSA_EJEJEJSA_EEENS1_IJXspT_EEEENS_13__tuple_typesIJDpT0_EEENS1_IJXspT1_EEEENSE_IJDpT2_EEEDpOT3_, symObjAddr: 0x19A10, symBinAddr: 0x1F310, symSize: 0x30 }
  - { offset: 0xDC621, size: 0x8, addend: 0x0, symName: __ZNSt3__112__tuple_leafILm0ERKNS_12basic_stringIcNS_11char_traitsIcEENS_9allocatorIcEEEELb0EEC2B9nqe210106IS8_Li0EEEOT_, symObjAddr: 0x19A40, symBinAddr: 0x1F340, symSize: 0x20 }
  - { offset: 0xDC669, size: 0x8, addend: 0x0, symName: __ZNSt3__114pointer_traitsIPNS_4pairIKNS_12basic_stringIcNS_11char_traitsIcEENS_9allocatorIcEEEEiEEE10pointer_toB9nqe210106ERS9_, symObjAddr: 0x19A60, symBinAddr: 0x1F360, symSize: 0x10 }
  - { offset: 0xDC68C, size: 0x8, addend: 0x0, symName: __ZNKSt3__115__tree_iteratorINS_12__value_typeINS_12basic_stringIcNS_11char_traitsIcEENS_9allocatorIcEEEEiEEPNS_11__tree_nodeIS8_PvEElE8__get_npB9nqe210106Ev, symObjAddr: 0x19A70, symBinAddr: 0x1F370, symSize: 0x20 }
  - { offset: 0xDC6B2, size: 0x8, addend: 0x0, symName: __ZN14QSharedPointerIN5Tiled7TilesetEE6createIJ7QStringRKiS6_S6_S6_EEES2_DpOT_, symObjAddr: 0x19A90, symBinAddr: 0x1F390, symSize: 0x1D0 }
  - { offset: 0xDC775, size: 0x8, addend: 0x0, symName: __ZN15QtSharedPointer34ExternalRefCountWithContiguousDataIN5Tiled7TilesetEE7deleterEPNS_20ExternalRefCountDataE, symObjAddr: 0x19C60, symBinAddr: 0x1F560, symSize: 0x30 }
  - { offset: 0xDC7A6, size: 0x8, addend: 0x0, symName: __ZN15QtSharedPointer34ExternalRefCountWithContiguousDataIN5Tiled7TilesetEE9noDeleterEPNS_20ExternalRefCountDataE, symObjAddr: 0x19C90, symBinAddr: 0x1F590, symSize: 0x10 }
  - { offset: 0xDC7C6, size: 0x8, addend: 0x0, symName: __ZN14QSharedPointerIN5Tiled7TilesetEEC1EN2Qt14InitializationE, symObjAddr: 0x19CA0, symBinAddr: 0x1F5A0, symSize: 0x30 }
  - { offset: 0xDC7FC, size: 0x8, addend: 0x0, symName: __ZN15QtSharedPointer34ExternalRefCountWithContiguousDataIN5Tiled7TilesetEE6createEPPS2_PFvPNS_20ExternalRefCountDataEE, symObjAddr: 0x19CD0, symBinAddr: 0x1F5D0, symSize: 0xA0 }
  - { offset: 0xDC83B, size: 0x8, addend: 0x0, symName: __ZN2Qt23totally_ordered_wrapperIPN5Tiled7TilesetEE5resetES3_, symObjAddr: 0x19D70, symBinAddr: 0x1F670, symSize: 0x20 }
  - { offset: 0xDC870, size: 0x8, addend: 0x0, symName: __ZN15QtSharedPointer20ExternalRefCountData16setQObjectSharedEz, symObjAddr: 0x19D90, symBinAddr: 0x1F690, symSize: 0x10 }
  - { offset: 0xDC89D, size: 0x8, addend: 0x0, symName: __ZN14QSharedPointerIN5Tiled7TilesetEE20enableSharedFromThisIS1_EEvPK21QEnableSharedFromThisIT_E, symObjAddr: 0x19DA0, symBinAddr: 0x1F6A0, symSize: 0x70 }
  - { offset: 0xDC8DB, size: 0x8, addend: 0x0, symName: __ZN14QSharedPointerIN5Tiled7TilesetEEC2EN2Qt14InitializationE, symObjAddr: 0x19E10, symBinAddr: 0x1F710, symSize: 0x10 }
  - { offset: 0xDC911, size: 0x8, addend: 0x0, symName: __ZN15QtSharedPointer20ExternalRefCountDatanwEmPv, symObjAddr: 0x19E20, symBinAddr: 0x1F720, symSize: 0x20 }
  - { offset: 0xDC93F, size: 0x8, addend: 0x0, symName: __ZN15QtSharedPointer20ExternalRefCountDataC1EPFvPS0_E, symObjAddr: 0x19E40, symBinAddr: 0x1F740, symSize: 0x30 }
  - { offset: 0xDC977, size: 0x8, addend: 0x0, symName: __ZN15QtSharedPointer20ExternalRefCountDatadlEPvS1_, symObjAddr: 0x19E70, symBinAddr: 0x1F770, symSize: 0x10 }
  - { offset: 0xDC9A2, size: 0x8, addend: 0x0, symName: __ZN15QtSharedPointer20ExternalRefCountDataC2EPFvPS0_E, symObjAddr: 0x19E80, symBinAddr: 0x1F780, symSize: 0x50 }
  - { offset: 0xDC9DA, size: 0x8, addend: 0x0, symName: __ZN19QBasicAtomicIntegerIiE12storeRelaxedEi, symObjAddr: 0x19ED0, symBinAddr: 0x1F7D0, symSize: 0x30 }
  - { offset: 0xDCA0E, size: 0x8, addend: 0x0, symName: __ZN10QAtomicOpsIiE12storeRelaxedIiEEvRNSt3__16atomicIT_EES4_, symObjAddr: 0x19F00, symBinAddr: 0x1F800, symSize: 0x30 }
  - { offset: 0xDCA48, size: 0x8, addend: 0x0, symName: __ZNK21QEnableSharedFromThisIN5Tiled7TilesetEE27initializeFromSharedPointerIS1_EEvRK14QSharedPointerIT_E, symObjAddr: 0x19F30, symBinAddr: 0x1F830, symSize: 0x30 }
  - { offset: 0xDCA86, size: 0x8, addend: 0x0, symName: __ZNKR14QSharedPointerIN5Tiled7TilesetEE9constCastIS1_EES_IT_Ev, symObjAddr: 0x19F60, symBinAddr: 0x1F860, symSize: 0x30 }
  - { offset: 0xDCAB5, size: 0x8, addend: 0x0, symName: __ZN12QWeakPointerIN5Tiled7TilesetEEaSERK14QSharedPointerIS1_E, symObjAddr: 0x19F90, symBinAddr: 0x1F890, symSize: 0x50 }
  - { offset: 0xDCAEA, size: 0x8, addend: 0x0, symName: __ZN12QWeakPointerIN5Tiled7TilesetEE11internalSetEPN15QtSharedPointer20ExternalRefCountDataEPS1_, symObjAddr: 0x19FE0, symBinAddr: 0x1F8E0, symSize: 0x90 }
  - { offset: 0xDCB2D, size: 0x8, addend: 0x0, symName: __Z23qSharedPointerConstCastIN5Tiled7TilesetES1_E14QSharedPointerIT_ERKS2_IT0_E, symObjAddr: 0x1A070, symBinAddr: 0x1F970, symSize: 0x50 }
  - { offset: 0xDCB7C, size: 0x8, addend: 0x0, symName: __ZN14QSharedPointerIN5Tiled7TilesetEEC1Ev, symObjAddr: 0x1A140, symBinAddr: 0x1FA40, symSize: 0x20 }
  - { offset: 0xDCBA6, size: 0x8, addend: 0x0, symName: __ZN14QSharedPointerIN5Tiled7TilesetEE11internalSetEPN15QtSharedPointer20ExternalRefCountDataEPS1_, symObjAddr: 0x1A160, symBinAddr: 0x1FA60, symSize: 0xF0 }
  - { offset: 0xDCC08, size: 0x8, addend: 0x0, symName: __ZN14QSharedPointerIN5Tiled7TilesetEEC2Ev, symObjAddr: 0x1A250, symBinAddr: 0x1FB50, symSize: 0x40 }
  - { offset: 0xDCC32, size: 0x8, addend: 0x0, symName: __ZN2Qt23totally_ordered_wrapperIPN5Tiled7TilesetEEC1EDn, symObjAddr: 0x1A290, symBinAddr: 0x1FB90, symSize: 0x30 }
  - { offset: 0xDCC68, size: 0x8, addend: 0x0, symName: __ZN19QBasicAtomicIntegerIiE17testAndSetRelaxedEii, symObjAddr: 0x1A2C0, symBinAddr: 0x1FBC0, symSize: 0x30 }
  - { offset: 0xDCCA9, size: 0x8, addend: 0x0, symName: __Z11qt_ptr_swapIN15QtSharedPointer20ExternalRefCountDataEEvRPT_S4_, symObjAddr: 0x1A2F0, symBinAddr: 0x1FBF0, symSize: 0x40 }
  - { offset: 0xDCCF7, size: 0x8, addend: 0x0, symName: __ZN10QAtomicOpsIiE17testAndSetRelaxedIiEEbRNSt3__16atomicIT_EES4_S4_PS4_, symObjAddr: 0x1A330, symBinAddr: 0x1FC30, symSize: 0x50 }
  - { offset: 0xDCD60, size: 0x8, addend: 0x0, symName: __ZNSt3__113__atomic_baseIiLb0EE23compare_exchange_strongB9nqe210106ERiiNS_12memory_orderES3_, symObjAddr: 0x1A380, symBinAddr: 0x1FC80, symSize: 0x40 }
  - { offset: 0xDCDBE, size: 0x8, addend: 0x0, symName: __ZNK5QListI11QStringViewE2atEx, symObjAddr: 0x1A8D0, symBinAddr: 0x201D0, symSize: 0x70 }
  - { offset: 0xDCDF3, size: 0x8, addend: 0x0, symName: __ZNK17QArrayDataPointerI11QStringViewEptEv, symObjAddr: 0x1A940, symBinAddr: 0x20240, symSize: 0x10 }
  - { offset: 0xDCE19, size: 0x8, addend: 0x0, symName: __ZNK5QListI11QStringViewE4dataEv, symObjAddr: 0x1A950, symBinAddr: 0x20250, symSize: 0x30 }
  - { offset: 0xDCE3F, size: 0x8, addend: 0x0, symName: __ZNK17QArrayDataPointerI11QStringViewE4dataEv, symObjAddr: 0x1A980, symBinAddr: 0x20280, symSize: 0x20 }
  - { offset: 0xDCE65, size: 0x8, addend: 0x0, symName: __ZNSt3__16__treeINS_12__value_typeINS_12basic_stringIcNS_11char_traitsIcEENS_9allocatorIcEEEEN4tbin13PropertyValueEEENS_19__map_value_compareIS7_NS_4pairIKS7_S9_EENS_4lessIS7_EELb1EEENS5_ISE_EEE16__emplace_uniqueB9nqe210106INSC_IPKcS9_EEEENSC_INS_15__tree_iteratorISA_PNS_11__tree_nodeISA_PvEElEEbEEOT_, symObjAddr: 0x1AB00, symBinAddr: 0x202A0, symSize: 0x40 }
  - { offset: 0xDCEA3, size: 0x8, addend: 0x0, symName: __ZNSt3__16__treeINS_12__value_typeINS_12basic_stringIcNS_11char_traitsIcEENS_9allocatorIcEEEEN4tbin13PropertyValueEEENS_19__map_value_compareIS7_NS_4pairIKS7_S9_EENS_4lessIS7_EELb1EEENS5_ISE_EEE28__emplace_unique_extract_keyB9nqe210106INSC_IPKcS9_EEEENSC_INS_15__tree_iteratorISA_PNS_11__tree_nodeISA_PvEElEEbEEOT_NS_22__extract_key_fail_tagE, symObjAddr: 0x1AB40, symBinAddr: 0x202E0, symSize: 0x40 }
  - { offset: 0xDCEED, size: 0x8, addend: 0x0, symName: __ZNSt3__16__treeINS_12__value_typeINS_12basic_stringIcNS_11char_traitsIcEENS_9allocatorIcEEEEN4tbin13PropertyValueEEENS_19__map_value_compareIS7_NS_4pairIKS7_S9_EENS_4lessIS7_EELb1EEENS5_ISE_EEE21__emplace_unique_implIJNSC_IPKcS9_EEEEENSC_INS_15__tree_iteratorISA_PNS_11__tree_nodeISA_PvEElEEbEEDpOT_, symObjAddr: 0x1AB80, symBinAddr: 0x20320, symSize: 0x130 }
  - { offset: 0xDCF7D, size: 0x8, addend: 0x0, symName: __ZNSt3__16__treeINS_12__value_typeINS_12basic_stringIcNS_11char_traitsIcEENS_9allocatorIcEEEEN4tbin13PropertyValueEEENS_19__map_value_compareIS7_NS_4pairIKS7_S9_EENS_4lessIS7_EELb1EEENS5_ISE_EEE16__construct_nodeIJNSC_IPKcS9_EEEEENS_10unique_ptrINS_11__tree_nodeISA_PvEENS_22__tree_node_destructorINS5_ISR_EEEEEEDpOT_, symObjAddr: 0x1ACB0, symBinAddr: 0x20450, symSize: 0xE0 }
  - { offset: 0xDCFDE, size: 0x8, addend: 0x0, symName: __ZNSt3__16__treeINS_12__value_typeINS_12basic_stringIcNS_11char_traitsIcEENS_9allocatorIcEEEEN4tbin13PropertyValueEEENS_19__map_value_compareIS7_NS_4pairIKS7_S9_EENS_4lessIS7_EELb1EEENS5_ISE_EEE12__find_equalISE_EERPNS_16__tree_node_baseIPvEERPNS_15__tree_end_nodeISO_EERKT_, symObjAddr: 0x1AD90, symBinAddr: 0x20530, symSize: 0x150 }
  - { offset: 0xDD049, size: 0x8, addend: 0x0, symName: __ZNSt3__116allocator_traitsINS_9allocatorINS_11__tree_nodeINS_12__value_typeINS_12basic_stringIcNS_11char_traitsIcEENS1_IcEEEEN4tbin13PropertyValueEEEPvEEEEE9constructB9nqe210106INS_4pairIKS8_SA_EEJNSH_IPKcSA_EEELi0EEEvRSE_PT_DpOT0_, symObjAddr: 0x1AEE0, symBinAddr: 0x20680, symSize: 0x30 }
  - { offset: 0xDD0A7, size: 0x8, addend: 0x0, symName: __ZNSt3__19allocatorINS_11__tree_nodeINS_12__value_typeINS_12basic_stringIcNS_11char_traitsIcEENS0_IcEEEEN4tbin13PropertyValueEEEPvEEE9constructB9nqe210106INS_4pairIKS7_S9_EEJNSF_IPKcS9_EEEEEvPT_DpOT0_, symObjAddr: 0x1AF10, symBinAddr: 0x206B0, symSize: 0x30 }
  - { offset: 0xDD0FF, size: 0x8, addend: 0x0, symName: __ZNSt3__14pairIKNS_12basic_stringIcNS_11char_traitsIcEENS_9allocatorIcEEEEN4tbin13PropertyValueEEC1B9nqe210106IPKcS9_Li0EEEONS0_IT_T0_EE, symObjAddr: 0x1AF40, symBinAddr: 0x206E0, symSize: 0x30 }
  - { offset: 0xDD14F, size: 0x8, addend: 0x0, symName: __ZNSt3__14pairIKNS_12basic_stringIcNS_11char_traitsIcEENS_9allocatorIcEEEEN4tbin13PropertyValueEEC2B9nqe210106IPKcS9_Li0EEEONS0_IT_T0_EE, symObjAddr: 0x1AF70, symBinAddr: 0x20710, symSize: 0x40 }
  - { offset: 0xDD19F, size: 0x8, addend: 0x0, symName: __ZNKSt3__119__map_value_compareINS_12basic_stringIcNS_11char_traitsIcEENS_9allocatorIcEEEENS_4pairIKS6_N4tbin13PropertyValueEEENS_4lessIS6_EELb1EEclB9nqe210106ERKSB_SG_, symObjAddr: 0x1B070, symBinAddr: 0x20750, symSize: 0x30 }
  - { offset: 0xDD1E3, size: 0x8, addend: 0x0, symName: __ZNKSt3__16vectorIN4tbin5LayerENS_9allocatorIS2_EEE11__make_iterB9nqe210106EPKS2_, symObjAddr: 0x1B0A0, symBinAddr: 0x20780, symSize: 0x30 }
  - { offset: 0xDD218, size: 0x8, addend: 0x0, symName: __ZNSt3__16vectorIN4tbin5LayerENS_9allocatorIS2_EEE26__add_alignment_assumptionB9nqe210106IPS2_Li0EEES7_T_, symObjAddr: 0x1B0D0, symBinAddr: 0x207B0, symSize: 0x10 }
  - { offset: 0xDD24B, size: 0x8, addend: 0x0, symName: __ZNSt3__111__wrap_iterIPKN4tbin5LayerEEC1B9nqe210106ES4_, symObjAddr: 0x1B0E0, symBinAddr: 0x207C0, symSize: 0x30 }
  - { offset: 0xDD283, size: 0x8, addend: 0x0, symName: __ZNSt3__111__wrap_iterIPKN4tbin5LayerEEC2B9nqe210106ES4_, symObjAddr: 0x1B110, symBinAddr: 0x207F0, symSize: 0x20 }
  - { offset: 0xDD2BB, size: 0x8, addend: 0x0, symName: __ZNSt3__110unique_ptrIN5Tiled9TileLayerENS_14default_deleteIS2_EEEC1B9nqe210106ILb1EvEEPS2_, symObjAddr: 0x1B130, symBinAddr: 0x20810, symSize: 0x30 }
  - { offset: 0xDD2FE, size: 0x8, addend: 0x0, symName: __ZNSt3__110unique_ptrIN5Tiled9TileLayerENS_14default_deleteIS2_EEEC2B9nqe210106ILb1EvEEPS2_, symObjAddr: 0x1B160, symBinAddr: 0x20840, symSize: 0x20 }
  - { offset: 0xDD341, size: 0x8, addend: 0x0, symName: __ZNSt3__110unique_ptrIN5Tiled11ObjectGroupENS_14default_deleteIS2_EEEC1B9nqe210106ILb1EvEEPS2_, symObjAddr: 0x1B180, symBinAddr: 0x20860, symSize: 0x30 }
  - { offset: 0xDD384, size: 0x8, addend: 0x0, symName: __ZNSt3__110unique_ptrIN5Tiled11ObjectGroupENS_14default_deleteIS2_EEEC2B9nqe210106ILb1EvEEPS2_, symObjAddr: 0x1B1B0, symBinAddr: 0x20890, symSize: 0x20 }
  - { offset: 0xDD3C7, size: 0x8, addend: 0x0, symName: __ZNSt3__110unique_ptrIN5Tiled11ObjectGroupENS_14default_deleteIS2_EEED2B9nqe210106Ev, symObjAddr: 0x1B1D0, symBinAddr: 0x208B0, symSize: 0x20 }
  - { offset: 0xDD3F1, size: 0x8, addend: 0x0, symName: __ZNSt3__110unique_ptrIN5Tiled11ObjectGroupENS_14default_deleteIS2_EEE5resetB9nqe210106EPS2_, symObjAddr: 0x1B1F0, symBinAddr: 0x208D0, symSize: 0x40 }
  - { offset: 0xDD435, size: 0x8, addend: 0x0, symName: __ZNKSt3__114default_deleteIN5Tiled11ObjectGroupEEclB9nqe210106EPS2_, symObjAddr: 0x1B230, symBinAddr: 0x20910, symSize: 0x30 }
  - { offset: 0xDD469, size: 0x8, addend: 0x0, symName: __ZNKSt3__16vectorIN4tbin4TileENS_9allocatorIS2_EEE11__make_iterB9nqe210106EPKS2_, symObjAddr: 0x1B260, symBinAddr: 0x20940, symSize: 0x30 }
  - { offset: 0xDD49E, size: 0x8, addend: 0x0, symName: __ZNSt3__16vectorIN4tbin4TileENS_9allocatorIS2_EEE26__add_alignment_assumptionB9nqe210106IPS2_Li0EEES7_T_, symObjAddr: 0x1B290, symBinAddr: 0x20970, symSize: 0x10 }
  - { offset: 0xDD4D1, size: 0x8, addend: 0x0, symName: __ZNSt3__111__wrap_iterIPKN4tbin4TileEEC1B9nqe210106ES4_, symObjAddr: 0x1B2A0, symBinAddr: 0x20980, symSize: 0x30 }
  - { offset: 0xDD509, size: 0x8, addend: 0x0, symName: __ZNSt3__111__wrap_iterIPKN4tbin4TileEEC2B9nqe210106ES4_, symObjAddr: 0x1B2D0, symBinAddr: 0x209B0, symSize: 0x20 }
  - { offset: 0xDD541, size: 0x8, addend: 0x0, symName: __ZN5QListIN5Tiled5FrameEE11emplaceBackIJRKS1_EEERS1_DpOT_, symObjAddr: 0x1B370, symBinAddr: 0x20A50, symSize: 0x70 }
  - { offset: 0xDD583, size: 0x8, addend: 0x0, symName: __ZN9QtPrivate12QPodArrayOpsIN5Tiled5FrameEE7emplaceIJRKS2_EEEvxDpOT_, symObjAddr: 0x1B3E0, symBinAddr: 0x20AC0, symSize: 0x140 }
  - { offset: 0xDD60A, size: 0x8, addend: 0x0, symName: __ZN5QListIN5Tiled5FrameEE3endEv, symObjAddr: 0x1B520, symBinAddr: 0x20C00, symSize: 0x40 }
  - { offset: 0xDD630, size: 0x8, addend: 0x0, symName: __ZNK5QListIN5Tiled5FrameEE8iteratormiEx, symObjAddr: 0x1B560, symBinAddr: 0x20C40, symSize: 0x40 }
  - { offset: 0xDD664, size: 0x8, addend: 0x0, symName: __ZNK5QListIN5Tiled5FrameEE8iteratordeEv, symObjAddr: 0x1B5A0, symBinAddr: 0x20C80, symSize: 0x20 }
  - { offset: 0xDD68A, size: 0x8, addend: 0x0, symName: __ZNK17QArrayDataPointerIN5Tiled5FrameEE11needsDetachEv, symObjAddr: 0x1B5C0, symBinAddr: 0x20CA0, symSize: 0x40 }
  - { offset: 0xDD6B0, size: 0x8, addend: 0x0, symName: __ZNK17QArrayDataPointerIN5Tiled5FrameEE14freeSpaceAtEndEv, symObjAddr: 0x1B600, symBinAddr: 0x20CE0, symSize: 0x60 }
  - { offset: 0xDD6D6, size: 0x8, addend: 0x0, symName: __ZN17QArrayDataPointerIN5Tiled5FrameEE3endEv, symObjAddr: 0x1B660, symBinAddr: 0x20D40, symSize: 0x30 }
  - { offset: 0xDD6FC, size: 0x8, addend: 0x0, symName: __ZNK17QArrayDataPointerIN5Tiled5FrameEE16freeSpaceAtBeginEv, symObjAddr: 0x1B690, symBinAddr: 0x20D70, symSize: 0x60 }
  - { offset: 0xDD722, size: 0x8, addend: 0x0, symName: __ZN17QArrayDataPointerIN5Tiled5FrameEE5beginEv, symObjAddr: 0x1B6F0, symBinAddr: 0x20DD0, symSize: 0x20 }
  - { offset: 0xDD748, size: 0x8, addend: 0x0, symName: __ZN17QArrayDataPointerIN5Tiled5FrameEE13detachAndGrowEN10QArrayData14GrowthPositionExPPKS1_PS2_, symObjAddr: 0x1B710, symBinAddr: 0x20DF0, symSize: 0x100 }
  - { offset: 0xDD7C2, size: 0x8, addend: 0x0, symName: __ZN9QtPrivate12QPodArrayOpsIN5Tiled5FrameEE10createHoleEN10QArrayData14GrowthPositionExx, symObjAddr: 0x1B810, symBinAddr: 0x20EF0, symSize: 0x150 }
  - { offset: 0xDD820, size: 0x8, addend: 0x0, symName: __ZN17QArrayDataPointerIN5Tiled5FrameEE4dataEv, symObjAddr: 0x1B960, symBinAddr: 0x21040, symSize: 0x20 }
  - { offset: 0xDD846, size: 0x8, addend: 0x0, symName: __ZN15QTypedArrayDataIN5Tiled5FrameEE9dataStartEP10QArrayDatax, symObjAddr: 0x1B980, symBinAddr: 0x21060, symSize: 0x80 }
  - { offset: 0xDD885, size: 0x8, addend: 0x0, symName: __ZN17QArrayDataPointerIN5Tiled5FrameEE20tryReadjustFreeSpaceEN10QArrayData14GrowthPositionExPPKS1_, symObjAddr: 0x1BA00, symBinAddr: 0x210E0, symSize: 0x1E0 }
  - { offset: 0xDD915, size: 0x8, addend: 0x0, symName: __ZN17QArrayDataPointerIN5Tiled5FrameEE17reallocateAndGrowEN10QArrayData14GrowthPositionExPS2_, symObjAddr: 0x1BBE0, symBinAddr: 0x212C0, symSize: 0x260 }
  - { offset: 0xDD991, size: 0x8, addend: 0x0, symName: __ZNK17QArrayDataPointerIN5Tiled5FrameEE22constAllocatedCapacityEv, symObjAddr: 0x1BE40, symBinAddr: 0x21520, symSize: 0x40 }
  - { offset: 0xDD9B7, size: 0x8, addend: 0x0, symName: __ZN17QArrayDataPointerIN5Tiled5FrameEE8relocateExPPKS1_, symObjAddr: 0x1BE80, symBinAddr: 0x21560, symSize: 0x80 }
  - { offset: 0xDDA1A, size: 0x8, addend: 0x0, symName: __ZNKSt3__14lessIvEclB9nqe210106IRPKN5Tiled5FrameES7_EEDTltclsr3stdE7forwardIT_Efp_Eclsr3stdE7forwardIT0_Efp0_EEOS8_OS9_, symObjAddr: 0x1C0D0, symBinAddr: 0x217B0, symSize: 0x30 }
  - { offset: 0xDDA70, size: 0x8, addend: 0x0, symName: __ZNK17QArrayDataPointerIN5Tiled5FrameEE4dataEv, symObjAddr: 0x1C100, symBinAddr: 0x217E0, symSize: 0x20 }
  - { offset: 0xDDA96, size: 0x8, addend: 0x0, symName: __ZNK17QArrayDataPointerIN5Tiled5FrameEE5beginEv, symObjAddr: 0x1C140, symBinAddr: 0x21820, symSize: 0x20 }
  - { offset: 0xDDABC, size: 0x8, addend: 0x0, symName: __ZNK17QArrayDataPointerIN5Tiled5FrameEE3endEv, symObjAddr: 0x1C160, symBinAddr: 0x21840, symSize: 0x30 }
  - { offset: 0xDDAE2, size: 0x8, addend: 0x0, symName: __ZN9QtPrivate12QPodArrayOpsIN5Tiled5FrameEE10reallocateExN10QArrayData16AllocationOptionE, symObjAddr: 0x1C190, symBinAddr: 0x21870, symSize: 0x80 }
  - { offset: 0xDDB35, size: 0x8, addend: 0x0, symName: __ZN17QArrayDataPointerIN5Tiled5FrameEE12allocateGrowERKS2_xN10QArrayData14GrowthPositionE, symObjAddr: 0x1C210, symBinAddr: 0x218F0, symSize: 0x230 }
  - { offset: 0xDDBD0, size: 0x8, addend: 0x0, symName: __ZN9QtPrivate12QPodArrayOpsIN5Tiled5FrameEE10copyAppendEPKS2_S5_, symObjAddr: 0x1C440, symBinAddr: 0x21B20, symSize: 0x140 }
  - { offset: 0xDDC12, size: 0x8, addend: 0x0, symName: __ZN9QtPrivate12QPodArrayOpsIN5Tiled5FrameEE10moveAppendEPS2_S4_, symObjAddr: 0x1C580, symBinAddr: 0x21C60, symSize: 0x30 }
  - { offset: 0xDDC54, size: 0x8, addend: 0x0, symName: __ZN17QArrayDataPointerIN5Tiled5FrameEE4swapERS2_, symObjAddr: 0x1C5B0, symBinAddr: 0x21C90, symSize: 0x60 }
  - { offset: 0xDDC88, size: 0x8, addend: 0x0, symName: __ZN15QTypedArrayDataIN5Tiled5FrameEE19reallocateUnalignedEPS2_PS1_xN10QArrayData16AllocationOptionE, symObjAddr: 0x1C610, symBinAddr: 0x21CF0, symSize: 0x70 }
  - { offset: 0xDDCEF, size: 0x8, addend: 0x0, symName: __ZNSt3__14pairIP15QTypedArrayDataIN5Tiled5FrameEEPS3_EC1B9nqe210106IS5_S6_Li0EEEOT_OT0_, symObjAddr: 0x1C680, symBinAddr: 0x21D60, symSize: 0x30 }
  - { offset: 0xDDD4D, size: 0x8, addend: 0x0, symName: __ZNSt3__14pairIP15QTypedArrayDataIN5Tiled5FrameEEPS3_EC2B9nqe210106IS5_S6_Li0EEEOT_OT0_, symObjAddr: 0x1C6B0, symBinAddr: 0x21D90, symSize: 0x30 }
  - { offset: 0xDDDAB, size: 0x8, addend: 0x0, symName: __ZNK17QArrayDataPointerIN5Tiled5FrameEE14detachCapacityEx, symObjAddr: 0x1C6E0, symBinAddr: 0x21DC0, symSize: 0x50 }
  - { offset: 0xDDDE0, size: 0x8, addend: 0x0, symName: __ZN15QTypedArrayDataIN5Tiled5FrameEE8allocateExN10QArrayData16AllocationOptionE, symObjAddr: 0x1C730, symBinAddr: 0x21E10, symSize: 0x60 }
  - { offset: 0xDDE2D, size: 0x8, addend: 0x0, symName: __ZN17QArrayDataPointerIN5Tiled5FrameEEC1EP15QTypedArrayDataIS1_EPS1_x, symObjAddr: 0x1C7D0, symBinAddr: 0x21EB0, symSize: 0x40 }
  - { offset: 0xDDE81, size: 0x8, addend: 0x0, symName: __ZNK17QArrayDataPointerIN5Tiled5FrameEE5flagsEv, symObjAddr: 0x1C810, symBinAddr: 0x21EF0, symSize: 0x40 }
  - { offset: 0xDDEA7, size: 0x8, addend: 0x0, symName: __ZNSt3__110__get_pairILm0EE3getB9nqe210106IP15QTypedArrayDataIN5Tiled5FrameEEPS5_EEOT_ONS_4pairIS9_T0_EE, symObjAddr: 0x1C850, symBinAddr: 0x21F30, symSize: 0x10 }
  - { offset: 0xDDEDD, size: 0x8, addend: 0x0, symName: __ZNSt3__110__get_pairILm1EE3getB9nqe210106IP15QTypedArrayDataIN5Tiled5FrameEEPS5_EEOT0_ONS_4pairIT_S9_EE, symObjAddr: 0x1C860, symBinAddr: 0x21F40, symSize: 0x20 }
  - { offset: 0xDDF13, size: 0x8, addend: 0x0, symName: __ZN17QArrayDataPointerIN5Tiled5FrameEEC2EP15QTypedArrayDataIS1_EPS1_x, symObjAddr: 0x1C880, symBinAddr: 0x21F60, symSize: 0x40 }
  - { offset: 0xDDF67, size: 0x8, addend: 0x0, symName: __ZNK17QArrayDataPointerIN5Tiled5FrameEE9isMutableEv, symObjAddr: 0x1C8C0, symBinAddr: 0x21FA0, symSize: 0x20 }
  - { offset: 0xDDF8D, size: 0x8, addend: 0x0, symName: __ZNK17QArrayDataPointerIN5Tiled5FrameEE8isSharedEv, symObjAddr: 0x1C8E0, symBinAddr: 0x21FC0, symSize: 0x40 }
  - { offset: 0xDDFB2, size: 0x8, addend: 0x0, symName: __Z11qt_ptr_swapI15QTypedArrayDataIN5Tiled5FrameEEEvRPT_S6_, symObjAddr: 0x1C920, symBinAddr: 0x22000, symSize: 0x40 }
  - { offset: 0xDDFFF, size: 0x8, addend: 0x0, symName: __Z11qt_ptr_swapIN5Tiled5FrameEEvRPT_S4_, symObjAddr: 0x1C960, symBinAddr: 0x22040, symSize: 0x40 }
  - { offset: 0xDE04D, size: 0x8, addend: 0x0, symName: __ZN5QListIN5Tiled5FrameEE6detachEv, symObjAddr: 0x1C9A0, symBinAddr: 0x22080, symSize: 0x20 }
  - { offset: 0xDE073, size: 0x8, addend: 0x0, symName: __ZN5QListIN5Tiled5FrameEE8iteratorC1EPS1_, symObjAddr: 0x1C9C0, symBinAddr: 0x220A0, symSize: 0x30 }
  - { offset: 0xDE0AB, size: 0x8, addend: 0x0, symName: __ZN17QArrayDataPointerIN5Tiled5FrameEE6detachEPS2_, symObjAddr: 0x1C9F0, symBinAddr: 0x220D0, symSize: 0x40 }
  - { offset: 0xDE0DF, size: 0x8, addend: 0x0, symName: __ZN5QListIN5Tiled5FrameEE8iteratorC2EPS1_, symObjAddr: 0x1CA30, symBinAddr: 0x22110, symSize: 0x20 }
  - { offset: 0xDE117, size: 0x8, addend: 0x0, symName: __ZNKSt3__16__treeINS_12__value_typeINS_12basic_stringIcNS_11char_traitsIcEENS_9allocatorIcEEEEN4tbin13PropertyValueEEENS_19__map_value_compareIS7_NS_4pairIKS7_S9_EENS_4lessIS7_EELb1EEENS5_ISE_EEE4sizeB9nqe210106Ev, symObjAddr: 0x1CA50, symBinAddr: 0x22130, symSize: 0x20 }
  - { offset: 0xDE13D, size: 0x8, addend: 0x0, symName: __ZNSt3__110unique_ptrIN5Tiled9MapObjectENS_14default_deleteIS2_EEEC1B9nqe210106ILb1EvEEPS2_, symObjAddr: 0x1CA70, symBinAddr: 0x22150, symSize: 0x30 }
  - { offset: 0xDE180, size: 0x8, addend: 0x0, symName: __ZNSt3__110unique_ptrIN5Tiled9MapObjectENS_14default_deleteIS2_EEEC2B9nqe210106ILb1EvEEPS2_, symObjAddr: 0x1CAA0, symBinAddr: 0x22180, symSize: 0x20 }
  - { offset: 0xDE1C3, size: 0x8, addend: 0x0, symName: __ZNSt3__110unique_ptrIN5Tiled9MapObjectENS_14default_deleteIS2_EEED2B9nqe210106Ev, symObjAddr: 0x1CAC0, symBinAddr: 0x221A0, symSize: 0x20 }
  - { offset: 0xDE1ED, size: 0x8, addend: 0x0, symName: __ZNSt3__110unique_ptrIN5Tiled9MapObjectENS_14default_deleteIS2_EEE5resetB9nqe210106EPS2_, symObjAddr: 0x1CAE0, symBinAddr: 0x221C0, symSize: 0x40 }
  - { offset: 0xDE231, size: 0x8, addend: 0x0, symName: __ZNKSt3__114default_deleteIN5Tiled9MapObjectEEclB9nqe210106EPS2_, symObjAddr: 0x1CB20, symBinAddr: 0x22200, symSize: 0x30 }
  - { offset: 0xDE265, size: 0x8, addend: 0x0, symName: __ZNSt3__110unique_ptrIN5Tiled9MapObjectENS_14default_deleteIS2_EEEC2B9nqe210106EOS5_, symObjAddr: 0x1CB50, symBinAddr: 0x22230, symSize: 0x40 }
  - { offset: 0xDE29D, size: 0x8, addend: 0x0, symName: __ZNSt3__110unique_ptrIN5Tiled9MapObjectENS_14default_deleteIS2_EEE7releaseB9nqe210106Ev, symObjAddr: 0x1CB90, symBinAddr: 0x22270, symSize: 0x20 }
  - { offset: 0xDE2D2, size: 0x8, addend: 0x0, symName: __ZNSt3__110unique_ptrIN5Tiled9MapObjectENS_14default_deleteIS2_EEE11get_deleterB9nqe210106Ev, symObjAddr: 0x1CBB0, symBinAddr: 0x22290, symSize: 0x10 }
  - { offset: 0xDE2F8, size: 0x8, addend: 0x0, symName: __ZN5QListI7QStringEC1Ev, symObjAddr: 0x1CBC0, symBinAddr: 0x222A0, symSize: 0x20 }
  - { offset: 0xDE322, size: 0x8, addend: 0x0, symName: __ZNK8QMapDataINSt3__13mapI7QString8QVariantNS0_4lessIS2_EENS0_9allocatorINS0_4pairIKS2_S3_EEEEEEE4keysEv, symObjAddr: 0x1CBE0, symBinAddr: 0x222C0, symSize: 0xF0 }
  - { offset: 0xDE38D, size: 0x8, addend: 0x0, symName: __ZN5QListI7QStringEC2Ev, symObjAddr: 0x1CCD0, symBinAddr: 0x223B0, symSize: 0x20 }
  - { offset: 0xDE3B7, size: 0x8, addend: 0x0, symName: __ZN17QArrayDataPointerI7QStringEC1Ev, symObjAddr: 0x1CCF0, symBinAddr: 0x223D0, symSize: 0x20 }
  - { offset: 0xDE3E1, size: 0x8, addend: 0x0, symName: __ZN17QArrayDataPointerI7QStringEC2Ev, symObjAddr: 0x1CD10, symBinAddr: 0x223F0, symSize: 0x30 }
  - { offset: 0xDE40B, size: 0x8, addend: 0x0, symName: __ZN5QListI7QStringE7reserveEx, symObjAddr: 0x1CD40, symBinAddr: 0x22420, symSize: 0x1F0 }
  - { offset: 0xDE461, size: 0x8, addend: 0x0, symName: __ZNKSt3__13mapI7QString8QVariantNS_4lessIS1_EENS_9allocatorINS_4pairIKS1_S2_EEEEE4sizeB9nqe210106Ev, symObjAddr: 0x1CF30, symBinAddr: 0x22610, symSize: 0x20 }
  - { offset: 0xDE487, size: 0x8, addend: 0x0, symName: __ZNK5QListI7QStringE8capacityEv, symObjAddr: 0x1D030, symBinAddr: 0x22710, symSize: 0x30 }
  - { offset: 0xDE4AD, size: 0x8, addend: 0x0, symName: __ZNK17QArrayDataPointerI7QStringE16freeSpaceAtBeginEv, symObjAddr: 0x1D060, symBinAddr: 0x22740, symSize: 0x60 }
  - { offset: 0xDE4D3, size: 0x8, addend: 0x0, symName: __ZNK17QArrayDataPointerI7QStringE5flagsEv, symObjAddr: 0x1D0C0, symBinAddr: 0x227A0, symSize: 0x40 }
  - { offset: 0xDE4F9, size: 0x8, addend: 0x0, symName: __ZNK17QArrayDataPointerI7QStringE8isSharedEv, symObjAddr: 0x1D100, symBinAddr: 0x227E0, symSize: 0x40 }
  - { offset: 0xDE51F, size: 0x8, addend: 0x0, symName: __ZN17QArrayDataPointerI7QStringE7setFlagE6QFlagsIN10QArrayData11ArrayOptionEE, symObjAddr: 0x1D140, symBinAddr: 0x22820, symSize: 0x60 }
  - { offset: 0xDE554, size: 0x8, addend: 0x0, symName: __ZNK5QListI7QStringE4sizeEv, symObjAddr: 0x1D1A0, symBinAddr: 0x22880, symSize: 0x50 }
  - { offset: 0xDE5AE, size: 0x8, addend: 0x0, symName: __ZN17QArrayDataPointerI7QStringEC1ExxN10QArrayData16AllocationOptionE, symObjAddr: 0x1D1F0, symBinAddr: 0x228D0, symSize: 0x50 }
  - { offset: 0xDE602, size: 0x8, addend: 0x0, symName: __ZN9QtPrivate16QGenericArrayOpsI7QStringE10copyAppendEPKS1_S4_, symObjAddr: 0x1D240, symBinAddr: 0x22920, symSize: 0x150 }
  - { offset: 0xDE655, size: 0x8, addend: 0x0, symName: __ZN17QArrayDataPointerI7QStringE5d_ptrEv, symObjAddr: 0x1D390, symBinAddr: 0x22A70, symSize: 0x20 }
  - { offset: 0xDE67B, size: 0x8, addend: 0x0, symName: __ZN17QArrayDataPointerI7QStringE4swapERS1_, symObjAddr: 0x1D3B0, symBinAddr: 0x22A90, symSize: 0x60 }
  - { offset: 0xDE6AF, size: 0x8, addend: 0x0, symName: __ZNK17QArrayDataPointerI7QStringEptEv, symObjAddr: 0x1D410, symBinAddr: 0x22AF0, symSize: 0x10 }
  - { offset: 0xDE6D5, size: 0x8, addend: 0x0, symName: __ZNK17QArrayDataPointerI7QStringE22constAllocatedCapacityEv, symObjAddr: 0x1D420, symBinAddr: 0x22B00, symSize: 0x40 }
  - { offset: 0xDE6FB, size: 0x8, addend: 0x0, symName: __ZN15QTypedArrayDataI7QStringE9dataStartEP10QArrayDatax, symObjAddr: 0x1D460, symBinAddr: 0x22B40, symSize: 0x80 }
  - { offset: 0xDE73A, size: 0x8, addend: 0x0, symName: __ZN6QFlagsIN10QArrayData11ArrayOptionEEoRES2_, symObjAddr: 0x1D4E0, symBinAddr: 0x22BC0, symSize: 0x20 }
  - { offset: 0xDE77D, size: 0x8, addend: 0x0, symName: __ZZNK5QListI7QStringE4sizeEvENKUlvE_clEv, symObjAddr: 0x1D500, symBinAddr: 0x22BE0, symSize: 0x50 }
  - { offset: 0xDE7A7, size: 0x8, addend: 0x0, symName: __ZN15QTypedArrayDataI7QStringE8allocateExN10QArrayData16AllocationOptionE, symObjAddr: 0x1D550, symBinAddr: 0x22C30, symSize: 0x60 }
  - { offset: 0xDE7F4, size: 0x8, addend: 0x0, symName: __ZN17QArrayDataPointerI7QStringEC1ENSt3__14pairIP15QTypedArrayDataIS0_EPS0_EEx, symObjAddr: 0x1D5B0, symBinAddr: 0x22C90, symSize: 0x40 }
  - { offset: 0xDE846, size: 0x8, addend: 0x0, symName: __ZNSt3__14pairIP15QTypedArrayDataI7QStringEPS2_EC1B9nqe210106IS4_S5_Li0EEEOT_OT0_, symObjAddr: 0x1D5F0, symBinAddr: 0x22CD0, symSize: 0x30 }
  - { offset: 0xDE8A4, size: 0x8, addend: 0x0, symName: __ZNSt3__14pairIP15QTypedArrayDataI7QStringEPS2_EC2B9nqe210106IS4_S5_Li0EEEOT_OT0_, symObjAddr: 0x1D620, symBinAddr: 0x22D00, symSize: 0x30 }
  - { offset: 0xDE902, size: 0x8, addend: 0x0, symName: __ZN17QArrayDataPointerI7QStringEC2ENSt3__14pairIP15QTypedArrayDataIS0_EPS0_EEx, symObjAddr: 0x1D650, symBinAddr: 0x22D30, symSize: 0x40 }
  - { offset: 0xDE948, size: 0x8, addend: 0x0, symName: __ZNK17QArrayDataPointerI7QStringE9isMutableEv, symObjAddr: 0x1D690, symBinAddr: 0x22D70, symSize: 0x20 }
  - { offset: 0xDE96E, size: 0x8, addend: 0x0, symName: __ZNK17QArrayDataPointerI7QStringE14freeSpaceAtEndEv, symObjAddr: 0x1D6B0, symBinAddr: 0x22D90, symSize: 0x60 }
  - { offset: 0xDE993, size: 0x8, addend: 0x0, symName: __Z11qt_ptr_swapI15QTypedArrayDataI7QStringEEvRPT_S5_, symObjAddr: 0x1D710, symBinAddr: 0x22DF0, symSize: 0x40 }
  - { offset: 0xDE9E0, size: 0x8, addend: 0x0, symName: __Z11qt_ptr_swapI7QStringEvRPT_S3_, symObjAddr: 0x1D750, symBinAddr: 0x22E30, symSize: 0x40 }
  - { offset: 0xDEA38, size: 0x8, addend: 0x0, symName: __ZZNK8QMapDataINSt3__13mapI7QString8QVariantNS0_4lessIS2_EENS0_9allocatorINS0_4pairIKS2_S3_EEEEEEE4keysEvENKUlRKT_E_clIS9_EEDaSF_, symObjAddr: 0x1D790, symBinAddr: 0x22E70, symSize: 0x30 }
  - { offset: 0xDEA79, size: 0x8, addend: 0x0, symName: __ZNSt3__120back_insert_iteratorI5QListI7QStringEEdeB9nqe210106Ev, symObjAddr: 0x1D7C0, symBinAddr: 0x22EA0, symSize: 0x10 }
  - { offset: 0xDEA9F, size: 0x8, addend: 0x0, symName: __ZNSt3__120back_insert_iteratorI5QListI7QStringEEaSB9nqe210106EOS2_, symObjAddr: 0x1D7D0, symBinAddr: 0x22EB0, symSize: 0x30 }
  - { offset: 0xDEAD3, size: 0x8, addend: 0x0, symName: __ZNSt3__120back_insert_iteratorI5QListI7QStringEEppB9nqe210106Ev, symObjAddr: 0x1D800, symBinAddr: 0x22EE0, symSize: 0x10 }
  - { offset: 0xDEAF9, size: 0x8, addend: 0x0, symName: __ZN5QListI7QStringE9push_backEOS0_, symObjAddr: 0x1D810, symBinAddr: 0x22EF0, symSize: 0x30 }
  - { offset: 0xDEB2E, size: 0x8, addend: 0x0, symName: __ZN5QListI7QStringE6appendEOS0_, symObjAddr: 0x1D840, symBinAddr: 0x22F20, symSize: 0x30 }
  - { offset: 0xDEB63, size: 0x8, addend: 0x0, symName: __ZN5QListI7QStringE11emplaceBackIJS0_EEERS0_DpOT_, symObjAddr: 0x1D870, symBinAddr: 0x22F50, symSize: 0x70 }
  - { offset: 0xDEBA5, size: 0x8, addend: 0x0, symName: __ZN9QtPrivate16QMovableArrayOpsI7QStringE7emplaceIJS1_EEEvxDpOT_, symObjAddr: 0x1D8E0, symBinAddr: 0x22FC0, symSize: 0x210 }
  - { offset: 0xDEC32, size: 0x8, addend: 0x0, symName: __ZNK5QListI7QStringE8iteratormiEx, symObjAddr: 0x1DAF0, symBinAddr: 0x231D0, symSize: 0x40 }
  - { offset: 0xDEC66, size: 0x8, addend: 0x0, symName: __ZNK17QArrayDataPointerI7QStringE11needsDetachEv, symObjAddr: 0x1DB30, symBinAddr: 0x23210, symSize: 0x40 }
  - { offset: 0xDEC8C, size: 0x8, addend: 0x0, symName: __ZN17QArrayDataPointerI7QStringE13detachAndGrowEN10QArrayData14GrowthPositionExPPKS0_PS1_, symObjAddr: 0x1DB70, symBinAddr: 0x23250, symSize: 0x100 }
  - { offset: 0xDED2B, size: 0x8, addend: 0x0, symName: __ZN9QtPrivate16QMovableArrayOpsI7QStringE8InserterC1EP17QArrayDataPointerIS1_Exx, symObjAddr: 0x1DC70, symBinAddr: 0x23350, symSize: 0x40 }
  - { offset: 0xDED82, size: 0x8, addend: 0x0, symName: __ZN9QtPrivate16QMovableArrayOpsI7QStringE8Inserter9insertOneEOS1_, symObjAddr: 0x1DCB0, symBinAddr: 0x23390, symSize: 0x40 }
  - { offset: 0xDEDB7, size: 0x8, addend: 0x0, symName: __ZN9QtPrivate16QMovableArrayOpsI7QStringE8InserterD1Ev, symObjAddr: 0x1DCF0, symBinAddr: 0x233D0, symSize: 0x20 }
  - { offset: 0xDEDE1, size: 0x8, addend: 0x0, symName: __ZN17QArrayDataPointerI7QStringE20tryReadjustFreeSpaceEN10QArrayData14GrowthPositionExPPKS0_, symObjAddr: 0x1DD10, symBinAddr: 0x233F0, symSize: 0x1E0 }
  - { offset: 0xDEE71, size: 0x8, addend: 0x0, symName: __ZN17QArrayDataPointerI7QStringE17reallocateAndGrowEN10QArrayData14GrowthPositionExPS1_, symObjAddr: 0x1DEF0, symBinAddr: 0x235D0, symSize: 0x260 }
  - { offset: 0xDEEED, size: 0x8, addend: 0x0, symName: __ZN17QArrayDataPointerI7QStringE8relocateExPPKS0_, symObjAddr: 0x1E150, symBinAddr: 0x23830, symSize: 0x80 }
  - { offset: 0xDEF46, size: 0x8, addend: 0x0, symName: __ZNKSt3__14lessIvEclB9nqe210106IRPK7QStringS6_EEDTltclsr3stdE7forwardIT_Efp_Eclsr3stdE7forwardIT0_Efp0_EEOS7_OS8_, symObjAddr: 0x1E3A0, symBinAddr: 0x23A80, symSize: 0x30 }
  - { offset: 0xDEF9C, size: 0x8, addend: 0x0, symName: __ZNK17QArrayDataPointerI7QStringE4dataEv, symObjAddr: 0x1E3D0, symBinAddr: 0x23AB0, symSize: 0x20 }
  - { offset: 0xDEFC2, size: 0x8, addend: 0x0, symName: __ZNK17QArrayDataPointerI7QStringE5beginEv, symObjAddr: 0x1E420, symBinAddr: 0x23B00, symSize: 0x20 }
  - { offset: 0xDEFE8, size: 0x8, addend: 0x0, symName: __ZNK17QArrayDataPointerI7QStringE3endEv, symObjAddr: 0x1E440, symBinAddr: 0x23B20, symSize: 0x30 }
  - { offset: 0xDF00E, size: 0x8, addend: 0x0, symName: __ZN9QtPrivate16QMovableArrayOpsI7QStringE10reallocateExN10QArrayData16AllocationOptionE, symObjAddr: 0x1E470, symBinAddr: 0x23B50, symSize: 0x80 }
  - { offset: 0xDF061, size: 0x8, addend: 0x0, symName: __ZN17QArrayDataPointerI7QStringE12allocateGrowERKS1_xN10QArrayData14GrowthPositionE, symObjAddr: 0x1E4F0, symBinAddr: 0x23BD0, symSize: 0x230 }
  - { offset: 0xDF0FC, size: 0x8, addend: 0x0, symName: __ZN9QtPrivate16QGenericArrayOpsI7QStringE10moveAppendEPS1_S3_, symObjAddr: 0x1E720, symBinAddr: 0x23E00, symSize: 0x150 }
  - { offset: 0xDF14F, size: 0x8, addend: 0x0, symName: __ZN15QTypedArrayDataI7QStringE19reallocateUnalignedEPS1_PS0_xN10QArrayData16AllocationOptionE, symObjAddr: 0x1E870, symBinAddr: 0x23F50, symSize: 0x70 }
  - { offset: 0xDF1AA, size: 0x8, addend: 0x0, symName: __ZNK17QArrayDataPointerI7QStringE14detachCapacityEx, symObjAddr: 0x1E8E0, symBinAddr: 0x23FC0, symSize: 0x50 }
  - { offset: 0xDF1DF, size: 0x8, addend: 0x0, symName: __ZN17QArrayDataPointerI7QStringEC1EP15QTypedArrayDataIS0_EPS0_x, symObjAddr: 0x1E970, symBinAddr: 0x24050, symSize: 0x40 }
  - { offset: 0xDF233, size: 0x8, addend: 0x0, symName: __ZNSt3__110__get_pairILm0EE3getB9nqe210106IP15QTypedArrayDataI7QStringEPS4_EEOT_ONS_4pairIS8_T0_EE, symObjAddr: 0x1E9B0, symBinAddr: 0x24090, symSize: 0x10 }
  - { offset: 0xDF269, size: 0x8, addend: 0x0, symName: __ZNSt3__110__get_pairILm1EE3getB9nqe210106IP15QTypedArrayDataI7QStringEPS4_EEOT0_ONS_4pairIT_S8_EE, symObjAddr: 0x1E9C0, symBinAddr: 0x240A0, symSize: 0x20 }
  - { offset: 0xDF29F, size: 0x8, addend: 0x0, symName: __ZN17QArrayDataPointerI7QStringEC2EP15QTypedArrayDataIS0_EPS0_x, symObjAddr: 0x1E9E0, symBinAddr: 0x240C0, symSize: 0x40 }
  - { offset: 0xDF2F3, size: 0x8, addend: 0x0, symName: __ZN9QtPrivate16QMovableArrayOpsI7QStringE8InserterC2EP17QArrayDataPointerIS1_Exx, symObjAddr: 0x1EA20, symBinAddr: 0x24100, symSize: 0x80 }
  - { offset: 0xDF34A, size: 0x8, addend: 0x0, symName: __ZN9QtPrivate16QMovableArrayOpsI7QStringE8Inserter10verifyPostEv, symObjAddr: 0x1EAA0, symBinAddr: 0x24180, symSize: 0x40 }
  - { offset: 0xDF370, size: 0x8, addend: 0x0, symName: __ZN9QtPrivate16QMovableArrayOpsI7QStringE8InserterD2Ev, symObjAddr: 0x1EAE0, symBinAddr: 0x241C0, symSize: 0x30 }
  - { offset: 0xDF3B8, size: 0x8, addend: 0x0, symName: __ZN5QListI7QStringE8iteratorC1EPS0_, symObjAddr: 0x1EB10, symBinAddr: 0x241F0, symSize: 0x30 }
  - { offset: 0xDF3F0, size: 0x8, addend: 0x0, symName: __ZN5QListI7QStringE8iteratorC2EPS0_, symObjAddr: 0x1EB40, symBinAddr: 0x24220, symSize: 0x20 }
  - { offset: 0xDF428, size: 0x8, addend: 0x0, symName: __ZNSt3__120back_insert_iteratorI5QListI7QStringEEC1B9nqe210106ERS3_, symObjAddr: 0x1EB60, symBinAddr: 0x24240, symSize: 0x30 }
  - { offset: 0xDF460, size: 0x8, addend: 0x0, symName: __ZNSt3__120back_insert_iteratorI5QListI7QStringEEC2B9nqe210106ERS3_, symObjAddr: 0x1EB90, symBinAddr: 0x24270, symSize: 0x20 }
  - { offset: 0xDF498, size: 0x8, addend: 0x0, symName: __ZN5QListI7QStringE6detachEv, symObjAddr: 0x1EBB0, symBinAddr: 0x24290, symSize: 0x20 }
  - { offset: 0xDF4BE, size: 0x8, addend: 0x0, symName: __ZN17QArrayDataPointerI7QStringE6detachEPS1_, symObjAddr: 0x1EBD0, symBinAddr: 0x242B0, symSize: 0x40 }
  - { offset: 0xDF4F2, size: 0x8, addend: 0x0, symName: __ZN4QMapI7QString8QVariantE22referenceHoldingDetachEv, symObjAddr: 0x1EC10, symBinAddr: 0x242F0, symSize: 0xE0 }
  - { offset: 0xDF52F, size: 0x8, addend: 0x0, symName: __ZNSt3__13mapI7QString8QVariantNS_4lessIS1_EENS_9allocatorINS_4pairIKS1_S2_EEEEE4findB9nqe210106ERS7_, symObjAddr: 0x1ECF0, symBinAddr: 0x243D0, symSize: 0x40 }
  - { offset: 0xDF564, size: 0x8, addend: 0x0, symName: __ZNSt3__13mapI7QString8QVariantNS_4lessIS1_EENS_9allocatorINS_4pairIKS1_S2_EEEEE6insertB9nqe210106EOS8_, symObjAddr: 0x1ED60, symBinAddr: 0x24440, symSize: 0x50 }
  - { offset: 0xDF599, size: 0x8, addend: 0x0, symName: __ZN8QVariantC1Ev, symObjAddr: 0x1EDB0, symBinAddr: 0x24490, symSize: 0x20 }
  - { offset: 0xDF5C3, size: 0x8, addend: 0x0, symName: __ZNSt3__14pairIK7QString8QVariantEC1B9nqe210106IRS2_S3_Li0EEEOT_OT0_, symObjAddr: 0x1EDD0, symBinAddr: 0x244B0, symSize: 0x30 }
  - { offset: 0xDF621, size: 0x8, addend: 0x0, symName: __ZN9QtPrivate30QExplicitlySharedDataPointerV2I8QMapDataINSt3__13mapI7QString8QVariantNS2_4lessIS4_EENS2_9allocatorINS2_4pairIKS4_S5_EEEEEEEE6detachEv, symObjAddr: 0x1EE00, symBinAddr: 0x244E0, symSize: 0xE0 }
  - { offset: 0xDF65C, size: 0x8, addend: 0x0, symName: __ZNK2Qt23totally_ordered_wrapperIP8QMapDataINSt3__13mapI7QString8QVariantNS2_4lessIS4_EENS2_9allocatorINS2_4pairIKS4_S5_EEEEEEEEdeISE_Lb1EEERT_v, symObjAddr: 0x1EEE0, symBinAddr: 0x245C0, symSize: 0x20 }
  - { offset: 0xDF691, size: 0x8, addend: 0x0, symName: __ZN8QMapDataINSt3__13mapI7QString8QVariantNS0_4lessIS2_EENS0_9allocatorINS0_4pairIKS2_S3_EEEEEEEC1ERKSC_, symObjAddr: 0x1EF00, symBinAddr: 0x245E0, symSize: 0x30 }
  - { offset: 0xDF6C6, size: 0x8, addend: 0x0, symName: __ZN8QMapDataINSt3__13mapI7QString8QVariantNS0_4lessIS2_EENS0_9allocatorINS0_4pairIKS2_S3_EEEEEEEC2ERKSC_, symObjAddr: 0x1EF30, symBinAddr: 0x24610, symSize: 0x40 }
  - { offset: 0xDF6FB, size: 0x8, addend: 0x0, symName: __ZN11QSharedDataC2ERKS_, symObjAddr: 0x1EF70, symBinAddr: 0x24650, symSize: 0x30 }
  - { offset: 0xDF730, size: 0x8, addend: 0x0, symName: __ZNSt3__13mapI7QString8QVariantNS_4lessIS1_EENS_9allocatorINS_4pairIKS1_S2_EEEEEC1B9nqe210106ERKSA_, symObjAddr: 0x1EFA0, symBinAddr: 0x24680, symSize: 0x30 }
  - { offset: 0xDF769, size: 0x8, addend: 0x0, symName: __ZNSt3__13mapI7QString8QVariantNS_4lessIS1_EENS_9allocatorINS_4pairIKS1_S2_EEEEEC2B9nqe210106ERKSA_, symObjAddr: 0x1EFD0, symBinAddr: 0x246B0, symSize: 0x80 }
  - { offset: 0xDF7A2, size: 0x8, addend: 0x0, symName: __ZNSt3__16__treeINS_12__value_typeI7QString8QVariantEENS_19__map_value_compareIS2_NS_4pairIKS2_S3_EENS_4lessIS2_EELb1EEENS_9allocatorIS8_EEEC1ERKSE_, symObjAddr: 0x1F050, symBinAddr: 0x24730, symSize: 0x30 }
  - { offset: 0xDF7DD, size: 0x8, addend: 0x0, symName: __ZNSt3__13mapI7QString8QVariantNS_4lessIS1_EENS_9allocatorINS_4pairIKS1_S2_EEEEE6insertB9nqe210106INS_20__map_const_iteratorINS_21__tree_const_iteratorINS_12__value_typeIS1_S2_EEPNS_11__tree_nodeISF_PvEElEEEEEEvT_SM_, symObjAddr: 0x1F080, symBinAddr: 0x24760, symSize: 0x80 }
  - { offset: 0xDF848, size: 0x8, addend: 0x0, symName: __ZNSt3__16__treeINS_12__value_typeI7QString8QVariantEENS_19__map_value_compareIS2_NS_4pairIKS2_S3_EENS_4lessIS2_EELb1EEENS_9allocatorIS8_EEEC2ERKSE_, symObjAddr: 0x1F100, symBinAddr: 0x247E0, symSize: 0x80 }
  - { offset: 0xDF883, size: 0x8, addend: 0x0, symName: __ZNSt3__116allocator_traitsINS_9allocatorINS_11__tree_nodeINS_12__value_typeI7QString8QVariantEEPvEEEEE37select_on_container_copy_constructionB9nqe210106IS9_Li0EEES9_RKS9_, symObjAddr: 0x1F180, symBinAddr: 0x24860, symSize: 0x10 }
  - { offset: 0xDF8B6, size: 0x8, addend: 0x0, symName: __ZNKSt3__16__treeINS_12__value_typeI7QString8QVariantEENS_19__map_value_compareIS2_NS_4pairIKS2_S3_EENS_4lessIS2_EELb1EEENS_9allocatorIS8_EEE12__node_allocB9nqe210106Ev, symObjAddr: 0x1F190, symBinAddr: 0x24870, symSize: 0x20 }
  - { offset: 0xDF8DC, size: 0x8, addend: 0x0, symName: __ZNSt3__16__treeINS_12__value_typeI7QString8QVariantEENS_19__map_value_compareIS2_NS_4pairIKS2_S3_EENS_4lessIS2_EELb1EEENS_9allocatorIS8_EEE16__emplace_uniqueB9nqe210106IS8_EENS6_INS_15__tree_iteratorIS4_PNS_11__tree_nodeIS4_PvEElEEbEEOT_, symObjAddr: 0x1F1B0, symBinAddr: 0x24890, symSize: 0x40 }
  - { offset: 0xDF91A, size: 0x8, addend: 0x0, symName: __ZNSt3__14pairINS_14__map_iteratorINS_15__tree_iteratorINS_12__value_typeI7QString8QVariantEEPNS_11__tree_nodeIS6_PvEElEEEEbEC1B9nqe210106ISB_bLi0EEEONS0_IT_T0_EE, symObjAddr: 0x1F1F0, symBinAddr: 0x248D0, symSize: 0x30 }
  - { offset: 0xDF96A, size: 0x8, addend: 0x0, symName: __ZNSt3__16__treeINS_12__value_typeI7QString8QVariantEENS_19__map_value_compareIS2_NS_4pairIKS2_S3_EENS_4lessIS2_EELb1EEENS_9allocatorIS8_EEE28__emplace_unique_extract_keyB9nqe210106IS8_EENS6_INS_15__tree_iteratorIS4_PNS_11__tree_nodeIS4_PvEElEEbEEOT_NS_23__extract_key_first_tagE, symObjAddr: 0x1F220, symBinAddr: 0x24900, symSize: 0x50 }
  - { offset: 0xDF9B4, size: 0x8, addend: 0x0, symName: __ZNSt3__16__treeINS_12__value_typeI7QString8QVariantEENS_19__map_value_compareIS2_NS_4pairIKS2_S3_EENS_4lessIS2_EELb1EEENS_9allocatorIS8_EEE25__emplace_unique_key_argsIS2_JS8_EEENS6_INS_15__tree_iteratorIS4_PNS_11__tree_nodeIS4_PvEElEEbEERKT_DpOT0_, symObjAddr: 0x1F270, symBinAddr: 0x24950, symSize: 0xE0 }
  - { offset: 0xDFA6A, size: 0x8, addend: 0x0, symName: __ZNSt3__16__treeINS_12__value_typeI7QString8QVariantEENS_19__map_value_compareIS2_NS_4pairIKS2_S3_EENS_4lessIS2_EELb1EEENS_9allocatorIS8_EEE16__construct_nodeIJS8_EEENS_10unique_ptrINS_11__tree_nodeIS4_PvEENS_22__tree_node_destructorINSC_ISJ_EEEEEEDpOT_, symObjAddr: 0x1F350, symBinAddr: 0x24A30, symSize: 0xE0 }
  - { offset: 0xDFACB, size: 0x8, addend: 0x0, symName: __ZNSt3__116allocator_traitsINS_9allocatorINS_11__tree_nodeINS_12__value_typeI7QString8QVariantEEPvEEEEE9constructB9nqe210106INS_4pairIKS4_S5_EEJSE_ELi0EEEvRS9_PT_DpOT0_, symObjAddr: 0x1F430, symBinAddr: 0x24B10, symSize: 0x30 }
  - { offset: 0xDFB29, size: 0x8, addend: 0x0, symName: __ZNSt3__19allocatorINS_11__tree_nodeINS_12__value_typeI7QString8QVariantEEPvEEE9constructB9nqe210106INS_4pairIKS3_S4_EEJSC_EEEvPT_DpOT0_, symObjAddr: 0x1F460, symBinAddr: 0x24B40, symSize: 0x30 }
  - { offset: 0xDFB81, size: 0x8, addend: 0x0, symName: __ZNSt3__14pairIK7QString8QVariantEC1B9nqe210106EOS4_, symObjAddr: 0x1F490, symBinAddr: 0x24B70, symSize: 0x30 }
  - { offset: 0xDFBB6, size: 0x8, addend: 0x0, symName: __ZNSt3__14pairIK7QString8QVariantEC2B9nqe210106EOS4_, symObjAddr: 0x1F4C0, symBinAddr: 0x24BA0, symSize: 0x40 }
  - { offset: 0xDFBEB, size: 0x8, addend: 0x0, symName: __ZNSt3__14pairINS_14__map_iteratorINS_15__tree_iteratorINS_12__value_typeI7QString8QVariantEEPNS_11__tree_nodeIS6_PvEElEEEEbEC2B9nqe210106ISB_bLi0EEEONS0_IT_T0_EE, symObjAddr: 0x1F500, symBinAddr: 0x24BE0, symSize: 0x50 }
  - { offset: 0xDFC3B, size: 0x8, addend: 0x0, symName: __ZN8QVariantC2Ev, symObjAddr: 0x1F550, symBinAddr: 0x24C30, symSize: 0x20 }
  - { offset: 0xDFC65, size: 0x8, addend: 0x0, symName: __ZNSt3__14pairIK7QString8QVariantEC2B9nqe210106IRS2_S3_Li0EEEOT_OT0_, symObjAddr: 0x1F570, symBinAddr: 0x24C50, symSize: 0x40 }
  - { offset: 0xDFCC3, size: 0x8, addend: 0x0, symName: __ZNSt3__110unique_ptrIN5Tiled5LayerENS_14default_deleteIS2_EEEC2B9nqe210106INS1_9TileLayerENS3_IS7_EEvvEEONS0_IT_T0_EE, symObjAddr: 0x1F5B0, symBinAddr: 0x24C90, symSize: 0x50 }
  - { offset: 0xDFD0F, size: 0x8, addend: 0x0, symName: __ZNSt3__110unique_ptrIN5Tiled9TileLayerENS_14default_deleteIS2_EEE7releaseB9nqe210106Ev, symObjAddr: 0x1F600, symBinAddr: 0x24CE0, symSize: 0x20 }
  - { offset: 0xDFD44, size: 0x8, addend: 0x0, symName: __ZNSt3__110unique_ptrIN5Tiled9TileLayerENS_14default_deleteIS2_EEE11get_deleterB9nqe210106Ev, symObjAddr: 0x1F620, symBinAddr: 0x24D00, symSize: 0x10 }
  - { offset: 0xDFD70, size: 0x8, addend: 0x0, symName: __ZNSt3__114default_deleteIN5Tiled5LayerEEC1B9nqe210106INS1_9TileLayerELi0EEERKNS0_IT_EE, symObjAddr: 0x1F630, symBinAddr: 0x24D10, symSize: 0x30 }
  - { offset: 0xDFDB4, size: 0x8, addend: 0x0, symName: __ZNSt3__114default_deleteIN5Tiled5LayerEEC2B9nqe210106INS1_9TileLayerELi0EEERKNS0_IT_EE, symObjAddr: 0x1F660, symBinAddr: 0x24D40, symSize: 0x10 }
  - { offset: 0xDFDF8, size: 0x8, addend: 0x0, symName: __ZNSt3__110unique_ptrIN5Tiled5LayerENS_14default_deleteIS2_EEED2B9nqe210106Ev, symObjAddr: 0x1F670, symBinAddr: 0x24D50, symSize: 0x20 }
  - { offset: 0xDFE22, size: 0x8, addend: 0x0, symName: __ZNSt3__110unique_ptrIN5Tiled5LayerENS_14default_deleteIS2_EEE5resetB9nqe210106EPS2_, symObjAddr: 0x1F690, symBinAddr: 0x24D70, symSize: 0x40 }
  - { offset: 0xDFE66, size: 0x8, addend: 0x0, symName: __ZNKSt3__114default_deleteIN5Tiled5LayerEEclB9nqe210106EPS2_, symObjAddr: 0x1F6D0, symBinAddr: 0x24DB0, symSize: 0x30 }
  - { offset: 0xDFE9A, size: 0x8, addend: 0x0, symName: __ZNSt3__110unique_ptrIN5Tiled5LayerENS_14default_deleteIS2_EEEC2B9nqe210106INS1_11ObjectGroupENS3_IS7_EEvvEEONS0_IT_T0_EE, symObjAddr: 0x1F700, symBinAddr: 0x24DE0, symSize: 0x50 }
  - { offset: 0xDFEE6, size: 0x8, addend: 0x0, symName: __ZNSt3__110unique_ptrIN5Tiled11ObjectGroupENS_14default_deleteIS2_EEE7releaseB9nqe210106Ev, symObjAddr: 0x1F750, symBinAddr: 0x24E30, symSize: 0x20 }
  - { offset: 0xDFF1B, size: 0x8, addend: 0x0, symName: __ZNSt3__110unique_ptrIN5Tiled11ObjectGroupENS_14default_deleteIS2_EEE11get_deleterB9nqe210106Ev, symObjAddr: 0x1F770, symBinAddr: 0x24E50, symSize: 0x10 }
  - { offset: 0xDFF47, size: 0x8, addend: 0x0, symName: __ZNSt3__114default_deleteIN5Tiled5LayerEEC1B9nqe210106INS1_11ObjectGroupELi0EEERKNS0_IT_EE, symObjAddr: 0x1F780, symBinAddr: 0x24E60, symSize: 0x30 }
  - { offset: 0xDFF8B, size: 0x8, addend: 0x0, symName: __ZNSt3__114default_deleteIN5Tiled5LayerEEC2B9nqe210106INS1_11ObjectGroupELi0EEERKNS0_IT_EE, symObjAddr: 0x1F7B0, symBinAddr: 0x24E90, symSize: 0x10 }
  - { offset: 0xDFFCF, size: 0x8, addend: 0x0, symName: __ZNK17QArrayDataPointerI14QSharedPointerIN5Tiled7TilesetEEE10constBeginEv, symObjAddr: 0x1F7C0, symBinAddr: 0x24EA0, symSize: 0x20 }
  - { offset: 0xDFFF5, size: 0x8, addend: 0x0, symName: __ZN5QListI14QSharedPointerIN5Tiled7TilesetEEE14const_iteratorC1EPKS3_, symObjAddr: 0x1F7E0, symBinAddr: 0x24EC0, symSize: 0x30 }
  - { offset: 0xE002D, size: 0x8, addend: 0x0, symName: __ZN5QListI14QSharedPointerIN5Tiled7TilesetEEE14const_iteratorC2EPKS3_, symObjAddr: 0x1F810, symBinAddr: 0x24EF0, symSize: 0x20 }
  - { offset: 0xE0065, size: 0x8, addend: 0x0, symName: __ZNK17QArrayDataPointerI14QSharedPointerIN5Tiled7TilesetEEE8constEndEv, symObjAddr: 0x1F830, symBinAddr: 0x24F10, symSize: 0x30 }
  - { offset: 0xE008B, size: 0x8, addend: 0x0, symName: __ZNK17QArrayDataPointerIPN5Tiled4TileEEptEv, symObjAddr: 0x1F860, symBinAddr: 0x24F40, symSize: 0x10 }
  - { offset: 0xE00B1, size: 0x8, addend: 0x0, symName: __ZNK17QArrayDataPointerIPN5Tiled4TileEE10constBeginEv, symObjAddr: 0x1F870, symBinAddr: 0x24F50, symSize: 0x20 }
  - { offset: 0xE00D7, size: 0x8, addend: 0x0, symName: __ZN5QListIPN5Tiled4TileEE14const_iteratorC1EPKS2_, symObjAddr: 0x1F890, symBinAddr: 0x24F70, symSize: 0x30 }
  - { offset: 0xE010F, size: 0x8, addend: 0x0, symName: __ZNK17QArrayDataPointerIPN5Tiled4TileEE4dataEv, symObjAddr: 0x1F8C0, symBinAddr: 0x24FA0, symSize: 0x20 }
  - { offset: 0xE0135, size: 0x8, addend: 0x0, symName: __ZN5QListIPN5Tiled4TileEE14const_iteratorC2EPKS2_, symObjAddr: 0x1F8E0, symBinAddr: 0x24FC0, symSize: 0x20 }
  - { offset: 0xE016D, size: 0x8, addend: 0x0, symName: __ZNK17QArrayDataPointerIPN5Tiled4TileEE8constEndEv, symObjAddr: 0x1F900, symBinAddr: 0x24FE0, symSize: 0x30 }
  - { offset: 0xE0193, size: 0x8, addend: 0x0, symName: __ZN4QMapI7QString8QVariantE14const_iteratorC1Ev, symObjAddr: 0x1F930, symBinAddr: 0x25010, symSize: 0x20 }
  - { offset: 0xE01BD, size: 0x8, addend: 0x0, symName: __ZN4QMapI7QString8QVariantE14const_iteratorC1ENSt3__120__map_const_iteratorINS4_21__tree_const_iteratorINS4_12__value_typeIS0_S1_EEPNS4_11__tree_nodeIS8_PvEElEEEE, symObjAddr: 0x1F950, symBinAddr: 0x25030, symSize: 0x30 }
  - { offset: 0xE01F6, size: 0x8, addend: 0x0, symName: __ZN4QMapI7QString8QVariantE14const_iteratorC2Ev, symObjAddr: 0x1F980, symBinAddr: 0x25060, symSize: 0x20 }
  - { offset: 0xE0220, size: 0x8, addend: 0x0, symName: __ZNSt3__120__map_const_iteratorINS_21__tree_const_iteratorINS_12__value_typeI7QString8QVariantEEPNS_11__tree_nodeIS5_PvEElEEEC1B9nqe210106Ev, symObjAddr: 0x1F9A0, symBinAddr: 0x25080, symSize: 0x20 }
  - { offset: 0xE024A, size: 0x8, addend: 0x0, symName: __ZNSt3__120__map_const_iteratorINS_21__tree_const_iteratorINS_12__value_typeI7QString8QVariantEEPNS_11__tree_nodeIS5_PvEElEEEC2B9nqe210106Ev, symObjAddr: 0x1F9C0, symBinAddr: 0x250A0, symSize: 0x20 }
  - { offset: 0xE0274, size: 0x8, addend: 0x0, symName: __ZNSt3__121__tree_const_iteratorINS_12__value_typeI7QString8QVariantEEPNS_11__tree_nodeIS4_PvEElEC1B9nqe210106Ev, symObjAddr: 0x1F9E0, symBinAddr: 0x250C0, symSize: 0x20 }
  - { offset: 0xE029E, size: 0x8, addend: 0x0, symName: __ZNSt3__121__tree_const_iteratorINS_12__value_typeI7QString8QVariantEEPNS_11__tree_nodeIS4_PvEElEC2B9nqe210106Ev, symObjAddr: 0x1FA00, symBinAddr: 0x250E0, symSize: 0x20 }
  - { offset: 0xE02C8, size: 0x8, addend: 0x0, symName: __ZN4QMapI7QString8QVariantE14const_iteratorC2ENSt3__120__map_const_iteratorINS4_21__tree_const_iteratorINS4_12__value_typeIS0_S1_EEPNS4_11__tree_nodeIS8_PvEElEEEE, symObjAddr: 0x1FA20, symBinAddr: 0x25100, symSize: 0x20 }
  - { offset: 0xE0307, size: 0x8, addend: 0x0, symName: __ZNSt3__16vectorIN4tbin9TileSheetENS_9allocatorIS2_EEE12emplace_backIJS2_EEERS2_DpOT_, symObjAddr: 0x1FA40, symBinAddr: 0x25120, symSize: 0x80 }
  - { offset: 0xE0358, size: 0x8, addend: 0x0, symName: __ZNSt3__16vectorIN4tbin9TileSheetENS_9allocatorIS2_EEE30__emplace_back_assume_capacityB9nqe210106IJS2_EEEvDpOT_, symObjAddr: 0x1FAC0, symBinAddr: 0x251A0, symSize: 0x90 }
  - { offset: 0xE03A9, size: 0x8, addend: 0x0, symName: __ZNSt3__16vectorIN4tbin9TileSheetENS_9allocatorIS2_EEE24__emplace_back_slow_pathIJS2_EEEPS2_DpOT_, symObjAddr: 0x1FB50, symBinAddr: 0x25230, symSize: 0xD0 }
  - { offset: 0xE0415, size: 0x8, addend: 0x0, symName: __ZNSt3__16vectorIN4tbin9TileSheetENS_9allocatorIS2_EEE21_ConstructTransactionC1B9nqe210106ERS5_m, symObjAddr: 0x1FC20, symBinAddr: 0x25300, symSize: 0x30 }
  - { offset: 0xE045D, size: 0x8, addend: 0x0, symName: __ZNSt3__116allocator_traitsINS_9allocatorIN4tbin9TileSheetEEEE9constructB9nqe210106IS3_JS3_ELi0EEEvRS4_PT_DpOT0_, symObjAddr: 0x1FC50, symBinAddr: 0x25330, symSize: 0x30 }
  - { offset: 0xE04BB, size: 0x8, addend: 0x0, symName: __ZNSt3__16vectorIN4tbin9TileSheetENS_9allocatorIS2_EEE21_ConstructTransactionD1B9nqe210106Ev, symObjAddr: 0x1FC80, symBinAddr: 0x25360, symSize: 0x20 }
  - { offset: 0xE04E5, size: 0x8, addend: 0x0, symName: __ZNSt3__16vectorIN4tbin9TileSheetENS_9allocatorIS2_EEE21_ConstructTransactionC2B9nqe210106ERS5_m, symObjAddr: 0x1FCA0, symBinAddr: 0x25380, symSize: 0x60 }
  - { offset: 0xE052D, size: 0x8, addend: 0x0, symName: __ZNKSt3__16vectorIN4tbin9TileSheetENS_9allocatorIS2_EEE19__annotate_increaseB9nqe210106Em, symObjAddr: 0x1FD00, symBinAddr: 0x253E0, symSize: 0x90 }
  - { offset: 0xE0562, size: 0x8, addend: 0x0, symName: __ZNSt3__19allocatorIN4tbin9TileSheetEE9constructB9nqe210106IS2_JS2_EEEvPT_DpOT0_, symObjAddr: 0x1FD90, symBinAddr: 0x25470, symSize: 0x30 }
  - { offset: 0xE05BA, size: 0x8, addend: 0x0, symName: __ZN4tbin9TileSheetC1EOS0_, symObjAddr: 0x1FDC0, symBinAddr: 0x254A0, symSize: 0x30 }
  - { offset: 0xE05EF, size: 0x8, addend: 0x0, symName: __ZN4tbin9TileSheetC2EOS0_, symObjAddr: 0x1FDF0, symBinAddr: 0x254D0, symSize: 0x90 }
  - { offset: 0xE0624, size: 0x8, addend: 0x0, symName: __ZNSt3__13mapINS_12basic_stringIcNS_11char_traitsIcEENS_9allocatorIcEEEEN4tbin13PropertyValueENS_4lessIS6_EENS4_INS_4pairIKS6_S8_EEEEEC1B9nqe210106EOSF_, symObjAddr: 0x1FE80, symBinAddr: 0x25560, symSize: 0x30 }
  - { offset: 0xE065D, size: 0x8, addend: 0x0, symName: __ZNSt3__13mapINS_12basic_stringIcNS_11char_traitsIcEENS_9allocatorIcEEEEN4tbin13PropertyValueENS_4lessIS6_EENS4_INS_4pairIKS6_S8_EEEEEC2B9nqe210106EOSF_, symObjAddr: 0x1FEB0, symBinAddr: 0x25590, symSize: 0x30 }
  - { offset: 0xE0696, size: 0x8, addend: 0x0, symName: __ZNSt3__16__treeINS_12__value_typeINS_12basic_stringIcNS_11char_traitsIcEENS_9allocatorIcEEEEN4tbin13PropertyValueEEENS_19__map_value_compareIS7_NS_4pairIKS7_S9_EENS_4lessIS7_EELb1EEENS5_ISE_EEEC1EOSJ_, symObjAddr: 0x1FEE0, symBinAddr: 0x255C0, symSize: 0x30 }
  - { offset: 0xE06D1, size: 0x8, addend: 0x0, symName: __ZNSt3__16__treeINS_12__value_typeINS_12basic_stringIcNS_11char_traitsIcEENS_9allocatorIcEEEEN4tbin13PropertyValueEEENS_19__map_value_compareIS7_NS_4pairIKS7_S9_EENS_4lessIS7_EELb1EEENS5_ISE_EEEC2EOSJ_, symObjAddr: 0x1FF10, symBinAddr: 0x255F0, symSize: 0xD0 }
  - { offset: 0xE070C, size: 0x8, addend: 0x0, symName: __ZNSt3__16vectorIN4tbin9TileSheetENS_9allocatorIS2_EEE21_ConstructTransactionD2B9nqe210106Ev, symObjAddr: 0x1FFE0, symBinAddr: 0x256C0, symSize: 0x50 }
  - { offset: 0xE0736, size: 0x8, addend: 0x0, symName: __ZNKSt3__16vectorIN4tbin9TileSheetENS_9allocatorIS2_EEE11__recommendB9nqe210106Em, symObjAddr: 0x20030, symBinAddr: 0x25710, symSize: 0x80 }
  - { offset: 0xE078B, size: 0x8, addend: 0x0, symName: __ZNSt3__114__split_bufferIN4tbin9TileSheetERNS_9allocatorIS2_EEEC1EmmS5_, symObjAddr: 0x200B0, symBinAddr: 0x25790, symSize: 0x40 }
  - { offset: 0xE07E1, size: 0x8, addend: 0x0, symName: __ZNSt3__16vectorIN4tbin9TileSheetENS_9allocatorIS2_EEE26__swap_out_circular_bufferERNS_14__split_bufferIS2_RS4_EE, symObjAddr: 0x200F0, symBinAddr: 0x257D0, symSize: 0x110 }
  - { offset: 0xE0827, size: 0x8, addend: 0x0, symName: __ZNSt3__114__split_bufferIN4tbin9TileSheetERNS_9allocatorIS2_EEED1Ev, symObjAddr: 0x20200, symBinAddr: 0x258E0, symSize: 0x20 }
  - { offset: 0xE0853, size: 0x8, addend: 0x0, symName: __ZNKSt3__16vectorIN4tbin9TileSheetENS_9allocatorIS2_EEE8max_sizeB9nqe210106Ev, symObjAddr: 0x20220, symBinAddr: 0x25900, symSize: 0x50 }
  - { offset: 0xE0879, size: 0x8, addend: 0x0, symName: __ZNSt3__16vectorIN4tbin9TileSheetENS_9allocatorIS2_EEE20__throw_length_errorB9nqe210106Ev, symObjAddr: 0x20270, symBinAddr: 0x25950, symSize: 0x10 }
  - { offset: 0xE0898, size: 0x8, addend: 0x0, symName: __ZNSt3__116allocator_traitsINS_9allocatorIN4tbin9TileSheetEEEE8max_sizeB9nqe210106IS4_Li0EEEmRKS4_, symObjAddr: 0x202B0, symBinAddr: 0x25990, symSize: 0x20 }
  - { offset: 0xE08CB, size: 0x8, addend: 0x0, symName: __ZNKSt3__19allocatorIN4tbin9TileSheetEE8max_sizeB9nqe210106Ev, symObjAddr: 0x202D0, symBinAddr: 0x259B0, symSize: 0x20 }
  - { offset: 0xE08F1, size: 0x8, addend: 0x0, symName: __ZNSt3__114__split_bufferIN4tbin9TileSheetERNS_9allocatorIS2_EEEC2EmmS5_, symObjAddr: 0x20340, symBinAddr: 0x25A20, symSize: 0xB0 }
  - { offset: 0xE0965, size: 0x8, addend: 0x0, symName: __ZNSt3__19allocatorIN4tbin9TileSheetEE8allocateB9nqe210106Em, symObjAddr: 0x20430, symBinAddr: 0x25B10, symSize: 0x50 }
  - { offset: 0xE0999, size: 0x8, addend: 0x0, symName: __ZNKSt3__16vectorIN4tbin9TileSheetENS_9allocatorIS2_EEE14__annotate_newB9nqe210106Em, symObjAddr: 0x20620, symBinAddr: 0x25D00, symSize: 0x70 }
  - { offset: 0xE09CE, size: 0x8, addend: 0x0, symName: __ZNSt3__129_AllocatorDestroyRangeReverseINS_9allocatorIN4tbin9TileSheetEEEPS3_EC1B9nqe210106ERS4_RS5_S8_, symObjAddr: 0x206F0, symBinAddr: 0x25DD0, symSize: 0x40 }
  - { offset: 0xE0A25, size: 0x8, addend: 0x0, symName: __ZNSt3__128__exception_guard_exceptionsINS_29_AllocatorDestroyRangeReverseINS_9allocatorIN4tbin9TileSheetEEEPS4_EEE10__completeB9nqe210106Ev, symObjAddr: 0x20730, symBinAddr: 0x25E10, symSize: 0x20 }
  - { offset: 0xE0A4B, size: 0x8, addend: 0x0, symName: __ZNSt3__128__exception_guard_exceptionsINS_29_AllocatorDestroyRangeReverseINS_9allocatorIN4tbin9TileSheetEEEPS4_EEED1B9nqe210106Ev, symObjAddr: 0x207A0, symBinAddr: 0x25E80, symSize: 0x20 }
  - { offset: 0xE0A75, size: 0x8, addend: 0x0, symName: __ZNSt3__128__exception_guard_exceptionsINS_29_AllocatorDestroyRangeReverseINS_9allocatorIN4tbin9TileSheetEEEPS4_EEEC1B9nqe210106ES7_, symObjAddr: 0x207C0, symBinAddr: 0x25EA0, symSize: 0x40 }
  - { offset: 0xE0AAD, size: 0x8, addend: 0x0, symName: __ZNSt3__128__exception_guard_exceptionsINS_29_AllocatorDestroyRangeReverseINS_9allocatorIN4tbin9TileSheetEEEPS4_EEEC2B9nqe210106ES7_, symObjAddr: 0x20800, symBinAddr: 0x25EE0, symSize: 0x30 }
  - { offset: 0xE0AE5, size: 0x8, addend: 0x0, symName: __ZNSt3__129_AllocatorDestroyRangeReverseINS_9allocatorIN4tbin9TileSheetEEEPS3_EC2B9nqe210106ERS4_RS5_S8_, symObjAddr: 0x20830, symBinAddr: 0x25F10, symSize: 0x40 }
  - { offset: 0xE0B3C, size: 0x8, addend: 0x0, symName: __ZNSt3__128__exception_guard_exceptionsINS_29_AllocatorDestroyRangeReverseINS_9allocatorIN4tbin9TileSheetEEEPS4_EEED2B9nqe210106Ev, symObjAddr: 0x20870, symBinAddr: 0x25F50, symSize: 0x40 }
  - { offset: 0xE0B66, size: 0x8, addend: 0x0, symName: __ZNKSt3__129_AllocatorDestroyRangeReverseINS_9allocatorIN4tbin9TileSheetEEEPS3_EclB9nqe210106Ev, symObjAddr: 0x208B0, symBinAddr: 0x25F90, symSize: 0x60 }
  - { offset: 0xE0B8C, size: 0x8, addend: 0x0, symName: __ZNSt3__116reverse_iteratorIPN4tbin9TileSheetEEC1B9nqe210106ES3_, symObjAddr: 0x20970, symBinAddr: 0x26050, symSize: 0x30 }
  - { offset: 0xE0BC4, size: 0x8, addend: 0x0, symName: __ZNKSt3__116reverse_iteratorIPN4tbin9TileSheetEEdeB9nqe210106Ev, symObjAddr: 0x209E0, symBinAddr: 0x260C0, symSize: 0x30 }
  - { offset: 0xE0BF8, size: 0x8, addend: 0x0, symName: __ZNSt3__116reverse_iteratorIPN4tbin9TileSheetEEppB9nqe210106Ev, symObjAddr: 0x20A10, symBinAddr: 0x260F0, symSize: 0x20 }
  - { offset: 0xE0C1E, size: 0x8, addend: 0x0, symName: __ZNKSt3__116reverse_iteratorIPN4tbin9TileSheetEE4baseB9nqe210106Ev, symObjAddr: 0x20A30, symBinAddr: 0x26110, symSize: 0x20 }
  - { offset: 0xE0C44, size: 0x8, addend: 0x0, symName: __ZNSt3__116reverse_iteratorIPN4tbin9TileSheetEEC2B9nqe210106ES3_, symObjAddr: 0x20A50, symBinAddr: 0x26130, symSize: 0x30 }
  - { offset: 0xE0C7C, size: 0x8, addend: 0x0, symName: __ZNSt3__114__split_bufferIN4tbin9TileSheetERNS_9allocatorIS2_EEED2Ev, symObjAddr: 0x20A80, symBinAddr: 0x26160, symSize: 0x60 }
  - { offset: 0xE0CA8, size: 0x8, addend: 0x0, symName: __ZNSt3__114__split_bufferIN4tbin9TileSheetERNS_9allocatorIS2_EEE5clearB9nqe210106Ev, symObjAddr: 0x20AE0, symBinAddr: 0x261C0, symSize: 0x20 }
  - { offset: 0xE0CCE, size: 0x8, addend: 0x0, symName: __ZNKSt3__114__split_bufferIN4tbin9TileSheetERNS_9allocatorIS2_EEE8capacityB9nqe210106Ev, symObjAddr: 0x20B00, symBinAddr: 0x261E0, symSize: 0x20 }
  - { offset: 0xE0CF4, size: 0x8, addend: 0x0, symName: __ZNSt3__114__split_bufferIN4tbin9TileSheetERNS_9allocatorIS2_EEE17__destruct_at_endB9nqe210106EPS2_, symObjAddr: 0x20B20, symBinAddr: 0x26200, symSize: 0x30 }
  - { offset: 0xE0D28, size: 0x8, addend: 0x0, symName: __ZNSt3__114__split_bufferIN4tbin9TileSheetERNS_9allocatorIS2_EEE17__destruct_at_endB9nqe210106EPS2_NS_17integral_constantIbLb0EEE, symObjAddr: 0x20B50, symBinAddr: 0x26230, symSize: 0x70 }
  - { offset: 0xE0D69, size: 0x8, addend: 0x0, symName: __ZNSt3__16vectorIPN5Tiled11ObjectGroupENS_9allocatorIS3_EEEC2B9nqe210106Ev, symObjAddr: 0x20BC0, symBinAddr: 0x262A0, symSize: 0x40 }
  - { offset: 0xE0D93, size: 0x8, addend: 0x0, symName: __ZNSt3__19allocatorIPN5Tiled11ObjectGroupEEC1B9nqe210106Ev, symObjAddr: 0x20C00, symBinAddr: 0x262E0, symSize: 0x20 }
  - { offset: 0xE0DBD, size: 0x8, addend: 0x0, symName: __ZNSt3__19allocatorIPN5Tiled11ObjectGroupEEC2B9nqe210106Ev, symObjAddr: 0x20C20, symBinAddr: 0x26300, symSize: 0x20 }
  - { offset: 0xE0DE7, size: 0x8, addend: 0x0, symName: __ZNSt3__116__non_trivial_ifILb1ENS_9allocatorIPN5Tiled11ObjectGroupEEEEC2B9nqe210106Ev, symObjAddr: 0x20C40, symBinAddr: 0x26320, symSize: 0x10 }
  - { offset: 0xE0E11, size: 0x8, addend: 0x0, symName: __ZNSt3__16vectorIPN5Tiled11ObjectGroupENS_9allocatorIS3_EEED2B9nqe210106Ev, symObjAddr: 0x20C50, symBinAddr: 0x26330, symSize: 0x40 }
  - { offset: 0xE0E3B, size: 0x8, addend: 0x0, symName: __ZNSt3__16vectorIPN5Tiled11ObjectGroupENS_9allocatorIS3_EEE16__destroy_vectorC1B9nqe210106ERS6_, symObjAddr: 0x20C90, symBinAddr: 0x26370, symSize: 0x30 }
  - { offset: 0xE0E73, size: 0x8, addend: 0x0, symName: __ZNSt3__16vectorIPN5Tiled11ObjectGroupENS_9allocatorIS3_EEE16__destroy_vectorclB9nqe210106Ev, symObjAddr: 0x20CC0, symBinAddr: 0x263A0, symSize: 0x70 }
  - { offset: 0xE0E99, size: 0x8, addend: 0x0, symName: __ZNSt3__16vectorIPN5Tiled11ObjectGroupENS_9allocatorIS3_EEE16__destroy_vectorC2B9nqe210106ERS6_, symObjAddr: 0x20D30, symBinAddr: 0x26410, symSize: 0x20 }
  - { offset: 0xE0ED1, size: 0x8, addend: 0x0, symName: __ZNSt3__16vectorIPN5Tiled11ObjectGroupENS_9allocatorIS3_EEE5clearB9nqe210106Ev, symObjAddr: 0x20D50, symBinAddr: 0x26430, symSize: 0x40 }
  - { offset: 0xE0F06, size: 0x8, addend: 0x0, symName: __ZNKSt3__16vectorIPN5Tiled11ObjectGroupENS_9allocatorIS3_EEE17__annotate_deleteB9nqe210106Ev, symObjAddr: 0x20D90, symBinAddr: 0x26470, symSize: 0x80 }
  - { offset: 0xE0F2C, size: 0x8, addend: 0x0, symName: __ZNSt3__116allocator_traitsINS_9allocatorIPN5Tiled11ObjectGroupEEEE10deallocateB9nqe210106ERS5_PS4_m, symObjAddr: 0x20E10, symBinAddr: 0x264F0, symSize: 0x30 }
  - { offset: 0xE0F6E, size: 0x8, addend: 0x0, symName: __ZNKSt3__16vectorIPN5Tiled11ObjectGroupENS_9allocatorIS3_EEE8capacityB9nqe210106Ev, symObjAddr: 0x20E40, symBinAddr: 0x26520, symSize: 0x20 }
  - { offset: 0xE0F94, size: 0x8, addend: 0x0, symName: __ZNKSt3__16vectorIPN5Tiled11ObjectGroupENS_9allocatorIS3_EEE4sizeB9nqe210106Ev, symObjAddr: 0x20E60, symBinAddr: 0x26540, symSize: 0x20 }
  - { offset: 0xE0FBA, size: 0x8, addend: 0x0, symName: __ZNSt3__16vectorIPN5Tiled11ObjectGroupENS_9allocatorIS3_EEE22__base_destruct_at_endB9nqe210106EPS3_, symObjAddr: 0x20E80, symBinAddr: 0x26560, symSize: 0x80 }
  - { offset: 0xE0FFE, size: 0x8, addend: 0x0, symName: __ZNKSt3__16vectorIPN5Tiled11ObjectGroupENS_9allocatorIS3_EEE17__annotate_shrinkB9nqe210106Em, symObjAddr: 0x20F00, symBinAddr: 0x265E0, symSize: 0x70 }
  - { offset: 0xE1033, size: 0x8, addend: 0x0, symName: __ZNSt3__116allocator_traitsINS_9allocatorIPN5Tiled11ObjectGroupEEEE7destroyB9nqe210106IS4_Li0EEEvRS5_PT_, symObjAddr: 0x20F70, symBinAddr: 0x26650, symSize: 0x30 }
  - { offset: 0xE1075, size: 0x8, addend: 0x0, symName: __ZNSt3__19allocatorIPN5Tiled11ObjectGroupEE7destroyB9nqe210106EPS3_, symObjAddr: 0x20FB0, symBinAddr: 0x26690, symSize: 0x10 }
  - { offset: 0xE10A9, size: 0x8, addend: 0x0, symName: __ZNKSt3__16vectorIPN5Tiled11ObjectGroupENS_9allocatorIS3_EEE31__annotate_contiguous_containerB9nqe210106EPKvS8_, symObjAddr: 0x20FC0, symBinAddr: 0x266A0, symSize: 0x60 }
  - { offset: 0xE10ED, size: 0x8, addend: 0x0, symName: __ZNKSt3__16vectorIPN5Tiled11ObjectGroupENS_9allocatorIS3_EEE4dataB9nqe210106Ev, symObjAddr: 0x21020, symBinAddr: 0x26700, symSize: 0x20 }
  - { offset: 0xE1113, size: 0x8, addend: 0x0, symName: __ZNSt3__19allocatorIPN5Tiled11ObjectGroupEE10deallocateB9nqe210106EPS3_m, symObjAddr: 0x21060, symBinAddr: 0x26740, symSize: 0x30 }
  - { offset: 0xE1155, size: 0x8, addend: 0x0, symName: __ZNSt3__13mapINS_12basic_stringIcNS_11char_traitsIcEENS_9allocatorIcEEEEPN4tbin5LayerENS_4lessIS6_EENS4_INS_4pairIKS6_S9_EEEEEC2B9nqe210106Ev, symObjAddr: 0x210E0, symBinAddr: 0x267C0, symSize: 0x30 }
  - { offset: 0xE117F, size: 0x8, addend: 0x0, symName: __ZNSt3__119__map_value_compareINS_12basic_stringIcNS_11char_traitsIcEENS_9allocatorIcEEEENS_4pairIKS6_PN4tbin5LayerEEENS_4lessIS6_EELb1EEC1B9nqe210106ESE_, symObjAddr: 0x21110, symBinAddr: 0x267F0, symSize: 0x20 }
  - { offset: 0xE11B8, size: 0x8, addend: 0x0, symName: __ZNSt3__16__treeINS_12__value_typeINS_12basic_stringIcNS_11char_traitsIcEENS_9allocatorIcEEEEPN4tbin5LayerEEENS_19__map_value_compareIS7_NS_4pairIKS7_SA_EENS_4lessIS7_EELb1EEENS5_ISF_EEEC1ERKSI_, symObjAddr: 0x21130, symBinAddr: 0x26810, symSize: 0x30 }
  - { offset: 0xE11F3, size: 0x8, addend: 0x0, symName: __ZNSt3__119__map_value_compareINS_12basic_stringIcNS_11char_traitsIcEENS_9allocatorIcEEEENS_4pairIKS6_PN4tbin5LayerEEENS_4lessIS6_EELb1EEC2B9nqe210106ESE_, symObjAddr: 0x21160, symBinAddr: 0x26840, symSize: 0x10 }
  - { offset: 0xE122C, size: 0x8, addend: 0x0, symName: __ZNSt3__16__treeINS_12__value_typeINS_12basic_stringIcNS_11char_traitsIcEENS_9allocatorIcEEEEPN4tbin5LayerEEENS_19__map_value_compareIS7_NS_4pairIKS7_SA_EENS_4lessIS7_EELb1EEENS5_ISF_EEEC2ERKSI_, symObjAddr: 0x21170, symBinAddr: 0x26850, symSize: 0x60 }
  - { offset: 0xE1267, size: 0x8, addend: 0x0, symName: __ZNSt3__19allocatorINS_11__tree_nodeINS_12__value_typeINS_12basic_stringIcNS_11char_traitsIcEENS0_IcEEEEPN4tbin5LayerEEEPvEEEC1B9nqe210106Ev, symObjAddr: 0x211D0, symBinAddr: 0x268B0, symSize: 0x20 }
  - { offset: 0xE1291, size: 0x8, addend: 0x0, symName: __ZNSt3__16__treeINS_12__value_typeINS_12basic_stringIcNS_11char_traitsIcEENS_9allocatorIcEEEEPN4tbin5LayerEEENS_19__map_value_compareIS7_NS_4pairIKS7_SA_EENS_4lessIS7_EELb1EEENS5_ISF_EEE10__end_nodeB9nqe210106Ev, symObjAddr: 0x211F0, symBinAddr: 0x268D0, symSize: 0x20 }
  - { offset: 0xE12B7, size: 0x8, addend: 0x0, symName: __ZNSt3__16__treeINS_12__value_typeINS_12basic_stringIcNS_11char_traitsIcEENS_9allocatorIcEEEEPN4tbin5LayerEEENS_19__map_value_compareIS7_NS_4pairIKS7_SA_EENS_4lessIS7_EELb1EEENS5_ISF_EEE12__begin_nodeB9nqe210106Ev, symObjAddr: 0x21210, symBinAddr: 0x268F0, symSize: 0x10 }
  - { offset: 0xE12DD, size: 0x8, addend: 0x0, symName: __ZNSt3__19allocatorINS_11__tree_nodeINS_12__value_typeINS_12basic_stringIcNS_11char_traitsIcEENS0_IcEEEEPN4tbin5LayerEEEPvEEEC2B9nqe210106Ev, symObjAddr: 0x21220, symBinAddr: 0x26900, symSize: 0x20 }
  - { offset: 0xE1307, size: 0x8, addend: 0x0, symName: __ZNSt3__116__non_trivial_ifILb1ENS_9allocatorINS_11__tree_nodeINS_12__value_typeINS_12basic_stringIcNS_11char_traitsIcEENS1_IcEEEEPN4tbin5LayerEEEPvEEEEEC2B9nqe210106Ev, symObjAddr: 0x21240, symBinAddr: 0x26920, symSize: 0x10 }
  - { offset: 0xE1331, size: 0x8, addend: 0x0, symName: __ZNSt3__13mapINS_12basic_stringIcNS_11char_traitsIcEENS_9allocatorIcEEEEPN4tbin5LayerENS_4lessIS6_EENS4_INS_4pairIKS6_S9_EEEEED2B9nqe210106Ev, symObjAddr: 0x21250, symBinAddr: 0x26930, symSize: 0x20 }
  - { offset: 0xE135B, size: 0x8, addend: 0x0, symName: __ZNSt3__16__treeINS_12__value_typeINS_12basic_stringIcNS_11char_traitsIcEENS_9allocatorIcEEEEPN4tbin5LayerEEENS_19__map_value_compareIS7_NS_4pairIKS7_SA_EENS_4lessIS7_EELb1EEENS5_ISF_EEED1Ev, symObjAddr: 0x21270, symBinAddr: 0x26950, symSize: 0x20 }
  - { offset: 0xE1387, size: 0x8, addend: 0x0, symName: __ZNSt3__16__treeINS_12__value_typeINS_12basic_stringIcNS_11char_traitsIcEENS_9allocatorIcEEEEPN4tbin5LayerEEENS_19__map_value_compareIS7_NS_4pairIKS7_SA_EENS_4lessIS7_EELb1EEENS5_ISF_EEED2Ev, symObjAddr: 0x21290, symBinAddr: 0x26970, symSize: 0x30 }
  - { offset: 0xE13B3, size: 0x8, addend: 0x0, symName: __ZNSt3__16__treeINS_12__value_typeINS_12basic_stringIcNS_11char_traitsIcEENS_9allocatorIcEEEEPN4tbin5LayerEEENS_19__map_value_compareIS7_NS_4pairIKS7_SA_EENS_4lessIS7_EELb1EEENS5_ISF_EEE7destroyEPNS_11__tree_nodeISB_PvEE, symObjAddr: 0x212C0, symBinAddr: 0x269A0, symSize: 0x80 }
  - { offset: 0xE1400, size: 0x8, addend: 0x0, symName: __ZNKSt3__16__treeINS_12__value_typeINS_12basic_stringIcNS_11char_traitsIcEENS_9allocatorIcEEEEPN4tbin5LayerEEENS_19__map_value_compareIS7_NS_4pairIKS7_SA_EENS_4lessIS7_EELb1EEENS5_ISF_EEE6__rootB9nqe210106Ev, symObjAddr: 0x21340, symBinAddr: 0x26A20, symSize: 0x20 }
  - { offset: 0xE1426, size: 0x8, addend: 0x0, symName: __ZNSt3__16__treeINS_12__value_typeINS_12basic_stringIcNS_11char_traitsIcEENS_9allocatorIcEEEEPN4tbin5LayerEEENS_19__map_value_compareIS7_NS_4pairIKS7_SA_EENS_4lessIS7_EELb1EEENS5_ISF_EEE12__node_allocB9nqe210106Ev, symObjAddr: 0x21360, symBinAddr: 0x26A40, symSize: 0x20 }
  - { offset: 0xE144C, size: 0x8, addend: 0x0, symName: __ZNSt3__116allocator_traitsINS_9allocatorINS_11__tree_nodeINS_12__value_typeINS_12basic_stringIcNS_11char_traitsIcEENS1_IcEEEEPN4tbin5LayerEEEPvEEEEE7destroyB9nqe210106INS_4pairIKS8_SB_EELi0EEEvRSF_PT_, symObjAddr: 0x21380, symBinAddr: 0x26A60, symSize: 0x20 }
  - { offset: 0xE148B, size: 0x8, addend: 0x0, symName: __ZNSt3__116allocator_traitsINS_9allocatorINS_11__tree_nodeINS_12__value_typeINS_12basic_stringIcNS_11char_traitsIcEENS1_IcEEEEPN4tbin5LayerEEEPvEEEEE10deallocateB9nqe210106ERSF_PSE_m, symObjAddr: 0x213A0, symBinAddr: 0x26A80, symSize: 0x30 }
  - { offset: 0xE14CD, size: 0x8, addend: 0x0, symName: __ZNSt3__14pairIKNS_12basic_stringIcNS_11char_traitsIcEENS_9allocatorIcEEEEPN4tbin5LayerEED1Ev, symObjAddr: 0x213F0, symBinAddr: 0x26AD0, symSize: 0x20 }
  - { offset: 0xE14F9, size: 0x8, addend: 0x0, symName: __ZNSt3__14pairIKNS_12basic_stringIcNS_11char_traitsIcEENS_9allocatorIcEEEEPN4tbin5LayerEED2Ev, symObjAddr: 0x21410, symBinAddr: 0x26AF0, symSize: 0x20 }
  - { offset: 0xE1525, size: 0x8, addend: 0x0, symName: __ZNSt3__19allocatorINS_11__tree_nodeINS_12__value_typeINS_12basic_stringIcNS_11char_traitsIcEENS0_IcEEEEPN4tbin5LayerEEEPvEEE10deallocateB9nqe210106EPSD_m, symObjAddr: 0x21430, symBinAddr: 0x26B10, symSize: 0x30 }
  - { offset: 0xE1567, size: 0x8, addend: 0x0, symName: __ZNKSt3__16__treeINS_12__value_typeINS_12basic_stringIcNS_11char_traitsIcEENS_9allocatorIcEEEEPN4tbin5LayerEEENS_19__map_value_compareIS7_NS_4pairIKS7_SA_EENS_4lessIS7_EELb1EEENS5_ISF_EEE10__end_nodeB9nqe210106Ev, symObjAddr: 0x214B0, symBinAddr: 0x26B90, symSize: 0x20 }
  - { offset: 0xE158D, size: 0x8, addend: 0x0, symName: __ZNKSt3__16vectorIN4tbin5LayerENS_9allocatorIS2_EEE8max_sizeB9nqe210106Ev, symObjAddr: 0x214D0, symBinAddr: 0x26BB0, symSize: 0x50 }
  - { offset: 0xE15B3, size: 0x8, addend: 0x0, symName: __ZNSt3__16vectorIN4tbin5LayerENS_9allocatorIS2_EEE20__throw_length_errorB9nqe210106Ev, symObjAddr: 0x21520, symBinAddr: 0x26C00, symSize: 0x10 }
  - { offset: 0xE15C7, size: 0x8, addend: 0x0, symName: __ZNSt3__114__split_bufferIN4tbin5LayerERNS_9allocatorIS2_EEEC1EmmS5_, symObjAddr: 0x21530, symBinAddr: 0x26C10, symSize: 0x40 }
  - { offset: 0xE161D, size: 0x8, addend: 0x0, symName: __ZNSt3__16vectorIN4tbin5LayerENS_9allocatorIS2_EEE26__swap_out_circular_bufferERNS_14__split_bufferIS2_RS4_EE, symObjAddr: 0x21570, symBinAddr: 0x26C50, symSize: 0x120 }
  - { offset: 0xE1663, size: 0x8, addend: 0x0, symName: __ZNSt3__114__split_bufferIN4tbin5LayerERNS_9allocatorIS2_EEED1Ev, symObjAddr: 0x21690, symBinAddr: 0x26D70, symSize: 0x20 }
  - { offset: 0xE169A, size: 0x8, addend: 0x0, symName: __ZNSt3__116allocator_traitsINS_9allocatorIN4tbin5LayerEEEE8max_sizeB9nqe210106IS4_Li0EEEmRKS4_, symObjAddr: 0x216B0, symBinAddr: 0x26D90, symSize: 0x20 }
  - { offset: 0xE16CD, size: 0x8, addend: 0x0, symName: __ZNKSt3__19allocatorIN4tbin5LayerEE8max_sizeB9nqe210106Ev, symObjAddr: 0x216D0, symBinAddr: 0x26DB0, symSize: 0x20 }
  - { offset: 0xE16F3, size: 0x8, addend: 0x0, symName: __ZNSt3__114__split_bufferIN4tbin5LayerERNS_9allocatorIS2_EEEC2EmmS5_, symObjAddr: 0x216F0, symBinAddr: 0x26DD0, symSize: 0xA0 }
  - { offset: 0xE1767, size: 0x8, addend: 0x0, symName: __ZNSt3__19allocatorIN4tbin5LayerEE8allocateB9nqe210106Em, symObjAddr: 0x217D0, symBinAddr: 0x26EB0, symSize: 0x50 }
  - { offset: 0xE179B, size: 0x8, addend: 0x0, symName: __ZNKSt3__16vectorIN4tbin5LayerENS_9allocatorIS2_EEE14__annotate_newB9nqe210106Em, symObjAddr: 0x219C0, symBinAddr: 0x270A0, symSize: 0x70 }
  - { offset: 0xE17D0, size: 0x8, addend: 0x0, symName: __ZNSt3__129_AllocatorDestroyRangeReverseINS_9allocatorIN4tbin5LayerEEEPS3_EC1B9nqe210106ERS4_RS5_S8_, symObjAddr: 0x21A90, symBinAddr: 0x27170, symSize: 0x40 }
  - { offset: 0xE182D, size: 0x8, addend: 0x0, symName: __ZNSt3__116allocator_traitsINS_9allocatorIN4tbin5LayerEEEE9constructB9nqe210106IS3_JS3_ELi0EEEvRS4_PT_DpOT0_, symObjAddr: 0x21AD0, symBinAddr: 0x271B0, symSize: 0x30 }
  - { offset: 0xE188B, size: 0x8, addend: 0x0, symName: __ZNSt3__128__exception_guard_exceptionsINS_29_AllocatorDestroyRangeReverseINS_9allocatorIN4tbin5LayerEEEPS4_EEE10__completeB9nqe210106Ev, symObjAddr: 0x21B00, symBinAddr: 0x271E0, symSize: 0x20 }
  - { offset: 0xE18B1, size: 0x8, addend: 0x0, symName: __ZNSt3__128__exception_guard_exceptionsINS_29_AllocatorDestroyRangeReverseINS_9allocatorIN4tbin5LayerEEEPS4_EEED1B9nqe210106Ev, symObjAddr: 0x21B60, symBinAddr: 0x27240, symSize: 0x20 }
  - { offset: 0xE18DB, size: 0x8, addend: 0x0, symName: __ZNSt3__128__exception_guard_exceptionsINS_29_AllocatorDestroyRangeReverseINS_9allocatorIN4tbin5LayerEEEPS4_EEEC1B9nqe210106ES7_, symObjAddr: 0x21B80, symBinAddr: 0x27260, symSize: 0x40 }
  - { offset: 0xE1913, size: 0x8, addend: 0x0, symName: __ZNSt3__128__exception_guard_exceptionsINS_29_AllocatorDestroyRangeReverseINS_9allocatorIN4tbin5LayerEEEPS4_EEEC2B9nqe210106ES7_, symObjAddr: 0x21BC0, symBinAddr: 0x272A0, symSize: 0x30 }
  - { offset: 0xE194B, size: 0x8, addend: 0x0, symName: __ZNSt3__129_AllocatorDestroyRangeReverseINS_9allocatorIN4tbin5LayerEEEPS3_EC2B9nqe210106ERS4_RS5_S8_, symObjAddr: 0x21BF0, symBinAddr: 0x272D0, symSize: 0x40 }
  - { offset: 0xE19A2, size: 0x8, addend: 0x0, symName: __ZNSt3__19allocatorIN4tbin5LayerEE9constructB9nqe210106IS2_JS2_EEEvPT_DpOT0_, symObjAddr: 0x21C30, symBinAddr: 0x27310, symSize: 0x30 }
  - { offset: 0xE19FA, size: 0x8, addend: 0x0, symName: __ZN4tbin5LayerC1EOS0_, symObjAddr: 0x21C60, symBinAddr: 0x27340, symSize: 0x30 }
  - { offset: 0xE1A2F, size: 0x8, addend: 0x0, symName: __ZN4tbin5LayerC2EOS0_, symObjAddr: 0x21C90, symBinAddr: 0x27370, symSize: 0x90 }
  - { offset: 0xE1A64, size: 0x8, addend: 0x0, symName: __ZNSt3__16vectorIN4tbin4TileENS_9allocatorIS2_EEEC1B9nqe210106EOS5_, symObjAddr: 0x21D20, symBinAddr: 0x27400, symSize: 0x30 }
  - { offset: 0xE1A9F, size: 0x8, addend: 0x0, symName: __ZNSt3__16vectorIN4tbin4TileENS_9allocatorIS2_EEEC2B9nqe210106EOS5_, symObjAddr: 0x21D50, symBinAddr: 0x27430, symSize: 0x70 }
  - { offset: 0xE1ADA, size: 0x8, addend: 0x0, symName: __ZNSt3__128__exception_guard_exceptionsINS_29_AllocatorDestroyRangeReverseINS_9allocatorIN4tbin5LayerEEEPS4_EEED2B9nqe210106Ev, symObjAddr: 0x21DC0, symBinAddr: 0x274A0, symSize: 0x40 }
  - { offset: 0xE1B04, size: 0x8, addend: 0x0, symName: __ZNKSt3__129_AllocatorDestroyRangeReverseINS_9allocatorIN4tbin5LayerEEEPS3_EclB9nqe210106Ev, symObjAddr: 0x21E00, symBinAddr: 0x274E0, symSize: 0x60 }
  - { offset: 0xE1B2A, size: 0x8, addend: 0x0, symName: __ZNSt3__116reverse_iteratorIPN4tbin5LayerEEC1B9nqe210106ES3_, symObjAddr: 0x21EC0, symBinAddr: 0x275A0, symSize: 0x30 }
  - { offset: 0xE1B62, size: 0x8, addend: 0x0, symName: __ZNKSt3__116reverse_iteratorIPN4tbin5LayerEEdeB9nqe210106Ev, symObjAddr: 0x21F30, symBinAddr: 0x27610, symSize: 0x30 }
  - { offset: 0xE1B96, size: 0x8, addend: 0x0, symName: __ZNSt3__116reverse_iteratorIPN4tbin5LayerEEppB9nqe210106Ev, symObjAddr: 0x21F60, symBinAddr: 0x27640, symSize: 0x20 }
  - { offset: 0xE1BBC, size: 0x8, addend: 0x0, symName: __ZNKSt3__116reverse_iteratorIPN4tbin5LayerEE4baseB9nqe210106Ev, symObjAddr: 0x21F80, symBinAddr: 0x27660, symSize: 0x20 }
  - { offset: 0xE1BE2, size: 0x8, addend: 0x0, symName: __ZNSt3__116reverse_iteratorIPN4tbin5LayerEEC2B9nqe210106ES3_, symObjAddr: 0x21FA0, symBinAddr: 0x27680, symSize: 0x30 }
  - { offset: 0xE1C1A, size: 0x8, addend: 0x0, symName: __ZNSt3__114__split_bufferIN4tbin5LayerERNS_9allocatorIS2_EEED2Ev, symObjAddr: 0x21FD0, symBinAddr: 0x276B0, symSize: 0x60 }
  - { offset: 0xE1C46, size: 0x8, addend: 0x0, symName: __ZNSt3__114__split_bufferIN4tbin5LayerERNS_9allocatorIS2_EEE5clearB9nqe210106Ev, symObjAddr: 0x22030, symBinAddr: 0x27710, symSize: 0x20 }
  - { offset: 0xE1C6C, size: 0x8, addend: 0x0, symName: __ZNKSt3__114__split_bufferIN4tbin5LayerERNS_9allocatorIS2_EEE8capacityB9nqe210106Ev, symObjAddr: 0x22050, symBinAddr: 0x27730, symSize: 0x30 }
  - { offset: 0xE1C92, size: 0x8, addend: 0x0, symName: __ZNSt3__114__split_bufferIN4tbin5LayerERNS_9allocatorIS2_EEE17__destruct_at_endB9nqe210106EPS2_, symObjAddr: 0x22080, symBinAddr: 0x27760, symSize: 0x30 }
  - { offset: 0xE1CC6, size: 0x8, addend: 0x0, symName: __ZNSt3__114__split_bufferIN4tbin5LayerERNS_9allocatorIS2_EEE17__destruct_at_endB9nqe210106EPS2_NS_17integral_constantIbLb0EEE, symObjAddr: 0x220B0, symBinAddr: 0x27790, symSize: 0x70 }
  - { offset: 0xE1D07, size: 0x8, addend: 0x0, symName: __ZNK17QArrayDataPointerIPN5Tiled5LayerEEptEv, symObjAddr: 0x22120, symBinAddr: 0x27800, symSize: 0x10 }
  - { offset: 0xE1D2D, size: 0x8, addend: 0x0, symName: __ZNK17QArrayDataPointerIPN5Tiled5LayerEE10constBeginEv, symObjAddr: 0x22130, symBinAddr: 0x27810, symSize: 0x20 }
  - { offset: 0xE1D53, size: 0x8, addend: 0x0, symName: __ZN5QListIPN5Tiled5LayerEE14const_iteratorC1EPKS2_, symObjAddr: 0x22150, symBinAddr: 0x27830, symSize: 0x30 }
  - { offset: 0xE1D8B, size: 0x8, addend: 0x0, symName: __ZNK17QArrayDataPointerIPN5Tiled5LayerEE4dataEv, symObjAddr: 0x22180, symBinAddr: 0x27860, symSize: 0x20 }
  - { offset: 0xE1DB1, size: 0x8, addend: 0x0, symName: __ZN5QListIPN5Tiled5LayerEE14const_iteratorC2EPKS2_, symObjAddr: 0x221A0, symBinAddr: 0x27880, symSize: 0x20 }
  - { offset: 0xE1DE9, size: 0x8, addend: 0x0, symName: __ZNK17QArrayDataPointerIPN5Tiled5LayerEE8constEndEv, symObjAddr: 0x221C0, symBinAddr: 0x278A0, symSize: 0x30 }
  - { offset: 0xE1E0F, size: 0x8, addend: 0x0, symName: __ZNSt3__16vectorIPN5Tiled11ObjectGroupENS_9allocatorIS3_EEE12emplace_backIJRKS3_EEERS3_DpOT_, symObjAddr: 0x221F0, symBinAddr: 0x278D0, symSize: 0x70 }
  - { offset: 0xE1E60, size: 0x8, addend: 0x0, symName: __ZNSt3__16vectorIPN5Tiled11ObjectGroupENS_9allocatorIS3_EEE30__emplace_back_assume_capacityB9nqe210106IJRKS3_EEEvDpOT_, symObjAddr: 0x22260, symBinAddr: 0x27940, symSize: 0x90 }
  - { offset: 0xE1EB1, size: 0x8, addend: 0x0, symName: __ZNSt3__16vectorIPN5Tiled11ObjectGroupENS_9allocatorIS3_EEE24__emplace_back_slow_pathIJRKS3_EEEPS3_DpOT_, symObjAddr: 0x222F0, symBinAddr: 0x279D0, symSize: 0xD0 }
  - { offset: 0xE1F1D, size: 0x8, addend: 0x0, symName: __ZNSt3__16vectorIPN5Tiled11ObjectGroupENS_9allocatorIS3_EEE21_ConstructTransactionC1B9nqe210106ERS6_m, symObjAddr: 0x223C0, symBinAddr: 0x27AA0, symSize: 0x30 }
  - { offset: 0xE1F65, size: 0x8, addend: 0x0, symName: __ZNSt3__116allocator_traitsINS_9allocatorIPN5Tiled11ObjectGroupEEEE9constructB9nqe210106IS4_JRKS4_ELi0EEEvRS5_PT_DpOT0_, symObjAddr: 0x223F0, symBinAddr: 0x27AD0, symSize: 0x30 }
  - { offset: 0xE1FC3, size: 0x8, addend: 0x0, symName: __ZNSt3__16vectorIPN5Tiled11ObjectGroupENS_9allocatorIS3_EEE21_ConstructTransactionD1B9nqe210106Ev, symObjAddr: 0x22420, symBinAddr: 0x27B00, symSize: 0x20 }
  - { offset: 0xE1FED, size: 0x8, addend: 0x0, symName: __ZNSt3__16vectorIPN5Tiled11ObjectGroupENS_9allocatorIS3_EEE21_ConstructTransactionC2B9nqe210106ERS6_m, symObjAddr: 0x22440, symBinAddr: 0x27B20, symSize: 0x60 }
  - { offset: 0xE2035, size: 0x8, addend: 0x0, symName: __ZNKSt3__16vectorIPN5Tiled11ObjectGroupENS_9allocatorIS3_EEE19__annotate_increaseB9nqe210106Em, symObjAddr: 0x224A0, symBinAddr: 0x27B80, symSize: 0x80 }
  - { offset: 0xE206A, size: 0x8, addend: 0x0, symName: __ZNSt3__19allocatorIPN5Tiled11ObjectGroupEE9constructB9nqe210106IS3_JRKS3_EEEvPT_DpOT0_, symObjAddr: 0x22520, symBinAddr: 0x27C00, symSize: 0x20 }
  - { offset: 0xE20C2, size: 0x8, addend: 0x0, symName: __ZNSt3__16vectorIPN5Tiled11ObjectGroupENS_9allocatorIS3_EEE21_ConstructTransactionD2B9nqe210106Ev, symObjAddr: 0x22540, symBinAddr: 0x27C20, symSize: 0x50 }
  - { offset: 0xE20EC, size: 0x8, addend: 0x0, symName: __ZNKSt3__16vectorIPN5Tiled11ObjectGroupENS_9allocatorIS3_EEE11__recommendB9nqe210106Em, symObjAddr: 0x22590, symBinAddr: 0x27C70, symSize: 0x80 }
  - { offset: 0xE2141, size: 0x8, addend: 0x0, symName: __ZNSt3__114__split_bufferIPN5Tiled11ObjectGroupERNS_9allocatorIS3_EEEC1EmmS6_, symObjAddr: 0x22610, symBinAddr: 0x27CF0, symSize: 0x40 }
  - { offset: 0xE2197, size: 0x8, addend: 0x0, symName: __ZNSt3__16vectorIPN5Tiled11ObjectGroupENS_9allocatorIS3_EEE26__swap_out_circular_bufferERNS_14__split_bufferIS3_RS5_EE, symObjAddr: 0x22650, symBinAddr: 0x27D30, symSize: 0x110 }
  - { offset: 0xE21DD, size: 0x8, addend: 0x0, symName: __ZNSt3__114__split_bufferIPN5Tiled11ObjectGroupERNS_9allocatorIS3_EEED1Ev, symObjAddr: 0x22760, symBinAddr: 0x27E40, symSize: 0x20 }
  - { offset: 0xE2209, size: 0x8, addend: 0x0, symName: __ZNKSt3__16vectorIPN5Tiled11ObjectGroupENS_9allocatorIS3_EEE8max_sizeB9nqe210106Ev, symObjAddr: 0x22780, symBinAddr: 0x27E60, symSize: 0x50 }
  - { offset: 0xE222F, size: 0x8, addend: 0x0, symName: __ZNSt3__16vectorIPN5Tiled11ObjectGroupENS_9allocatorIS3_EEE20__throw_length_errorB9nqe210106Ev, symObjAddr: 0x227D0, symBinAddr: 0x27EB0, symSize: 0x10 }
  - { offset: 0xE224E, size: 0x8, addend: 0x0, symName: __ZNSt3__116allocator_traitsINS_9allocatorIPN5Tiled11ObjectGroupEEEE8max_sizeB9nqe210106IS5_Li0EEEmRKS5_, symObjAddr: 0x227E0, symBinAddr: 0x27EC0, symSize: 0x20 }
  - { offset: 0xE2281, size: 0x8, addend: 0x0, symName: __ZNKSt3__19allocatorIPN5Tiled11ObjectGroupEE8max_sizeB9nqe210106Ev, symObjAddr: 0x22800, symBinAddr: 0x27EE0, symSize: 0x20 }
  - { offset: 0xE22A7, size: 0x8, addend: 0x0, symName: __ZNSt3__114__split_bufferIPN5Tiled11ObjectGroupERNS_9allocatorIS3_EEEC2EmmS6_, symObjAddr: 0x22820, symBinAddr: 0x27F00, symSize: 0xB0 }
  - { offset: 0xE231B, size: 0x8, addend: 0x0, symName: __ZNSt3__19allocatorIPN5Tiled11ObjectGroupEE8allocateB9nqe210106Em, symObjAddr: 0x22910, symBinAddr: 0x27FF0, symSize: 0x50 }
  - { offset: 0xE234F, size: 0x8, addend: 0x0, symName: __ZNKSt3__16vectorIPN5Tiled11ObjectGroupENS_9allocatorIS3_EEE14__annotate_newB9nqe210106Em, symObjAddr: 0x22A60, symBinAddr: 0x28140, symSize: 0x70 }
  - { offset: 0xE2384, size: 0x8, addend: 0x0, symName: __ZNSt3__114__split_bufferIPN5Tiled11ObjectGroupERNS_9allocatorIS3_EEED2Ev, symObjAddr: 0x22AD0, symBinAddr: 0x281B0, symSize: 0x60 }
  - { offset: 0xE23B0, size: 0x8, addend: 0x0, symName: __ZNSt3__114__split_bufferIPN5Tiled11ObjectGroupERNS_9allocatorIS3_EEE5clearB9nqe210106Ev, symObjAddr: 0x22B30, symBinAddr: 0x28210, symSize: 0x20 }
  - { offset: 0xE23D6, size: 0x8, addend: 0x0, symName: __ZNKSt3__114__split_bufferIPN5Tiled11ObjectGroupERNS_9allocatorIS3_EEE8capacityB9nqe210106Ev, symObjAddr: 0x22B50, symBinAddr: 0x28230, symSize: 0x20 }
  - { offset: 0xE23FC, size: 0x8, addend: 0x0, symName: __ZNSt3__114__split_bufferIPN5Tiled11ObjectGroupERNS_9allocatorIS3_EEE17__destruct_at_endB9nqe210106EPS3_, symObjAddr: 0x22B70, symBinAddr: 0x28250, symSize: 0x30 }
  - { offset: 0xE2430, size: 0x8, addend: 0x0, symName: __ZNSt3__114__split_bufferIPN5Tiled11ObjectGroupERNS_9allocatorIS3_EEE17__destruct_at_endB9nqe210106EPS3_NS_17integral_constantIbLb0EEE, symObjAddr: 0x22BA0, symBinAddr: 0x28280, symSize: 0x70 }
  - { offset: 0xE2471, size: 0x8, addend: 0x0, symName: __ZNSt3__18functionIFvvEEC2IN5Tiled10JumpToTileEvEET_, symObjAddr: 0x22C10, symBinAddr: 0x282F0, symSize: 0x20 }
  - { offset: 0xE24B5, size: 0x8, addend: 0x0, symName: __ZNSt3__110__function12__value_funcIFvvEEC1B9nqe210106IN5Tiled10JumpToTileELi0EEEOT_, symObjAddr: 0x22C30, symBinAddr: 0x28310, symSize: 0x30 }
  - { offset: 0xE24FC, size: 0x8, addend: 0x0, symName: __ZNSt3__110__function12__value_funcIFvvEEC2B9nqe210106IN5Tiled10JumpToTileELi0EEEOT_, symObjAddr: 0x22C60, symBinAddr: 0x28340, symSize: 0x90 }
  - { offset: 0xE2543, size: 0x8, addend: 0x0, symName: __ZNSt3__110__function6__funcIN5Tiled10JumpToTileEFvvEEC1B9nqe210106EOS3_, symObjAddr: 0x22D00, symBinAddr: 0x283E0, symSize: 0x30 }
  - { offset: 0xE257B, size: 0x8, addend: 0x0, symName: __ZNSt3__110__function6__funcIN5Tiled10JumpToTileEFvvEEC2B9nqe210106EOS3_, symObjAddr: 0x22D30, symBinAddr: 0x28410, symSize: 0x50 }
  - { offset: 0xE25B3, size: 0x8, addend: 0x0, symName: __ZNSt3__110__function6__baseIFvvEEC2B9nqe210106Ev, symObjAddr: 0x22D80, symBinAddr: 0x28460, symSize: 0x20 }
  - { offset: 0xE25DD, size: 0x8, addend: 0x0, symName: __ZN5Tiled10JumpToTileC1EOS0_, symObjAddr: 0x22DA0, symBinAddr: 0x28480, symSize: 0x30 }
  - { offset: 0xE2612, size: 0x8, addend: 0x0, symName: __ZNSt3__110__function6__funcIN5Tiled10JumpToTileEFvvEED1Ev, symObjAddr: 0x22DD0, symBinAddr: 0x284B0, symSize: 0x20 }
  - { offset: 0xE263E, size: 0x8, addend: 0x0, symName: __ZNSt3__110__function6__funcIN5Tiled10JumpToTileEFvvEED0Ev, symObjAddr: 0x22DF0, symBinAddr: 0x284D0, symSize: 0x30 }
  - { offset: 0xE266A, size: 0x8, addend: 0x0, symName: __ZNKSt3__110__function6__funcIN5Tiled10JumpToTileEFvvEE7__cloneEv, symObjAddr: 0x22E20, symBinAddr: 0x28500, symSize: 0x60 }
  - { offset: 0xE2690, size: 0x8, addend: 0x0, symName: __ZNKSt3__110__function6__funcIN5Tiled10JumpToTileEFvvEE7__cloneEPNS0_6__baseIS4_EE, symObjAddr: 0x22E80, symBinAddr: 0x28560, symSize: 0x30 }
  - { offset: 0xE26C4, size: 0x8, addend: 0x0, symName: __ZNSt3__110__function6__funcIN5Tiled10JumpToTileEFvvEE7destroyEv, symObjAddr: 0x22EB0, symBinAddr: 0x28590, symSize: 0x20 }
  - { offset: 0xE26EA, size: 0x8, addend: 0x0, symName: __ZNSt3__110__function6__funcIN5Tiled10JumpToTileEFvvEE18destroy_deallocateEv, symObjAddr: 0x22ED0, symBinAddr: 0x285B0, symSize: 0x30 }
  - { offset: 0xE2710, size: 0x8, addend: 0x0, symName: __ZNSt3__110__function6__funcIN5Tiled10JumpToTileEFvvEEclEv, symObjAddr: 0x22F00, symBinAddr: 0x285E0, symSize: 0x20 }
  - { offset: 0xE2736, size: 0x8, addend: 0x0, symName: __ZNKSt3__110__function6__funcIN5Tiled10JumpToTileEFvvEE6targetERKSt9type_info, symObjAddr: 0x22F20, symBinAddr: 0x28600, symSize: 0x50 }
  - { offset: 0xE276A, size: 0x8, addend: 0x0, symName: __ZNKSt3__110__function6__funcIN5Tiled10JumpToTileEFvvEE11target_typeEv, symObjAddr: 0x22F70, symBinAddr: 0x28650, symSize: 0x20 }
  - { offset: 0xE2790, size: 0x8, addend: 0x0, symName: __ZNSt3__110__function6__baseIFvvEED1Ev, symObjAddr: 0x22F90, symBinAddr: 0x28670, symSize: 0x10 }
  - { offset: 0xE27BA, size: 0x8, addend: 0x0, symName: __ZNSt3__110__function6__baseIFvvEED0Ev, symObjAddr: 0x22FA0, symBinAddr: 0x28680, symSize: 0x10 }
  - { offset: 0xE27E4, size: 0x8, addend: 0x0, symName: __ZN5Tiled10JumpToTileC2EOS0_, symObjAddr: 0x22FB0, symBinAddr: 0x28690, symSize: 0x40 }
  - { offset: 0xE2819, size: 0x8, addend: 0x0, symName: __ZNSt3__110__function6__funcIN5Tiled10JumpToTileEFvvEED2Ev, symObjAddr: 0x22FF0, symBinAddr: 0x286D0, symSize: 0x40 }
  - { offset: 0xE2845, size: 0x8, addend: 0x0, symName: __ZNSt3__110__function6__baseIFvvEED2Ev, symObjAddr: 0x23030, symBinAddr: 0x28710, symSize: 0x10 }
  - { offset: 0xE286F, size: 0x8, addend: 0x0, symName: __ZNSt3__110__function6__funcIN5Tiled10JumpToTileEFvvEEC1B9nqe210106ERKS3_, symObjAddr: 0x23040, symBinAddr: 0x28720, symSize: 0x30 }
  - { offset: 0xE28A7, size: 0x8, addend: 0x0, symName: __ZNSt3__110__function6__funcIN5Tiled10JumpToTileEFvvEEC2B9nqe210106ERKS3_, symObjAddr: 0x23070, symBinAddr: 0x28750, symSize: 0x50 }
  - { offset: 0xE28DF, size: 0x8, addend: 0x0, symName: __ZN5Tiled10JumpToTileC1ERKS0_, symObjAddr: 0x230C0, symBinAddr: 0x287A0, symSize: 0x30 }
  - { offset: 0xE2914, size: 0x8, addend: 0x0, symName: __ZN5Tiled10JumpToTileC2ERKS0_, symObjAddr: 0x230F0, symBinAddr: 0x287D0, symSize: 0x40 }
  - { offset: 0xE294F, size: 0x8, addend: 0x0, symName: __ZNSt3__128__invoke_void_return_wrapperIvLb1EE6__callB9nqe210106IJRN5Tiled10JumpToTileEEEEvDpOT_, symObjAddr: 0x23150, symBinAddr: 0x28830, symSize: 0x20 }
  - { offset: 0xE2980, size: 0x8, addend: 0x0, symName: __ZNK5Tiled11ActivatableINS_10JumpToTileEEclEv, symObjAddr: 0x23190, symBinAddr: 0x28870, symSize: 0x30 }
  - { offset: 0xE29A6, size: 0x8, addend: 0x0, symName: __ZNKSt3__18functionIFvRKN5Tiled10JumpToTileEEEclES4_, symObjAddr: 0x231C0, symBinAddr: 0x288A0, symSize: 0x30 }
  - { offset: 0xE29DD, size: 0x8, addend: 0x0, symName: __ZNKSt3__110__function12__value_funcIFvRKN5Tiled10JumpToTileEEEclB9nqe210106ES5_, symObjAddr: 0x231F0, symBinAddr: 0x288D0, symSize: 0x40 }
  - { offset: 0xE2A12, size: 0x8, addend: 0x0, symName: __ZNSt3__117bad_function_callC1B9nqe210106Ev, symObjAddr: 0x23280, symBinAddr: 0x28960, symSize: 0x20 }
  - { offset: 0xE2A3C, size: 0x8, addend: 0x0, symName: __ZNSt3__117bad_function_callD1Ev, symObjAddr: 0x232A0, symBinAddr: 0x28980, symSize: 0x20 }
  - { offset: 0xE2A66, size: 0x8, addend: 0x0, symName: __ZNSt3__117bad_function_callC2B9nqe210106Ev, symObjAddr: 0x232C0, symBinAddr: 0x289A0, symSize: 0x40 }
  - { offset: 0xE2A90, size: 0x8, addend: 0x0, symName: __ZNSt9exceptionC2B9nqe210106Ev, symObjAddr: 0x23300, symBinAddr: 0x289E0, symSize: 0x20 }
  - { offset: 0xE2ABA, size: 0x8, addend: 0x0, symName: __ZNSt3__117bad_function_callD0Ev, symObjAddr: 0x23320, symBinAddr: 0x28A00, symSize: 0x30 }
  - { offset: 0xE2AE4, size: 0x8, addend: 0x0, symName: __ZNSt3__117bad_function_callD2Ev, symObjAddr: 0x23350, symBinAddr: 0x28A30, symSize: 0x20 }
  - { offset: 0xE2B2E, size: 0x8, addend: 0x0, symName: __ZNKSt9type_infoeqB9nqe210106ERKS_, symObjAddr: 0x23370, symBinAddr: 0x28A50, symSize: 0x40 }
  - { offset: 0xE2B8C, size: 0x8, addend: 0x0, symName: __ZNSt3__18functionIFvRKN5Tiled10JumpToTileEEEC2B9nqe210106Ev, symObjAddr: 0x233B0, symBinAddr: 0x28A90, symSize: 0x20 }
  - { offset: 0xE2BB6, size: 0x8, addend: 0x0, symName: __ZNSt3__110__function12__value_funcIFvRKN5Tiled10JumpToTileEEEC1B9nqe210106Ev, symObjAddr: 0x233D0, symBinAddr: 0x28AB0, symSize: 0x20 }
  - { offset: 0xE2BE0, size: 0x8, addend: 0x0, symName: __ZNSt3__110__function12__value_funcIFvRKN5Tiled10JumpToTileEEEC2B9nqe210106Ev, symObjAddr: 0x233F0, symBinAddr: 0x28AD0, symSize: 0x20 }
  - { offset: 0xE2C0A, size: 0x8, addend: 0x0, symName: __ZNSt3__18functionIFvRKN5Tiled10JumpToTileEEED2Ev, symObjAddr: 0x23410, symBinAddr: 0x28AF0, symSize: 0x20 }
  - { offset: 0xE2C34, size: 0x8, addend: 0x0, symName: __ZNSt3__110__function12__value_funcIFvRKN5Tiled10JumpToTileEEED1B9nqe210106Ev, symObjAddr: 0x23430, symBinAddr: 0x28B10, symSize: 0x20 }
  - { offset: 0xE2C5E, size: 0x8, addend: 0x0, symName: __ZNSt3__110__function12__value_funcIFvRKN5Tiled10JumpToTileEEED2B9nqe210106Ev, symObjAddr: 0x23450, symBinAddr: 0x28B30, symSize: 0x50 }
  - { offset: 0xE2C88, size: 0x8, addend: 0x0, symName: __ZNK17QArrayDataPointerIN5Tiled5FrameEEptEv, symObjAddr: 0x234A0, symBinAddr: 0x28B80, symSize: 0x10 }
  - { offset: 0xE2CAE, size: 0x8, addend: 0x0, symName: __ZNK5QListIN5Tiled5FrameEE4dataEv, symObjAddr: 0x234B0, symBinAddr: 0x28B90, symSize: 0x30 }
  - { offset: 0xE2CD4, size: 0x8, addend: 0x0, symName: __ZNK17QArrayDataPointerIN5Tiled5FrameEE10constBeginEv, symObjAddr: 0x234E0, symBinAddr: 0x28BC0, symSize: 0x20 }
  - { offset: 0xE2CFA, size: 0x8, addend: 0x0, symName: __ZN5QListIN5Tiled5FrameEE14const_iteratorC1EPKS1_, symObjAddr: 0x23500, symBinAddr: 0x28BE0, symSize: 0x30 }
  - { offset: 0xE2D32, size: 0x8, addend: 0x0, symName: __ZN5QListIN5Tiled5FrameEE14const_iteratorC2EPKS1_, symObjAddr: 0x23530, symBinAddr: 0x28C10, symSize: 0x20 }
  - { offset: 0xE2D6A, size: 0x8, addend: 0x0, symName: __ZNK17QArrayDataPointerIN5Tiled5FrameEE8constEndEv, symObjAddr: 0x23550, symBinAddr: 0x28C30, symSize: 0x30 }
  - { offset: 0xE2D90, size: 0x8, addend: 0x0, symName: __ZNSt3__18functionIFvvEEC2IN5Tiled10SelectTileEvEET_, symObjAddr: 0x23580, symBinAddr: 0x28C60, symSize: 0x20 }
  - { offset: 0xE2DD4, size: 0x8, addend: 0x0, symName: __ZNSt3__110__function12__value_funcIFvvEEC1B9nqe210106IN5Tiled10SelectTileELi0EEEOT_, symObjAddr: 0x235A0, symBinAddr: 0x28C80, symSize: 0x30 }
  - { offset: 0xE2E1B, size: 0x8, addend: 0x0, symName: __ZNSt3__110__function12__value_funcIFvvEEC2B9nqe210106IN5Tiled10SelectTileELi0EEEOT_, symObjAddr: 0x235D0, symBinAddr: 0x28CB0, symSize: 0x90 }
  - { offset: 0xE2E62, size: 0x8, addend: 0x0, symName: __ZNSt3__110__function6__funcIN5Tiled10SelectTileEFvvEEC1B9nqe210106EOS3_, symObjAddr: 0x23670, symBinAddr: 0x28D50, symSize: 0x30 }
  - { offset: 0xE2E9A, size: 0x8, addend: 0x0, symName: __ZNSt3__110__function6__funcIN5Tiled10SelectTileEFvvEEC2B9nqe210106EOS3_, symObjAddr: 0x236A0, symBinAddr: 0x28D80, symSize: 0x50 }
  - { offset: 0xE2ED2, size: 0x8, addend: 0x0, symName: __ZN5Tiled10SelectTileC1EOS0_, symObjAddr: 0x236F0, symBinAddr: 0x28DD0, symSize: 0x30 }
  - { offset: 0xE2F07, size: 0x8, addend: 0x0, symName: __ZNSt3__110__function6__funcIN5Tiled10SelectTileEFvvEED1Ev, symObjAddr: 0x23720, symBinAddr: 0x28E00, symSize: 0x20 }
  - { offset: 0xE2F33, size: 0x8, addend: 0x0, symName: __ZNSt3__110__function6__funcIN5Tiled10SelectTileEFvvEED0Ev, symObjAddr: 0x23740, symBinAddr: 0x28E20, symSize: 0x30 }
  - { offset: 0xE2F5F, size: 0x8, addend: 0x0, symName: __ZNKSt3__110__function6__funcIN5Tiled10SelectTileEFvvEE7__cloneEv, symObjAddr: 0x23770, symBinAddr: 0x28E50, symSize: 0x60 }
  - { offset: 0xE2F85, size: 0x8, addend: 0x0, symName: __ZNKSt3__110__function6__funcIN5Tiled10SelectTileEFvvEE7__cloneEPNS0_6__baseIS4_EE, symObjAddr: 0x237D0, symBinAddr: 0x28EB0, symSize: 0x30 }
  - { offset: 0xE2FB9, size: 0x8, addend: 0x0, symName: __ZNSt3__110__function6__funcIN5Tiled10SelectTileEFvvEE7destroyEv, symObjAddr: 0x23800, symBinAddr: 0x28EE0, symSize: 0x20 }
  - { offset: 0xE2FDF, size: 0x8, addend: 0x0, symName: __ZNSt3__110__function6__funcIN5Tiled10SelectTileEFvvEE18destroy_deallocateEv, symObjAddr: 0x23820, symBinAddr: 0x28F00, symSize: 0x30 }
  - { offset: 0xE3005, size: 0x8, addend: 0x0, symName: __ZNSt3__110__function6__funcIN5Tiled10SelectTileEFvvEEclEv, symObjAddr: 0x23850, symBinAddr: 0x28F30, symSize: 0x20 }
  - { offset: 0xE302B, size: 0x8, addend: 0x0, symName: __ZNKSt3__110__function6__funcIN5Tiled10SelectTileEFvvEE6targetERKSt9type_info, symObjAddr: 0x23870, symBinAddr: 0x28F50, symSize: 0x50 }
  - { offset: 0xE305F, size: 0x8, addend: 0x0, symName: __ZNKSt3__110__function6__funcIN5Tiled10SelectTileEFvvEE11target_typeEv, symObjAddr: 0x238C0, symBinAddr: 0x28FA0, symSize: 0x20 }
  - { offset: 0xE3085, size: 0x8, addend: 0x0, symName: __ZN5Tiled10SelectTileC2EOS0_, symObjAddr: 0x238E0, symBinAddr: 0x28FC0, symSize: 0x50 }
  - { offset: 0xE30BA, size: 0x8, addend: 0x0, symName: __ZN12QWeakPointerIN5Tiled7TilesetEEC1EOS2_, symObjAddr: 0x23930, symBinAddr: 0x29010, symSize: 0x30 }
  - { offset: 0xE30F3, size: 0x8, addend: 0x0, symName: __ZN12QWeakPointerIN5Tiled7TilesetEEC2EOS2_, symObjAddr: 0x23960, symBinAddr: 0x29040, symSize: 0x40 }
  - { offset: 0xE312C, size: 0x8, addend: 0x0, symName: __ZNSt3__110__function6__funcIN5Tiled10SelectTileEFvvEED2Ev, symObjAddr: 0x239A0, symBinAddr: 0x29080, symSize: 0x40 }
  - { offset: 0xE3158, size: 0x8, addend: 0x0, symName: __ZNSt3__110__function6__funcIN5Tiled10SelectTileEFvvEEC1B9nqe210106ERKS3_, symObjAddr: 0x239E0, symBinAddr: 0x290C0, symSize: 0x30 }
  - { offset: 0xE3190, size: 0x8, addend: 0x0, symName: __ZNSt3__110__function6__funcIN5Tiled10SelectTileEFvvEEC2B9nqe210106ERKS3_, symObjAddr: 0x23A10, symBinAddr: 0x290F0, symSize: 0x50 }
  - { offset: 0xE31C8, size: 0x8, addend: 0x0, symName: __ZN5Tiled10SelectTileC1ERKS0_, symObjAddr: 0x23A60, symBinAddr: 0x29140, symSize: 0x30 }
  - { offset: 0xE31FD, size: 0x8, addend: 0x0, symName: __ZN5Tiled10SelectTileC2ERKS0_, symObjAddr: 0x23A90, symBinAddr: 0x29170, symSize: 0x50 }
  - { offset: 0xE3232, size: 0x8, addend: 0x0, symName: __ZN12QWeakPointerIN5Tiled7TilesetEEC1ERKS2_, symObjAddr: 0x23AE0, symBinAddr: 0x291C0, symSize: 0x30 }
  - { offset: 0xE326B, size: 0x8, addend: 0x0, symName: __ZN12QWeakPointerIN5Tiled7TilesetEEC2ERKS2_, symObjAddr: 0x23B10, symBinAddr: 0x291F0, symSize: 0x50 }
  - { offset: 0xE32AA, size: 0x8, addend: 0x0, symName: __ZNSt3__128__invoke_void_return_wrapperIvLb1EE6__callB9nqe210106IJRN5Tiled10SelectTileEEEEvDpOT_, symObjAddr: 0x23B80, symBinAddr: 0x29260, symSize: 0x20 }
  - { offset: 0xE32DB, size: 0x8, addend: 0x0, symName: __ZNK5Tiled11ActivatableINS_10SelectTileEEclEv, symObjAddr: 0x23BC0, symBinAddr: 0x292A0, symSize: 0x30 }
  - { offset: 0xE3301, size: 0x8, addend: 0x0, symName: __ZNKSt3__18functionIFvRKN5Tiled10SelectTileEEEclES4_, symObjAddr: 0x23BF0, symBinAddr: 0x292D0, symSize: 0x30 }
  - { offset: 0xE3338, size: 0x8, addend: 0x0, symName: __ZNKSt3__110__function12__value_funcIFvRKN5Tiled10SelectTileEEEclB9nqe210106ES5_, symObjAddr: 0x23C20, symBinAddr: 0x29300, symSize: 0x40 }
  - { offset: 0xE336D, size: 0x8, addend: 0x0, symName: __ZNSt3__18functionIFvRKN5Tiled10SelectTileEEEC2B9nqe210106Ev, symObjAddr: 0x23C60, symBinAddr: 0x29340, symSize: 0x20 }
  - { offset: 0xE3397, size: 0x8, addend: 0x0, symName: __ZNSt3__110__function12__value_funcIFvRKN5Tiled10SelectTileEEEC1B9nqe210106Ev, symObjAddr: 0x23C80, symBinAddr: 0x29360, symSize: 0x20 }
  - { offset: 0xE33C1, size: 0x8, addend: 0x0, symName: __ZNSt3__110__function12__value_funcIFvRKN5Tiled10SelectTileEEEC2B9nqe210106Ev, symObjAddr: 0x23CA0, symBinAddr: 0x29380, symSize: 0x20 }
  - { offset: 0xE33EB, size: 0x8, addend: 0x0, symName: __ZNSt3__18functionIFvRKN5Tiled10SelectTileEEED2Ev, symObjAddr: 0x23CC0, symBinAddr: 0x293A0, symSize: 0x20 }
  - { offset: 0xE3415, size: 0x8, addend: 0x0, symName: __ZNSt3__110__function12__value_funcIFvRKN5Tiled10SelectTileEEED1B9nqe210106Ev, symObjAddr: 0x23CE0, symBinAddr: 0x293C0, symSize: 0x20 }
  - { offset: 0xE343F, size: 0x8, addend: 0x0, symName: __ZNSt3__110__function12__value_funcIFvRKN5Tiled10SelectTileEEED2B9nqe210106Ev, symObjAddr: 0x23D00, symBinAddr: 0x293E0, symSize: 0x50 }
  - { offset: 0xE3469, size: 0x8, addend: 0x0, symName: __ZNSt3__16vectorIN4tbin4TileENS_9allocatorIS2_EEE12emplace_backIJRKS2_EEERS2_DpOT_, symObjAddr: 0x23D50, symBinAddr: 0x29430, symSize: 0x70 }
  - { offset: 0xE34BA, size: 0x8, addend: 0x0, symName: __ZNSt3__16vectorIN4tbin4TileENS_9allocatorIS2_EEE30__emplace_back_assume_capacityB9nqe210106IJRKS2_EEEvDpOT_, symObjAddr: 0x23DC0, symBinAddr: 0x294A0, symSize: 0x90 }
  - { offset: 0xE350B, size: 0x8, addend: 0x0, symName: __ZNSt3__16vectorIN4tbin4TileENS_9allocatorIS2_EEE24__emplace_back_slow_pathIJRKS2_EEEPS2_DpOT_, symObjAddr: 0x23E50, symBinAddr: 0x29530, symSize: 0xD0 }
  - { offset: 0xE355C, size: 0x8, addend: 0x0, symName: __ZNSt3__116allocator_traitsINS_9allocatorIN4tbin4TileEEEE9constructB9nqe210106IS3_JRKS3_ELi0EEEvRS4_PT_DpOT0_, symObjAddr: 0x23F20, symBinAddr: 0x29600, symSize: 0x30 }
  - { offset: 0xE35BA, size: 0x8, addend: 0x0, symName: __ZNSt3__19allocatorIN4tbin4TileEE9constructB9nqe210106IS2_JRKS2_EEEvPT_DpOT0_, symObjAddr: 0x23F50, symBinAddr: 0x29630, symSize: 0x30 }
  - { offset: 0xE3612, size: 0x8, addend: 0x0, symName: __ZNKSt3__16vectorIN4tbin4TileENS_9allocatorIS2_EEE11__recommendB9nqe210106Em, symObjAddr: 0x23F80, symBinAddr: 0x29660, symSize: 0x80 }
  - { offset: 0xE3667, size: 0x8, addend: 0x0, symName: __ZNSt3__114__split_bufferIN4tbin4TileERNS_9allocatorIS2_EEEC1EmmS5_, symObjAddr: 0x24000, symBinAddr: 0x296E0, symSize: 0x40 }
  - { offset: 0xE36BD, size: 0x8, addend: 0x0, symName: __ZNSt3__16vectorIN4tbin4TileENS_9allocatorIS2_EEE26__swap_out_circular_bufferERNS_14__split_bufferIS2_RS4_EE, symObjAddr: 0x24040, symBinAddr: 0x29720, symSize: 0x120 }
  - { offset: 0xE3703, size: 0x8, addend: 0x0, symName: __ZNSt3__114__split_bufferIN4tbin4TileERNS_9allocatorIS2_EEED1Ev, symObjAddr: 0x24160, symBinAddr: 0x29840, symSize: 0x20 }
  - { offset: 0xE372F, size: 0x8, addend: 0x0, symName: __ZNSt3__114__split_bufferIN4tbin4TileERNS_9allocatorIS2_EEEC2EmmS5_, symObjAddr: 0x24180, symBinAddr: 0x29860, symSize: 0xA0 }
  - { offset: 0xE37A9, size: 0x8, addend: 0x0, symName: __ZNSt3__116allocator_traitsINS_9allocatorIN4tbin4TileEEEE9constructB9nqe210106IS3_JS3_ELi0EEEvRS4_PT_DpOT0_, symObjAddr: 0x24360, symBinAddr: 0x29A40, symSize: 0x30 }
  - { offset: 0xE3807, size: 0x8, addend: 0x0, symName: __ZNSt3__19allocatorIN4tbin4TileEE9constructB9nqe210106IS2_JS2_EEEvPT_DpOT0_, symObjAddr: 0x243D0, symBinAddr: 0x29AB0, symSize: 0x30 }
  - { offset: 0xE385F, size: 0x8, addend: 0x0, symName: __ZN4tbin4TileC1EOS0_, symObjAddr: 0x24400, symBinAddr: 0x29AE0, symSize: 0x30 }
  - { offset: 0xE3894, size: 0x8, addend: 0x0, symName: __ZN4tbin4TileC2EOS0_, symObjAddr: 0x24430, symBinAddr: 0x29B10, symSize: 0x60 }
  - { offset: 0xE38CF, size: 0x8, addend: 0x0, symName: __ZN4tbin4TileUt0_C1EOS1_, symObjAddr: 0x24490, symBinAddr: 0x29B70, symSize: 0x30 }
  - { offset: 0xE3904, size: 0x8, addend: 0x0, symName: __ZN4tbin4TileUt0_C2EOS1_, symObjAddr: 0x244C0, symBinAddr: 0x29BA0, symSize: 0x40 }
  - { offset: 0xE3939, size: 0x8, addend: 0x0, symName: __ZNSt3__114__split_bufferIN4tbin4TileERNS_9allocatorIS2_EEED2Ev, symObjAddr: 0x24500, symBinAddr: 0x29BE0, symSize: 0x60 }
  - { offset: 0xE3965, size: 0x8, addend: 0x0, symName: __ZNSt3__114__split_bufferIN4tbin4TileERNS_9allocatorIS2_EEE5clearB9nqe210106Ev, symObjAddr: 0x24560, symBinAddr: 0x29C40, symSize: 0x20 }
  - { offset: 0xE398B, size: 0x8, addend: 0x0, symName: __ZNKSt3__114__split_bufferIN4tbin4TileERNS_9allocatorIS2_EEE8capacityB9nqe210106Ev, symObjAddr: 0x24580, symBinAddr: 0x29C60, symSize: 0x30 }
  - { offset: 0xE39B1, size: 0x8, addend: 0x0, symName: __ZNSt3__114__split_bufferIN4tbin4TileERNS_9allocatorIS2_EEE17__destruct_at_endB9nqe210106EPS2_, symObjAddr: 0x245B0, symBinAddr: 0x29C90, symSize: 0x30 }
  - { offset: 0xE39E5, size: 0x8, addend: 0x0, symName: __ZNSt3__114__split_bufferIN4tbin4TileERNS_9allocatorIS2_EEE17__destruct_at_endB9nqe210106EPS2_NS_17integral_constantIbLb0EEE, symObjAddr: 0x245E0, symBinAddr: 0x29CC0, symSize: 0x70 }
  - { offset: 0xE3A26, size: 0x8, addend: 0x0, symName: __ZNSt3__16vectorIN4tbin5LayerENS_9allocatorIS2_EEE12emplace_backIJS2_EEERS2_DpOT_, symObjAddr: 0x24650, symBinAddr: 0x29D30, symSize: 0x70 }
  - { offset: 0xE3A77, size: 0x8, addend: 0x0, symName: __ZNSt3__16vectorIN4tbin5LayerENS_9allocatorIS2_EEE30__emplace_back_assume_capacityB9nqe210106IJS2_EEEvDpOT_, symObjAddr: 0x246C0, symBinAddr: 0x29DA0, symSize: 0x90 }
  - { offset: 0xE3AC8, size: 0x8, addend: 0x0, symName: __ZNSt3__16vectorIN4tbin5LayerENS_9allocatorIS2_EEE24__emplace_back_slow_pathIJS2_EEEPS2_DpOT_, symObjAddr: 0x24750, symBinAddr: 0x29E30, symSize: 0xD0 }
  - { offset: 0xE3B34, size: 0x8, addend: 0x0, symName: __ZNSt3__16vectorIN4tbin5LayerENS_9allocatorIS2_EEE21_ConstructTransactionC1B9nqe210106ERS5_m, symObjAddr: 0x24820, symBinAddr: 0x29F00, symSize: 0x30 }
  - { offset: 0xE3B7C, size: 0x8, addend: 0x0, symName: __ZNSt3__16vectorIN4tbin5LayerENS_9allocatorIS2_EEE21_ConstructTransactionD1B9nqe210106Ev, symObjAddr: 0x24850, symBinAddr: 0x29F30, symSize: 0x20 }
  - { offset: 0xE3BA6, size: 0x8, addend: 0x0, symName: __ZNSt3__16vectorIN4tbin5LayerENS_9allocatorIS2_EEE21_ConstructTransactionC2B9nqe210106ERS5_m, symObjAddr: 0x24870, symBinAddr: 0x29F50, symSize: 0x60 }
  - { offset: 0xE3BEE, size: 0x8, addend: 0x0, symName: __ZNKSt3__16vectorIN4tbin5LayerENS_9allocatorIS2_EEE19__annotate_increaseB9nqe210106Em, symObjAddr: 0x248D0, symBinAddr: 0x29FB0, symSize: 0x90 }
  - { offset: 0xE3C23, size: 0x8, addend: 0x0, symName: __ZNSt3__16vectorIN4tbin5LayerENS_9allocatorIS2_EEE21_ConstructTransactionD2B9nqe210106Ev, symObjAddr: 0x24960, symBinAddr: 0x2A040, symSize: 0x60 }
  - { offset: 0xE3C4D, size: 0x8, addend: 0x0, symName: __ZNKSt3__16vectorIN4tbin5LayerENS_9allocatorIS2_EEE11__recommendB9nqe210106Em, symObjAddr: 0x249C0, symBinAddr: 0x2A0A0, symSize: 0x80 }
  - { offset: 0xE3CA2, size: 0x8, addend: 0x0, symName: __ZNSt3__16__treeINS_12__value_typeINS_12basic_stringIcNS_11char_traitsIcEENS_9allocatorIcEEEEPN4tbin5LayerEEENS_19__map_value_compareIS7_NS_4pairIKS7_SA_EENS_4lessIS7_EELb1EEENS5_ISF_EEE25__emplace_unique_key_argsIS7_JRKNS_21piecewise_construct_tENS_5tupleIJRSE_EEENSP_IJEEEEEENSD_INS_15__tree_iteratorISB_PNS_11__tree_nodeISB_PvEElEEbEERKT_DpOT0_, symObjAddr: 0x24A40, symBinAddr: 0x2A120, symSize: 0x100 }
  - { offset: 0xE3D84, size: 0x8, addend: 0x0, symName: __ZNKSt3__115__tree_iteratorINS_12__value_typeINS_12basic_stringIcNS_11char_traitsIcEENS_9allocatorIcEEEEPN4tbin5LayerEEEPNS_11__tree_nodeISB_PvEElEptB9nqe210106Ev, symObjAddr: 0x24B40, symBinAddr: 0x2A220, symSize: 0x30 }
  - { offset: 0xE3DAA, size: 0x8, addend: 0x0, symName: __ZNSt3__16__treeINS_12__value_typeINS_12basic_stringIcNS_11char_traitsIcEENS_9allocatorIcEEEEPN4tbin5LayerEEENS_19__map_value_compareIS7_NS_4pairIKS7_SA_EENS_4lessIS7_EELb1EEENS5_ISF_EEE12__find_equalIS7_EERPNS_16__tree_node_baseIPvEERPNS_15__tree_end_nodeISP_EERKT_, symObjAddr: 0x24B70, symBinAddr: 0x2A250, symSize: 0x150 }
  - { offset: 0xE3E15, size: 0x8, addend: 0x0, symName: __ZNSt3__16__treeINS_12__value_typeINS_12basic_stringIcNS_11char_traitsIcEENS_9allocatorIcEEEEPN4tbin5LayerEEENS_19__map_value_compareIS7_NS_4pairIKS7_SA_EENS_4lessIS7_EELb1EEENS5_ISF_EEE16__construct_nodeIJRKNS_21piecewise_construct_tENS_5tupleIJRSE_EEENSP_IJEEEEEENS_10unique_ptrINS_11__tree_nodeISB_PvEENS_22__tree_node_destructorINS5_ISW_EEEEEEDpOT_, symObjAddr: 0x24CC0, symBinAddr: 0x2A3A0, symSize: 0xF0 }
  - { offset: 0xE3EA0, size: 0x8, addend: 0x0, symName: __ZNSt3__16__treeINS_12__value_typeINS_12basic_stringIcNS_11char_traitsIcEENS_9allocatorIcEEEEPN4tbin5LayerEEENS_19__map_value_compareIS7_NS_4pairIKS7_SA_EENS_4lessIS7_EELb1EEENS5_ISF_EEE16__insert_node_atEPNS_15__tree_end_nodeIPNS_16__tree_node_baseIPvEEEERSP_SP_, symObjAddr: 0x24DB0, symBinAddr: 0x2A490, symSize: 0xB0 }
  - { offset: 0xE3EF5, size: 0x8, addend: 0x0, symName: __ZNKSt3__110unique_ptrINS_11__tree_nodeINS_12__value_typeINS_12basic_stringIcNS_11char_traitsIcEENS_9allocatorIcEEEEPN4tbin5LayerEEEPvEENS_22__tree_node_destructorINS6_ISE_EEEEE3getB9nqe210106Ev, symObjAddr: 0x24E60, symBinAddr: 0x2A540, symSize: 0x20 }
  - { offset: 0xE3F1B, size: 0x8, addend: 0x0, symName: __ZNSt3__110unique_ptrINS_11__tree_nodeINS_12__value_typeINS_12basic_stringIcNS_11char_traitsIcEENS_9allocatorIcEEEEPN4tbin5LayerEEEPvEENS_22__tree_node_destructorINS6_ISE_EEEEE7releaseB9nqe210106Ev, symObjAddr: 0x24E80, symBinAddr: 0x2A560, symSize: 0x20 }
  - { offset: 0xE3F50, size: 0x8, addend: 0x0, symName: __ZNSt3__110unique_ptrINS_11__tree_nodeINS_12__value_typeINS_12basic_stringIcNS_11char_traitsIcEENS_9allocatorIcEEEEPN4tbin5LayerEEEPvEENS_22__tree_node_destructorINS6_ISE_EEEEED1B9nqe210106Ev, symObjAddr: 0x24EA0, symBinAddr: 0x2A580, symSize: 0x20 }
  - { offset: 0xE3F7A, size: 0x8, addend: 0x0, symName: __ZNSt3__115__tree_iteratorINS_12__value_typeINS_12basic_stringIcNS_11char_traitsIcEENS_9allocatorIcEEEEPN4tbin5LayerEEEPNS_11__tree_nodeISB_PvEElEC1B9nqe210106ESF_, symObjAddr: 0x24EC0, symBinAddr: 0x2A5A0, symSize: 0x30 }
  - { offset: 0xE3FB9, size: 0x8, addend: 0x0, symName: __ZNSt3__14pairINS_15__tree_iteratorINS_12__value_typeINS_12basic_stringIcNS_11char_traitsIcEENS_9allocatorIcEEEEPN4tbin5LayerEEEPNS_11__tree_nodeISC_PvEElEEbEC1B9nqe210106ISH_RbLi0EEEOT_OT0_, symObjAddr: 0x24EF0, symBinAddr: 0x2A5D0, symSize: 0x30 }
  - { offset: 0xE4017, size: 0x8, addend: 0x0, symName: __ZNKSt3__16__treeINS_12__value_typeINS_12basic_stringIcNS_11char_traitsIcEENS_9allocatorIcEEEEPN4tbin5LayerEEENS_19__map_value_compareIS7_NS_4pairIKS7_SA_EENS_4lessIS7_EELb1EEENS5_ISF_EEE10__root_ptrB9nqe210106Ev, symObjAddr: 0x24F20, symBinAddr: 0x2A600, symSize: 0x20 }
  - { offset: 0xE403D, size: 0x8, addend: 0x0, symName: __ZNSt3__16__treeINS_12__value_typeINS_12basic_stringIcNS_11char_traitsIcEENS_9allocatorIcEEEEPN4tbin5LayerEEENS_19__map_value_compareIS7_NS_4pairIKS7_SA_EENS_4lessIS7_EELb1EEENS5_ISF_EEE10value_compB9nqe210106Ev, symObjAddr: 0x24F40, symBinAddr: 0x2A620, symSize: 0x20 }
  - { offset: 0xE4063, size: 0x8, addend: 0x0, symName: __ZNKSt3__119__map_value_compareINS_12basic_stringIcNS_11char_traitsIcEENS_9allocatorIcEEEENS_4pairIKS6_PN4tbin5LayerEEENS_4lessIS6_EELb1EEclB9nqe210106ERS8_RKSC_, symObjAddr: 0x24F60, symBinAddr: 0x2A640, symSize: 0x30 }
  - { offset: 0xE40A7, size: 0x8, addend: 0x0, symName: __ZNKSt3__119__map_value_compareINS_12basic_stringIcNS_11char_traitsIcEENS_9allocatorIcEEEENS_4pairIKS6_PN4tbin5LayerEEENS_4lessIS6_EELb1EEclB9nqe210106ERKSC_RS8_, symObjAddr: 0x24F90, symBinAddr: 0x2A670, symSize: 0x30 }
  - { offset: 0xE40EB, size: 0x8, addend: 0x0, symName: __ZNSt3__116allocator_traitsINS_9allocatorINS_11__tree_nodeINS_12__value_typeINS_12basic_stringIcNS_11char_traitsIcEENS1_IcEEEEPN4tbin5LayerEEEPvEEEEE8allocateB9nqe210106ERSF_m, symObjAddr: 0x24FC0, symBinAddr: 0x2A6A0, symSize: 0x30 }
  - { offset: 0xE411E, size: 0x8, addend: 0x0, symName: __ZNSt3__122__tree_node_destructorINS_9allocatorINS_11__tree_nodeINS_12__value_typeINS_12basic_stringIcNS_11char_traitsIcEENS1_IcEEEEPN4tbin5LayerEEEPvEEEEEC1B9nqe210106ERSF_b, symObjAddr: 0x24FF0, symBinAddr: 0x2A6D0, symSize: 0x40 }
  - { offset: 0xE416C, size: 0x8, addend: 0x0, symName: __ZNSt3__110unique_ptrINS_11__tree_nodeINS_12__value_typeINS_12basic_stringIcNS_11char_traitsIcEENS_9allocatorIcEEEEPN4tbin5LayerEEEPvEENS_22__tree_node_destructorINS6_ISE_EEEEEC1B9nqe210106ILb1EvEEPSE_NS_16__dependent_typeINS_27__unique_ptr_deleter_sfinaeISH_EEXT_EE20__good_rval_ref_typeE, symObjAddr: 0x25030, symBinAddr: 0x2A710, symSize: 0x30 }
  - { offset: 0xE41BD, size: 0x8, addend: 0x0, symName: __ZNSt3__116allocator_traitsINS_9allocatorINS_11__tree_nodeINS_12__value_typeINS_12basic_stringIcNS_11char_traitsIcEENS1_IcEEEEPN4tbin5LayerEEEPvEEEEE9constructB9nqe210106INS_4pairIKS8_SB_EEJRKNS_21piecewise_construct_tENS_5tupleIJRSJ_EEENSO_IJEEEELi0EEEvRSF_PT_DpOT0_, symObjAddr: 0x25060, symBinAddr: 0x2A740, symSize: 0x40 }
  - { offset: 0xE4245, size: 0x8, addend: 0x0, symName: __ZNKSt3__110unique_ptrINS_11__tree_nodeINS_12__value_typeINS_12basic_stringIcNS_11char_traitsIcEENS_9allocatorIcEEEEPN4tbin5LayerEEEPvEENS_22__tree_node_destructorINS6_ISE_EEEEEptB9nqe210106Ev, symObjAddr: 0x250A0, symBinAddr: 0x2A780, symSize: 0x20 }
  - { offset: 0xE426B, size: 0x8, addend: 0x0, symName: __ZNSt3__110unique_ptrINS_11__tree_nodeINS_12__value_typeINS_12basic_stringIcNS_11char_traitsIcEENS_9allocatorIcEEEEPN4tbin5LayerEEEPvEENS_22__tree_node_destructorINS6_ISE_EEEEE11get_deleterB9nqe210106Ev, symObjAddr: 0x250C0, symBinAddr: 0x2A7A0, symSize: 0x20 }
  - { offset: 0xE4291, size: 0x8, addend: 0x0, symName: __ZNSt3__19allocatorINS_11__tree_nodeINS_12__value_typeINS_12basic_stringIcNS_11char_traitsIcEENS0_IcEEEEPN4tbin5LayerEEEPvEEE8allocateB9nqe210106Em, symObjAddr: 0x250E0, symBinAddr: 0x2A7C0, symSize: 0x50 }
  - { offset: 0xE42D0, size: 0x8, addend: 0x0, symName: __ZNSt3__116allocator_traitsINS_9allocatorINS_11__tree_nodeINS_12__value_typeINS_12basic_stringIcNS_11char_traitsIcEENS1_IcEEEEPN4tbin5LayerEEEPvEEEEE8max_sizeB9nqe210106ISF_Li0EEEmRKSF_, symObjAddr: 0x25130, symBinAddr: 0x2A810, symSize: 0x20 }
  - { offset: 0xE4303, size: 0x8, addend: 0x0, symName: __ZNKSt3__19allocatorINS_11__tree_nodeINS_12__value_typeINS_12basic_stringIcNS_11char_traitsIcEENS0_IcEEEEPN4tbin5LayerEEEPvEEE8max_sizeB9nqe210106Ev, symObjAddr: 0x251B0, symBinAddr: 0x2A890, symSize: 0x20 }
  - { offset: 0xE4329, size: 0x8, addend: 0x0, symName: __ZNSt3__122__tree_node_destructorINS_9allocatorINS_11__tree_nodeINS_12__value_typeINS_12basic_stringIcNS_11char_traitsIcEENS1_IcEEEEPN4tbin5LayerEEEPvEEEEEC2B9nqe210106ERSF_b, symObjAddr: 0x251D0, symBinAddr: 0x2A8B0, symSize: 0x30 }
  - { offset: 0xE4371, size: 0x8, addend: 0x0, symName: __ZNSt3__110unique_ptrINS_11__tree_nodeINS_12__value_typeINS_12basic_stringIcNS_11char_traitsIcEENS_9allocatorIcEEEEPN4tbin5LayerEEEPvEENS_22__tree_node_destructorINS6_ISE_EEEEEC2B9nqe210106ILb1EvEEPSE_NS_16__dependent_typeINS_27__unique_ptr_deleter_sfinaeISH_EEXT_EE20__good_rval_ref_typeE, symObjAddr: 0x25200, symBinAddr: 0x2A8E0, symSize: 0x50 }
  - { offset: 0xE43C7, size: 0x8, addend: 0x0, symName: __ZNSt3__125__compressed_pair_paddingINS_22__tree_node_destructorINS_9allocatorINS_11__tree_nodeINS_12__value_typeINS_12basic_stringIcNS_11char_traitsIcEENS2_IcEEEEPN4tbin5LayerEEEPvEEEEEELb0EEC1Ev, symObjAddr: 0x25250, symBinAddr: 0x2A930, symSize: 0x20 }
  - { offset: 0xE43F3, size: 0x8, addend: 0x0, symName: __ZNSt3__125__compressed_pair_paddingINS_22__tree_node_destructorINS_9allocatorINS_11__tree_nodeINS_12__value_typeINS_12basic_stringIcNS_11char_traitsIcEENS2_IcEEEEPN4tbin5LayerEEEPvEEEEEELb0EEC2Ev, symObjAddr: 0x25270, symBinAddr: 0x2A950, symSize: 0x40 }
  - { offset: 0xE441F, size: 0x8, addend: 0x0, symName: __ZNSt3__19allocatorINS_11__tree_nodeINS_12__value_typeINS_12basic_stringIcNS_11char_traitsIcEENS0_IcEEEEPN4tbin5LayerEEEPvEEE9constructB9nqe210106INS_4pairIKS7_SA_EEJRKNS_21piecewise_construct_tENS_5tupleIJRSH_EEENSM_IJEEEEEEvPT_DpOT0_, symObjAddr: 0x252B0, symBinAddr: 0x2A990, symSize: 0x40 }
  - { offset: 0xE449F, size: 0x8, addend: 0x0, symName: __ZNSt3__14pairIKNS_12basic_stringIcNS_11char_traitsIcEENS_9allocatorIcEEEEPN4tbin5LayerEEC1B9nqe210106IJRS7_EJEEENS_21piecewise_construct_tENS_5tupleIJDpT_EEENSF_IJDpT0_EEE, symObjAddr: 0x252F0, symBinAddr: 0x2A9D0, symSize: 0x30 }
  - { offset: 0xE4506, size: 0x8, addend: 0x0, symName: __ZNSt3__14pairIKNS_12basic_stringIcNS_11char_traitsIcEENS_9allocatorIcEEEEPN4tbin5LayerEEC1B9nqe210106IJRS7_EJEJLm0EEJEEENS_21piecewise_construct_tERNS_5tupleIJDpT_EEERNSF_IJDpT0_EEENS_15__tuple_indicesIJXspT1_EEEENSO_IJXspT2_EEEE, symObjAddr: 0x25320, symBinAddr: 0x2AA00, symSize: 0x30 }
  - { offset: 0xE4598, size: 0x8, addend: 0x0, symName: __ZNSt3__14pairIKNS_12basic_stringIcNS_11char_traitsIcEENS_9allocatorIcEEEEPN4tbin5LayerEEC2B9nqe210106IJRS7_EJEJLm0EEJEEENS_21piecewise_construct_tERNS_5tupleIJDpT_EEERNSF_IJDpT0_EEENS_15__tuple_indicesIJXspT1_EEEENSO_IJXspT2_EEEE, symObjAddr: 0x25350, symBinAddr: 0x2AA30, symSize: 0x50 }
  - { offset: 0xE462A, size: 0x8, addend: 0x0, symName: __ZNSt3__16__treeINS_12__value_typeINS_12basic_stringIcNS_11char_traitsIcEENS_9allocatorIcEEEEPN4tbin5LayerEEENS_19__map_value_compareIS7_NS_4pairIKS7_SA_EENS_4lessIS7_EELb1EEENS5_ISF_EEE4sizeB9nqe210106Ev, symObjAddr: 0x253A0, symBinAddr: 0x2AA80, symSize: 0x20 }
  - { offset: 0xE4650, size: 0x8, addend: 0x0, symName: __ZNSt3__110unique_ptrINS_11__tree_nodeINS_12__value_typeINS_12basic_stringIcNS_11char_traitsIcEENS_9allocatorIcEEEEPN4tbin5LayerEEEPvEENS_22__tree_node_destructorINS6_ISE_EEEEED2B9nqe210106Ev, symObjAddr: 0x253C0, symBinAddr: 0x2AAA0, symSize: 0x20 }
  - { offset: 0xE467A, size: 0x8, addend: 0x0, symName: __ZNSt3__110unique_ptrINS_11__tree_nodeINS_12__value_typeINS_12basic_stringIcNS_11char_traitsIcEENS_9allocatorIcEEEEPN4tbin5LayerEEEPvEENS_22__tree_node_destructorINS6_ISE_EEEEE5resetB9nqe210106EPSE_, symObjAddr: 0x253E0, symBinAddr: 0x2AAC0, symSize: 0x50 }
  - { offset: 0xE46BE, size: 0x8, addend: 0x0, symName: __ZNSt3__122__tree_node_destructorINS_9allocatorINS_11__tree_nodeINS_12__value_typeINS_12basic_stringIcNS_11char_traitsIcEENS1_IcEEEEPN4tbin5LayerEEEPvEEEEEclB9nqe210106EPSE_, symObjAddr: 0x25430, symBinAddr: 0x2AB10, symSize: 0x60 }
  - { offset: 0xE46F3, size: 0x8, addend: 0x0, symName: __ZNSt3__115__tree_iteratorINS_12__value_typeINS_12basic_stringIcNS_11char_traitsIcEENS_9allocatorIcEEEEPN4tbin5LayerEEEPNS_11__tree_nodeISB_PvEElEC2B9nqe210106ESF_, symObjAddr: 0x25490, symBinAddr: 0x2AB70, symSize: 0x20 }
  - { offset: 0xE472C, size: 0x8, addend: 0x0, symName: __ZNSt3__14pairINS_15__tree_iteratorINS_12__value_typeINS_12basic_stringIcNS_11char_traitsIcEENS_9allocatorIcEEEEPN4tbin5LayerEEEPNS_11__tree_nodeISC_PvEElEEbEC2B9nqe210106ISH_RbLi0EEEOT_OT0_, symObjAddr: 0x254B0, symBinAddr: 0x2AB90, symSize: 0x30 }
  - { offset: 0xE478A, size: 0x8, addend: 0x0, symName: __ZNSt3__114pointer_traitsIPNS_4pairIKNS_12basic_stringIcNS_11char_traitsIcEENS_9allocatorIcEEEEPN4tbin5LayerEEEE10pointer_toB9nqe210106ERSC_, symObjAddr: 0x254E0, symBinAddr: 0x2ABC0, symSize: 0x10 }
  - { offset: 0xE47AD, size: 0x8, addend: 0x0, symName: __ZNKSt3__115__tree_iteratorINS_12__value_typeINS_12basic_stringIcNS_11char_traitsIcEENS_9allocatorIcEEEEPN4tbin5LayerEEEPNS_11__tree_nodeISB_PvEElE8__get_npB9nqe210106Ev, symObjAddr: 0x254F0, symBinAddr: 0x2ABD0, symSize: 0x20 }
  - { offset: 0xE47D3, size: 0x8, addend: 0x0, symName: __ZNSt3__16vectorIPN5Tiled11ObjectGroupENS_9allocatorIS3_EEE11__make_iterB9nqe210106EPS3_, symObjAddr: 0x25510, symBinAddr: 0x2ABF0, symSize: 0x30 }
  - { offset: 0xE4808, size: 0x8, addend: 0x0, symName: __ZNSt3__16vectorIPN5Tiled11ObjectGroupENS_9allocatorIS3_EEE26__add_alignment_assumptionB9nqe210106IPS3_Li0EEES8_T_, symObjAddr: 0x25540, symBinAddr: 0x2AC20, symSize: 0x10 }
  - { offset: 0xE483B, size: 0x8, addend: 0x0, symName: __ZNSt3__111__wrap_iterIPPN5Tiled11ObjectGroupEEC1B9nqe210106ES4_, symObjAddr: 0x25550, symBinAddr: 0x2AC30, symSize: 0x30 }
  - { offset: 0xE4873, size: 0x8, addend: 0x0, symName: __ZNSt3__111__wrap_iterIPPN5Tiled11ObjectGroupEEC2B9nqe210106ES4_, symObjAddr: 0x25580, symBinAddr: 0x2AC60, symSize: 0x20 }
  - { offset: 0xE48AB, size: 0x8, addend: 0x0, symName: __ZNSt3__16__treeINS_12__value_typeINS_12basic_stringIcNS_11char_traitsIcEENS_9allocatorIcEEEEPN4tbin5LayerEEENS_19__map_value_compareIS7_NS_4pairIKS7_SA_EENS_4lessIS7_EELb1EEENS5_ISF_EEE25__emplace_unique_key_argsIS7_JRKNS_21piecewise_construct_tENS_5tupleIJOS7_EEENSP_IJEEEEEENSD_INS_15__tree_iteratorISB_PNS_11__tree_nodeISB_PvEElEEbEERKT_DpOT0_, symObjAddr: 0x255A0, symBinAddr: 0x2AC80, symSize: 0x100 }
  - { offset: 0xE498D, size: 0x8, addend: 0x0, symName: __ZNSt3__16__treeINS_12__value_typeINS_12basic_stringIcNS_11char_traitsIcEENS_9allocatorIcEEEEPN4tbin5LayerEEENS_19__map_value_compareIS7_NS_4pairIKS7_SA_EENS_4lessIS7_EELb1EEENS5_ISF_EEE16__construct_nodeIJRKNS_21piecewise_construct_tENS_5tupleIJOS7_EEENSP_IJEEEEEENS_10unique_ptrINS_11__tree_nodeISB_PvEENS_22__tree_node_destructorINS5_ISW_EEEEEEDpOT_, symObjAddr: 0x256A0, symBinAddr: 0x2AD80, symSize: 0xF0 }
  - { offset: 0xE4A18, size: 0x8, addend: 0x0, symName: __ZNSt3__116allocator_traitsINS_9allocatorINS_11__tree_nodeINS_12__value_typeINS_12basic_stringIcNS_11char_traitsIcEENS1_IcEEEEPN4tbin5LayerEEEPvEEEEE9constructB9nqe210106INS_4pairIKS8_SB_EEJRKNS_21piecewise_construct_tENS_5tupleIJOS8_EEENSO_IJEEEELi0EEEvRSF_PT_DpOT0_, symObjAddr: 0x25790, symBinAddr: 0x2AE70, symSize: 0x40 }
  - { offset: 0xE4AA0, size: 0x8, addend: 0x0, symName: __ZNSt3__19allocatorINS_11__tree_nodeINS_12__value_typeINS_12basic_stringIcNS_11char_traitsIcEENS0_IcEEEEPN4tbin5LayerEEEPvEEE9constructB9nqe210106INS_4pairIKS7_SA_EEJRKNS_21piecewise_construct_tENS_5tupleIJOS7_EEENSM_IJEEEEEEvPT_DpOT0_, symObjAddr: 0x257D0, symBinAddr: 0x2AEB0, symSize: 0x40 }
  - { offset: 0xE4B20, size: 0x8, addend: 0x0, symName: __ZNSt3__14pairIKNS_12basic_stringIcNS_11char_traitsIcEENS_9allocatorIcEEEEPN4tbin5LayerEEC1B9nqe210106IJOS6_EJEEENS_21piecewise_construct_tENS_5tupleIJDpT_EEENSF_IJDpT0_EEE, symObjAddr: 0x25810, symBinAddr: 0x2AEF0, symSize: 0x40 }
  - { offset: 0xE4B87, size: 0x8, addend: 0x0, symName: __ZNSt3__14pairIKNS_12basic_stringIcNS_11char_traitsIcEENS_9allocatorIcEEEEPN4tbin5LayerEEC1B9nqe210106IJOS6_EJEJLm0EEJEEENS_21piecewise_construct_tERNS_5tupleIJDpT_EEERNSF_IJDpT0_EEENS_15__tuple_indicesIJXspT1_EEEENSO_IJXspT2_EEEE, symObjAddr: 0x25850, symBinAddr: 0x2AF30, symSize: 0x30 }
  - { offset: 0xE4C19, size: 0x8, addend: 0x0, symName: __ZNSt3__14pairIKNS_12basic_stringIcNS_11char_traitsIcEENS_9allocatorIcEEEEPN4tbin5LayerEEC2B9nqe210106IJOS6_EJEJLm0EEJEEENS_21piecewise_construct_tERNS_5tupleIJDpT_EEERNSF_IJDpT0_EEENS_15__tuple_indicesIJXspT1_EEEENSO_IJXspT2_EEEE, symObjAddr: 0x25880, symBinAddr: 0x2AF60, symSize: 0x50 }
  - { offset: 0xE4CAB, size: 0x8, addend: 0x0, symName: __ZNSt3__18functionIFvvEEC2IN5Tiled11SelectLayerEvEET_, symObjAddr: 0x258D0, symBinAddr: 0x2AFB0, symSize: 0x20 }
  - { offset: 0xE4CEF, size: 0x8, addend: 0x0, symName: __ZNSt3__110__function12__value_funcIFvvEEC1B9nqe210106IN5Tiled11SelectLayerELi0EEEOT_, symObjAddr: 0x258F0, symBinAddr: 0x2AFD0, symSize: 0x30 }
  - { offset: 0xE4D36, size: 0x8, addend: 0x0, symName: __ZNSt3__110__function12__value_funcIFvvEEC2B9nqe210106IN5Tiled11SelectLayerELi0EEEOT_, symObjAddr: 0x25920, symBinAddr: 0x2B000, symSize: 0x90 }
  - { offset: 0xE4D7D, size: 0x8, addend: 0x0, symName: __ZNSt3__110__function6__funcIN5Tiled11SelectLayerEFvvEEC1B9nqe210106EOS3_, symObjAddr: 0x259C0, symBinAddr: 0x2B0A0, symSize: 0x30 }
  - { offset: 0xE4DB5, size: 0x8, addend: 0x0, symName: __ZNSt3__110__function6__funcIN5Tiled11SelectLayerEFvvEEC2B9nqe210106EOS3_, symObjAddr: 0x259F0, symBinAddr: 0x2B0D0, symSize: 0x50 }
  - { offset: 0xE4DED, size: 0x8, addend: 0x0, symName: __ZN5Tiled11SelectLayerC1EOS0_, symObjAddr: 0x25A40, symBinAddr: 0x2B120, symSize: 0x30 }
  - { offset: 0xE4E22, size: 0x8, addend: 0x0, symName: __ZNSt3__110__function6__funcIN5Tiled11SelectLayerEFvvEED1Ev, symObjAddr: 0x25A70, symBinAddr: 0x2B150, symSize: 0x20 }
  - { offset: 0xE4E4E, size: 0x8, addend: 0x0, symName: __ZNSt3__110__function6__funcIN5Tiled11SelectLayerEFvvEED0Ev, symObjAddr: 0x25A90, symBinAddr: 0x2B170, symSize: 0x30 }
  - { offset: 0xE4E7A, size: 0x8, addend: 0x0, symName: __ZNKSt3__110__function6__funcIN5Tiled11SelectLayerEFvvEE7__cloneEv, symObjAddr: 0x25AC0, symBinAddr: 0x2B1A0, symSize: 0x60 }
  - { offset: 0xE4EA0, size: 0x8, addend: 0x0, symName: __ZNKSt3__110__function6__funcIN5Tiled11SelectLayerEFvvEE7__cloneEPNS0_6__baseIS4_EE, symObjAddr: 0x25B20, symBinAddr: 0x2B200, symSize: 0x30 }
  - { offset: 0xE4ED4, size: 0x8, addend: 0x0, symName: __ZNSt3__110__function6__funcIN5Tiled11SelectLayerEFvvEE7destroyEv, symObjAddr: 0x25B50, symBinAddr: 0x2B230, symSize: 0x20 }
  - { offset: 0xE4EFA, size: 0x8, addend: 0x0, symName: __ZNSt3__110__function6__funcIN5Tiled11SelectLayerEFvvEE18destroy_deallocateEv, symObjAddr: 0x25B70, symBinAddr: 0x2B250, symSize: 0x30 }
  - { offset: 0xE4F20, size: 0x8, addend: 0x0, symName: __ZNSt3__110__function6__funcIN5Tiled11SelectLayerEFvvEEclEv, symObjAddr: 0x25BA0, symBinAddr: 0x2B280, symSize: 0x20 }
  - { offset: 0xE4F46, size: 0x8, addend: 0x0, symName: __ZNKSt3__110__function6__funcIN5Tiled11SelectLayerEFvvEE6targetERKSt9type_info, symObjAddr: 0x25BC0, symBinAddr: 0x2B2A0, symSize: 0x50 }
  - { offset: 0xE4F7A, size: 0x8, addend: 0x0, symName: __ZNKSt3__110__function6__funcIN5Tiled11SelectLayerEFvvEE11target_typeEv, symObjAddr: 0x25C10, symBinAddr: 0x2B2F0, symSize: 0x20 }
  - { offset: 0xE4FA0, size: 0x8, addend: 0x0, symName: __ZN5Tiled11SelectLayerC2EOS0_, symObjAddr: 0x25C30, symBinAddr: 0x2B310, symSize: 0x40 }
  - { offset: 0xE4FD5, size: 0x8, addend: 0x0, symName: __ZNSt3__110__function6__funcIN5Tiled11SelectLayerEFvvEED2Ev, symObjAddr: 0x25C70, symBinAddr: 0x2B350, symSize: 0x40 }
  - { offset: 0xE5001, size: 0x8, addend: 0x0, symName: __ZNSt3__110__function6__funcIN5Tiled11SelectLayerEFvvEEC1B9nqe210106ERKS3_, symObjAddr: 0x25CB0, symBinAddr: 0x2B390, symSize: 0x30 }
  - { offset: 0xE5039, size: 0x8, addend: 0x0, symName: __ZNSt3__110__function6__funcIN5Tiled11SelectLayerEFvvEEC2B9nqe210106ERKS3_, symObjAddr: 0x25CE0, symBinAddr: 0x2B3C0, symSize: 0x50 }
  - { offset: 0xE5071, size: 0x8, addend: 0x0, symName: __ZN5Tiled11SelectLayerC1ERKS0_, symObjAddr: 0x25D30, symBinAddr: 0x2B410, symSize: 0x30 }
  - { offset: 0xE50A6, size: 0x8, addend: 0x0, symName: __ZN5Tiled11SelectLayerC2ERKS0_, symObjAddr: 0x25D60, symBinAddr: 0x2B440, symSize: 0x40 }
  - { offset: 0xE50E1, size: 0x8, addend: 0x0, symName: __ZNSt3__128__invoke_void_return_wrapperIvLb1EE6__callB9nqe210106IJRN5Tiled11SelectLayerEEEEvDpOT_, symObjAddr: 0x25DC0, symBinAddr: 0x2B4A0, symSize: 0x20 }
  - { offset: 0xE5112, size: 0x8, addend: 0x0, symName: __ZNK5Tiled11ActivatableINS_11SelectLayerEEclEv, symObjAddr: 0x25E00, symBinAddr: 0x2B4E0, symSize: 0x30 }
  - { offset: 0xE5138, size: 0x8, addend: 0x0, symName: __ZNKSt3__18functionIFvRKN5Tiled11SelectLayerEEEclES4_, symObjAddr: 0x25E30, symBinAddr: 0x2B510, symSize: 0x30 }
  - { offset: 0xE516F, size: 0x8, addend: 0x0, symName: __ZNKSt3__110__function12__value_funcIFvRKN5Tiled11SelectLayerEEEclB9nqe210106ES5_, symObjAddr: 0x25E60, symBinAddr: 0x2B540, symSize: 0x40 }
  - { offset: 0xE51A4, size: 0x8, addend: 0x0, symName: __ZNSt3__18functionIFvRKN5Tiled11SelectLayerEEEC2B9nqe210106Ev, symObjAddr: 0x25EA0, symBinAddr: 0x2B580, symSize: 0x20 }
  - { offset: 0xE51CE, size: 0x8, addend: 0x0, symName: __ZNSt3__110__function12__value_funcIFvRKN5Tiled11SelectLayerEEEC1B9nqe210106Ev, symObjAddr: 0x25EC0, symBinAddr: 0x2B5A0, symSize: 0x20 }
  - { offset: 0xE51F8, size: 0x8, addend: 0x0, symName: __ZNSt3__110__function12__value_funcIFvRKN5Tiled11SelectLayerEEEC2B9nqe210106Ev, symObjAddr: 0x25EE0, symBinAddr: 0x2B5C0, symSize: 0x20 }
  - { offset: 0xE5222, size: 0x8, addend: 0x0, symName: __ZNSt3__18functionIFvRKN5Tiled11SelectLayerEEED2Ev, symObjAddr: 0x25F00, symBinAddr: 0x2B5E0, symSize: 0x20 }
  - { offset: 0xE524C, size: 0x8, addend: 0x0, symName: __ZNSt3__110__function12__value_funcIFvRKN5Tiled11SelectLayerEEED1B9nqe210106Ev, symObjAddr: 0x25F20, symBinAddr: 0x2B600, symSize: 0x20 }
  - { offset: 0xE5276, size: 0x8, addend: 0x0, symName: __ZNSt3__110__function12__value_funcIFvRKN5Tiled11SelectLayerEEED2B9nqe210106Ev, symObjAddr: 0x25F40, symBinAddr: 0x2B620, symSize: 0x50 }
  - { offset: 0xE52A0, size: 0x8, addend: 0x0, symName: __ZNSt3__18functionIFvvEEC2IN5Tiled12JumpToObjectEvEET_, symObjAddr: 0x25F90, symBinAddr: 0x2B670, symSize: 0x20 }
  - { offset: 0xE52E4, size: 0x8, addend: 0x0, symName: __ZNSt3__110__function12__value_funcIFvvEEC1B9nqe210106IN5Tiled12JumpToObjectELi0EEEOT_, symObjAddr: 0x25FB0, symBinAddr: 0x2B690, symSize: 0x30 }
  - { offset: 0xE532B, size: 0x8, addend: 0x0, symName: __ZNSt3__110__function12__value_funcIFvvEEC2B9nqe210106IN5Tiled12JumpToObjectELi0EEEOT_, symObjAddr: 0x25FE0, symBinAddr: 0x2B6C0, symSize: 0x90 }
  - { offset: 0xE5372, size: 0x8, addend: 0x0, symName: __ZNSt3__110__function6__funcIN5Tiled12JumpToObjectEFvvEEC1B9nqe210106EOS3_, symObjAddr: 0x26080, symBinAddr: 0x2B760, symSize: 0x30 }
  - { offset: 0xE53AA, size: 0x8, addend: 0x0, symName: __ZNSt3__110__function6__funcIN5Tiled12JumpToObjectEFvvEEC2B9nqe210106EOS3_, symObjAddr: 0x260B0, symBinAddr: 0x2B790, symSize: 0x50 }
  - { offset: 0xE53E2, size: 0x8, addend: 0x0, symName: __ZN5Tiled12JumpToObjectC1EOS0_, symObjAddr: 0x26100, symBinAddr: 0x2B7E0, symSize: 0x30 }
  - { offset: 0xE5417, size: 0x8, addend: 0x0, symName: __ZNSt3__110__function6__funcIN5Tiled12JumpToObjectEFvvEED1Ev, symObjAddr: 0x26130, symBinAddr: 0x2B810, symSize: 0x20 }
  - { offset: 0xE5443, size: 0x8, addend: 0x0, symName: __ZNSt3__110__function6__funcIN5Tiled12JumpToObjectEFvvEED0Ev, symObjAddr: 0x26150, symBinAddr: 0x2B830, symSize: 0x30 }
  - { offset: 0xE546F, size: 0x8, addend: 0x0, symName: __ZNKSt3__110__function6__funcIN5Tiled12JumpToObjectEFvvEE7__cloneEv, symObjAddr: 0x26180, symBinAddr: 0x2B860, symSize: 0x60 }
  - { offset: 0xE5495, size: 0x8, addend: 0x0, symName: __ZNKSt3__110__function6__funcIN5Tiled12JumpToObjectEFvvEE7__cloneEPNS0_6__baseIS4_EE, symObjAddr: 0x261E0, symBinAddr: 0x2B8C0, symSize: 0x30 }
  - { offset: 0xE54C9, size: 0x8, addend: 0x0, symName: __ZNSt3__110__function6__funcIN5Tiled12JumpToObjectEFvvEE7destroyEv, symObjAddr: 0x26210, symBinAddr: 0x2B8F0, symSize: 0x20 }
  - { offset: 0xE54EF, size: 0x8, addend: 0x0, symName: __ZNSt3__110__function6__funcIN5Tiled12JumpToObjectEFvvEE18destroy_deallocateEv, symObjAddr: 0x26230, symBinAddr: 0x2B910, symSize: 0x30 }
  - { offset: 0xE5515, size: 0x8, addend: 0x0, symName: __ZNSt3__110__function6__funcIN5Tiled12JumpToObjectEFvvEEclEv, symObjAddr: 0x26260, symBinAddr: 0x2B940, symSize: 0x20 }
  - { offset: 0xE553B, size: 0x8, addend: 0x0, symName: __ZNKSt3__110__function6__funcIN5Tiled12JumpToObjectEFvvEE6targetERKSt9type_info, symObjAddr: 0x26280, symBinAddr: 0x2B960, symSize: 0x50 }
  - { offset: 0xE556F, size: 0x8, addend: 0x0, symName: __ZNKSt3__110__function6__funcIN5Tiled12JumpToObjectEFvvEE11target_typeEv, symObjAddr: 0x262D0, symBinAddr: 0x2B9B0, symSize: 0x20 }
  - { offset: 0xE5595, size: 0x8, addend: 0x0, symName: __ZN5Tiled12JumpToObjectC2EOS0_, symObjAddr: 0x262F0, symBinAddr: 0x2B9D0, symSize: 0x40 }
  - { offset: 0xE55CA, size: 0x8, addend: 0x0, symName: __ZNSt3__110__function6__funcIN5Tiled12JumpToObjectEFvvEED2Ev, symObjAddr: 0x26330, symBinAddr: 0x2BA10, symSize: 0x40 }
  - { offset: 0xE55F6, size: 0x8, addend: 0x0, symName: __ZNSt3__110__function6__funcIN5Tiled12JumpToObjectEFvvEEC1B9nqe210106ERKS3_, symObjAddr: 0x26370, symBinAddr: 0x2BA50, symSize: 0x30 }
  - { offset: 0xE562E, size: 0x8, addend: 0x0, symName: __ZNSt3__110__function6__funcIN5Tiled12JumpToObjectEFvvEEC2B9nqe210106ERKS3_, symObjAddr: 0x263A0, symBinAddr: 0x2BA80, symSize: 0x50 }
  - { offset: 0xE5666, size: 0x8, addend: 0x0, symName: __ZN5Tiled12JumpToObjectC1ERKS0_, symObjAddr: 0x263F0, symBinAddr: 0x2BAD0, symSize: 0x30 }
  - { offset: 0xE569B, size: 0x8, addend: 0x0, symName: __ZN5Tiled12JumpToObjectC2ERKS0_, symObjAddr: 0x26420, symBinAddr: 0x2BB00, symSize: 0x40 }
  - { offset: 0xE56D6, size: 0x8, addend: 0x0, symName: __ZNSt3__128__invoke_void_return_wrapperIvLb1EE6__callB9nqe210106IJRN5Tiled12JumpToObjectEEEEvDpOT_, symObjAddr: 0x26480, symBinAddr: 0x2BB60, symSize: 0x20 }
  - { offset: 0xE5707, size: 0x8, addend: 0x0, symName: __ZNK5Tiled11ActivatableINS_12JumpToObjectEEclEv, symObjAddr: 0x264C0, symBinAddr: 0x2BBA0, symSize: 0x30 }
  - { offset: 0xE572D, size: 0x8, addend: 0x0, symName: __ZNKSt3__18functionIFvRKN5Tiled12JumpToObjectEEEclES4_, symObjAddr: 0x264F0, symBinAddr: 0x2BBD0, symSize: 0x30 }
  - { offset: 0xE5764, size: 0x8, addend: 0x0, symName: __ZNKSt3__110__function12__value_funcIFvRKN5Tiled12JumpToObjectEEEclB9nqe210106ES5_, symObjAddr: 0x26520, symBinAddr: 0x2BC00, symSize: 0x40 }
  - { offset: 0xE5799, size: 0x8, addend: 0x0, symName: __ZNSt3__18functionIFvRKN5Tiled12JumpToObjectEEEC2B9nqe210106Ev, symObjAddr: 0x26560, symBinAddr: 0x2BC40, symSize: 0x20 }
  - { offset: 0xE57C3, size: 0x8, addend: 0x0, symName: __ZNSt3__110__function12__value_funcIFvRKN5Tiled12JumpToObjectEEEC1B9nqe210106Ev, symObjAddr: 0x26580, symBinAddr: 0x2BC60, symSize: 0x20 }
  - { offset: 0xE57ED, size: 0x8, addend: 0x0, symName: __ZNSt3__110__function12__value_funcIFvRKN5Tiled12JumpToObjectEEEC2B9nqe210106Ev, symObjAddr: 0x265A0, symBinAddr: 0x2BC80, symSize: 0x20 }
  - { offset: 0xE5817, size: 0x8, addend: 0x0, symName: __ZNSt3__18functionIFvRKN5Tiled12JumpToObjectEEED2Ev, symObjAddr: 0x265C0, symBinAddr: 0x2BCA0, symSize: 0x20 }
  - { offset: 0xE5841, size: 0x8, addend: 0x0, symName: __ZNSt3__110__function12__value_funcIFvRKN5Tiled12JumpToObjectEEED1B9nqe210106Ev, symObjAddr: 0x265E0, symBinAddr: 0x2BCC0, symSize: 0x20 }
  - { offset: 0xE586B, size: 0x8, addend: 0x0, symName: __ZNSt3__110__function12__value_funcIFvRKN5Tiled12JumpToObjectEEED2B9nqe210106Ev, symObjAddr: 0x26600, symBinAddr: 0x2BCE0, symSize: 0x4E }
  - { offset: 0xE889C, size: 0x8, addend: 0x0, symName: __ZN9QtPrivateL19lengthHelperPointerIcEExPKT_, symObjAddr: 0x9420, symBinAddr: 0x34860, symSize: 0x50 }
  - { offset: 0xF66CB, size: 0x8, addend: 0x0, symName: __ZNSt3__17advanceB9nqe210106IPN4tbin4TileEllLi0EEEvRT_T0_, symObjAddr: 0xCFC0, symBinAddr: 0x35540, symSize: 0x30 }
  - { offset: 0xFA145, size: 0x8, addend: 0x0, symName: __ZNSt3__1neB9nqe210106IPN4tbin9TileSheetEEEbRKNS_11__wrap_iterIT_EES8_, symObjAddr: 0x72C0, symBinAddr: 0x32C60, symSize: 0x30 }
  - { offset: 0xFA188, size: 0x8, addend: 0x0, symName: __ZNSt3__1neB9nqe210106IPN4tbin5LayerEEEbRKNS_11__wrap_iterIT_EES8_, symObjAddr: 0x8320, symBinAddr: 0x33C30, symSize: 0x30 }
  - { offset: 0xFA1CB, size: 0x8, addend: 0x0, symName: __ZNSt3__1neB9nqe210106IcNS_11char_traitsIcEENS_9allocatorIcEEEEbRKNS_12basic_stringIT_T0_T1_EEPKS6_, symObjAddr: 0x83C0, symBinAddr: 0x33C80, symSize: 0x30 }
  - { offset: 0xFA223, size: 0x8, addend: 0x0, symName: __ZNSt3__1neB9nqe210106IPN4tbin4TileEEEbRKNS_11__wrap_iterIT_EES8_, symObjAddr: 0x8CC0, symBinAddr: 0x344D0, symSize: 0x30 }
  - { offset: 0xFA266, size: 0x8, addend: 0x0, symName: __ZNSt3__17destroyB9nqe210106IP19QXmlStreamAttributeEEvT_S3_, symObjAddr: 0x9FA0, symBinAddr: 0x34B60, symSize: 0x30 }
  - { offset: 0xFA2A5, size: 0x8, addend: 0x0, symName: __ZNSt3__19__destroyB9nqe210106IP19QXmlStreamAttributeEET_S3_S3_, symObjAddr: 0xA0C0, symBinAddr: 0x34BE0, symSize: 0x40 }
  - { offset: 0xFA2E8, size: 0x8, addend: 0x0, symName: __ZNSt3__112__destroy_atB9nqe210106I19QXmlStreamAttributeLi0EEEvPT_, symObjAddr: 0xA100, symBinAddr: 0x34C20, symSize: 0x20 }
  - { offset: 0xFA40C, size: 0x8, addend: 0x0, symName: __ZNSt3__19make_pairB9nqe210106IRKNS_12basic_stringIcNS_11char_traitsIcEENS_9allocatorIcEEEERN4tbin13PropertyValueEEENS_4pairINS_18__unwrap_referenceIu7__decayIT_EE4typeENSD_Iu7__decayIT0_EE4typeEEEOSE_OSI_, symObjAddr: 0xA2B0, symBinAddr: 0x34D60, symSize: 0x40 }
  - { offset: 0xFA45B, size: 0x8, addend: 0x0, symName: __ZNSt3__18distanceB9nqe210106IPN4tbin4TileEEENS_15iterator_traitsIT_E15difference_typeES5_S5_, symObjAddr: 0xCD00, symBinAddr: 0x35410, symSize: 0x30 }
  - { offset: 0xFA49E, size: 0x8, addend: 0x0, symName: __ZNSt3__14nextB9nqe210106IPN4tbin4TileELi0EEET_S4_NS_15iterator_traitsIS4_E15difference_typeE, symObjAddr: 0xCD30, symBinAddr: 0x35440, symSize: 0x30 }
  - { offset: 0xFA4E7, size: 0x8, addend: 0x0, symName: __ZNSt3__14copyB9nqe210106IPN4tbin4TileES3_EET0_T_S5_S4_, symObjAddr: 0xCD60, symBinAddr: 0x35470, symSize: 0x40 }
  - { offset: 0xFA541, size: 0x8, addend: 0x0, symName: __ZNSt3__16__copyB9nqe210106IPN4tbin4TileES3_S3_EENS_4pairIT_T1_EES5_T0_S6_, symObjAddr: 0xCE30, symBinAddr: 0x354B0, symSize: 0x40 }
  - { offset: 0xFA5A4, size: 0x8, addend: 0x0, symName: __ZNSt3__19__advanceB9nqe210106IPN4tbin4TileEEEvRT_NS_15iterator_traitsIS4_E15difference_typeENS_26random_access_iterator_tagE, symObjAddr: 0xD000, symBinAddr: 0x35570, symSize: 0x20 }
  - { offset: 0xFA6CC, size: 0x8, addend: 0x0, symName: __ZNSt3__124__copy_move_unwrap_itersB9nqe210106INS_11__copy_implEPN4tbin4TileES4_S4_Li0EEENS_4pairIT0_T2_EES6_T1_S7_, symObjAddr: 0xD8F0, symBinAddr: 0x35590, symSize: 0xB0 }
  - { offset: 0xFA7A4, size: 0x8, addend: 0x0, symName: __ZNSt3__114__rewrap_rangeB9nqe210106IPN4tbin4TileES3_EET_S4_T0_, symObjAddr: 0xDA10, symBinAddr: 0x356B0, symSize: 0x30 }
  - { offset: 0xFA7F0, size: 0x8, addend: 0x0, symName: __ZNSt3__110__distanceB9nqe210106IPN4tbin4TileEEENS_15iterator_traitsIT_E15difference_typeES5_S5_NS_26random_access_iterator_tagE, symObjAddr: 0xDDB0, symBinAddr: 0x356E0, symSize: 0x30 }
  - { offset: 0xFA83E, size: 0x8, addend: 0x0, symName: __ZNSt3__111__tree_leafB9nqe210106IPNS_16__tree_node_baseIPvEEEET_S5_, symObjAddr: 0xE720, symBinAddr: 0x35E30, symSize: 0x50 }
  - { offset: 0xFA873, size: 0x8, addend: 0x0, symName: __ZNSt3__1eqB9nqe210106IPN4tbin9TileSheetEEEbRKNS_11__wrap_iterIT_EES8_, symObjAddr: 0xFDC0, symBinAddr: 0x361C0, symSize: 0x40 }
  - { offset: 0xFA8B6, size: 0x8, addend: 0x0, symName: __ZNSt3__1eqB9nqe210106IPN4tbin5LayerEEEbRKNS_11__wrap_iterIT_EES8_, symObjAddr: 0xFFE0, symBinAddr: 0x36220, symSize: 0x40 }
  - { offset: 0xFA8F9, size: 0x8, addend: 0x0, symName: __ZNSt3__1eqB9nqe210106IPN4tbin4TileEEEbRKNS_11__wrap_iterIT_EES8_, symObjAddr: 0x10C10, symBinAddr: 0x36280, symSize: 0x40 }
  - { offset: 0x115895, size: 0x8, addend: 0x0, symName: __ZN4Tbin13TideMapFormatC2EP7QObject, symObjAddr: 0x0, symBinAddr: 0x2BE30, symSize: 0x50 }
  - { offset: 0x1158CF, size: 0x8, addend: 0x0, symName: __ZN4Tbin13TideMapFormatC1EP7QObject, symObjAddr: 0xB0, symBinAddr: 0x2BE80, symSize: 0x30 }
  - { offset: 0x115909, size: 0x8, addend: 0x0, symName: __ZN4Tbin13TideMapFormat4readERK7QString, symObjAddr: 0xE0, symBinAddr: 0x2BEB0, symSize: 0x29A0 }
  - { offset: 0x115C18, size: 0x8, addend: 0x0, symName: __ZorN13QIODeviceBase12OpenModeFlagES0_, symObjAddr: 0x2A80, symBinAddr: 0x2E850, symSize: 0x40 }
  - { offset: 0x115C52, size: 0x8, addend: 0x0, symName: __ZneRK11QStringViewRK13QLatin1String, symObjAddr: 0x2B40, symBinAddr: 0x2E890, symSize: 0x30 }
  - { offset: 0x115DD1, size: 0x8, addend: 0x0, symName: __ZN14QAnyStringViewC1E13QLatin1String, symObjAddr: 0x2BC0, symBinAddr: 0x2E8C0, symSize: 0x30 }
  - { offset: 0x115E0B, size: 0x8, addend: 0x0, symName: __ZNK11QStringView8toStringEv, symObjAddr: 0x2BF0, symBinAddr: 0x2E8F0, symSize: 0x50 }
  - { offset: 0x115E39, size: 0x8, addend: 0x0, symName: __ZNK7QString5toIntEPbi, symObjAddr: 0x2CC0, symBinAddr: 0x2E940, symSize: 0x40 }
  - { offset: 0x115E7D, size: 0x8, addend: 0x0, symName: __ZN4tbin8Vector2iC1Eii, symObjAddr: 0x2D00, symBinAddr: 0x2E980, symSize: 0x30 }
  - { offset: 0x115EC3, size: 0x8, addend: 0x0, symName: __ZN20QXmlStreamAttributesD1Ev, symObjAddr: 0x2D30, symBinAddr: 0x2E9B0, symSize: 0x20 }
  - { offset: 0x115EF9, size: 0x8, addend: 0x0, symName: '__ZZN4Tbin13TideMapFormat4readERK7QStringENK3$_0clEv', symObjAddr: 0x2D50, symBinAddr: 0x2E9D0, symSize: 0x540 }
  - { offset: 0x115F84, size: 0x8, addend: 0x0, symName: __ZNSt3__13mapINS_12basic_stringIcNS_11char_traitsIcEENS_9allocatorIcEEEEN4tbin13PropertyValueENS_4lessIS6_EENS4_INS_4pairIKS6_S8_EEEEEaSB9nqe210106EOSF_, symObjAddr: 0x3290, symBinAddr: 0x2EF10, symSize: 0x30 }
  - { offset: 0x115FB9, size: 0x8, addend: 0x0, symName: __ZNSt3__16vectorIN4tbin9TileSheetENS_9allocatorIS2_EEE9push_backB9nqe210106ERKS2_, symObjAddr: 0x32E0, symBinAddr: 0x2EF40, symSize: 0x30 }
  - { offset: 0x115FF3, size: 0x8, addend: 0x0, symName: __ZN7QString7compareERKS_13QLatin1StringN2Qt15CaseSensitivityE, symObjAddr: 0x3350, symBinAddr: 0x2EF70, symSize: 0x50 }
  - { offset: 0x11603A, size: 0x8, addend: 0x0, symName: __ZNSt3__16vectorIN4tbin4TileENS_9allocatorIS2_EEE6resizeEmRKS2_, symObjAddr: 0x33C0, symBinAddr: 0x2EFC0, symSize: 0x70 }
  - { offset: 0x11609F, size: 0x8, addend: 0x0, symName: '__ZZN4Tbin13TideMapFormat4readERK7QStringENK3$_1clERKNSt3__112basic_stringIcNS5_11char_traitsIcEENS5_9allocatorIcEEEE', symObjAddr: 0x3470, symBinAddr: 0x2F030, symSize: 0x2F0 }
  - { offset: 0x1160FA, size: 0x8, addend: 0x0, symName: __ZN4tbin4TileaSEOS0_, symObjAddr: 0x3780, symBinAddr: 0x2F320, symSize: 0x70 }
  - { offset: 0x11612B, size: 0x8, addend: 0x0, symName: __ZNSt3__16vectorIN4tbin4TileENS_9allocatorIS2_EEE9push_backB9nqe210106EOS2_, symObjAddr: 0x3810, symBinAddr: 0x2F390, symSize: 0x30 }
  - { offset: 0x116160, size: 0x8, addend: 0x0, symName: __ZN4tbin4TileaSERKS0_, symObjAddr: 0x3840, symBinAddr: 0x2F3C0, symSize: 0x70 }
  - { offset: 0x116191, size: 0x8, addend: 0x0, symName: __ZNSt3__16vectorIN4tbin5LayerENS_9allocatorIS2_EEE9push_backB9nqe210106ERKS2_, symObjAddr: 0x38B0, symBinAddr: 0x2F430, symSize: 0x30 }
  - { offset: 0x1161C6, size: 0x8, addend: 0x0, symName: __ZN4Tbin13TideMapFormat2trEPKcS2_i, symObjAddr: 0x3920, symBinAddr: 0x2F460, symSize: 0x40 }
  - { offset: 0x116241, size: 0x8, addend: 0x0, symName: __ZN4Tbin13TideMapFormat5writeEPKN5Tiled3MapERK7QString6QFlagsINS1_10FileFormat6OptionEE, symObjAddr: 0x3A10, symBinAddr: 0x2F4A0, symSize: 0x3700 }
  - { offset: 0x116B90, size: 0x8, addend: 0x0, symName: __ZNK6QFlagsIN13QIODeviceBase12OpenModeFlagEEorES1_, symObjAddr: 0x7110, symBinAddr: 0x32BA0, symSize: 0x40 }
  - { offset: 0x116BC4, size: 0x8, addend: 0x0, symName: __ZNSt3__16vectorIN4tbin9TileSheetENS_9allocatorIS2_EEE5beginB9nqe210106Ev, symObjAddr: 0x7240, symBinAddr: 0x32BE0, symSize: 0x40 }
  - { offset: 0x116BEA, size: 0x8, addend: 0x0, symName: __ZNSt3__16vectorIN4tbin9TileSheetENS_9allocatorIS2_EEE3endB9nqe210106Ev, symObjAddr: 0x7280, symBinAddr: 0x32C20, symSize: 0x40 }
  - { offset: 0x116C10, size: 0x8, addend: 0x0, symName: __ZNKSt3__111__wrap_iterIPN4tbin9TileSheetEEdeB9nqe210106Ev, symObjAddr: 0x72F0, symBinAddr: 0x32C90, symSize: 0x20 }
  - { offset: 0x116C4B, size: 0x8, addend: 0x0, symName: '__ZZN4Tbin13TideMapFormat5writeEPKN5Tiled3MapERK7QString6QFlagsINS1_10FileFormat6OptionEEENK3$_0clERKNSt3__13mapINSD_12basic_stringIcNSD_11char_traitsIcEENSD_9allocatorIcEEEEN4tbin13PropertyValueENSD_4lessISK_EENSI_INSD_4pairIKSK_SM_EEEEEE', symObjAddr: 0x73A0, symBinAddr: 0x32CB0, symSize: 0xEE0 }
  - { offset: 0x116EF8, size: 0x8, addend: 0x0, symName: __ZNSt3__111__wrap_iterIPN4tbin9TileSheetEEppB9nqe210106Ev, symObjAddr: 0x8280, symBinAddr: 0x33B90, symSize: 0x20 }
  - { offset: 0x116F1E, size: 0x8, addend: 0x0, symName: __ZNSt3__16vectorIN4tbin5LayerENS_9allocatorIS2_EEE5beginB9nqe210106Ev, symObjAddr: 0x82A0, symBinAddr: 0x33BB0, symSize: 0x40 }
  - { offset: 0x116F44, size: 0x8, addend: 0x0, symName: __ZNSt3__16vectorIN4tbin5LayerENS_9allocatorIS2_EEE3endB9nqe210106Ev, symObjAddr: 0x82E0, symBinAddr: 0x33BF0, symSize: 0x40 }
  - { offset: 0x116F6A, size: 0x8, addend: 0x0, symName: __ZNKSt3__111__wrap_iterIPN4tbin5LayerEEdeB9nqe210106Ev, symObjAddr: 0x8350, symBinAddr: 0x33C60, symSize: 0x20 }
  - { offset: 0x116FA0, size: 0x8, addend: 0x0, symName: '__ZZN4Tbin13TideMapFormat5writeEPKN5Tiled3MapERK7QString6QFlagsINS1_10FileFormat6OptionEEENK3$_1clERKN4tbin4TileE', symObjAddr: 0x8470, symBinAddr: 0x33CB0, symSize: 0x7A0 }
  - { offset: 0x117103, size: 0x8, addend: 0x0, symName: __ZNSt3__16vectorIN4tbin4TileENS_9allocatorIS2_EEE5beginB9nqe210106Ev, symObjAddr: 0x8C40, symBinAddr: 0x34450, symSize: 0x40 }
  - { offset: 0x117129, size: 0x8, addend: 0x0, symName: __ZNSt3__16vectorIN4tbin4TileENS_9allocatorIS2_EEE3endB9nqe210106Ev, symObjAddr: 0x8C80, symBinAddr: 0x34490, symSize: 0x40 }
  - { offset: 0x11714F, size: 0x8, addend: 0x0, symName: __ZNKSt3__111__wrap_iterIPN4tbin4TileEEdeB9nqe210106Ev, symObjAddr: 0x8CF0, symBinAddr: 0x34500, symSize: 0x20 }
  - { offset: 0x117175, size: 0x8, addend: 0x0, symName: __ZNSt3__111__wrap_iterIPN4tbin4TileEEppB9nqe210106Ev, symObjAddr: 0x8D10, symBinAddr: 0x34520, symSize: 0x20 }
  - { offset: 0x11719B, size: 0x8, addend: 0x0, symName: __ZNSt3__111__wrap_iterIPN4tbin5LayerEEppB9nqe210106Ev, symObjAddr: 0x8D50, symBinAddr: 0x34540, symSize: 0x20 }
  - { offset: 0x1171C1, size: 0x8, addend: 0x0, symName: __ZNK4Tbin13TideMapFormat10nameFilterEv, symObjAddr: 0x8DE0, symBinAddr: 0x34560, symSize: 0x40 }
  - { offset: 0x1171EA, size: 0x8, addend: 0x0, symName: __ZNK4Tbin13TideMapFormat9shortNameEv, symObjAddr: 0x8E20, symBinAddr: 0x345A0, symSize: 0x90 }
  - { offset: 0x11723C, size: 0x8, addend: 0x0, symName: __ZNK4Tbin13TideMapFormat12supportsFileERK7QString, symObjAddr: 0x8EB0, symBinAddr: 0x34630, symSize: 0x150 }
  - { offset: 0x117293, size: 0x8, addend: 0x0, symName: __ZNK4Tbin13TideMapFormat11errorStringEv, symObjAddr: 0x9000, symBinAddr: 0x34780, symSize: 0x30 }
  - { offset: 0x1172BC, size: 0x8, addend: 0x0, symName: __ZN6QFlagsIN13QIODeviceBase12OpenModeFlagEEC1ES1_, symObjAddr: 0x90D0, symBinAddr: 0x347B0, symSize: 0x30 }
  - { offset: 0x1172F4, size: 0x8, addend: 0x0, symName: __ZN6QFlagsIN13QIODeviceBase12OpenModeFlagEEC2ES1_, symObjAddr: 0x9100, symBinAddr: 0x347E0, symSize: 0x30 }
  - { offset: 0x11732C, size: 0x8, addend: 0x0, symName: __ZN9QtPrivate19QFlagsStorageHelperIN13QIODeviceBase12OpenModeFlagELi4EECI2NS_13QFlagsStorageIS2_EEENSt3__110in_place_tEj, symObjAddr: 0x9130, symBinAddr: 0x34810, symSize: 0x30 }
  - { offset: 0x11736A, size: 0x8, addend: 0x0, symName: __ZN9QtPrivate13QFlagsStorageIN13QIODeviceBase12OpenModeFlagEEC2ENSt3__110in_place_tEj, symObjAddr: 0x9160, symBinAddr: 0x34840, symSize: 0x20 }
  - { offset: 0x1173AD, size: 0x8, addend: 0x0, symName: __ZN14QAnyStringViewC2E13QLatin1String, symObjAddr: 0x9810, symBinAddr: 0x348B0, symSize: 0x60 }
  - { offset: 0x1173E7, size: 0x8, addend: 0x0, symName: __ZN7QStringC1E11QStringView, symObjAddr: 0x9890, symBinAddr: 0x34910, symSize: 0x50 }
  - { offset: 0x11741F, size: 0x8, addend: 0x0, symName: __ZNK11QStringView4dataEv, symObjAddr: 0x98E0, symBinAddr: 0x34960, symSize: 0x20 }
  - { offset: 0x117445, size: 0x8, addend: 0x0, symName: __ZN4tbin8Vector2iC2Eii, symObjAddr: 0x9C40, symBinAddr: 0x34980, symSize: 0x20 }
  - { offset: 0x11748B, size: 0x8, addend: 0x0, symName: __ZN20QXmlStreamAttributesD2Ev, symObjAddr: 0x9C60, symBinAddr: 0x349A0, symSize: 0x20 }
  - { offset: 0x1174B7, size: 0x8, addend: 0x0, symName: __ZN5QListI19QXmlStreamAttributeED2Ev, symObjAddr: 0x9C80, symBinAddr: 0x349C0, symSize: 0x20 }
  - { offset: 0x1174E3, size: 0x8, addend: 0x0, symName: __ZN17QArrayDataPointerI19QXmlStreamAttributeED1Ev, symObjAddr: 0x9CA0, symBinAddr: 0x349E0, symSize: 0x20 }
  - { offset: 0x11750D, size: 0x8, addend: 0x0, symName: __ZN17QArrayDataPointerI19QXmlStreamAttributeED2Ev, symObjAddr: 0x9CC0, symBinAddr: 0x34A00, symSize: 0x50 }
  - { offset: 0x117537, size: 0x8, addend: 0x0, symName: __ZN17QArrayDataPointerI19QXmlStreamAttributeE5derefEv, symObjAddr: 0x9D10, symBinAddr: 0x34A50, symSize: 0x40 }
  - { offset: 0x11755D, size: 0x8, addend: 0x0, symName: __ZN17QArrayDataPointerI19QXmlStreamAttributeEptEv, symObjAddr: 0x9D50, symBinAddr: 0x34A90, symSize: 0x10 }
  - { offset: 0x117583, size: 0x8, addend: 0x0, symName: __ZN9QtPrivate16QGenericArrayOpsI19QXmlStreamAttributeE10destroyAllEv, symObjAddr: 0x9D60, symBinAddr: 0x34AA0, symSize: 0x90 }
  - { offset: 0x1175A9, size: 0x8, addend: 0x0, symName: __ZN15QTypedArrayDataI19QXmlStreamAttributeE10deallocateEP10QArrayData, symObjAddr: 0x9DF0, symBinAddr: 0x34B30, symSize: 0x30 }
  - { offset: 0x1175CC, size: 0x8, addend: 0x0, symName: __ZN17QArrayDataPointerI19QXmlStreamAttributeE5beginEv, symObjAddr: 0x9FD0, symBinAddr: 0x34B90, symSize: 0x20 }
  - { offset: 0x1175F2, size: 0x8, addend: 0x0, symName: __ZN17QArrayDataPointerI19QXmlStreamAttributeE3endEv, symObjAddr: 0x9FF0, symBinAddr: 0x34BB0, symSize: 0x30 }
  - { offset: 0x117618, size: 0x8, addend: 0x0, symName: __ZN19QXmlStreamAttributeD1Ev, symObjAddr: 0xA120, symBinAddr: 0x34C40, symSize: 0x20 }
  - { offset: 0x117644, size: 0x8, addend: 0x0, symName: __ZN19QXmlStreamAttributeD2Ev, symObjAddr: 0xA140, symBinAddr: 0x34C60, symSize: 0x50 }
  - { offset: 0x117670, size: 0x8, addend: 0x0, symName: __ZN9QtPrivate10QXmlStringD1Ev, symObjAddr: 0xA190, symBinAddr: 0x34CB0, symSize: 0x20 }
  - { offset: 0x11769C, size: 0x8, addend: 0x0, symName: __ZN9QtPrivate10QXmlStringD2Ev, symObjAddr: 0xA1B0, symBinAddr: 0x34CD0, symSize: 0x20 }
  - { offset: 0x1176C8, size: 0x8, addend: 0x0, symName: __ZN17QArrayDataPointerI19QXmlStreamAttributeE4dataEv, symObjAddr: 0xA1D0, symBinAddr: 0x34CF0, symSize: 0x20 }
  - { offset: 0x1176F2, size: 0x8, addend: 0x0, symName: __ZeqRK7QStringRK13QLatin1String, symObjAddr: 0xA210, symBinAddr: 0x34D10, symSize: 0x50 }
  - { offset: 0x117774, size: 0x8, addend: 0x0, symName: __ZNSt3__14pairINS_12basic_stringIcNS_11char_traitsIcEENS_9allocatorIcEEEEN4tbin13PropertyValueEEC1B9nqe210106IRKS6_RS8_Li0EEEOT_OT0_, symObjAddr: 0xBD80, symBinAddr: 0x34DA0, symSize: 0x30 }
  - { offset: 0x1177D2, size: 0x8, addend: 0x0, symName: __ZNSt3__14pairINS_12basic_stringIcNS_11char_traitsIcEENS_9allocatorIcEEEEN4tbin13PropertyValueEEC2B9nqe210106IRKS6_RS8_Li0EEEOT_OT0_, symObjAddr: 0xBDB0, symBinAddr: 0x34DD0, symSize: 0x60 }
  - { offset: 0x11783B, size: 0x8, addend: 0x0, symName: __ZNSt3__16__treeINS_12__value_typeINS_12basic_stringIcNS_11char_traitsIcEENS_9allocatorIcEEEEN4tbin13PropertyValueEEENS_19__map_value_compareIS7_NS_4pairIKS7_S9_EENS_4lessIS7_EELb1EEENS5_ISE_EEEaSEOSJ_, symObjAddr: 0xBED0, symBinAddr: 0x34E30, symSize: 0x30 }
  - { offset: 0x117872, size: 0x8, addend: 0x0, symName: __ZNSt3__16__treeINS_12__value_typeINS_12basic_stringIcNS_11char_traitsIcEENS_9allocatorIcEEEEN4tbin13PropertyValueEEENS_19__map_value_compareIS7_NS_4pairIKS7_S9_EENS_4lessIS7_EELb1EEENS5_ISE_EEE13__move_assignERSJ_NS_17integral_constantIbLb1EEE, symObjAddr: 0xBF00, symBinAddr: 0x34E60, symSize: 0xF0 }
  - { offset: 0x1178B5, size: 0x8, addend: 0x0, symName: __ZNSt3__16__treeINS_12__value_typeINS_12basic_stringIcNS_11char_traitsIcEENS_9allocatorIcEEEEN4tbin13PropertyValueEEENS_19__map_value_compareIS7_NS_4pairIKS7_S9_EENS_4lessIS7_EELb1EEENS5_ISE_EEE19__move_assign_allocB9nqe210106ERSJ_, symObjAddr: 0xC070, symBinAddr: 0x34F50, symSize: 0x30 }
  - { offset: 0x1178EA, size: 0x8, addend: 0x0, symName: __ZNSt3__16__treeINS_12__value_typeINS_12basic_stringIcNS_11char_traitsIcEENS_9allocatorIcEEEEN4tbin13PropertyValueEEENS_19__map_value_compareIS7_NS_4pairIKS7_S9_EENS_4lessIS7_EELb1EEENS5_ISE_EEE19__move_assign_allocB9nqe210106ERSJ_NS_17integral_constantIbLb1EEE, symObjAddr: 0xC0A0, symBinAddr: 0x34F80, symSize: 0x30 }
  - { offset: 0x117941, size: 0x8, addend: 0x0, symName: __ZN4tbin4TileUt0_aSEOS1_, symObjAddr: 0xC370, symBinAddr: 0x34FB0, symSize: 0x40 }
  - { offset: 0x117972, size: 0x8, addend: 0x0, symName: __ZNSt3__16vectorIN4tbin4TileENS_9allocatorIS2_EEEaSB9nqe210106EOS5_, symObjAddr: 0xC3B0, symBinAddr: 0x34FF0, symSize: 0x30 }
  - { offset: 0x1179A7, size: 0x8, addend: 0x0, symName: __ZNSt3__16vectorIN4tbin4TileENS_9allocatorIS2_EEE13__move_assignERS5_NS_17integral_constantIbLb1EEE, symObjAddr: 0xC3E0, symBinAddr: 0x35020, symSize: 0x80 }
  - { offset: 0x1179EA, size: 0x8, addend: 0x0, symName: __ZNSt3__16vectorIN4tbin4TileENS_9allocatorIS2_EEE13__vdeallocateEv, symObjAddr: 0xC460, symBinAddr: 0x350A0, symSize: 0x80 }
  - { offset: 0x117A12, size: 0x8, addend: 0x0, symName: __ZNSt3__16vectorIN4tbin4TileENS_9allocatorIS2_EEE19__move_assign_allocB9nqe210106ERS5_, symObjAddr: 0xC4E0, symBinAddr: 0x35120, symSize: 0x30 }
  - { offset: 0x117A47, size: 0x8, addend: 0x0, symName: __ZNSt3__16vectorIN4tbin4TileENS_9allocatorIS2_EEE19__move_assign_allocB9nqe210106ERS5_NS_17integral_constantIbLb1EEE, symObjAddr: 0xC8A0, symBinAddr: 0x35150, symSize: 0x10 }
  - { offset: 0x117A93, size: 0x8, addend: 0x0, symName: __ZN4tbin4TileUt0_aSERKS1_, symObjAddr: 0xCA50, symBinAddr: 0x35160, symSize: 0x40 }
  - { offset: 0x117AC4, size: 0x8, addend: 0x0, symName: __ZNSt3__13mapINS_12basic_stringIcNS_11char_traitsIcEENS_9allocatorIcEEEEN4tbin13PropertyValueENS_4lessIS6_EENS4_INS_4pairIKS6_S8_EEEEEaSB9nqe210106ERKSF_, symObjAddr: 0xCA90, symBinAddr: 0x351A0, symSize: 0x30 }
  - { offset: 0x117AF9, size: 0x8, addend: 0x0, symName: __ZNSt3__16vectorIN4tbin4TileENS_9allocatorIS2_EEEaSB9nqe210106ERKS5_, symObjAddr: 0xCAC0, symBinAddr: 0x351D0, symSize: 0x50 }
  - { offset: 0x117B30, size: 0x8, addend: 0x0, symName: __ZNSt3__16vectorIN4tbin4TileENS_9allocatorIS2_EEE19__copy_assign_allocB9nqe210106ERKS5_, symObjAddr: 0xCB10, symBinAddr: 0x35220, symSize: 0x30 }
  - { offset: 0x117B65, size: 0x8, addend: 0x0, symName: __ZNSt3__16vectorIN4tbin4TileENS_9allocatorIS2_EEE6assignB9nqe210106IPS2_Li0EEEvT_S8_, symObjAddr: 0xCB40, symBinAddr: 0x35250, symSize: 0x60 }
  - { offset: 0x117BB8, size: 0x8, addend: 0x0, symName: __ZNSt3__16vectorIN4tbin4TileENS_9allocatorIS2_EEE19__copy_assign_allocB9nqe210106ERKS5_NS_17integral_constantIbLb0EEE, symObjAddr: 0xCBA0, symBinAddr: 0x352B0, symSize: 0x10 }
  - { offset: 0x117BF6, size: 0x8, addend: 0x0, symName: __ZNSt3__16vectorIN4tbin4TileENS_9allocatorIS2_EEE18__assign_with_sizeB9nqe210106IPS2_S7_EEvT_T0_l, symObjAddr: 0xCBB0, symBinAddr: 0x352C0, symSize: 0x150 }
  - { offset: 0x117CA6, size: 0x8, addend: 0x0, symName: __ZNSt3__16vectorIN4tbin4TileENS_9allocatorIS2_EEE17__destruct_at_endB9nqe210106EPS2_, symObjAddr: 0xCE70, symBinAddr: 0x354F0, symSize: 0x50 }
  - { offset: 0x117D31, size: 0x8, addend: 0x0, symName: __ZNKSt3__111__copy_implclB9nqe210106IPN4tbin4TileES4_S4_EENS_4pairIT_T1_EES6_T0_S7_, symObjAddr: 0xD9A0, symBinAddr: 0x35640, symSize: 0x70 }
  - { offset: 0x117DA7, size: 0x8, addend: 0x0, symName: __ZNSt3__16__treeINS_12__value_typeINS_12basic_stringIcNS_11char_traitsIcEENS_9allocatorIcEEEEN4tbin13PropertyValueEEENS_19__map_value_compareIS7_NS_4pairIKS7_S9_EENS_4lessIS7_EELb1EEENS5_ISE_EEEaSERKSJ_, symObjAddr: 0xDDE0, symBinAddr: 0x35710, symSize: 0x80 }
  - { offset: 0x117DDE, size: 0x8, addend: 0x0, symName: __ZNSt3__16__treeINS_12__value_typeINS_12basic_stringIcNS_11char_traitsIcEENS_9allocatorIcEEEEN4tbin13PropertyValueEEENS_19__map_value_compareIS7_NS_4pairIKS7_S9_EENS_4lessIS7_EELb1EEENS5_ISE_EEE19__copy_assign_allocB9nqe210106ERKSJ_, symObjAddr: 0xDE80, symBinAddr: 0x35790, symSize: 0x30 }
  - { offset: 0x117E13, size: 0x8, addend: 0x0, symName: __ZNSt3__16__treeINS_12__value_typeINS_12basic_stringIcNS_11char_traitsIcEENS_9allocatorIcEEEEN4tbin13PropertyValueEEENS_19__map_value_compareIS7_NS_4pairIKS7_S9_EENS_4lessIS7_EELb1EEENS5_ISE_EEE14__assign_multiINS_21__tree_const_iteratorISA_PNS_11__tree_nodeISA_PvEElEEEEvT_SR_, symObjAddr: 0xDEB0, symBinAddr: 0x357C0, symSize: 0x180 }
  - { offset: 0x117E8E, size: 0x8, addend: 0x0, symName: __ZNSt3__16__treeINS_12__value_typeINS_12basic_stringIcNS_11char_traitsIcEENS_9allocatorIcEEEEN4tbin13PropertyValueEEENS_19__map_value_compareIS7_NS_4pairIKS7_S9_EENS_4lessIS7_EELb1EEENS5_ISE_EEE19__copy_assign_allocB9nqe210106ERKSJ_NS_17integral_constantIbLb0EEE, symObjAddr: 0xE090, symBinAddr: 0x35940, symSize: 0x10 }
  - { offset: 0x117EEC, size: 0x8, addend: 0x0, symName: __ZNSt3__16__treeINS_12__value_typeINS_12basic_stringIcNS_11char_traitsIcEENS_9allocatorIcEEEEN4tbin13PropertyValueEEENS_19__map_value_compareIS7_NS_4pairIKS7_S9_EENS_4lessIS7_EELb1EEENS5_ISE_EEE18_DetachedTreeCacheC1B9nqe210106EPSJ_, symObjAddr: 0xE0A0, symBinAddr: 0x35950, symSize: 0x30 }
  - { offset: 0x117F25, size: 0x8, addend: 0x0, symName: __ZNKSt3__16__treeINS_12__value_typeINS_12basic_stringIcNS_11char_traitsIcEENS_9allocatorIcEEEEN4tbin13PropertyValueEEENS_19__map_value_compareIS7_NS_4pairIKS7_S9_EENS_4lessIS7_EELb1EEENS5_ISE_EEE18_DetachedTreeCache5__getB9nqe210106Ev, symObjAddr: 0xE0D0, symBinAddr: 0x35980, symSize: 0x20 }
  - { offset: 0x117F4B, size: 0x8, addend: 0x0, symName: __ZNSt3__16__treeINS_12__value_typeINS_12basic_stringIcNS_11char_traitsIcEENS_9allocatorIcEEEEN4tbin13PropertyValueEEENS_19__map_value_compareIS7_NS_4pairIKS7_S9_EENS_4lessIS7_EELb1EEENS5_ISE_EEE14__assign_valueB9nqe210106IRKSE_SA_Li0EEEvRSE_OT_, symObjAddr: 0xE120, symBinAddr: 0x359A0, symSize: 0x40 }
  - { offset: 0x117F96, size: 0x8, addend: 0x0, symName: __ZNSt3__16__treeINS_12__value_typeINS_12basic_stringIcNS_11char_traitsIcEENS_9allocatorIcEEEEN4tbin13PropertyValueEEENS_19__map_value_compareIS7_NS_4pairIKS7_S9_EENS_4lessIS7_EELb1EEENS5_ISE_EEE19__node_insert_multiEPNS_11__tree_nodeISA_PvEE, symObjAddr: 0xE180, symBinAddr: 0x359E0, symSize: 0x60 }
  - { offset: 0x117FEB, size: 0x8, addend: 0x0, symName: __ZNSt3__16__treeINS_12__value_typeINS_12basic_stringIcNS_11char_traitsIcEENS_9allocatorIcEEEEN4tbin13PropertyValueEEENS_19__map_value_compareIS7_NS_4pairIKS7_S9_EENS_4lessIS7_EELb1EEENS5_ISE_EEE18_DetachedTreeCache9__advanceB9nqe210106Ev, symObjAddr: 0xE1E0, symBinAddr: 0x35A40, symSize: 0x50 }
  - { offset: 0x118011, size: 0x8, addend: 0x0, symName: __ZNSt3__16__treeINS_12__value_typeINS_12basic_stringIcNS_11char_traitsIcEENS_9allocatorIcEEEEN4tbin13PropertyValueEEENS_19__map_value_compareIS7_NS_4pairIKS7_S9_EENS_4lessIS7_EELb1EEENS5_ISE_EEE18_DetachedTreeCacheD1B9nqe210106Ev, symObjAddr: 0xE260, symBinAddr: 0x35A90, symSize: 0x20 }
  - { offset: 0x11803B, size: 0x8, addend: 0x0, symName: __ZNSt3__16__treeINS_12__value_typeINS_12basic_stringIcNS_11char_traitsIcEENS_9allocatorIcEEEEN4tbin13PropertyValueEEENS_19__map_value_compareIS7_NS_4pairIKS7_S9_EENS_4lessIS7_EELb1EEENS5_ISE_EEE20__emplace_hint_multiIJRKSE_EEENS_15__tree_iteratorISA_PNS_11__tree_nodeISA_PvEElEENS_21__tree_const_iteratorISA_SR_lEEDpOT_, symObjAddr: 0xE2E0, symBinAddr: 0x35AB0, symSize: 0xF0 }
  - { offset: 0x1180BA, size: 0x8, addend: 0x0, symName: __ZNSt3__16__treeINS_12__value_typeINS_12basic_stringIcNS_11char_traitsIcEENS_9allocatorIcEEEEN4tbin13PropertyValueEEENS_19__map_value_compareIS7_NS_4pairIKS7_S9_EENS_4lessIS7_EELb1EEENS5_ISE_EEE18_DetachedTreeCacheC2B9nqe210106EPSJ_, symObjAddr: 0xE3D0, symBinAddr: 0x35BA0, symSize: 0x40 }
  - { offset: 0x1180F3, size: 0x8, addend: 0x0, symName: __ZNSt3__16__treeINS_12__value_typeINS_12basic_stringIcNS_11char_traitsIcEENS_9allocatorIcEEEEN4tbin13PropertyValueEEENS_19__map_value_compareIS7_NS_4pairIKS7_S9_EENS_4lessIS7_EELb1EEENS5_ISE_EEE18_DetachedTreeCache18__detach_from_treeEPSJ_, symObjAddr: 0xE410, symBinAddr: 0x35BE0, symSize: 0x90 }
  - { offset: 0x118126, size: 0x8, addend: 0x0, symName: __ZNSt3__16__treeINS_12__value_typeINS_12basic_stringIcNS_11char_traitsIcEENS_9allocatorIcEEEEN4tbin13PropertyValueEEENS_19__map_value_compareIS7_NS_4pairIKS7_S9_EENS_4lessIS7_EELb1EEENS5_ISE_EEE16__find_leaf_highERPNS_15__tree_end_nodeIPNS_16__tree_node_baseIPvEEEERKSE_, symObjAddr: 0xE530, symBinAddr: 0x35C70, symSize: 0xF0 }
  - { offset: 0x11817B, size: 0x8, addend: 0x0, symName: __ZNSt3__16__treeINS_12__value_typeINS_12basic_stringIcNS_11char_traitsIcEENS_9allocatorIcEEEEN4tbin13PropertyValueEEENS_19__map_value_compareIS7_NS_4pairIKS7_S9_EENS_4lessIS7_EELb1EEENS5_ISE_EEE18_DetachedTreeCache13__detach_nextEPNS_11__tree_nodeISA_PvEE, symObjAddr: 0xE650, symBinAddr: 0x35D60, symSize: 0xD0 }
  - { offset: 0x11819F, size: 0x8, addend: 0x0, symName: __ZNSt3__16__treeINS_12__value_typeINS_12basic_stringIcNS_11char_traitsIcEENS_9allocatorIcEEEEN4tbin13PropertyValueEEENS_19__map_value_compareIS7_NS_4pairIKS7_S9_EENS_4lessIS7_EELb1EEENS5_ISE_EEE18_DetachedTreeCacheD2B9nqe210106Ev, symObjAddr: 0xE810, symBinAddr: 0x35E80, symSize: 0x70 }
  - { offset: 0x1181C9, size: 0x8, addend: 0x0, symName: __ZNSt3__16__treeINS_12__value_typeINS_12basic_stringIcNS_11char_traitsIcEENS_9allocatorIcEEEEN4tbin13PropertyValueEEENS_19__map_value_compareIS7_NS_4pairIKS7_S9_EENS_4lessIS7_EELb1EEENS5_ISE_EEE11__find_leafENS_21__tree_const_iteratorISA_PNS_11__tree_nodeISA_PvEElEERPNS_15__tree_end_nodeIPNS_16__tree_node_baseISM_EEEERKSE_, symObjAddr: 0xE9D0, symBinAddr: 0x35EF0, symSize: 0x180 }
  - { offset: 0x11823C, size: 0x8, addend: 0x0, symName: __ZNSt3__16__treeINS_12__value_typeINS_12basic_stringIcNS_11char_traitsIcEENS_9allocatorIcEEEEN4tbin13PropertyValueEEENS_19__map_value_compareIS7_NS_4pairIKS7_S9_EENS_4lessIS7_EELb1EEENS5_ISE_EEE15__find_leaf_lowERPNS_15__tree_end_nodeIPNS_16__tree_node_baseIPvEEEERKSE_, symObjAddr: 0xECA0, symBinAddr: 0x36070, symSize: 0xF0 }
  - { offset: 0x118291, size: 0x8, addend: 0x0, symName: __ZN6QFlagsIN13QIODeviceBase12OpenModeFlagEECI1N9QtPrivate13QFlagsStorageIS1_EEENSt3__110in_place_tEj, symObjAddr: 0xF8E0, symBinAddr: 0x36160, symSize: 0x30 }
  - { offset: 0x1182CF, size: 0x8, addend: 0x0, symName: __ZN6QFlagsIN13QIODeviceBase12OpenModeFlagEECI2N9QtPrivate13QFlagsStorageIS1_EEENSt3__110in_place_tEj, symObjAddr: 0xF910, symBinAddr: 0x36190, symSize: 0x30 }
  - { offset: 0x11830D, size: 0x8, addend: 0x0, symName: __ZNKSt3__111__wrap_iterIPN4tbin9TileSheetEE4baseB9nqe210106Ev, symObjAddr: 0xFE00, symBinAddr: 0x36200, symSize: 0x20 }
  - { offset: 0x118333, size: 0x8, addend: 0x0, symName: __ZNKSt3__111__wrap_iterIPN4tbin5LayerEE4baseB9nqe210106Ev, symObjAddr: 0x10020, symBinAddr: 0x36260, symSize: 0x20 }
  - { offset: 0x118359, size: 0x8, addend: 0x0, symName: __ZNKSt3__111__wrap_iterIPN4tbin4TileEE4baseB9nqe210106Ev, symObjAddr: 0x10C50, symBinAddr: 0x362C0, symSize: 0x20 }
  - { offset: 0x11837F, size: 0x8, addend: 0x0, symName: __ZNSt3__16vectorIN4tbin9TileSheetENS_9allocatorIS2_EEE12emplace_backIJRKS2_EEERS2_DpOT_, symObjAddr: 0x11390, symBinAddr: 0x362E0, symSize: 0x80 }
  - { offset: 0x1183D0, size: 0x8, addend: 0x0, symName: __ZNSt3__16vectorIN4tbin9TileSheetENS_9allocatorIS2_EEE30__emplace_back_assume_capacityB9nqe210106IJRKS2_EEEvDpOT_, symObjAddr: 0x11410, symBinAddr: 0x36360, symSize: 0x90 }
  - { offset: 0x118421, size: 0x8, addend: 0x0, symName: __ZNSt3__16vectorIN4tbin9TileSheetENS_9allocatorIS2_EEE24__emplace_back_slow_pathIJRKS2_EEEPS2_DpOT_, symObjAddr: 0x114A0, symBinAddr: 0x363F0, symSize: 0xD0 }
  - { offset: 0x11848D, size: 0x8, addend: 0x0, symName: __ZNSt3__116allocator_traitsINS_9allocatorIN4tbin9TileSheetEEEE9constructB9nqe210106IS3_JRKS3_ELi0EEEvRS4_PT_DpOT0_, symObjAddr: 0x115A0, symBinAddr: 0x364C0, symSize: 0x30 }
  - { offset: 0x1184EB, size: 0x8, addend: 0x0, symName: __ZNSt3__19allocatorIN4tbin9TileSheetEE9constructB9nqe210106IS2_JRKS2_EEEvPT_DpOT0_, symObjAddr: 0x116E0, symBinAddr: 0x364F0, symSize: 0x30 }
  - { offset: 0x118543, size: 0x8, addend: 0x0, symName: __ZN4tbin9TileSheetC1ERKS0_, symObjAddr: 0x11710, symBinAddr: 0x36520, symSize: 0x30 }
  - { offset: 0x118578, size: 0x8, addend: 0x0, symName: __ZN4tbin9TileSheetC2ERKS0_, symObjAddr: 0x11740, symBinAddr: 0x36550, symSize: 0xE0 }
  - { offset: 0x1185BE, size: 0x8, addend: 0x0, symName: __ZNSt3__16vectorIN4tbin4TileENS_9allocatorIS2_EEE8__appendEmRKS2_, symObjAddr: 0x12600, symBinAddr: 0x36630, symSize: 0xF0 }
  - { offset: 0x11861A, size: 0x8, addend: 0x0, symName: __ZNSt3__16vectorIN4tbin4TileENS_9allocatorIS2_EEE18__construct_at_endEmRKS2_, symObjAddr: 0x126F0, symBinAddr: 0x36720, symSize: 0xB0 }
  - { offset: 0x11869C, size: 0x8, addend: 0x0, symName: __ZNSt3__114__split_bufferIN4tbin4TileERNS_9allocatorIS2_EEE18__construct_at_endEmRKS2_, symObjAddr: 0x127E0, symBinAddr: 0x367D0, symSize: 0xA0 }
  - { offset: 0x1186FD, size: 0x8, addend: 0x0, symName: __ZNSt3__114__split_bufferIN4tbin4TileERNS_9allocatorIS2_EEE21_ConstructTransactionC1B9nqe210106EPPS2_m, symObjAddr: 0x12AC0, symBinAddr: 0x36870, symSize: 0x30 }
  - { offset: 0x118743, size: 0x8, addend: 0x0, symName: __ZNSt3__114__split_bufferIN4tbin4TileERNS_9allocatorIS2_EEE21_ConstructTransactionD1B9nqe210106Ev, symObjAddr: 0x12AF0, symBinAddr: 0x368A0, symSize: 0x20 }
  - { offset: 0x11876D, size: 0x8, addend: 0x0, symName: __ZNSt3__114__split_bufferIN4tbin4TileERNS_9allocatorIS2_EEE21_ConstructTransactionC2B9nqe210106EPPS2_m, symObjAddr: 0x12B10, symBinAddr: 0x368C0, symSize: 0x40 }
  - { offset: 0x1187B3, size: 0x8, addend: 0x0, symName: __ZNSt3__114__split_bufferIN4tbin4TileERNS_9allocatorIS2_EEE21_ConstructTransactionD2B9nqe210106Ev, symObjAddr: 0x12B50, symBinAddr: 0x36900, symSize: 0x20 }
  - { offset: 0x1187DD, size: 0x8, addend: 0x0, symName: __ZNSt3__16vectorIN4tbin4TileENS_9allocatorIS2_EEE12emplace_backIJS2_EEERS2_DpOT_, symObjAddr: 0x13040, symBinAddr: 0x36920, symSize: 0x70 }
  - { offset: 0x11882E, size: 0x8, addend: 0x0, symName: __ZNSt3__16vectorIN4tbin4TileENS_9allocatorIS2_EEE30__emplace_back_assume_capacityB9nqe210106IJS2_EEEvDpOT_, symObjAddr: 0x130B0, symBinAddr: 0x36990, symSize: 0x90 }
  - { offset: 0x11887F, size: 0x8, addend: 0x0, symName: __ZNSt3__16vectorIN4tbin4TileENS_9allocatorIS2_EEE24__emplace_back_slow_pathIJS2_EEEPS2_DpOT_, symObjAddr: 0x13140, symBinAddr: 0x36A20, symSize: 0xD0 }
  - { offset: 0x1188D0, size: 0x8, addend: 0x0, symName: __ZNSt3__16vectorIN4tbin5LayerENS_9allocatorIS2_EEE12emplace_backIJRKS2_EEERS2_DpOT_, symObjAddr: 0x13210, symBinAddr: 0x36AF0, symSize: 0x70 }
  - { offset: 0x118921, size: 0x8, addend: 0x0, symName: __ZNSt3__16vectorIN4tbin5LayerENS_9allocatorIS2_EEE30__emplace_back_assume_capacityB9nqe210106IJRKS2_EEEvDpOT_, symObjAddr: 0x13280, symBinAddr: 0x36B60, symSize: 0x90 }
  - { offset: 0x118972, size: 0x8, addend: 0x0, symName: __ZNSt3__16vectorIN4tbin5LayerENS_9allocatorIS2_EEE24__emplace_back_slow_pathIJRKS2_EEEPS2_DpOT_, symObjAddr: 0x13310, symBinAddr: 0x36BF0, symSize: 0xD0 }
  - { offset: 0x1189DE, size: 0x8, addend: 0x0, symName: __ZNSt3__116allocator_traitsINS_9allocatorIN4tbin5LayerEEEE9constructB9nqe210106IS3_JRKS3_ELi0EEEvRS4_PT_DpOT0_, symObjAddr: 0x13410, symBinAddr: 0x36CC0, symSize: 0x30 }
  - { offset: 0x118A3C, size: 0x8, addend: 0x0, symName: __ZNSt3__19allocatorIN4tbin5LayerEE9constructB9nqe210106IS2_JRKS2_EEEvPT_DpOT0_, symObjAddr: 0x13550, symBinAddr: 0x36CF0, symSize: 0x30 }
  - { offset: 0x118A94, size: 0x8, addend: 0x0, symName: __ZN4tbin5LayerC1ERKS0_, symObjAddr: 0x13580, symBinAddr: 0x36D20, symSize: 0x30 }
  - { offset: 0x118AC9, size: 0x8, addend: 0x0, symName: __ZN4tbin5LayerC2ERKS0_, symObjAddr: 0x135B0, symBinAddr: 0x36D50, symSize: 0xE0 }
  - { offset: 0x118B0F, size: 0x8, addend: 0x0, symName: __ZNSt3__16vectorIN4tbin9TileSheetENS_9allocatorIS2_EEE11__make_iterB9nqe210106EPS2_, symObjAddr: 0x14430, symBinAddr: 0x36E30, symSize: 0x30 }
  - { offset: 0x118B44, size: 0x8, addend: 0x0, symName: __ZNSt3__16vectorIN4tbin9TileSheetENS_9allocatorIS2_EEE26__add_alignment_assumptionB9nqe210106IPS2_Li0EEES7_T_, symObjAddr: 0x14460, symBinAddr: 0x36E60, symSize: 0x10 }
  - { offset: 0x118B77, size: 0x8, addend: 0x0, symName: __ZNSt3__111__wrap_iterIPN4tbin9TileSheetEEC1B9nqe210106ES3_, symObjAddr: 0x14470, symBinAddr: 0x36E70, symSize: 0x30 }
  - { offset: 0x118BAF, size: 0x8, addend: 0x0, symName: __ZNSt3__111__wrap_iterIPN4tbin9TileSheetEEC2B9nqe210106ES3_, symObjAddr: 0x144A0, symBinAddr: 0x36EA0, symSize: 0x20 }
  - { offset: 0x118BE7, size: 0x8, addend: 0x0, symName: __ZNSt3__16vectorIN4tbin5LayerENS_9allocatorIS2_EEE11__make_iterB9nqe210106EPS2_, symObjAddr: 0x144C0, symBinAddr: 0x36EC0, symSize: 0x30 }
  - { offset: 0x118C1C, size: 0x8, addend: 0x0, symName: __ZNSt3__111__wrap_iterIPN4tbin5LayerEEC1B9nqe210106ES3_, symObjAddr: 0x14500, symBinAddr: 0x36EF0, symSize: 0x30 }
  - { offset: 0x118C54, size: 0x8, addend: 0x0, symName: __ZNSt3__111__wrap_iterIPN4tbin5LayerEEC2B9nqe210106ES3_, symObjAddr: 0x14530, symBinAddr: 0x36F20, symSize: 0x20 }
  - { offset: 0x118C8C, size: 0x8, addend: 0x0, symName: __ZNSt3__16vectorIN4tbin4TileENS_9allocatorIS2_EEE11__make_iterB9nqe210106EPS2_, symObjAddr: 0x146A0, symBinAddr: 0x36F40, symSize: 0x30 }
  - { offset: 0x118CC1, size: 0x8, addend: 0x0, symName: __ZNSt3__111__wrap_iterIPN4tbin4TileEEC1B9nqe210106ES3_, symObjAddr: 0x146E0, symBinAddr: 0x36F70, symSize: 0x30 }
  - { offset: 0x118CF9, size: 0x8, addend: 0x0, symName: __ZNSt3__111__wrap_iterIPN4tbin4TileEEC2B9nqe210106ES3_, symObjAddr: 0x14710, symBinAddr: 0x36FA0, symSize: 0x19 }
  - { offset: 0x11BBCC, size: 0x8, addend: 0x0, symName: __ZN9QtPrivateL19q_points_into_rangeI17QArrayDataPointerI7QStringEPKS2_EEbRKT0_RKT_, symObjAddr: 0x1770, symBinAddr: 0x37650, symSize: 0xA0 }
  - { offset: 0x11BC19, size: 0x8, addend: 0x0, symName: __ZN9QtPrivateL19q_points_into_rangeI7QStringNSt3__14lessIvEEEEbPKT_S7_S7_T0_, symObjAddr: 0x1810, symBinAddr: 0x376F0, symSize: 0x50 }
  - { offset: 0x11BC9D, size: 0x8, addend: 0x0, symName: __ZN4Tbin13TbinMapFormat16staticMetaObjectE, symObjAddr: 0x2B40, symBinAddr: 0x40960, symSize: 0x0 }
  - { offset: 0x121629, size: 0x8, addend: 0x0, symName: __ZNSt3__18in_placeE, symObjAddr: 0x30A8, symBinAddr: 0x3EEEC, symSize: 0x0 }
  - { offset: 0x1350BE, size: 0x8, addend: 0x0, symName: __ZTVN4Tbin13TbinMapFormatE, symObjAddr: 0x2B78, symBinAddr: 0x40998, symSize: 0x0 }
  - { offset: 0x1350D2, size: 0x8, addend: 0x0, symName: __ZN4Tbin13TbinMapFormat32qt_staticMetaObjectStaticContentIN12_GLOBAL__N_137qt_meta_tag_ZN4Tbin13TbinMapFormatE_tEEE, symObjAddr: 0x3050, symBinAddr: 0x3EE94, symSize: 0x0 }
  - { offset: 0x1350FC, size: 0x8, addend: 0x0, symName: __ZN4Tbin13TbinMapFormat36qt_staticMetaObjectRelocatingContentIN12_GLOBAL__N_137qt_meta_tag_ZN4Tbin13TbinMapFormatE_tEEE, symObjAddr: 0x2B38, symBinAddr: 0x40958, symSize: 0x0 }
  - { offset: 0x13511A, size: 0x8, addend: 0x0, symName: __ZN9QtPrivate25QMetaTypeInterfaceWrapperIN4Tbin13TbinMapFormatEE8metaTypeE, symObjAddr: 0x30B0, symBinAddr: 0x41268, symSize: 0x0 }
  - { offset: 0x13512E, size: 0x8, addend: 0x0, symName: __ZN9QtPrivate16QMetaTypeForTypeIN4Tbin13TbinMapFormatEE4nameE, symObjAddr: 0x303B, symBinAddr: 0x3EE7F, symSize: 0x0 }
  - { offset: 0x13517B, size: 0x8, addend: 0x0, symName: __ZN4Tbin13TbinMapFormat18qt_static_metacallEP7QObjectN11QMetaObject4CallEiPPv, symObjAddr: 0x0, symBinAddr: 0x36FC0, symSize: 0x20 }
  - { offset: 0x1351D8, size: 0x8, addend: 0x0, symName: __ZNK4Tbin13TbinMapFormat10metaObjectEv, symObjAddr: 0x20, symBinAddr: 0x36FE0, symSize: 0x60 }
  - { offset: 0x135200, size: 0x8, addend: 0x0, symName: __ZNK14QScopedPointerI11QObjectData21QScopedPointerDeleterIS0_EEptEv, symObjAddr: 0x80, symBinAddr: 0x37040, symSize: 0x20 }
  - { offset: 0x135226, size: 0x8, addend: 0x0, symName: __ZN4Tbin13TbinMapFormat11qt_metacastEPKc, symObjAddr: 0xA0, symBinAddr: 0x37060, symSize: 0x90 }
  - { offset: 0x13525C, size: 0x8, addend: 0x0, symName: __ZN4Tbin13TbinMapFormat11qt_metacallEN11QMetaObject4CallEiPPv, symObjAddr: 0x130, symBinAddr: 0x370F0, symSize: 0x40 }
  - { offset: 0x1352AE, size: 0x8, addend: 0x0, symName: __ZN4Tbin13TbinMapFormatD1Ev, symObjAddr: 0x170, symBinAddr: 0x37130, symSize: 0x20 }
  - { offset: 0x1352DA, size: 0x8, addend: 0x0, symName: __ZN4Tbin13TbinMapFormatD0Ev, symObjAddr: 0x190, symBinAddr: 0x37150, symSize: 0x30 }
  - { offset: 0x135306, size: 0x8, addend: 0x0, symName: __ZNK5Tiled9MapFormat11outputFilesEPKNS_3MapERK7QString, symObjAddr: 0x1C0, symBinAddr: 0x37180, symSize: 0x40 }
  - { offset: 0x135345, size: 0x8, addend: 0x0, symName: __ZN9QtPrivate17MetaObjectForTypeIN4Tbin13TbinMapFormatEvE18metaObjectFunctionEPKNS_18QMetaTypeInterfaceE, symObjAddr: 0x200, symBinAddr: 0x371C0, symSize: 0x20 }
  - { offset: 0x135399, size: 0x8, addend: 0x0, symName: __ZZN9QtPrivate16QMetaTypeForTypeIN4Tbin13TbinMapFormatEE13getDefaultCtrEvENUlPKNS_18QMetaTypeInterfaceEPvE_8__invokeES6_S7_, symObjAddr: 0x220, symBinAddr: 0x371E0, symSize: 0x30 }
  - { offset: 0x1353FE, size: 0x8, addend: 0x0, symName: __ZZN9QtPrivate16QMetaTypeForTypeIN4Tbin13TbinMapFormatEE7getDtorEvENUlPKNS_18QMetaTypeInterfaceEPvE_8__invokeES6_S7_, symObjAddr: 0x250, symBinAddr: 0x37210, symSize: 0x30 }
  - { offset: 0x13543A, size: 0x8, addend: 0x0, symName: __ZZN9QtPrivate16QMetaTypeForTypeIN4Tbin13TbinMapFormatEE13getDefaultCtrEvENKUlPKNS_18QMetaTypeInterfaceEPvE_clES6_S7_, symObjAddr: 0x280, symBinAddr: 0x37240, symSize: 0x30 }
  - { offset: 0x135489, size: 0x8, addend: 0x0, symName: __ZZN9QtPrivate16QMetaTypeForTypeIN4Tbin13TbinMapFormatEE7getDtorEvENKUlPKNS_18QMetaTypeInterfaceEPvE_clES6_S7_, symObjAddr: 0x2B0, symBinAddr: 0x37270, symSize: 0x30 }
  - { offset: 0x1354CE, size: 0x8, addend: 0x0, symName: __ZN4Tbin13TbinMapFormatD2Ev, symObjAddr: 0x2E0, symBinAddr: 0x372A0, symSize: 0x40 }
  - { offset: 0x1354FA, size: 0x8, addend: 0x0, symName: __ZN5Tiled9MapFormatD2Ev, symObjAddr: 0x340, symBinAddr: 0x372E0, symSize: 0x20 }
  - { offset: 0x135526, size: 0x8, addend: 0x0, symName: __ZN5Tiled10FileFormatD2Ev, symObjAddr: 0x6F0, symBinAddr: 0x37300, symSize: 0x20 }
  - { offset: 0x135552, size: 0x8, addend: 0x0, symName: __ZN5QListI7QStringEC1IS0_vEERKT_, symObjAddr: 0x710, symBinAddr: 0x37320, symSize: 0x30 }
  - { offset: 0x135595, size: 0x8, addend: 0x0, symName: __ZN5QListI7QStringEC2IS0_vEERKT_, symObjAddr: 0x740, symBinAddr: 0x37350, symSize: 0x50 }
  - { offset: 0x1355D8, size: 0x8, addend: 0x0, symName: __ZN5QListI7QStringE6appendERKS0_, symObjAddr: 0x7B0, symBinAddr: 0x373A0, symSize: 0x30 }
  - { offset: 0x13560D, size: 0x8, addend: 0x0, symName: __ZN5QListI7QStringE11emplaceBackIJRKS0_EEERS0_DpOT_, symObjAddr: 0x830, symBinAddr: 0x373D0, symSize: 0x70 }
  - { offset: 0x13564F, size: 0x8, addend: 0x0, symName: __ZN9QtPrivate16QMovableArrayOpsI7QStringE7emplaceIJRKS1_EEEvxDpOT_, symObjAddr: 0x8B0, symBinAddr: 0x37440, symSize: 0x210 }
  - { offset: 0x137441, size: 0x8, addend: 0x0, symName: __ZN4Tbin10TbinPlugin18qt_static_metacallEP7QObjectN11QMetaObject4CallEiPPv, symObjAddr: 0x0, symBinAddr: 0x37740, symSize: 0x20 }
  - { offset: 0x137B64, size: 0x8, addend: 0x0, symName: __ZN4Tbin10TbinPlugin16staticMetaObjectE, symObjAddr: 0xCC0, symBinAddr: 0x40A68, symSize: 0x0 }
  - { offset: 0x150CEA, size: 0x8, addend: 0x0, symName: _qt_plugin_query_metadata_v2, symObjAddr: 0x170, symBinAddr: 0x37890, symSize: 0x30 }
  - { offset: 0x150D10, size: 0x8, addend: 0x0, symName: __ZZ27qt_plugin_query_metadata_v2E2md, symObjAddr: 0xEB5, symBinAddr: 0x3F028, symSize: 0x0 }
  - { offset: 0x150D33, size: 0x8, addend: 0x0, symName: __ZL30qt_pluginMetaDataV2_TbinPlugin, symObjAddr: 0xF00, symBinAddr: 0x3EEF0, symSize: 0x0 }
  - { offset: 0x150EA5, size: 0x8, addend: 0x0, symName: _qt_plugin_instance, symObjAddr: 0x200, symBinAddr: 0x37920, symSize: 0xC0 }
  - { offset: 0x150ECB, size: 0x8, addend: 0x0, symName: __ZZ18qt_plugin_instanceE9_instance, symObjAddr: 0x144170, symBinAddr: 0x413B8, symSize: 0x0 }
  - { offset: 0x150EDD, size: 0x8, addend: 0x0, symName: __ZTVN4Tbin10TbinPluginE, symObjAddr: 0xCF8, symBinAddr: 0x40AA0, symSize: 0x0 }
  - { offset: 0x150EF1, size: 0x8, addend: 0x0, symName: __ZN4Tbin10TbinPlugin32qt_staticMetaObjectStaticContentIN12_GLOBAL__N_134qt_meta_tag_ZN4Tbin10TbinPluginE_tEEE, symObjAddr: 0xF5C, symBinAddr: 0x3EF4C, symSize: 0x0 }
  - { offset: 0x150F1B, size: 0x8, addend: 0x0, symName: __ZN4Tbin10TbinPlugin36qt_staticMetaObjectRelocatingContentIN12_GLOBAL__N_134qt_meta_tag_ZN4Tbin10TbinPluginE_tEEE, symObjAddr: 0xCB8, symBinAddr: 0x40A60, symSize: 0x0 }
  - { offset: 0x150F39, size: 0x8, addend: 0x0, symName: __ZN9QtPrivate25QMetaTypeInterfaceWrapperIN4Tbin10TbinPluginEE8metaTypeE, symObjAddr: 0xFB8, symBinAddr: 0x412D8, symSize: 0x0 }
  - { offset: 0x150F4D, size: 0x8, addend: 0x0, symName: __ZN9QtPrivate16QMetaTypeForTypeIN4Tbin10TbinPluginEE4nameE, symObjAddr: 0xF49, symBinAddr: 0x3EF39, symSize: 0x0 }
  - { offset: 0x150F6C, size: 0x8, addend: 0x0, symName: __ZL30qt_pluginMetaDataV2_TbinPlugin, symObjAddr: 0xF00, symBinAddr: 0x3EEF0, symSize: 0x0 }
  - { offset: 0x150F90, size: 0x8, addend: 0x0, symName: __ZN4Tbin10TbinPlugin18qt_static_metacallEP7QObjectN11QMetaObject4CallEiPPv, symObjAddr: 0x0, symBinAddr: 0x37740, symSize: 0x20 }
  - { offset: 0x150FED, size: 0x8, addend: 0x0, symName: __ZNK4Tbin10TbinPlugin10metaObjectEv, symObjAddr: 0x20, symBinAddr: 0x37760, symSize: 0x60 }
  - { offset: 0x151015, size: 0x8, addend: 0x0, symName: __ZN4Tbin10TbinPlugin11qt_metacastEPKc, symObjAddr: 0xA0, symBinAddr: 0x377C0, symSize: 0x90 }
  - { offset: 0x15104B, size: 0x8, addend: 0x0, symName: __ZN4Tbin10TbinPlugin11qt_metacallEN11QMetaObject4CallEiPPv, symObjAddr: 0x130, symBinAddr: 0x37850, symSize: 0x40 }
  - { offset: 0x15109D, size: 0x8, addend: 0x0, symName: __ZNK17QPluginMetaDataV2IL_ZL30qt_pluginMetaDataV2_TbinPluginEEcv15QPluginMetaDataEv, symObjAddr: 0x1A0, symBinAddr: 0x378C0, symSize: 0x60 }
  - { offset: 0x1510C3, size: 0x8, addend: 0x0, symName: __ZN8QPointerI7QObjectED1Ev, symObjAddr: 0x2C0, symBinAddr: 0x379E0, symSize: 0x20 }
  - { offset: 0x1510EF, size: 0x8, addend: 0x0, symName: __ZNK8QPointerI7QObjectEcvbEv, symObjAddr: 0x2E0, symBinAddr: 0x37A00, symSize: 0x20 }
  - { offset: 0x151115, size: 0x8, addend: 0x0, symName: __ZN4Tbin10TbinPluginC1Ev, symObjAddr: 0x300, symBinAddr: 0x37A20, symSize: 0x20 }
  - { offset: 0x151141, size: 0x8, addend: 0x0, symName: __ZN8QPointerI7QObjectEaSEPS0_, symObjAddr: 0x320, symBinAddr: 0x37A40, symSize: 0x30 }
  - { offset: 0x151175, size: 0x8, addend: 0x0, symName: __ZNK8QPointerI7QObjectEcvPS0_Ev, symObjAddr: 0x350, symBinAddr: 0x37A70, symSize: 0x20 }
  - { offset: 0x15119B, size: 0x8, addend: 0x0, symName: __ZN4Tbin10TbinPluginD1Ev, symObjAddr: 0x370, symBinAddr: 0x37A90, symSize: 0x20 }
  - { offset: 0x1511C7, size: 0x8, addend: 0x0, symName: __ZN4Tbin10TbinPluginD0Ev, symObjAddr: 0x390, symBinAddr: 0x37AB0, symSize: 0x30 }
  - { offset: 0x1511F3, size: 0x8, addend: 0x0, symName: __ZN9QtPrivate17MetaObjectForTypeIN4Tbin10TbinPluginEvE18metaObjectFunctionEPKNS_18QMetaTypeInterfaceE, symObjAddr: 0x3C0, symBinAddr: 0x37AE0, symSize: 0x20 }
  - { offset: 0x151247, size: 0x8, addend: 0x0, symName: __ZZN9QtPrivate16QMetaTypeForTypeIN4Tbin10TbinPluginEE13getDefaultCtrEvENUlPKNS_18QMetaTypeInterfaceEPvE_8__invokeES6_S7_, symObjAddr: 0x3E0, symBinAddr: 0x37B00, symSize: 0x30 }
  - { offset: 0x1512AC, size: 0x8, addend: 0x0, symName: __ZZN9QtPrivate16QMetaTypeForTypeIN4Tbin10TbinPluginEE7getDtorEvENUlPKNS_18QMetaTypeInterfaceEPvE_8__invokeES6_S7_, symObjAddr: 0x410, symBinAddr: 0x37B30, symSize: 0x30 }
  - { offset: 0x1512E8, size: 0x8, addend: 0x0, symName: __ZZN9QtPrivate16QMetaTypeForTypeIN4Tbin10TbinPluginEE13getDefaultCtrEvENKUlPKNS_18QMetaTypeInterfaceEPvE_clES6_S7_, symObjAddr: 0x440, symBinAddr: 0x37B60, symSize: 0x40 }
  - { offset: 0x151337, size: 0x8, addend: 0x0, symName: __ZZN9QtPrivate16QMetaTypeForTypeIN4Tbin10TbinPluginEE7getDtorEvENKUlPKNS_18QMetaTypeInterfaceEPvE_clES6_S7_, symObjAddr: 0x480, symBinAddr: 0x37BA0, symSize: 0x30 }
  - { offset: 0x15137C, size: 0x8, addend: 0x0, symName: __ZN8QPointerI7QObjectED2Ev, symObjAddr: 0x4B0, symBinAddr: 0x37BD0, symSize: 0x20 }
  - { offset: 0x1513A8, size: 0x8, addend: 0x0, symName: __ZN12QWeakPointerI7QObjectED1Ev, symObjAddr: 0x4D0, symBinAddr: 0x37BF0, symSize: 0x20 }
  - { offset: 0x1513D2, size: 0x8, addend: 0x0, symName: __ZN12QWeakPointerI7QObjectED2Ev, symObjAddr: 0x4F0, symBinAddr: 0x37C10, symSize: 0x60 }
  - { offset: 0x1513FC, size: 0x8, addend: 0x0, symName: __ZN4Tbin10TbinPluginC2Ev, symObjAddr: 0x800, symBinAddr: 0x37C70, symSize: 0x40 }
  - { offset: 0x151428, size: 0x8, addend: 0x0, symName: __ZN5Tiled6PluginC2Ev, symObjAddr: 0x840, symBinAddr: 0x37CB0, symSize: 0x40 }
  - { offset: 0x151454, size: 0x8, addend: 0x0, symName: __ZN5QListIP7QObjectEC1Ev, symObjAddr: 0x880, symBinAddr: 0x37CF0, symSize: 0x20 }
  - { offset: 0x15147E, size: 0x8, addend: 0x0, symName: __ZN5QListIP7QObjectEC2Ev, symObjAddr: 0x8A0, symBinAddr: 0x37D10, symSize: 0x20 }
  - { offset: 0x1514A8, size: 0x8, addend: 0x0, symName: __ZN17QArrayDataPointerIP7QObjectEC1Ev, symObjAddr: 0x8C0, symBinAddr: 0x37D30, symSize: 0x20 }
  - { offset: 0x1514D2, size: 0x8, addend: 0x0, symName: __ZN17QArrayDataPointerIP7QObjectEC2Ev, symObjAddr: 0x8E0, symBinAddr: 0x37D50, symSize: 0x30 }
  - { offset: 0x1514FC, size: 0x8, addend: 0x0, symName: __ZN4Tbin10TbinPluginD2Ev, symObjAddr: 0x910, symBinAddr: 0x37D80, symSize: 0x20 }
  - { offset: 0x151528, size: 0x8, addend: 0x0, symName: __ZNK8QPointerI7QObjectE6isNullEv, symObjAddr: 0x930, symBinAddr: 0x37DA0, symSize: 0x20 }
  - { offset: 0x15154E, size: 0x8, addend: 0x0, symName: __ZNK12QWeakPointerI7QObjectE6isNullEv, symObjAddr: 0x950, symBinAddr: 0x37DC0, symSize: 0x60 }
  - { offset: 0x151574, size: 0x8, addend: 0x0, symName: __ZN12QWeakPointerI7QObjectE6assignIS0_EERS1_PT_, symObjAddr: 0x9B0, symBinAddr: 0x37E20, symSize: 0x50 }
  - { offset: 0x1515B2, size: 0x8, addend: 0x0, symName: __ZN12QWeakPointerI7QObjectEC1EPS0_b, symObjAddr: 0xA00, symBinAddr: 0x37E70, symSize: 0x40 }
  - { offset: 0x1515F7, size: 0x8, addend: 0x0, symName: __ZN12QWeakPointerI7QObjectEaSEOS1_, symObjAddr: 0xA40, symBinAddr: 0x37EB0, symSize: 0x50 }
  - { offset: 0x15163B, size: 0x8, addend: 0x0, symName: __ZN12QWeakPointerI7QObjectEC2EPS0_b, symObjAddr: 0xA90, symBinAddr: 0x37F00, symSize: 0x60 }
  - { offset: 0x151680, size: 0x8, addend: 0x0, symName: __ZN12QWeakPointerI7QObjectEC1EOS1_, symObjAddr: 0xAF0, symBinAddr: 0x37F60, symSize: 0x30 }
  - { offset: 0x1516B9, size: 0x8, addend: 0x0, symName: __ZN12QWeakPointerI7QObjectE4swapERS1_, symObjAddr: 0xB20, symBinAddr: 0x37F90, symSize: 0x40 }
  - { offset: 0x1516EE, size: 0x8, addend: 0x0, symName: __ZN12QWeakPointerI7QObjectEC2EOS1_, symObjAddr: 0xB60, symBinAddr: 0x37FD0, symSize: 0x40 }
  - { offset: 0x151726, size: 0x8, addend: 0x0, symName: __Z11qt_ptr_swapI7QObjectEvRPT_S3_, symObjAddr: 0xBE0, symBinAddr: 0x38010, symSize: 0x40 }
  - { offset: 0x151774, size: 0x8, addend: 0x0, symName: __ZNK8QPointerI7QObjectE4dataEv, symObjAddr: 0xC20, symBinAddr: 0x38050, symSize: 0x20 }
  - { offset: 0x15179A, size: 0x8, addend: 0x0, symName: __ZNK12QWeakPointerI7QObjectE12internalDataEv, symObjAddr: 0xC40, symBinAddr: 0x38070, symSize: 0x4D }
  - { offset: 0x153A07, size: 0x8, addend: 0x0, symName: __ZN9QtPrivateL19q_points_into_rangeI17QArrayDataPointerI7QStringEPKS2_EEbRKT0_RKT_, symObjAddr: 0x1770, symBinAddr: 0x38380, symSize: 0xA0 }
  - { offset: 0x153A54, size: 0x8, addend: 0x0, symName: __ZN9QtPrivateL19q_points_into_rangeI7QStringNSt3__14lessIvEEEEbPKT_S7_S7_T0_, symObjAddr: 0x1810, symBinAddr: 0x38420, symSize: 0x50 }
  - { offset: 0x153AD8, size: 0x8, addend: 0x0, symName: __ZN4Tbin13TideMapFormat16staticMetaObjectE, symObjAddr: 0x2B40, symBinAddr: 0x40B38, symSize: 0x0 }
  - { offset: 0x16C1DE, size: 0x8, addend: 0x0, symName: __ZTVN4Tbin13TideMapFormatE, symObjAddr: 0x2B78, symBinAddr: 0x40B70, symSize: 0x0 }
  - { offset: 0x16C1F2, size: 0x8, addend: 0x0, symName: __ZN4Tbin13TideMapFormat32qt_staticMetaObjectStaticContentIN12_GLOBAL__N_137qt_meta_tag_ZN4Tbin13TideMapFormatE_tEEE, symObjAddr: 0x3050, symBinAddr: 0x3EFD0, symSize: 0x0 }
  - { offset: 0x16C21C, size: 0x8, addend: 0x0, symName: __ZN4Tbin13TideMapFormat36qt_staticMetaObjectRelocatingContentIN12_GLOBAL__N_137qt_meta_tag_ZN4Tbin13TideMapFormatE_tEEE, symObjAddr: 0x2B38, symBinAddr: 0x40B30, symSize: 0x0 }
  - { offset: 0x16C23A, size: 0x8, addend: 0x0, symName: __ZN9QtPrivate25QMetaTypeInterfaceWrapperIN4Tbin13TideMapFormatEE8metaTypeE, symObjAddr: 0x30B0, symBinAddr: 0x41348, symSize: 0x0 }
  - { offset: 0x16C24E, size: 0x8, addend: 0x0, symName: __ZN9QtPrivate16QMetaTypeForTypeIN4Tbin13TideMapFormatEE4nameE, symObjAddr: 0x303B, symBinAddr: 0x3EFBB, symSize: 0x0 }
  - { offset: 0x16C266, size: 0x8, addend: 0x0, symName: __ZN4Tbin13TideMapFormat18qt_static_metacallEP7QObjectN11QMetaObject4CallEiPPv, symObjAddr: 0x0, symBinAddr: 0x380C0, symSize: 0x20 }
  - { offset: 0x16C2C3, size: 0x8, addend: 0x0, symName: __ZNK4Tbin13TideMapFormat10metaObjectEv, symObjAddr: 0x20, symBinAddr: 0x380E0, symSize: 0x60 }
  - { offset: 0x16C2EB, size: 0x8, addend: 0x0, symName: __ZN4Tbin13TideMapFormat11qt_metacastEPKc, symObjAddr: 0xA0, symBinAddr: 0x38140, symSize: 0x90 }
  - { offset: 0x16C321, size: 0x8, addend: 0x0, symName: __ZN4Tbin13TideMapFormat11qt_metacallEN11QMetaObject4CallEiPPv, symObjAddr: 0x130, symBinAddr: 0x381D0, symSize: 0x40 }
  - { offset: 0x16C373, size: 0x8, addend: 0x0, symName: __ZN4Tbin13TideMapFormatD1Ev, symObjAddr: 0x170, symBinAddr: 0x38210, symSize: 0x20 }
  - { offset: 0x16C39F, size: 0x8, addend: 0x0, symName: __ZN4Tbin13TideMapFormatD0Ev, symObjAddr: 0x190, symBinAddr: 0x38230, symSize: 0x30 }
  - { offset: 0x16C3CB, size: 0x8, addend: 0x0, symName: __ZN9QtPrivate17MetaObjectForTypeIN4Tbin13TideMapFormatEvE18metaObjectFunctionEPKNS_18QMetaTypeInterfaceE, symObjAddr: 0x200, symBinAddr: 0x38260, symSize: 0x20 }
  - { offset: 0x16C41F, size: 0x8, addend: 0x0, symName: __ZZN9QtPrivate16QMetaTypeForTypeIN4Tbin13TideMapFormatEE13getDefaultCtrEvENUlPKNS_18QMetaTypeInterfaceEPvE_8__invokeES6_S7_, symObjAddr: 0x220, symBinAddr: 0x38280, symSize: 0x30 }
  - { offset: 0x16C484, size: 0x8, addend: 0x0, symName: __ZZN9QtPrivate16QMetaTypeForTypeIN4Tbin13TideMapFormatEE7getDtorEvENUlPKNS_18QMetaTypeInterfaceEPvE_8__invokeES6_S7_, symObjAddr: 0x250, symBinAddr: 0x382B0, symSize: 0x30 }
  - { offset: 0x16C4C0, size: 0x8, addend: 0x0, symName: __ZZN9QtPrivate16QMetaTypeForTypeIN4Tbin13TideMapFormatEE13getDefaultCtrEvENKUlPKNS_18QMetaTypeInterfaceEPvE_clES6_S7_, symObjAddr: 0x280, symBinAddr: 0x382E0, symSize: 0x30 }
  - { offset: 0x16C50F, size: 0x8, addend: 0x0, symName: __ZZN9QtPrivate16QMetaTypeForTypeIN4Tbin13TideMapFormatEE7getDtorEvENKUlPKNS_18QMetaTypeInterfaceEPvE_clES6_S7_, symObjAddr: 0x2B0, symBinAddr: 0x38310, symSize: 0x30 }
  - { offset: 0x16C554, size: 0x8, addend: 0x0, symName: __ZN4Tbin13TideMapFormatD2Ev, symObjAddr: 0x2E0, symBinAddr: 0x38340, symSize: 0x40 }
  - { offset: 0x16E634, size: 0x8, addend: 0x0, symName: __ZN4tbin4readINS_8Vector2iEEET_RNSt3__113basic_istreamIcNS3_11char_traitsIcEEEE, symObjAddr: 0x0, symBinAddr: 0x38470, symSize: 0x40 }
  - { offset: 0x16E685, size: 0x8, addend: 0x0, symName: __ZN4tbin4readIiEET_RNSt3__113basic_istreamIcNS2_11char_traitsIcEEEE, symObjAddr: 0x40, symBinAddr: 0x384B0, symSize: 0x30 }
  - { offset: 0x16E6C8, size: 0x8, addend: 0x0, symName: __ZN4tbin4readINSt3__112basic_stringIcNS1_11char_traitsIcEENS1_9allocatorIcEEEEEET_RNS1_13basic_istreamIcS4_EE, symObjAddr: 0xA0, symBinAddr: 0x384E0, symSize: 0xB0 }
  - { offset: 0x16E71A, size: 0x8, addend: 0x0, symName: __ZN4tbin5writeINS_8Vector2iEEEvRNSt3__113basic_ostreamIcNS2_11char_traitsIcEEEERKT_, symObjAddr: 0x1C0, symBinAddr: 0x38590, symSize: 0x40 }
  - { offset: 0x16E759, size: 0x8, addend: 0x0, symName: __ZN4tbin5writeIiEEvRNSt3__113basic_ostreamIcNS1_11char_traitsIcEEEERKT_, symObjAddr: 0x200, symBinAddr: 0x385D0, symSize: 0x30 }
  - { offset: 0x16E798, size: 0x8, addend: 0x0, symName: __ZN4tbin5writeINSt3__112basic_stringIcNS1_11char_traitsIcEENS1_9allocatorIcEEEEEEvRNS1_13basic_ostreamIcS4_EERKT_, symObjAddr: 0x230, symBinAddr: 0x38600, symSize: 0x70 }
  - { offset: 0x16E7D7, size: 0x8, addend: 0x0, symName: __ZN4tbin14readPropertiesERNSt3__113basic_istreamIcNS0_11char_traitsIcEEEE, symObjAddr: 0x300, symBinAddr: 0x38670, symSize: 0x2C0 }
  - { offset: 0x16E859, size: 0x8, addend: 0x0, symName: __ZN4tbin4readIhEET_RNSt3__113basic_istreamIcNS2_11char_traitsIcEEEE, symObjAddr: 0x650, symBinAddr: 0x38930, symSize: 0x30 }
  - { offset: 0x16E89C, size: 0x8, addend: 0x0, symName: __ZN4tbin4readIfEET_RNSt3__113basic_istreamIcNS2_11char_traitsIcEEEE, symObjAddr: 0x680, symBinAddr: 0x38960, symSize: 0x30 }
  - { offset: 0x16E8DF, size: 0x8, addend: 0x0, symName: __ZN4tbin15writePropertiesERNSt3__113basic_ostreamIcNS0_11char_traitsIcEEEERKNS0_3mapINS0_12basic_stringIcS3_NS0_9allocatorIcEEEENS_13PropertyValueENS0_4lessISA_EENS8_INS0_4pairIKSA_SB_EEEEEE, symObjAddr: 0x7E0, symBinAddr: 0x38A10, symSize: 0x1B0 }
  - { offset: 0x16E958, size: 0x8, addend: 0x0, symName: __ZN4tbin5writeIhEEvRNSt3__113basic_ostreamIcNS1_11char_traitsIcEEEERKT_, symObjAddr: 0xA60, symBinAddr: 0x38BC0, symSize: 0x30 }
  - { offset: 0x16E997, size: 0x8, addend: 0x0, symName: __ZN4tbin5writeIfEEvRNSt3__113basic_ostreamIcNS1_11char_traitsIcEEEERKT_, symObjAddr: 0xA90, symBinAddr: 0x38BF0, symSize: 0x30 }
  - { offset: 0x16E9D6, size: 0x8, addend: 0x0, symName: __ZN4tbin13readTilesheetERNSt3__113basic_istreamIcNS0_11char_traitsIcEEEE, symObjAddr: 0xAF0, symBinAddr: 0x38C20, symSize: 0x210 }
  - { offset: 0x16EA11, size: 0x8, addend: 0x0, symName: __ZN4tbin14writeTilesheetERNSt3__113basic_ostreamIcNS0_11char_traitsIcEEEERKNS_9TileSheetE, symObjAddr: 0xD70, symBinAddr: 0x38E30, symSize: 0xA0 }
  - { offset: 0x16EA47, size: 0x8, addend: 0x0, symName: __ZN4tbin14readStaticTileERNSt3__113basic_istreamIcNS0_11char_traitsIcEEEERKNS0_12basic_stringIcS3_NS0_9allocatorIcEEEE, symObjAddr: 0xE10, symBinAddr: 0x38ED0, symSize: 0xD0 }
  - { offset: 0x16EA90, size: 0x8, addend: 0x0, symName: __ZN4tbin15writeStaticTileERNSt3__113basic_ostreamIcNS0_11char_traitsIcEEEERKNS_4TileE, symObjAddr: 0xF20, symBinAddr: 0x38FA0, symSize: 0x50 }
  - { offset: 0x16EAC6, size: 0x8, addend: 0x0, symName: __ZN4tbin16readAnimatedTileERNSt3__113basic_istreamIcNS0_11char_traitsIcEEEE, symObjAddr: 0xF70, symBinAddr: 0x38FF0, symSize: 0x280 }
  - { offset: 0x16EB49, size: 0x8, addend: 0x0, symName: __ZN4tbin17writeAnimatedTileERNSt3__113basic_ostreamIcNS0_11char_traitsIcEEEERKNS_4TileE, symObjAddr: 0x12F0, symBinAddr: 0x39340, symSize: 0x160 }
  - { offset: 0x16EBD2, size: 0x8, addend: 0x0, symName: __ZN4tbin9readLayerERNSt3__113basic_istreamIcNS0_11char_traitsIcEEEE, symObjAddr: 0x15A0, symBinAddr: 0x394A0, symSize: 0x4E0 }
  - { offset: 0x16EC6E, size: 0x8, addend: 0x0, symName: __ZN4tbin10writeLayerERNSt3__113basic_ostreamIcNS0_11char_traitsIcEEEERKNS_5LayerE, symObjAddr: 0x1BF0, symBinAddr: 0x39980, symSize: 0x270 }
  - { offset: 0x17DD91, size: 0x8, addend: 0x0, symName: __ZNSt3__14swapB9nqe210106IcNS_11char_traitsIcEENS_9allocatorIcEEEEvRNS_12basic_stringIT_T0_T1_EESA_, symObjAddr: 0x26F0, symBinAddr: 0x3A1A0, symSize: 0x30 }
  - { offset: 0x17DDE6, size: 0x8, addend: 0x0, symName: __ZNSt3__14swapB9nqe210106INS_12basic_stringIcNS_11char_traitsIcEENS_9allocatorIcEEEEN4tbin13PropertyValueENS_4lessIS6_EENS4_INS_4pairIKS6_S8_EEEEEEvRNS_3mapIT_T0_T1_T2_EESL_, symObjAddr: 0x2720, symBinAddr: 0x3A1D0, symSize: 0x30 }
  - { offset: 0x17DE43, size: 0x8, addend: 0x0, symName: __ZNSt3__14swapB9nqe210106IN4tbin9TileSheetENS_9allocatorIS2_EEEEvRNS_6vectorIT_T0_EES9_, symObjAddr: 0x2750, symBinAddr: 0x3A200, symSize: 0x30 }
  - { offset: 0x17DE8B, size: 0x8, addend: 0x0, symName: __ZNSt3__14swapB9nqe210106IN4tbin5LayerENS_9allocatorIS2_EEEEvRNS_6vectorIT_T0_EES9_, symObjAddr: 0x2780, symBinAddr: 0x3A230, symSize: 0x30 }
  - { offset: 0x17E06F, size: 0x8, addend: 0x0, symName: __ZNSt3__1neB9nqe210106IPKN4tbin9TileSheetEEEbRKNS_11__wrap_iterIT_EES9_, symObjAddr: 0x2D50, symBinAddr: 0x3A620, symSize: 0x30 }
