---
triple:          'x86_64-apple-darwin'
binary-path:     '/Users/dz0400621/Documents/project/tiled/debug/defold.2c43ffbe/libdefold.dylib'
relocations:
  - { offset: 0x3F, size: 0x8, addend: 0x0, symName: _qt_version_tag_6_11_use, symObjAddr: 0x7B18, symBinAddr: 0x11000, symSize: 0x0 }
  - { offset: 0x31BB, size: 0x8, addend: 0x0, symName: __ZN9QtPrivate16QCheckedIntegerseqERKNS0_11QCheckedIntIiNS0_13SafeCheckImplIiEENS0_18AssertReportPolicyEEES7_, symObjAddr: 0x3430, symBinAddr: 0x7300, symSize: 0x40 }
  - { offset: 0x320D, size: 0x8, addend: 0x0, symName: __ZN9QtPrivate16QCheckedIntegers13comparesEqualENS0_11QCheckedIntIiNS0_13SafeCheckImplIiEENS0_18AssertReportPolicyEEES5_, symObjAddr: 0x3470, symBinAddr: 0x7340, symSize: 0x20 }
  - { offset: 0x643A, size: 0x8, addend: 0x0, symName: __ZN9QtPrivateL19lengthHelperPointerIcEExPKT_, symObjAddr: 0x2850, symBinAddr: 0x6720, symSize: 0x50 }
  - { offset: 0x64AA, size: 0x8, addend: 0x0, symName: __ZN9QtPrivate33qvariant_cast_qmetatype_convertedIdEET_RK8QVariant9QMetaType, symObjAddr: 0x75C0, symBinAddr: 0xB490, symSize: 0x60 }
  - { offset: 0x64FF, size: 0x8, addend: 0x0, symName: __ZN9QtPrivateL30checkTypeIsSuitableForMetaTypeIdEEbv, symObjAddr: 0x7620, symBinAddr: 0xB4F0, symSize: 0x10 }
  - { offset: 0x6527, size: 0x8, addend: 0x0, symName: __ZN9QtPrivate25qMetaTypeInterfaceForTypeIdEEPKNS_18QMetaTypeInterfaceEv, symObjAddr: 0x7630, symBinAddr: 0xB500, symSize: 0x10 }
  - { offset: 0xB525, size: 0x8, addend: 0x0, symName: __ZN6DefoldL6cell_tE, symObjAddr: 0x7F20, symBinAddr: 0xE6A0, symSize: 0x0 }
  - { offset: 0xB53E, size: 0x8, addend: 0x0, symName: __ZN6DefoldL7layer_tE, symObjAddr: 0x7FB0, symBinAddr: 0xE730, symSize: 0x0 }
  - { offset: 0xB557, size: 0x8, addend: 0x0, symName: __ZN6DefoldL5map_tE, symObjAddr: 0x8000, symBinAddr: 0xE780, symSize: 0x0 }
  - { offset: 0xB6D8, size: 0x8, addend: 0x0, symName: __ZN6DefoldL16optionalPropertyIdEET_PKN5Tiled6ObjectERK7QStringRKS1_, symObjAddr: 0x13F0, symBinAddr: 0x52C0, symSize: 0x100 }
  - { offset: 0xB737, size: 0x8, addend: 0x0, symName: __ZN6DefoldL17setCellPropertiesER5QHashI7QString8QVariantERKN5Tiled4CellE, symObjAddr: 0x1710, symBinAddr: 0x55E0, symSize: 0x5F0 }
  - { offset: 0xB76F, size: 0x8, addend: 0x0, symName: __ZN6DefoldL11replaceTagsE7QStringRK5QHashIS0_8QVariantE, symObjAddr: 0x1D00, symBinAddr: 0x5BD0, symSize: 0x290 }
  - { offset: 0xB7DC, size: 0x8, addend: 0x0, symName: __ZN2Qt15strong_ordering10equivalentE, symObjAddr: 0x805C, symBinAddr: 0xE7DC, symSize: 0x0 }
  - { offset: 0xB978, size: 0x8, addend: 0x0, symName: __ZN2Qt15strong_ordering4lessE, symObjAddr: 0x805D, symBinAddr: 0xE7DD, symSize: 0x0 }
  - { offset: 0xB98B, size: 0x8, addend: 0x0, symName: __ZN2Qt15strong_ordering7greaterE, symObjAddr: 0x805E, symBinAddr: 0xE7DE, symSize: 0x0 }
  - { offset: 0xB9A5, size: 0x8, addend: 0x0, symName: __ZN2Qt13DisambiguatedE, symObjAddr: 0x8061, symBinAddr: 0xE7E1, symSize: 0x0 }
  - { offset: 0xC96D, size: 0x8, addend: 0x0, symName: __ZN2Qt5is_ltENS_15strong_orderingE, symObjAddr: 0x4AC0, symBinAddr: 0x8990, symSize: 0x50 }
  - { offset: 0xC99B, size: 0x8, addend: 0x0, symName: __ZN2QtltENS_15strong_orderingEN9QtPrivate25CompareAgainstLiteralZeroE, symObjAddr: 0x4B60, symBinAddr: 0x8A30, symSize: 0x20 }
  - { offset: 0xC9D4, size: 0x8, addend: 0x0, symName: __ZN2Qt15compareThreeWayIiiLb1ELb1EEENS_15strong_orderingET_T0_, symObjAddr: 0x4CC0, symBinAddr: 0x8B90, symSize: 0x40 }
  - { offset: 0x1D68E, size: 0x8, addend: 0x0, symName: __ZNSt3__117__cxx_atomic_loadB9nqe210106IiEET_PKNS_22__cxx_atomic_base_implIS1_EENS_12memory_orderE, symObjAddr: 0x3DD0, symBinAddr: 0x7CA0, symSize: 0x50 }
  - { offset: 0x1DCC4, size: 0x8, addend: 0x0, symName: __ZNSt3__18exchangeB9nqe210106IP15QTypedArrayDataIDsEDnEET_RS4_OT0_, symObjAddr: 0x2470, symBinAddr: 0x6340, symSize: 0x30 }
  - { offset: 0x1DD1E, size: 0x8, addend: 0x0, symName: __ZNSt3__18exchangeB9nqe210106IPDsDnEET_RS2_OT0_, symObjAddr: 0x24A0, symBinAddr: 0x6370, symSize: 0x30 }
  - { offset: 0x1DD78, size: 0x8, addend: 0x0, symName: __ZNSt3__18exchangeB9nqe210106IxiEET_RS1_OT0_, symObjAddr: 0x24D0, symBinAddr: 0x63A0, symSize: 0x30 }
  - { offset: 0x1DDD2, size: 0x8, addend: 0x0, symName: __ZNSt3__122__cxx_atomic_fetch_addB9nqe210106IiEET_PNS_22__cxx_atomic_base_implIS1_EES1_NS_12memory_orderE, symObjAddr: 0x2680, symBinAddr: 0x6550, symSize: 0xB0 }
  - { offset: 0x1DE23, size: 0x8, addend: 0x0, symName: __ZNSt3__14swapB9nqe210106IN8QVariant7PrivateEEENS_9enable_ifIXaasr21is_move_constructibleIT_EE5valuesr18is_move_assignableIS4_EE5valueEvE4typeERS4_S7_, symObjAddr: 0x2B80, symBinAddr: 0x6A50, symSize: 0xB0 }
  - { offset: 0x1DE74, size: 0x8, addend: 0x0, symName: __ZNSt3__1neB9nqe210106ERKNS_20__map_const_iteratorINS_21__tree_const_iteratorINS_12__value_typeI7QString8QVariantEEPNS_11__tree_nodeIS5_PvEElEEEESD_, symObjAddr: 0x46A0, symBinAddr: 0x8570, symSize: 0x30 }
  - { offset: 0x1DEB1, size: 0x8, addend: 0x0, symName: __ZNSt3__1neB9nqe210106ERKNS_21__tree_const_iteratorINS_12__value_typeI7QString8QVariantEEPNS_11__tree_nodeIS4_PvEElEESB_, symObjAddr: 0x4920, symBinAddr: 0x87F0, symSize: 0x30 }
  - { offset: 0x1DF21, size: 0x8, addend: 0x0, symName: __ZNSt3__1eqB9nqe210106ERKNS_21__tree_const_iteratorINS_12__value_typeI7QString8QVariantEEPNS_11__tree_nodeIS4_PvEElEESB_, symObjAddr: 0x4EE0, symBinAddr: 0x8DB0, symSize: 0x30 }
  - { offset: 0x1DF91, size: 0x8, addend: 0x0, symName: __ZNSt3__14swapB9nqe210106IxEENS_9enable_ifIXaasr21is_move_constructibleIT_EE5valuesr18is_move_assignableIS2_EE5valueEvE4typeERS2_S5_, symObjAddr: 0x5230, symBinAddr: 0x9100, symSize: 0x40 }
  - { offset: 0x1DFE2, size: 0x8, addend: 0x0, symName: __ZNSt3__122__cxx_atomic_fetch_subB9nqe210106IiEET_PNS_22__cxx_atomic_base_implIS1_EES1_NS_12memory_orderE, symObjAddr: 0x5530, symBinAddr: 0x9400, symSize: 0xC0 }
  - { offset: 0x43518, size: 0x8, addend: 0x0, symName: __ZN12QHashPrivate13calculateHashI6QPointEEmRKT_m, symObjAddr: 0x30A0, symBinAddr: 0x6F70, symSize: 0x30 }
  - { offset: 0x43560, size: 0x8, addend: 0x0, symName: __ZN12QHashPrivate12GrowthPolicy13bucketForHashEmm, symObjAddr: 0x31B0, symBinAddr: 0x7080, symSize: 0x20 }
  - { offset: 0x4359D, size: 0x8, addend: 0x0, symName: __ZN12QHashPrivate12GrowthPolicy18bucketsForCapacityEm, symObjAddr: 0x6670, symBinAddr: 0xA540, symSize: 0x70 }
  - { offset: 0x435EA, size: 0x8, addend: 0x0, symName: __ZN12QHashPrivate13calculateHashI7QStringEEmRKT_m, symObjAddr: 0x5C00, symBinAddr: 0x9AD0, symSize: 0x30 }
  - { offset: 0x76688, size: 0x8, addend: 0x0, symName: __ZN6Defold12DefoldPluginC2Ev, symObjAddr: 0x0, symBinAddr: 0x3ED0, symSize: 0x40 }
  - { offset: 0x766B4, size: 0x8, addend: 0x0, symName: __ZN5Tiled17WritableMapFormatC2EP7QObject, symObjAddr: 0x40, symBinAddr: 0x3F10, symSize: 0x40 }
  - { offset: 0x766EC, size: 0x8, addend: 0x0, symName: __ZN7QStringC1Ev, symObjAddr: 0x80, symBinAddr: 0x3F50, symSize: 0x20 }
  - { offset: 0x76718, size: 0x8, addend: 0x0, symName: __ZN6Defold12DefoldPluginC1Ev, symObjAddr: 0xA0, symBinAddr: 0x3F70, symSize: 0x20 }
  - { offset: 0x76744, size: 0x8, addend: 0x0, symName: __ZNK6Defold12DefoldPlugin10nameFilterEv, symObjAddr: 0xC0, symBinAddr: 0x3F90, symSize: 0x40 }
  - { offset: 0x7676C, size: 0x8, addend: 0x0, symName: __ZN6Defold12DefoldPlugin2trEPKcS2_i, symObjAddr: 0x100, symBinAddr: 0x3FD0, symSize: 0x40 }
  - { offset: 0x767B1, size: 0x8, addend: 0x0, symName: __ZNK6Defold12DefoldPlugin9shortNameEv, symObjAddr: 0x140, symBinAddr: 0x4010, symSize: 0x90 }
  - { offset: 0x76801, size: 0x8, addend: 0x0, symName: __ZN7QStringC1EO17QArrayDataPointerIDsE, symObjAddr: 0x1D0, symBinAddr: 0x40A0, symSize: 0x30 }
  - { offset: 0x7683A, size: 0x8, addend: 0x0, symName: __ZN17QArrayDataPointerIDsED1Ev, symObjAddr: 0x200, symBinAddr: 0x40D0, symSize: 0x20 }
  - { offset: 0x76864, size: 0x8, addend: 0x0, symName: __ZNK6Defold12DefoldPlugin11errorStringEv, symObjAddr: 0x220, symBinAddr: 0x40F0, symSize: 0x30 }
  - { offset: 0x7688C, size: 0x8, addend: 0x0, symName: __ZN7QStringC1ERKS_, symObjAddr: 0x250, symBinAddr: 0x4120, symSize: 0x30 }
  - { offset: 0x768D3, size: 0x8, addend: 0x0, symName: __ZN6Defold12DefoldPlugin5writeEPKN5Tiled3MapERK7QString6QFlagsINS1_10FileFormat6OptionEE, symObjAddr: 0x280, symBinAddr: 0x4150, symSize: 0x1120 }
  - { offset: 0x76A6B, size: 0x8, addend: 0x0, symName: __ZN5QHashI7QString8QVariantEC1Ev, symObjAddr: 0x13A0, symBinAddr: 0x5270, symSize: 0x20 }
  - { offset: 0x76A95, size: 0x8, addend: 0x0, symName: __ZN5Tiled13LayerIteratorC1EPKNS_3MapEi, symObjAddr: 0x13C0, symBinAddr: 0x5290, symSize: 0x30 }
  - { offset: 0x76ADF, size: 0x8, addend: 0x0, symName: __ZN7QStringD1Ev, symObjAddr: 0x14F0, symBinAddr: 0x53C0, symSize: 0x20 }
  - { offset: 0x76B0B, size: 0x8, addend: 0x0, symName: __ZNK5Tiled5Layer4nameEv, symObjAddr: 0x1510, symBinAddr: 0x53E0, symSize: 0x20 }
  - { offset: 0x76B31, size: 0x8, addend: 0x0, symName: __ZN5QHashI7QString8QVariantEixERKS0_, symObjAddr: 0x1530, symBinAddr: 0x5400, symSize: 0x30 }
  - { offset: 0x76B66, size: 0x8, addend: 0x0, symName: __ZN7QStringC1EPKc, symObjAddr: 0x1560, symBinAddr: 0x5430, symSize: 0x60 }
  - { offset: 0x76B9F, size: 0x8, addend: 0x0, symName: __ZN8QVariantaSEOS_, symObjAddr: 0x15C0, symBinAddr: 0x5490, symSize: 0x70 }
  - { offset: 0x76BE3, size: 0x8, addend: 0x0, symName: __ZNK5Tiled5Layer9isVisibleEv, symObjAddr: 0x1630, symBinAddr: 0x5500, symSize: 0x20 }
  - { offset: 0x76C09, size: 0x8, addend: 0x0, symName: __ZNK5Tiled9TileLayer5widthEv, symObjAddr: 0x1650, symBinAddr: 0x5520, symSize: 0x20 }
  - { offset: 0x76C2F, size: 0x8, addend: 0x0, symName: __ZNK5Tiled9TileLayer6heightEv, symObjAddr: 0x1670, symBinAddr: 0x5540, symSize: 0x20 }
  - { offset: 0x76C55, size: 0x8, addend: 0x0, symName: __ZNK5Tiled9TileLayer6cellAtEii, symObjAddr: 0x1690, symBinAddr: 0x5560, symSize: 0x60 }
  - { offset: 0x76CB9, size: 0x8, addend: 0x0, symName: __ZNK5Tiled4Cell7isEmptyEv, symObjAddr: 0x16F0, symBinAddr: 0x55C0, symSize: 0x20 }
  - { offset: 0x76CDF, size: 0x8, addend: 0x0, symName: __ZN13QLatin1StringC1EPKc, symObjAddr: 0x1F90, symBinAddr: 0x5E60, symSize: 0x30 }
  - { offset: 0x76D17, size: 0x8, addend: 0x0, symName: __ZN7QStringC1E13QLatin1String, symObjAddr: 0x1FC0, symBinAddr: 0x5E90, symSize: 0x60 }
  - { offset: 0x76D52, size: 0x8, addend: 0x0, symName: __ZN5QHashI7QString8QVariantED1Ev, symObjAddr: 0x2020, symBinAddr: 0x5EF0, symSize: 0x20 }
  - { offset: 0x76D7C, size: 0x8, addend: 0x0, symName: __ZN8QVariantC1EPKc, symObjAddr: 0x2040, symBinAddr: 0x5F10, symSize: 0x60 }
  - { offset: 0x76DB5, size: 0x8, addend: 0x0, symName: __ZNK5Tiled6Object8propertyERK7QString, symObjAddr: 0x20A0, symBinAddr: 0x5F70, symSize: 0xD0 }
  - { offset: 0x76E38, size: 0x8, addend: 0x0, symName: __ZN5Tiled8SaveFile4openE6QFlagsIN13QIODeviceBase12OpenModeFlagEE, symObjAddr: 0x2170, symBinAddr: 0x6040, symSize: 0x40 }
  - { offset: 0x76E6C, size: 0x8, addend: 0x0, symName: __ZorN13QIODeviceBase12OpenModeFlagES0_, symObjAddr: 0x21B0, symBinAddr: 0x6080, symSize: 0x40 }
  - { offset: 0x76EA7, size: 0x8, addend: 0x0, symName: __ZN7QStringaSEOS_, symObjAddr: 0x21F0, symBinAddr: 0x60C0, symSize: 0x30 }
  - { offset: 0x76EDC, size: 0x8, addend: 0x0, symName: __ZNK5Tiled8SaveFile6deviceEv, symObjAddr: 0x2220, symBinAddr: 0x60F0, symSize: 0x20 }
  - { offset: 0x76F03, size: 0x8, addend: 0x0, symName: __ZNK5Tiled8SaveFile5errorEv, symObjAddr: 0x2240, symBinAddr: 0x6110, symSize: 0x30 }
  - { offset: 0x76F2A, size: 0x8, addend: 0x0, symName: __ZNK5Tiled8SaveFile11errorStringEv, symObjAddr: 0x2270, symBinAddr: 0x6140, symSize: 0x40 }
  - { offset: 0x76F51, size: 0x8, addend: 0x0, symName: __ZN5Tiled8SaveFileD1Ev, symObjAddr: 0x22B0, symBinAddr: 0x6180, symSize: 0x20 }
  - { offset: 0x76F7D, size: 0x8, addend: 0x0, symName: __ZN5Tiled9MapFormatC2EP7QObject, symObjAddr: 0x22D0, symBinAddr: 0x61A0, symSize: 0x40 }
  - { offset: 0x76FB5, size: 0x8, addend: 0x0, symName: __ZN7QStringC2Ev, symObjAddr: 0x2310, symBinAddr: 0x61E0, symSize: 0x20 }
  - { offset: 0x76FE1, size: 0x8, addend: 0x0, symName: __ZN17QArrayDataPointerIDsEC1Ev, symObjAddr: 0x2330, symBinAddr: 0x6200, symSize: 0x20 }
  - { offset: 0x7700B, size: 0x8, addend: 0x0, symName: __ZN17QArrayDataPointerIDsEC2Ev, symObjAddr: 0x2350, symBinAddr: 0x6220, symSize: 0x30 }
  - { offset: 0x77035, size: 0x8, addend: 0x0, symName: __ZN7QStringC2EO17QArrayDataPointerIDsE, symObjAddr: 0x2380, symBinAddr: 0x6250, symSize: 0x30 }
  - { offset: 0x7706E, size: 0x8, addend: 0x0, symName: __ZN17QArrayDataPointerIDsEC1EOS0_, symObjAddr: 0x23B0, symBinAddr: 0x6280, symSize: 0x30 }
  - { offset: 0x770A6, size: 0x8, addend: 0x0, symName: __ZN17QArrayDataPointerIDsEC2EOS0_, symObjAddr: 0x23E0, symBinAddr: 0x62B0, symSize: 0x90 }
  - { offset: 0x770DE, size: 0x8, addend: 0x0, symName: __ZN7QStringC2ERKS_, symObjAddr: 0x2500, symBinAddr: 0x63D0, symSize: 0x30 }
  - { offset: 0x77119, size: 0x8, addend: 0x0, symName: __ZN17QArrayDataPointerIDsEC1ERKS0_, symObjAddr: 0x2530, symBinAddr: 0x6400, symSize: 0x30 }
  - { offset: 0x77151, size: 0x8, addend: 0x0, symName: __ZN17QArrayDataPointerIDsEC2ERKS0_, symObjAddr: 0x2560, symBinAddr: 0x6430, symSize: 0x50 }
  - { offset: 0x77189, size: 0x8, addend: 0x0, symName: __ZN17QArrayDataPointerIDsE3refEv, symObjAddr: 0x25B0, symBinAddr: 0x6480, symSize: 0x30 }
  - { offset: 0x771AF, size: 0x8, addend: 0x0, symName: __ZN10QArrayData3refEv, symObjAddr: 0x25E0, symBinAddr: 0x64B0, symSize: 0x20 }
  - { offset: 0x771D5, size: 0x8, addend: 0x0, symName: __ZN19QBasicAtomicIntegerIiE10refRelaxedEv, symObjAddr: 0x2600, symBinAddr: 0x64D0, symSize: 0x20 }
  - { offset: 0x77225, size: 0x8, addend: 0x0, symName: __ZN10QAtomicOpsIiE18fetchAndAddRelaxedIiEET_RNSt3__16atomicIS2_EEN19QAtomicAdditiveTypeIS2_E9AdditiveTE, symObjAddr: 0x2620, symBinAddr: 0x64F0, symSize: 0x30 }
  - { offset: 0x77261, size: 0x8, addend: 0x0, symName: __ZNSt3__113__atomic_baseIiLb1EE9fetch_addB9nqe210106EiNS_12memory_orderE, symObjAddr: 0x2650, symBinAddr: 0x6520, symSize: 0x30 }
  - { offset: 0x772A3, size: 0x8, addend: 0x0, symName: __ZN5QHashI7QString8QVariantEC2Ev, symObjAddr: 0x2730, symBinAddr: 0x6600, symSize: 0x20 }
  - { offset: 0x772CD, size: 0x8, addend: 0x0, symName: __ZN5Tiled13LayerIteratorC2EPKNS_3MapEi, symObjAddr: 0x2750, symBinAddr: 0x6620, symSize: 0x40 }
  - { offset: 0x77317, size: 0x8, addend: 0x0, symName: __ZN7QStringD2Ev, symObjAddr: 0x2790, symBinAddr: 0x6660, symSize: 0x20 }
  - { offset: 0x77349, size: 0x8, addend: 0x0, symName: __ZN14QByteArrayViewC1IPKcLb1EEERKT_, symObjAddr: 0x27B0, symBinAddr: 0x6680, symSize: 0x70 }
  - { offset: 0x77390, size: 0x8, addend: 0x0, symName: __ZN7QStringC1EOS_, symObjAddr: 0x2820, symBinAddr: 0x66F0, symSize: 0x30 }
  - { offset: 0x773C9, size: 0x8, addend: 0x0, symName: __ZN14QByteArrayViewC1IcLb1EEEPKT_x, symObjAddr: 0x28A0, symBinAddr: 0x6770, symSize: 0x30 }
  - { offset: 0x7741E, size: 0x8, addend: 0x0, symName: __ZN14QByteArrayViewC2IcLb1EEEPKT_x, symObjAddr: 0x28E0, symBinAddr: 0x67B0, symSize: 0x90 }
  - { offset: 0x77473, size: 0x8, addend: 0x0, symName: __ZN14QByteArrayView10castHelperEPKc, symObjAddr: 0x2970, symBinAddr: 0x6840, symSize: 0x10 }
  - { offset: 0x77496, size: 0x8, addend: 0x0, symName: __ZN7QStringC2EOS_, symObjAddr: 0x2980, symBinAddr: 0x6850, symSize: 0x30 }
  - { offset: 0x774CF, size: 0x8, addend: 0x0, symName: __ZN8QVariantC1EOS_, symObjAddr: 0x29B0, symBinAddr: 0x6880, symSize: 0x30 }
  - { offset: 0x77508, size: 0x8, addend: 0x0, symName: __ZN8QVariant4swapERS_, symObjAddr: 0x29E0, symBinAddr: 0x68B0, symSize: 0x30 }
  - { offset: 0x7753D, size: 0x8, addend: 0x0, symName: __ZN8QVariantC2EOS_, symObjAddr: 0x2A10, symBinAddr: 0x68E0, symSize: 0x90 }
  - { offset: 0x77576, size: 0x8, addend: 0x0, symName: __ZN8QVariant7PrivateC1Ev, symObjAddr: 0x2AA0, symBinAddr: 0x6970, symSize: 0x20 }
  - { offset: 0x775A0, size: 0x8, addend: 0x0, symName: __ZN8QVariant7PrivateC2Ev, symObjAddr: 0x2AC0, symBinAddr: 0x6990, symSize: 0x60 }
  - { offset: 0x775CF, size: 0x8, addend: 0x0, symName: __ZN8QVariant7PrivateUt_C1Ev, symObjAddr: 0x2B20, symBinAddr: 0x69F0, symSize: 0x20 }
  - { offset: 0x775FB, size: 0x8, addend: 0x0, symName: __ZN8QVariant7PrivateUt_C2Ev, symObjAddr: 0x2B40, symBinAddr: 0x6A10, symSize: 0x40 }
  - { offset: 0x77627, size: 0x8, addend: 0x0, symName: __ZNK5Tiled9TileLayer9findChunkEii, symObjAddr: 0x2C30, symBinAddr: 0x6B00, symSize: 0xA0 }
  - { offset: 0x7768B, size: 0x8, addend: 0x0, symName: __ZNK5Tiled5Chunk6cellAtEii, symObjAddr: 0x2CD0, symBinAddr: 0x6BA0, symSize: 0x30 }
  - { offset: 0x776CE, size: 0x8, addend: 0x0, symName: __ZN6QPointC1Eii, symObjAddr: 0x2D00, symBinAddr: 0x6BD0, symSize: 0x30 }
  - { offset: 0x77715, size: 0x8, addend: 0x0, symName: __ZNK5QHashI6QPointN5Tiled5ChunkEE4findERKS0_, symObjAddr: 0x2D30, symBinAddr: 0x6C00, symSize: 0x40 }
  - { offset: 0x7774A, size: 0x8, addend: 0x0, symName: __ZNK5QHashI6QPointN5Tiled5ChunkEE14const_iteratorneERKS4_, symObjAddr: 0x2D70, symBinAddr: 0x6C40, symSize: 0x40 }
  - { offset: 0x7777F, size: 0x8, addend: 0x0, symName: __ZNK5QHashI6QPointN5Tiled5ChunkEE3endEv, symObjAddr: 0x2DB0, symBinAddr: 0x6C80, symSize: 0x30 }
  - { offset: 0x777A5, size: 0x8, addend: 0x0, symName: __ZNK5QHashI6QPointN5Tiled5ChunkEE14const_iterator5valueEv, symObjAddr: 0x2DE0, symBinAddr: 0x6CB0, symSize: 0x20 }
  - { offset: 0x777CB, size: 0x8, addend: 0x0, symName: __ZN6QPointC2Eii, symObjAddr: 0x2E00, symBinAddr: 0x6CD0, symSize: 0x40 }
  - { offset: 0x77812, size: 0x8, addend: 0x0, symName: __ZN9QtPrivate16QCheckedIntegers11QCheckedIntIiNS0_13SafeCheckImplIiEENS0_18AssertReportPolicyEEC1Ei, symObjAddr: 0x2E40, symBinAddr: 0x6D10, symSize: 0x30 }
  - { offset: 0x7784A, size: 0x8, addend: 0x0, symName: __ZN9QtPrivate16QCheckedIntegers11QCheckedIntIiNS0_13SafeCheckImplIiEENS0_18AssertReportPolicyEEC2Ei, symObjAddr: 0x2E70, symBinAddr: 0x6D40, symSize: 0x20 }
  - { offset: 0x77882, size: 0x8, addend: 0x0, symName: __ZNK5QHashI6QPointN5Tiled5ChunkEE13constFindImplIS0_EENS3_14const_iteratorERKT_, symObjAddr: 0x2E90, symBinAddr: 0x6D60, symSize: 0xC0 }
  - { offset: 0x778CF, size: 0x8, addend: 0x0, symName: __ZNK5QHashI6QPointN5Tiled5ChunkEE7isEmptyEv, symObjAddr: 0x2F50, symBinAddr: 0x6E20, symSize: 0x40 }
  - { offset: 0x778F5, size: 0x8, addend: 0x0, symName: __ZNK12QHashPrivate4DataINS_4NodeI6QPointN5Tiled5ChunkEEEE10findBucketIS2_EENS6_6BucketERKT_, symObjAddr: 0x2F90, symBinAddr: 0x6E60, symSize: 0x70 }
  - { offset: 0x77942, size: 0x8, addend: 0x0, symName: __ZNK12QHashPrivate4DataINS_4NodeI6QPointN5Tiled5ChunkEEEE6Bucket8isUnusedEv, symObjAddr: 0x3000, symBinAddr: 0x6ED0, symSize: 0x30 }
  - { offset: 0x77968, size: 0x8, addend: 0x0, symName: __ZNK12QHashPrivate4DataINS_4NodeI6QPointN5Tiled5ChunkEEEE6Bucket13toBucketIndexEPKS6_, symObjAddr: 0x3030, symBinAddr: 0x6F00, symSize: 0x40 }
  - { offset: 0x7799D, size: 0x8, addend: 0x0, symName: __ZN5QHashI6QPointN5Tiled5ChunkEE14const_iteratorC1EN12QHashPrivate8iteratorINS5_4NodeIS0_S2_EEEE, symObjAddr: 0x3070, symBinAddr: 0x6F40, symSize: 0x30 }
  - { offset: 0x779D6, size: 0x8, addend: 0x0, symName: __ZNK12QHashPrivate4DataINS_4NodeI6QPointN5Tiled5ChunkEEEE18findBucketWithHashIS2_EENS6_6BucketERKT_m, symObjAddr: 0x30D0, symBinAddr: 0x6FA0, symSize: 0xE0 }
  - { offset: 0x77A5E, size: 0x8, addend: 0x0, symName: __ZN12QHashPrivate4DataINS_4NodeI6QPointN5Tiled5ChunkEEEE6BucketC1EPKS6_m, symObjAddr: 0x31D0, symBinAddr: 0x70A0, symSize: 0x30 }
  - { offset: 0x77AA6, size: 0x8, addend: 0x0, symName: __ZNK12QHashPrivate4DataINS_4NodeI6QPointN5Tiled5ChunkEEEE6Bucket6offsetEv, symObjAddr: 0x3200, symBinAddr: 0x70D0, symSize: 0x30 }
  - { offset: 0x77ACC, size: 0x8, addend: 0x0, symName: __ZN12QHashPrivate4DataINS_4NodeI6QPointN5Tiled5ChunkEEEE6Bucket12nodeAtOffsetEm, symObjAddr: 0x3230, symBinAddr: 0x7100, symSize: 0x30 }
  - { offset: 0x77B00, size: 0x8, addend: 0x0, symName: __Z11qHashEqualsI6QPointEbRKT_S3_, symObjAddr: 0x3260, symBinAddr: 0x7130, symSize: 0x30 }
  - { offset: 0x77B47, size: 0x8, addend: 0x0, symName: __ZN12QHashPrivate4DataINS_4NodeI6QPointN5Tiled5ChunkEEEE6Bucket14advanceWrappedEPKS6_, symObjAddr: 0x3290, symBinAddr: 0x7160, symSize: 0x30 }
  - { offset: 0x77B7C, size: 0x8, addend: 0x0, symName: __ZN12QHashPrivate4DataINS_4NodeI6QPointN5Tiled5ChunkEEEE6BucketC2EPKS6_m, symObjAddr: 0x32C0, symBinAddr: 0x7190, symSize: 0x40 }
  - { offset: 0x77BC4, size: 0x8, addend: 0x0, symName: __ZNK12QHashPrivate4SpanINS_4NodeI6QPointN5Tiled5ChunkEEEE6offsetEm, symObjAddr: 0x3300, symBinAddr: 0x71D0, symSize: 0x20 }
  - { offset: 0x77BF9, size: 0x8, addend: 0x0, symName: __ZN12QHashPrivate4SpanINS_4NodeI6QPointN5Tiled5ChunkEEEE8atOffsetEm, symObjAddr: 0x3320, symBinAddr: 0x71F0, symSize: 0x80 }
  - { offset: 0x77C2E, size: 0x8, addend: 0x0, symName: __ZN12QHashPrivate4SpanINS_4NodeI6QPointN5Tiled5ChunkEEEE5Entry4nodeEv, symObjAddr: 0x33A0, symBinAddr: 0x7270, symSize: 0x10 }
  - { offset: 0x77C53, size: 0x8, addend: 0x0, symName: __ZeqRK6QPointS1_, symObjAddr: 0x33B0, symBinAddr: 0x7280, symSize: 0x30 }
  - { offset: 0x77CA1, size: 0x8, addend: 0x0, symName: __Z13comparesEqualRK6QPointS1_, symObjAddr: 0x33E0, symBinAddr: 0x72B0, symSize: 0x50 }
  - { offset: 0x77CDC, size: 0x8, addend: 0x0, symName: __ZN12QHashPrivate4DataINS_4NodeI6QPointN5Tiled5ChunkEEEE6Bucket12advance_implEPKS6_PNS_4SpanIS5_EE, symObjAddr: 0x3490, symBinAddr: 0x7360, symSize: 0xC0 }
  - { offset: 0x77D20, size: 0x8, addend: 0x0, symName: __ZNK12QHashPrivate4SpanINS_4NodeI6QPointN5Tiled5ChunkEEEE7hasNodeEm, symObjAddr: 0x3550, symBinAddr: 0x7420, symSize: 0x30 }
  - { offset: 0x77D55, size: 0x8, addend: 0x0, symName: __ZN5QHashI6QPointN5Tiled5ChunkEE14const_iteratorC2EN12QHashPrivate8iteratorINS5_4NodeIS0_S2_EEEE, symObjAddr: 0x3580, symBinAddr: 0x7450, symSize: 0x30 }
  - { offset: 0x77D8E, size: 0x8, addend: 0x0, symName: __ZNK12QHashPrivate8iteratorINS_4NodeI6QPointN5Tiled5ChunkEEEEneES6_, symObjAddr: 0x35B0, symBinAddr: 0x7480, symSize: 0x40 }
  - { offset: 0x77DC3, size: 0x8, addend: 0x0, symName: __ZNK12QHashPrivate8iteratorINS_4NodeI6QPointN5Tiled5ChunkEEEEeqES6_, symObjAddr: 0x35F0, symBinAddr: 0x74C0, symSize: 0x40 }
  - { offset: 0x77DF8, size: 0x8, addend: 0x0, symName: __ZN5QHashI6QPointN5Tiled5ChunkEE14const_iteratorC1Ev, symObjAddr: 0x3630, symBinAddr: 0x7500, symSize: 0x20 }
  - { offset: 0x77E22, size: 0x8, addend: 0x0, symName: __ZN5QHashI6QPointN5Tiled5ChunkEE14const_iteratorC2Ev, symObjAddr: 0x3650, symBinAddr: 0x7520, symSize: 0x20 }
  - { offset: 0x77E4C, size: 0x8, addend: 0x0, symName: __ZN12QHashPrivate8iteratorINS_4NodeI6QPointN5Tiled5ChunkEEEEC1Ev, symObjAddr: 0x3670, symBinAddr: 0x7540, symSize: 0x20 }
  - { offset: 0x77E79, size: 0x8, addend: 0x0, symName: __ZN12QHashPrivate8iteratorINS_4NodeI6QPointN5Tiled5ChunkEEEEC2Ev, symObjAddr: 0x3690, symBinAddr: 0x7560, symSize: 0x20 }
  - { offset: 0x77EA6, size: 0x8, addend: 0x0, symName: __ZNK12QHashPrivate8iteratorINS_4NodeI6QPointN5Tiled5ChunkEEEE4nodeEv, symObjAddr: 0x36B0, symBinAddr: 0x7580, symSize: 0x80 }
  - { offset: 0x77ECC, size: 0x8, addend: 0x0, symName: __ZNK12QHashPrivate8iteratorINS_4NodeI6QPointN5Tiled5ChunkEEEE8isUnusedEv, symObjAddr: 0x3730, symBinAddr: 0x7600, symSize: 0x60 }
  - { offset: 0x77EF2, size: 0x8, addend: 0x0, symName: __ZNK12QHashPrivate8iteratorINS_4NodeI6QPointN5Tiled5ChunkEEEE4spanEv, symObjAddr: 0x3790, symBinAddr: 0x7660, symSize: 0x20 }
  - { offset: 0x77F18, size: 0x8, addend: 0x0, symName: __ZN12QHashPrivate4SpanINS_4NodeI6QPointN5Tiled5ChunkEEEE2atEm, symObjAddr: 0x37B0, symBinAddr: 0x7680, symSize: 0x90 }
  - { offset: 0x77F4D, size: 0x8, addend: 0x0, symName: __ZNK12QHashPrivate8iteratorINS_4NodeI6QPointN5Tiled5ChunkEEEE5indexEv, symObjAddr: 0x3840, symBinAddr: 0x7710, symSize: 0x20 }
  - { offset: 0x77F73, size: 0x8, addend: 0x0, symName: __ZNK5QListIN5Tiled4CellEE2atEx, symObjAddr: 0x3860, symBinAddr: 0x7730, symSize: 0x70 }
  - { offset: 0x77FA8, size: 0x8, addend: 0x0, symName: __ZNK17QArrayDataPointerIN5Tiled4CellEEptEv, symObjAddr: 0x38D0, symBinAddr: 0x77A0, symSize: 0x10 }
  - { offset: 0x77FCE, size: 0x8, addend: 0x0, symName: __ZNK5QListIN5Tiled4CellEE4dataEv, symObjAddr: 0x38E0, symBinAddr: 0x77B0, symSize: 0x30 }
  - { offset: 0x77FF4, size: 0x8, addend: 0x0, symName: __ZNK17QArrayDataPointerIN5Tiled4CellEE4dataEv, symObjAddr: 0x3910, symBinAddr: 0x77E0, symSize: 0x20 }
  - { offset: 0x7801A, size: 0x8, addend: 0x0, symName: __ZNK5Tiled4Cell6tileIdEv, symObjAddr: 0x3930, symBinAddr: 0x7800, symSize: 0x20 }
  - { offset: 0x78040, size: 0x8, addend: 0x0, symName: __ZNK5Tiled4Cell21flippedAntiDiagonallyEv, symObjAddr: 0x3950, symBinAddr: 0x7820, symSize: 0x20 }
  - { offset: 0x78066, size: 0x8, addend: 0x0, symName: __ZNK5Tiled4Cell17flippedVerticallyEv, symObjAddr: 0x3970, symBinAddr: 0x7840, symSize: 0x20 }
  - { offset: 0x7808C, size: 0x8, addend: 0x0, symName: __ZNK5Tiled4Cell19flippedHorizontallyEv, symObjAddr: 0x3990, symBinAddr: 0x7860, symSize: 0x20 }
  - { offset: 0x78233, size: 0x8, addend: 0x0, symName: __ZN13QHashIteratorI7QString8QVariantEC1ERK5QHashIS0_S1_E, symObjAddr: 0x39B0, symBinAddr: 0x7880, symSize: 0x30 }
  - { offset: 0x7826C, size: 0x8, addend: 0x0, symName: __ZNK13QHashIteratorI7QString8QVariantE7hasNextEv, symObjAddr: 0x39E0, symBinAddr: 0x78B0, symSize: 0x40 }
  - { offset: 0x78292, size: 0x8, addend: 0x0, symName: __ZN13QHashIteratorI7QString8QVariantE4nextEv, symObjAddr: 0x3A20, symBinAddr: 0x78F0, symSize: 0x50 }
  - { offset: 0x782B7, size: 0x8, addend: 0x0, symName: __ZplO7QStringRKS_, symObjAddr: 0x3A70, symBinAddr: 0x7940, symSize: 0x50 }
  - { offset: 0x782F5, size: 0x8, addend: 0x0, symName: __ZNK13QHashIteratorI7QString8QVariantE3keyEv, symObjAddr: 0x3AC0, symBinAddr: 0x7990, symSize: 0x50 }
  - { offset: 0x7831B, size: 0x8, addend: 0x0, symName: __ZNK13QHashIteratorI7QString8QVariantE5valueEv, symObjAddr: 0x3B10, symBinAddr: 0x79E0, symSize: 0x50 }
  - { offset: 0x78341, size: 0x8, addend: 0x0, symName: __ZN13QHashIteratorI7QString8QVariantED1Ev, symObjAddr: 0x3B60, symBinAddr: 0x7A30, symSize: 0x20 }
  - { offset: 0x7836E, size: 0x8, addend: 0x0, symName: __ZN13QHashIteratorI7QString8QVariantEC2ERK5QHashIS0_S1_E, symObjAddr: 0x3B80, symBinAddr: 0x7A50, symSize: 0x50 }
  - { offset: 0x783A7, size: 0x8, addend: 0x0, symName: __ZN5QHashI7QString8QVariantEC1ERKS2_, symObjAddr: 0x3BD0, symBinAddr: 0x7AA0, symSize: 0x30 }
  - { offset: 0x783E0, size: 0x8, addend: 0x0, symName: __ZNK5QHashI7QString8QVariantE10constBeginEv, symObjAddr: 0x3C00, symBinAddr: 0x7AD0, symSize: 0x80 }
  - { offset: 0x78406, size: 0x8, addend: 0x0, symName: __ZNK5QHashI7QString8QVariantE8constEndEv, symObjAddr: 0x3C80, symBinAddr: 0x7B50, symSize: 0x30 }
  - { offset: 0x7842C, size: 0x8, addend: 0x0, symName: __ZN5QHashI7QString8QVariantEC2ERKS2_, symObjAddr: 0x3CB0, symBinAddr: 0x7B80, symSize: 0x40 }
  - { offset: 0x78465, size: 0x8, addend: 0x0, symName: __ZN9QtPrivate8RefCount3refEv, symObjAddr: 0x3CF0, symBinAddr: 0x7BC0, symSize: 0x40 }
  - { offset: 0x78499, size: 0x8, addend: 0x0, symName: __ZNK19QBasicAtomicIntegerIiE11loadRelaxedEv, symObjAddr: 0x3D30, symBinAddr: 0x7C00, symSize: 0x20 }
  - { offset: 0x784BF, size: 0x8, addend: 0x0, symName: __ZN19QBasicAtomicIntegerIiE3refEv, symObjAddr: 0x3D50, symBinAddr: 0x7C20, symSize: 0x30 }
  - { offset: 0x784E5, size: 0x8, addend: 0x0, symName: __ZN10QAtomicOpsIiE11loadRelaxedIiEET_RKNSt3__16atomicIS2_EE, symObjAddr: 0x3D80, symBinAddr: 0x7C50, symSize: 0x20 }
  - { offset: 0x78511, size: 0x8, addend: 0x0, symName: __ZNKSt3__113__atomic_baseIiLb0EE4loadB9nqe210106ENS_12memory_orderE, symObjAddr: 0x3DA0, symBinAddr: 0x7C70, symSize: 0x30 }
  - { offset: 0x78545, size: 0x8, addend: 0x0, symName: __ZN10QAtomicOpsIiE3refIiEEbRNSt3__16atomicIT_EE, symObjAddr: 0x3E20, symBinAddr: 0x7CF0, symSize: 0x30 }
  - { offset: 0x78571, size: 0x8, addend: 0x0, symName: __ZNK12QHashPrivate4DataINS_4NodeI7QString8QVariantEEE5beginEv, symObjAddr: 0x3E50, symBinAddr: 0x7D20, symSize: 0x50 }
  - { offset: 0x785A6, size: 0x8, addend: 0x0, symName: __ZN5QHashI7QString8QVariantE14const_iteratorC1EN12QHashPrivate8iteratorINS4_4NodeIS0_S1_EEEE, symObjAddr: 0x3EA0, symBinAddr: 0x7D70, symSize: 0x30 }
  - { offset: 0x785DF, size: 0x8, addend: 0x0, symName: __ZN5QHashI7QString8QVariantE14const_iteratorC1Ev, symObjAddr: 0x3ED0, symBinAddr: 0x7DA0, symSize: 0x20 }
  - { offset: 0x78609, size: 0x8, addend: 0x0, symName: __ZNK12QHashPrivate8iteratorINS_4NodeI7QString8QVariantEEE8isUnusedEv, symObjAddr: 0x3EF0, symBinAddr: 0x7DC0, symSize: 0x60 }
  - { offset: 0x7862F, size: 0x8, addend: 0x0, symName: __ZN12QHashPrivate8iteratorINS_4NodeI7QString8QVariantEEEppEv, symObjAddr: 0x3F50, symBinAddr: 0x7E20, symSize: 0x80 }
  - { offset: 0x78655, size: 0x8, addend: 0x0, symName: __ZNK12QHashPrivate8iteratorINS_4NodeI7QString8QVariantEEE4spanEv, symObjAddr: 0x3FD0, symBinAddr: 0x7EA0, symSize: 0x20 }
  - { offset: 0x7867B, size: 0x8, addend: 0x0, symName: __ZNK12QHashPrivate4SpanINS_4NodeI7QString8QVariantEEE7hasNodeEm, symObjAddr: 0x3FF0, symBinAddr: 0x7EC0, symSize: 0x30 }
  - { offset: 0x786B0, size: 0x8, addend: 0x0, symName: __ZNK12QHashPrivate8iteratorINS_4NodeI7QString8QVariantEEE5indexEv, symObjAddr: 0x4020, symBinAddr: 0x7EF0, symSize: 0x20 }
  - { offset: 0x786D6, size: 0x8, addend: 0x0, symName: __ZN5QHashI7QString8QVariantE14const_iteratorC2EN12QHashPrivate8iteratorINS4_4NodeIS0_S1_EEEE, symObjAddr: 0x4040, symBinAddr: 0x7F10, symSize: 0x30 }
  - { offset: 0x7870F, size: 0x8, addend: 0x0, symName: __ZN5QHashI7QString8QVariantE14const_iteratorC2Ev, symObjAddr: 0x4070, symBinAddr: 0x7F40, symSize: 0x20 }
  - { offset: 0x78739, size: 0x8, addend: 0x0, symName: __ZN12QHashPrivate8iteratorINS_4NodeI7QString8QVariantEEEC1Ev, symObjAddr: 0x4090, symBinAddr: 0x7F60, symSize: 0x20 }
  - { offset: 0x78766, size: 0x8, addend: 0x0, symName: __ZN12QHashPrivate8iteratorINS_4NodeI7QString8QVariantEEEC2Ev, symObjAddr: 0x40B0, symBinAddr: 0x7F80, symSize: 0x20 }
  - { offset: 0x78793, size: 0x8, addend: 0x0, symName: __ZNK5QHashI7QString8QVariantE14const_iteratorneERKS3_, symObjAddr: 0x40D0, symBinAddr: 0x7FA0, symSize: 0x40 }
  - { offset: 0x787C8, size: 0x8, addend: 0x0, symName: __ZNK12QHashPrivate8iteratorINS_4NodeI7QString8QVariantEEEneES5_, symObjAddr: 0x4110, symBinAddr: 0x7FE0, symSize: 0x40 }
  - { offset: 0x787FD, size: 0x8, addend: 0x0, symName: __ZNK12QHashPrivate8iteratorINS_4NodeI7QString8QVariantEEEeqES5_, symObjAddr: 0x4150, symBinAddr: 0x8020, symSize: 0x40 }
  - { offset: 0x78832, size: 0x8, addend: 0x0, symName: __ZN5QHashI7QString8QVariantE14const_iteratorppEi, symObjAddr: 0x4190, symBinAddr: 0x8060, symSize: 0x40 }
  - { offset: 0x78872, size: 0x8, addend: 0x0, symName: __ZN7QStringpLERKS_, symObjAddr: 0x41D0, symBinAddr: 0x80A0, symSize: 0x30 }
  - { offset: 0x788A7, size: 0x8, addend: 0x0, symName: __ZNK13QHashIteratorI7QString8QVariantE11item_existsEv, symObjAddr: 0x4200, symBinAddr: 0x80D0, symSize: 0x40 }
  - { offset: 0x788CD, size: 0x8, addend: 0x0, symName: __ZNK5QHashI7QString8QVariantE14const_iterator3keyEv, symObjAddr: 0x4240, symBinAddr: 0x8110, symSize: 0x20 }
  - { offset: 0x788F3, size: 0x8, addend: 0x0, symName: __ZNK12QHashPrivate8iteratorINS_4NodeI7QString8QVariantEEE4nodeEv, symObjAddr: 0x4260, symBinAddr: 0x8130, symSize: 0x80 }
  - { offset: 0x78919, size: 0x8, addend: 0x0, symName: __ZN12QHashPrivate4SpanINS_4NodeI7QString8QVariantEEE2atEm, symObjAddr: 0x42E0, symBinAddr: 0x81B0, symSize: 0xB0 }
  - { offset: 0x7894E, size: 0x8, addend: 0x0, symName: __ZN12QHashPrivate4SpanINS_4NodeI7QString8QVariantEEE5Entry4nodeEv, symObjAddr: 0x4390, symBinAddr: 0x8260, symSize: 0x10 }
  - { offset: 0x78974, size: 0x8, addend: 0x0, symName: __ZNK5QHashI7QString8QVariantE14const_iteratordeEv, symObjAddr: 0x43A0, symBinAddr: 0x8270, symSize: 0x20 }
  - { offset: 0x7899A, size: 0x8, addend: 0x0, symName: __ZN13QHashIteratorI7QString8QVariantED2Ev, symObjAddr: 0x43C0, symBinAddr: 0x8290, symSize: 0x20 }
  - { offset: 0x789C7, size: 0x8, addend: 0x0, symName: __ZN13QLatin1StringC2EPKc, symObjAddr: 0x43E0, symBinAddr: 0x82B0, symSize: 0x50 }
  - { offset: 0x789FF, size: 0x8, addend: 0x0, symName: __ZN7QString10fromLatin1EPKcx, symObjAddr: 0x4430, symBinAddr: 0x8300, symSize: 0x80 }
  - { offset: 0x78A32, size: 0x8, addend: 0x0, symName: __ZNK13QLatin1String4dataEv, symObjAddr: 0x44B0, symBinAddr: 0x8380, symSize: 0x20 }
  - { offset: 0x78A58, size: 0x8, addend: 0x0, symName: __ZNK13QLatin1String4sizeEv, symObjAddr: 0x44D0, symBinAddr: 0x83A0, symSize: 0x20 }
  - { offset: 0x78A7D, size: 0x8, addend: 0x0, symName: __Z7qstrlenPKc, symObjAddr: 0x44F0, symBinAddr: 0x83C0, symSize: 0x40 }
  - { offset: 0x78AAA, size: 0x8, addend: 0x0, symName: __ZNK4QMapI7QString8QVariantE5valueERKS0_RKS1_, symObjAddr: 0x4530, symBinAddr: 0x8400, symSize: 0xC0 }
  - { offset: 0x78AFD, size: 0x8, addend: 0x0, symName: __ZN8QVariantC1Ev, symObjAddr: 0x45F0, symBinAddr: 0x84C0, symSize: 0x20 }
  - { offset: 0x78B27, size: 0x8, addend: 0x0, symName: __ZNK9QtPrivate30QExplicitlySharedDataPointerV2I8QMapDataINSt3__13mapI7QString8QVariantNS2_4lessIS4_EENS2_9allocatorINS2_4pairIKS4_S5_EEEEEEEEcvbEv, symObjAddr: 0x4610, symBinAddr: 0x84E0, symSize: 0x30 }
  - { offset: 0x78B4D, size: 0x8, addend: 0x0, symName: __ZNK9QtPrivate30QExplicitlySharedDataPointerV2I8QMapDataINSt3__13mapI7QString8QVariantNS2_4lessIS4_EENS2_9allocatorINS2_4pairIKS4_S5_EEEEEEEEptEv, symObjAddr: 0x4640, symBinAddr: 0x8510, symSize: 0x20 }
  - { offset: 0x78B73, size: 0x8, addend: 0x0, symName: __ZNKSt3__13mapI7QString8QVariantNS_4lessIS1_EENS_9allocatorINS_4pairIKS1_S2_EEEEE4findB9nqe210106ERS7_, symObjAddr: 0x4660, symBinAddr: 0x8530, symSize: 0x40 }
  - { offset: 0x78BA8, size: 0x8, addend: 0x0, symName: __ZNKSt3__13mapI7QString8QVariantNS_4lessIS1_EENS_9allocatorINS_4pairIKS1_S2_EEEEE4cendB9nqe210106Ev, symObjAddr: 0x46D0, symBinAddr: 0x85A0, symSize: 0x30 }
  - { offset: 0x78BCE, size: 0x8, addend: 0x0, symName: __ZNKSt3__120__map_const_iteratorINS_21__tree_const_iteratorINS_12__value_typeI7QString8QVariantEEPNS_11__tree_nodeIS5_PvEElEEEptB9nqe210106Ev, symObjAddr: 0x4700, symBinAddr: 0x85D0, symSize: 0x30 }
  - { offset: 0x78BF4, size: 0x8, addend: 0x0, symName: __ZNK2Qt23totally_ordered_wrapperIP8QMapDataINSt3__13mapI7QString8QVariantNS2_4lessIS4_EENS2_9allocatorINS2_4pairIKS4_S5_EEEEEEEE3getEv, symObjAddr: 0x4730, symBinAddr: 0x8600, symSize: 0x20 }
  - { offset: 0x78C1A, size: 0x8, addend: 0x0, symName: __ZNKSt3__16__treeINS_12__value_typeI7QString8QVariantEENS_19__map_value_compareIS2_NS_4pairIKS2_S3_EENS_4lessIS2_EELb1EEENS_9allocatorIS8_EEE4findIS2_EENS_21__tree_const_iteratorIS4_PNS_11__tree_nodeIS4_PvEElEERKT_, symObjAddr: 0x4750, symBinAddr: 0x8620, symSize: 0xD0 }
  - { offset: 0x78C67, size: 0x8, addend: 0x0, symName: __ZNSt3__120__map_const_iteratorINS_21__tree_const_iteratorINS_12__value_typeI7QString8QVariantEEPNS_11__tree_nodeIS5_PvEElEEEC1B9nqe210106ESA_, symObjAddr: 0x4820, symBinAddr: 0x86F0, symSize: 0x30 }
  - { offset: 0x78CA0, size: 0x8, addend: 0x0, symName: __ZNKSt3__16__treeINS_12__value_typeI7QString8QVariantEENS_19__map_value_compareIS2_NS_4pairIKS2_S3_EENS_4lessIS2_EELb1EEENS_9allocatorIS8_EEE13__lower_boundIS2_EENS_21__tree_const_iteratorIS4_PNS_11__tree_nodeIS4_PvEElEERKT_SK_PNS_15__tree_end_nodeIPNS_16__tree_node_baseISI_EEEE, symObjAddr: 0x4850, symBinAddr: 0x8720, symSize: 0x90 }
  - { offset: 0x78CFC, size: 0x8, addend: 0x0, symName: __ZNKSt3__16__treeINS_12__value_typeI7QString8QVariantEENS_19__map_value_compareIS2_NS_4pairIKS2_S3_EENS_4lessIS2_EELb1EEENS_9allocatorIS8_EEE6__rootB9nqe210106Ev, symObjAddr: 0x48E0, symBinAddr: 0x87B0, symSize: 0x20 }
  - { offset: 0x78D22, size: 0x8, addend: 0x0, symName: __ZNKSt3__16__treeINS_12__value_typeI7QString8QVariantEENS_19__map_value_compareIS2_NS_4pairIKS2_S3_EENS_4lessIS2_EELb1EEENS_9allocatorIS8_EEE10__end_nodeB9nqe210106Ev, symObjAddr: 0x4900, symBinAddr: 0x87D0, symSize: 0x20 }
  - { offset: 0x78D48, size: 0x8, addend: 0x0, symName: __ZNKSt3__16__treeINS_12__value_typeI7QString8QVariantEENS_19__map_value_compareIS2_NS_4pairIKS2_S3_EENS_4lessIS2_EELb1EEENS_9allocatorIS8_EEE3endB9nqe210106Ev, symObjAddr: 0x4950, symBinAddr: 0x8820, symSize: 0x30 }
  - { offset: 0x78D6E, size: 0x8, addend: 0x0, symName: __ZNKSt3__16__treeINS_12__value_typeI7QString8QVariantEENS_19__map_value_compareIS2_NS_4pairIKS2_S3_EENS_4lessIS2_EELb1EEENS_9allocatorIS8_EEE10value_compB9nqe210106Ev, symObjAddr: 0x4980, symBinAddr: 0x8850, symSize: 0x20 }
  - { offset: 0x78D94, size: 0x8, addend: 0x0, symName: __ZNKSt3__119__map_value_compareI7QStringNS_4pairIKS1_8QVariantEENS_4lessIS1_EELb1EEclB9nqe210106ERS3_RKS5_, symObjAddr: 0x49A0, symBinAddr: 0x8870, symSize: 0x30 }
  - { offset: 0x78DD8, size: 0x8, addend: 0x0, symName: __ZNKSt3__121__tree_const_iteratorINS_12__value_typeI7QString8QVariantEEPNS_11__tree_nodeIS4_PvEElEdeB9nqe210106Ev, symObjAddr: 0x49D0, symBinAddr: 0x88A0, symSize: 0x20 }
  - { offset: 0x78DFE, size: 0x8, addend: 0x0, symName: __ZNKSt3__119__map_value_compareI7QStringNS_4pairIKS1_8QVariantEENS_4lessIS1_EELb1EEclB9nqe210106ERKS5_RS3_, symObjAddr: 0x49F0, symBinAddr: 0x88C0, symSize: 0x30 }
  - { offset: 0x78E42, size: 0x8, addend: 0x0, symName: __ZNSt3__121__tree_const_iteratorINS_12__value_typeI7QString8QVariantEEPNS_11__tree_nodeIS4_PvEElEC1B9nqe210106EPNS_15__tree_end_nodeIPNS_16__tree_node_baseIS6_EEEE, symObjAddr: 0x4A20, symBinAddr: 0x88F0, symSize: 0x30 }
  - { offset: 0x78E7B, size: 0x8, addend: 0x0, symName: __ZNKSt3__14lessI7QStringEclB9nqe210106ERKS1_S4_, symObjAddr: 0x4A50, symBinAddr: 0x8920, symSize: 0x30 }
  - { offset: 0x78EBE, size: 0x8, addend: 0x0, symName: __ZltRK7QStringS1_, symObjAddr: 0x4A80, symBinAddr: 0x8950, symSize: 0x40 }
  - { offset: 0x78F10, size: 0x8, addend: 0x0, symName: __Z15compareThreeWayRK7QStringS1_, symObjAddr: 0x4B10, symBinAddr: 0x89E0, symSize: 0x50 }
  - { offset: 0x78F65, size: 0x8, addend: 0x0, symName: __ZN9QtPrivate25CompareAgainstLiteralZeroC1EMS0_FvvE, symObjAddr: 0x4B80, symBinAddr: 0x8A50, symSize: 0x50 }
  - { offset: 0x78F9A, size: 0x8, addend: 0x0, symName: __ZN9QtPrivate25CompareAgainstLiteralZeroC2EMS0_FvvE, symObjAddr: 0x4BD0, symBinAddr: 0x8AA0, symSize: 0x30 }
  - { offset: 0x78FCE, size: 0x8, addend: 0x0, symName: __Z15compareThreeWayRK11QStringViewS1_, symObjAddr: 0x4C00, symBinAddr: 0x8AD0, symSize: 0x70 }
  - { offset: 0x7901B, size: 0x8, addend: 0x0, symName: __ZN11QStringViewC1I7QStringLb1EEERKT_, symObjAddr: 0x4C70, symBinAddr: 0x8B40, symSize: 0x50 }
  - { offset: 0x79062, size: 0x8, addend: 0x0, symName: __ZNK7QString5beginEv, symObjAddr: 0x4D00, symBinAddr: 0x8BD0, symSize: 0x20 }
  - { offset: 0x7908A, size: 0x8, addend: 0x0, symName: __ZNK7QString4sizeEv, symObjAddr: 0x4D20, symBinAddr: 0x8BF0, symSize: 0x50 }
  - { offset: 0x790E4, size: 0x8, addend: 0x0, symName: __ZN11QStringViewC1I5QCharLb1EEEPKT_x, symObjAddr: 0x4D70, symBinAddr: 0x8C40, symSize: 0x30 }
  - { offset: 0x79139, size: 0x8, addend: 0x0, symName: __ZNK17QArrayDataPointerIDsE4dataEv, symObjAddr: 0x4DA0, symBinAddr: 0x8C70, symSize: 0x20 }
  - { offset: 0x79169, size: 0x8, addend: 0x0, symName: __ZZNK7QString4sizeEvENKUlvE_clEv, symObjAddr: 0x4DC0, symBinAddr: 0x8C90, symSize: 0x50 }
  - { offset: 0x79193, size: 0x8, addend: 0x0, symName: __ZN11QStringViewC2I5QCharLb1EEEPKT_x, symObjAddr: 0x4E10, symBinAddr: 0x8CE0, symSize: 0x90 }
  - { offset: 0x791E8, size: 0x8, addend: 0x0, symName: __ZN11QStringView10castHelperI5QCharEEPKDsPKT_, symObjAddr: 0x4EA0, symBinAddr: 0x8D70, symSize: 0x10 }
  - { offset: 0x79214, size: 0x8, addend: 0x0, symName: __ZNSt3__121__tree_const_iteratorINS_12__value_typeI7QString8QVariantEEPNS_11__tree_nodeIS4_PvEElEC2B9nqe210106EPNS_15__tree_end_nodeIPNS_16__tree_node_baseIS6_EEEE, symObjAddr: 0x4EB0, symBinAddr: 0x8D80, symSize: 0x20 }
  - { offset: 0x79253, size: 0x8, addend: 0x0, symName: __ZNSt3__114pointer_traitsIPNS_15__tree_end_nodeIPNS_16__tree_node_baseIPvEEEEE10pointer_toB9nqe210106ERS6_, symObjAddr: 0x4ED0, symBinAddr: 0x8DA0, symSize: 0x10 }
  - { offset: 0x79276, size: 0x8, addend: 0x0, symName: __ZNKSt3__121__tree_const_iteratorINS_12__value_typeI7QString8QVariantEEPNS_11__tree_nodeIS4_PvEElE8__get_npB9nqe210106Ev, symObjAddr: 0x4F10, symBinAddr: 0x8DE0, symSize: 0x20 }
  - { offset: 0x7929C, size: 0x8, addend: 0x0, symName: __ZNSt3__120__map_const_iteratorINS_21__tree_const_iteratorINS_12__value_typeI7QString8QVariantEEPNS_11__tree_nodeIS5_PvEElEEEC2B9nqe210106ESA_, symObjAddr: 0x4F30, symBinAddr: 0x8E00, symSize: 0x20 }
  - { offset: 0x792D5, size: 0x8, addend: 0x0, symName: __ZNKSt3__13mapI7QString8QVariantNS_4lessIS1_EENS_9allocatorINS_4pairIKS1_S2_EEEEE3endB9nqe210106Ev, symObjAddr: 0x4F50, symBinAddr: 0x8E20, symSize: 0x30 }
  - { offset: 0x792FB, size: 0x8, addend: 0x0, symName: __ZNSt3__114pointer_traitsIPKNS_4pairIK7QString8QVariantEEE10pointer_toB9nqe210106ERS6_, symObjAddr: 0x4F80, symBinAddr: 0x8E50, symSize: 0x10 }
  - { offset: 0x7931E, size: 0x8, addend: 0x0, symName: __ZN8QVariantC2Ev, symObjAddr: 0x4F90, symBinAddr: 0x8E60, symSize: 0x20 }
  - { offset: 0x79348, size: 0x8, addend: 0x0, symName: __ZNKSt3__110unique_ptrI11QFileDeviceNS_14default_deleteIS1_EEEptB9nqe210106Ev, symObjAddr: 0x4FB0, symBinAddr: 0x8E80, symSize: 0x20 }
  - { offset: 0x7936E, size: 0x8, addend: 0x0, symName: __ZN6QFlagsIN13QIODeviceBase12OpenModeFlagEEC1ES1_, symObjAddr: 0x4FD0, symBinAddr: 0x8EA0, symSize: 0x30 }
  - { offset: 0x793A6, size: 0x8, addend: 0x0, symName: __ZNK6QFlagsIN13QIODeviceBase12OpenModeFlagEEorES1_, symObjAddr: 0x5000, symBinAddr: 0x8ED0, symSize: 0x40 }
  - { offset: 0x793DA, size: 0x8, addend: 0x0, symName: __ZN6QFlagsIN13QIODeviceBase12OpenModeFlagEEC2ES1_, symObjAddr: 0x5040, symBinAddr: 0x8F10, symSize: 0x30 }
  - { offset: 0x79412, size: 0x8, addend: 0x0, symName: __ZN9QtPrivate19QFlagsStorageHelperIN13QIODeviceBase12OpenModeFlagELi4EECI2NS_13QFlagsStorageIS2_EEENSt3__110in_place_tEj, symObjAddr: 0x5070, symBinAddr: 0x8F40, symSize: 0x30 }
  - { offset: 0x79450, size: 0x8, addend: 0x0, symName: __ZN9QtPrivate13QFlagsStorageIN13QIODeviceBase12OpenModeFlagEEC2ENSt3__110in_place_tEj, symObjAddr: 0x50A0, symBinAddr: 0x8F70, symSize: 0x20 }
  - { offset: 0x79493, size: 0x8, addend: 0x0, symName: __ZN6QFlagsIN13QIODeviceBase12OpenModeFlagEECI1N9QtPrivate13QFlagsStorageIS1_EEENSt3__110in_place_tEj, symObjAddr: 0x50C0, symBinAddr: 0x8F90, symSize: 0x30 }
  - { offset: 0x794D1, size: 0x8, addend: 0x0, symName: __ZN6QFlagsIN13QIODeviceBase12OpenModeFlagEECI2N9QtPrivate13QFlagsStorageIS1_EEENSt3__110in_place_tEj, symObjAddr: 0x50F0, symBinAddr: 0x8FC0, symSize: 0x30 }
  - { offset: 0x7950F, size: 0x8, addend: 0x0, symName: __ZN7QString4swapERS_, symObjAddr: 0x5120, symBinAddr: 0x8FF0, symSize: 0x30 }
  - { offset: 0x79544, size: 0x8, addend: 0x0, symName: __ZN17QArrayDataPointerIDsE4swapERS0_, symObjAddr: 0x5150, symBinAddr: 0x9020, symSize: 0x60 }
  - { offset: 0x79578, size: 0x8, addend: 0x0, symName: __Z11qt_ptr_swapI15QTypedArrayDataIDsEEvRPT_S4_, symObjAddr: 0x51B0, symBinAddr: 0x9080, symSize: 0x40 }
  - { offset: 0x795C6, size: 0x8, addend: 0x0, symName: __Z11qt_ptr_swapIDsEvRPT_S2_, symObjAddr: 0x51F0, symBinAddr: 0x90C0, symSize: 0x40 }
  - { offset: 0x79614, size: 0x8, addend: 0x0, symName: __ZNKSt3__110unique_ptrI11QFileDeviceNS_14default_deleteIS1_EEE3getB9nqe210106Ev, symObjAddr: 0x5270, symBinAddr: 0x9140, symSize: 0x20 }
  - { offset: 0x7963A, size: 0x8, addend: 0x0, symName: __ZN5Tiled8SaveFileD2Ev, symObjAddr: 0x5290, symBinAddr: 0x9160, symSize: 0x20 }
  - { offset: 0x79666, size: 0x8, addend: 0x0, symName: __ZNSt3__110unique_ptrI11QFileDeviceNS_14default_deleteIS1_EEED1B9nqe210106Ev, symObjAddr: 0x52B0, symBinAddr: 0x9180, symSize: 0x20 }
  - { offset: 0x79690, size: 0x8, addend: 0x0, symName: __ZNSt3__110unique_ptrI11QFileDeviceNS_14default_deleteIS1_EEED2B9nqe210106Ev, symObjAddr: 0x52D0, symBinAddr: 0x91A0, symSize: 0x20 }
  - { offset: 0x796BA, size: 0x8, addend: 0x0, symName: __ZNSt3__110unique_ptrI11QFileDeviceNS_14default_deleteIS1_EEE5resetB9nqe210106EPS1_, symObjAddr: 0x52F0, symBinAddr: 0x91C0, symSize: 0x40 }
  - { offset: 0x796FE, size: 0x8, addend: 0x0, symName: __ZNKSt3__114default_deleteI11QFileDeviceEclB9nqe210106EPS1_, symObjAddr: 0x5330, symBinAddr: 0x9200, symSize: 0x30 }
  - { offset: 0x79732, size: 0x8, addend: 0x0, symName: __ZN17QArrayDataPointerIDsED2Ev, symObjAddr: 0x5360, symBinAddr: 0x9230, symSize: 0x40 }
  - { offset: 0x7975C, size: 0x8, addend: 0x0, symName: __ZN17QArrayDataPointerIDsE5derefEv, symObjAddr: 0x53A0, symBinAddr: 0x9270, symSize: 0x40 }
  - { offset: 0x79782, size: 0x8, addend: 0x0, symName: __ZN17QArrayDataPointerIDsEptEv, symObjAddr: 0x53E0, symBinAddr: 0x92B0, symSize: 0x10 }
  - { offset: 0x797A8, size: 0x8, addend: 0x0, symName: __ZN9QtPrivate12QPodArrayOpsIDsE10destroyAllEv, symObjAddr: 0x53F0, symBinAddr: 0x92C0, symSize: 0x70 }
  - { offset: 0x797CE, size: 0x8, addend: 0x0, symName: __ZN15QTypedArrayDataIDsE10deallocateEP10QArrayData, symObjAddr: 0x5460, symBinAddr: 0x9330, symSize: 0x30 }
  - { offset: 0x797F1, size: 0x8, addend: 0x0, symName: __ZN10QArrayData5derefEv, symObjAddr: 0x5490, symBinAddr: 0x9360, symSize: 0x20 }
  - { offset: 0x79817, size: 0x8, addend: 0x0, symName: __ZN19QBasicAtomicIntegerIiE5derefEv, symObjAddr: 0x54B0, symBinAddr: 0x9380, symSize: 0x20 }
  - { offset: 0x7983D, size: 0x8, addend: 0x0, symName: __ZN10QAtomicOpsIiE5derefIiEEbRNSt3__16atomicIT_EE, symObjAddr: 0x54D0, symBinAddr: 0x93A0, symSize: 0x30 }
  - { offset: 0x7986A, size: 0x8, addend: 0x0, symName: __ZNSt3__113__atomic_baseIiLb1EE9fetch_subB9nqe210106EiNS_12memory_orderE, symObjAddr: 0x5500, symBinAddr: 0x93D0, symSize: 0x30 }
  - { offset: 0x798AC, size: 0x8, addend: 0x0, symName: __ZN5QHashI7QString8QVariantED2Ev, symObjAddr: 0x55F0, symBinAddr: 0x94C0, symSize: 0x60 }
  - { offset: 0x798D6, size: 0x8, addend: 0x0, symName: __ZN9QtPrivate8RefCount5derefEv, symObjAddr: 0x5650, symBinAddr: 0x9520, symSize: 0x50 }
  - { offset: 0x7990A, size: 0x8, addend: 0x0, symName: __ZN12QHashPrivate4DataINS_4NodeI7QString8QVariantEEED1Ev, symObjAddr: 0x56A0, symBinAddr: 0x9570, symSize: 0x20 }
  - { offset: 0x79934, size: 0x8, addend: 0x0, symName: __ZN12QHashPrivate4DataINS_4NodeI7QString8QVariantEEED2Ev, symObjAddr: 0x56C0, symBinAddr: 0x9590, symSize: 0x80 }
  - { offset: 0x7995E, size: 0x8, addend: 0x0, symName: __ZN12QHashPrivate4SpanINS_4NodeI7QString8QVariantEEED1Ev, symObjAddr: 0x5740, symBinAddr: 0x9610, symSize: 0x20 }
  - { offset: 0x79988, size: 0x8, addend: 0x0, symName: __ZN12QHashPrivate4SpanINS_4NodeI7QString8QVariantEEED2Ev, symObjAddr: 0x5760, symBinAddr: 0x9630, symSize: 0x20 }
  - { offset: 0x799B2, size: 0x8, addend: 0x0, symName: __ZN12QHashPrivate4SpanINS_4NodeI7QString8QVariantEEE8freeDataEv, symObjAddr: 0x5780, symBinAddr: 0x9650, symSize: 0xD0 }
  - { offset: 0x79A2C, size: 0x8, addend: 0x0, symName: __ZN12QHashPrivate4NodeI7QString8QVariantED1Ev, symObjAddr: 0x5850, symBinAddr: 0x9720, symSize: 0x20 }
  - { offset: 0x79A58, size: 0x8, addend: 0x0, symName: __ZN12QHashPrivate4NodeI7QString8QVariantED2Ev, symObjAddr: 0x5870, symBinAddr: 0x9740, symSize: 0x30 }
  - { offset: 0x79A84, size: 0x8, addend: 0x0, symName: __ZN5QHashI7QString8QVariantE10tryEmplaceIJEEENS2_16TryEmplaceResultERKS0_DpOT_, symObjAddr: 0x58A0, symBinAddr: 0x9770, symSize: 0x30 }
  - { offset: 0x79ABF, size: 0x8, addend: 0x0, symName: __ZNK5QHashI7QString8QVariantE8iteratordeEv, symObjAddr: 0x58D0, symBinAddr: 0x97A0, symSize: 0x20 }
  - { offset: 0x79AE5, size: 0x8, addend: 0x0, symName: __ZN5QHashI7QString8QVariantE15tryEmplace_implIRKS0_JEEENS2_16TryEmplaceResultEOT_DpOT0_, symObjAddr: 0x58F0, symBinAddr: 0x97C0, symSize: 0x2C0 }
  - { offset: 0x79BB4, size: 0x8, addend: 0x0, symName: __ZN5QHashI7QString8QVariantE6detachEv, symObjAddr: 0x5BB0, symBinAddr: 0x9A80, symSize: 0x50 }
  - { offset: 0x79BDA, size: 0x8, addend: 0x0, symName: __ZNK12QHashPrivate4DataINS_4NodeI7QString8QVariantEEE18findBucketWithHashIS2_EENS5_6BucketERKT_m, symObjAddr: 0x5C30, symBinAddr: 0x9B00, symSize: 0xE0 }
  - { offset: 0x79C62, size: 0x8, addend: 0x0, symName: __ZNK12QHashPrivate4DataINS_4NodeI7QString8QVariantEEE6Bucket8isUnusedEv, symObjAddr: 0x5D10, symBinAddr: 0x9BE0, symSize: 0x30 }
  - { offset: 0x79C88, size: 0x8, addend: 0x0, symName: __ZNK5QHashI7QString8QVariantE10isDetachedEv, symObjAddr: 0x5D40, symBinAddr: 0x9C10, symSize: 0x40 }
  - { offset: 0x79CAE, size: 0x8, addend: 0x0, symName: __ZNK12QHashPrivate4DataINS_4NodeI7QString8QVariantEEE10shouldGrowEv, symObjAddr: 0x5D80, symBinAddr: 0x9C50, symSize: 0x30 }
  - { offset: 0x79CD4, size: 0x8, addend: 0x0, symName: __ZN5QHashI7QString8QVariantEaSERKS2_, symObjAddr: 0x5DB0, symBinAddr: 0x9C80, symSize: 0xA0 }
  - { offset: 0x79D27, size: 0x8, addend: 0x0, symName: __ZNK12QHashPrivate4DataINS_4NodeI7QString8QVariantEEE6Bucket13toBucketIndexEPKS5_, symObjAddr: 0x5E50, symBinAddr: 0x9D20, symSize: 0x40 }
  - { offset: 0x79D5C, size: 0x8, addend: 0x0, symName: __ZN12QHashPrivate4DataINS_4NodeI7QString8QVariantEEE8detachedEPS5_m, symObjAddr: 0x5E90, symBinAddr: 0x9D60, symSize: 0xF0 }
  - { offset: 0x79D9E, size: 0x8, addend: 0x0, symName: __ZN12QHashPrivate4DataINS_4NodeI7QString8QVariantEEE8detachedEPS5_, symObjAddr: 0x5F80, symBinAddr: 0x9E50, symSize: 0xE0 }
  - { offset: 0x79DD1, size: 0x8, addend: 0x0, symName: __ZN12QHashPrivate4DataINS_4NodeI7QString8QVariantEEE6BucketC1EPKS5_m, symObjAddr: 0x6060, symBinAddr: 0x9F30, symSize: 0x30 }
  - { offset: 0x79E19, size: 0x8, addend: 0x0, symName: __ZNK12QHashPrivate4DataINS_4NodeI7QString8QVariantEEE6Bucket6insertEv, symObjAddr: 0x6090, symBinAddr: 0x9F60, symSize: 0x30 }
  - { offset: 0x79E3F, size: 0x8, addend: 0x0, symName: __ZN12QHashPrivate4NodeI7QString8QVariantE13createInPlaceIJEEEvPS3_RKS1_DpOT_, symObjAddr: 0x60C0, symBinAddr: 0x9F90, symSize: 0x40 }
  - { offset: 0x79E76, size: 0x8, addend: 0x0, symName: __ZNK12QHashPrivate4DataINS_4NodeI7QString8QVariantEEE6Bucket10toIteratorEPKS5_, symObjAddr: 0x6100, symBinAddr: 0x9FD0, symSize: 0x40 }
  - { offset: 0x79EAB, size: 0x8, addend: 0x0, symName: __ZN5QHashI7QString8QVariantE8iteratorC1EN12QHashPrivate8iteratorINS4_4NodeIS0_S1_EEEE, symObjAddr: 0x6140, symBinAddr: 0xA010, symSize: 0x30 }
  - { offset: 0x79EE4, size: 0x8, addend: 0x0, symName: __ZN5QHashI7QString8QVariantE16TryEmplaceResultC1ENS2_8iteratorEb, symObjAddr: 0x6170, symBinAddr: 0xA040, symSize: 0x40 }
  - { offset: 0x79F2C, size: 0x8, addend: 0x0, symName: __ZNK9QtPrivate8RefCount8isSharedEv, symObjAddr: 0x61B0, symBinAddr: 0xA080, symSize: 0x40 }
  - { offset: 0x79F5F, size: 0x8, addend: 0x0, symName: __Z5qHashRK7QStringm, symObjAddr: 0x61F0, symBinAddr: 0xA0C0, symSize: 0x40 }
  - { offset: 0x79F9A, size: 0x8, addend: 0x0, symName: __ZNK12QHashPrivate4DataINS_4NodeI7QString8QVariantEEE6Bucket6offsetEv, symObjAddr: 0x6230, symBinAddr: 0xA100, symSize: 0x30 }
  - { offset: 0x79FC0, size: 0x8, addend: 0x0, symName: __ZN12QHashPrivate4DataINS_4NodeI7QString8QVariantEEE6Bucket12nodeAtOffsetEm, symObjAddr: 0x6260, symBinAddr: 0xA130, symSize: 0x30 }
  - { offset: 0x79FF4, size: 0x8, addend: 0x0, symName: __Z11qHashEqualsI7QStringEbRKT_S3_, symObjAddr: 0x6290, symBinAddr: 0xA160, symSize: 0x30 }
  - { offset: 0x7A03B, size: 0x8, addend: 0x0, symName: __ZN12QHashPrivate4DataINS_4NodeI7QString8QVariantEEE6Bucket14advanceWrappedEPKS5_, symObjAddr: 0x62C0, symBinAddr: 0xA190, symSize: 0x30 }
  - { offset: 0x7A070, size: 0x8, addend: 0x0, symName: __ZNK12QHashPrivate4SpanINS_4NodeI7QString8QVariantEEE6offsetEm, symObjAddr: 0x62F0, symBinAddr: 0xA1C0, symSize: 0x20 }
  - { offset: 0x7A0A5, size: 0x8, addend: 0x0, symName: __ZN12QHashPrivate4SpanINS_4NodeI7QString8QVariantEEE8atOffsetEm, symObjAddr: 0x6310, symBinAddr: 0xA1E0, symSize: 0x60 }
  - { offset: 0x7A0D9, size: 0x8, addend: 0x0, symName: __ZeqRK7QStringS1_, symObjAddr: 0x6370, symBinAddr: 0xA240, symSize: 0x30 }
  - { offset: 0x7A12B, size: 0x8, addend: 0x0, symName: __Z13comparesEqualRK7QStringS1_, symObjAddr: 0x63A0, symBinAddr: 0xA270, symSize: 0x40 }
  - { offset: 0x7A168, size: 0x8, addend: 0x0, symName: __Z13comparesEqualRK11QStringViewS1_, symObjAddr: 0x63E0, symBinAddr: 0xA2B0, symSize: 0x80 }
  - { offset: 0x7A1A6, size: 0x8, addend: 0x0, symName: __ZNK11QStringView4sizeEv, symObjAddr: 0x6460, symBinAddr: 0xA330, symSize: 0x20 }
  - { offset: 0x7A1CC, size: 0x8, addend: 0x0, symName: __ZN12QHashPrivate4DataINS_4NodeI7QString8QVariantEEE6Bucket12advance_implEPKS5_PNS_4SpanIS4_EE, symObjAddr: 0x6480, symBinAddr: 0xA350, symSize: 0xC0 }
  - { offset: 0x7A210, size: 0x8, addend: 0x0, symName: __ZN12QHashPrivate4DataINS_4NodeI7QString8QVariantEEEC1Em, symObjAddr: 0x6540, symBinAddr: 0xA410, symSize: 0x30 }
  - { offset: 0x7A249, size: 0x8, addend: 0x0, symName: __ZN12QHashPrivate4DataINS_4NodeI7QString8QVariantEEEC1ERKS5_m, symObjAddr: 0x6570, symBinAddr: 0xA440, symSize: 0x30 }
  - { offset: 0x7A291, size: 0x8, addend: 0x0, symName: __ZN12QHashPrivate4DataINS_4NodeI7QString8QVariantEEEC2Em, symObjAddr: 0x65A0, symBinAddr: 0xA470, symSize: 0xA0 }
  - { offset: 0x7A2CA, size: 0x8, addend: 0x0, symName: __ZN19QBasicAtomicIntegerIiEC1Ei, symObjAddr: 0x6640, symBinAddr: 0xA510, symSize: 0x30 }
  - { offset: 0x7A302, size: 0x8, addend: 0x0, symName: __ZN12QHashPrivate4DataINS_4NodeI7QString8QVariantEEE13allocateSpansEm, symObjAddr: 0x66E0, symBinAddr: 0xA5B0, symSize: 0x100 }
  - { offset: 0x7A3CC, size: 0x8, addend: 0x0, symName: __ZNK9QHashSeedcvmEv, symObjAddr: 0x67E0, symBinAddr: 0xA6B0, symSize: 0x20 }
  - { offset: 0x7A3F2, size: 0x8, addend: 0x0, symName: __ZN19QBasicAtomicIntegerIiEC2Ei, symObjAddr: 0x6800, symBinAddr: 0xA6D0, symSize: 0x30 }
  - { offset: 0x7A42A, size: 0x8, addend: 0x0, symName: __ZNSt3__16atomicIiEC1B9nqe210106Ei, symObjAddr: 0x6830, symBinAddr: 0xA700, symSize: 0x30 }
  - { offset: 0x7A462, size: 0x8, addend: 0x0, symName: __ZNSt3__16atomicIiEC2B9nqe210106Ei, symObjAddr: 0x6860, symBinAddr: 0xA730, symSize: 0x30 }
  - { offset: 0x7A49A, size: 0x8, addend: 0x0, symName: __ZNSt3__113__atomic_baseIiLb1EEC2B9nqe210106Ei, symObjAddr: 0x6890, symBinAddr: 0xA760, symSize: 0x30 }
  - { offset: 0x7A4D2, size: 0x8, addend: 0x0, symName: __ZNSt3__113__atomic_baseIiLb0EEC2B9nqe210106Ei, symObjAddr: 0x68C0, symBinAddr: 0xA790, symSize: 0x30 }
  - { offset: 0x7A50A, size: 0x8, addend: 0x0, symName: __ZNSt3__117__cxx_atomic_implIiNS_22__cxx_atomic_base_implIiEEEC1B9nqe210106Ei, symObjAddr: 0x68F0, symBinAddr: 0xA7C0, symSize: 0x30 }
  - { offset: 0x7A542, size: 0x8, addend: 0x0, symName: __ZNSt3__117__cxx_atomic_implIiNS_22__cxx_atomic_base_implIiEEEC2B9nqe210106Ei, symObjAddr: 0x6920, symBinAddr: 0xA7F0, symSize: 0x30 }
  - { offset: 0x7A57A, size: 0x8, addend: 0x0, symName: __ZNSt3__122__cxx_atomic_base_implIiEC2Ei, symObjAddr: 0x6950, symBinAddr: 0xA820, symSize: 0x20 }
  - { offset: 0x7A5B1, size: 0x8, addend: 0x0, symName: __Z21qCountLeadingZeroBitsm, symObjAddr: 0x6970, symBinAddr: 0xA840, symSize: 0x20 }
  - { offset: 0x7A5DE, size: 0x8, addend: 0x0, symName: __ZNSt3__114numeric_limitsImE3maxB9nqe210106Ev, symObjAddr: 0x6990, symBinAddr: 0xA860, symSize: 0x10 }
  - { offset: 0x7A5F6, size: 0x8, addend: 0x0, symName: __ZN3q2011countl_zeroImEENSt3__19enable_ifIXsr3stdE13is_unsigned_vIT_EEiE4typeES3_, symObjAddr: 0x69A0, symBinAddr: 0xA870, symSize: 0x30 }
  - { offset: 0x7A62D, size: 0x8, addend: 0x0, symName: __ZNSt3__123__libcpp_numeric_limitsImLb1EE3maxB9nqe210106Ev, symObjAddr: 0x69D0, symBinAddr: 0xA8A0, symSize: 0x10 }
  - { offset: 0x7A641, size: 0x8, addend: 0x0, symName: __ZN12QHashPrivate4SpanINS_4NodeI7QString8QVariantEEEC1Ev, symObjAddr: 0x69E0, symBinAddr: 0xA8B0, symSize: 0x20 }
  - { offset: 0x7A66B, size: 0x8, addend: 0x0, symName: __ZN12QHashPrivate4SpanINS_4NodeI7QString8QVariantEEEC2Ev, symObjAddr: 0x6A00, symBinAddr: 0xA8D0, symSize: 0x40 }
  - { offset: 0x7A72C, size: 0x8, addend: 0x0, symName: __ZN12QHashPrivate4DataINS_4NodeI7QString8QVariantEEEC2ERKS5_m, symObjAddr: 0x6A40, symBinAddr: 0xA910, symSize: 0x1C0 }
  - { offset: 0x7A84B, size: 0x8, addend: 0x0, symName: __Z4qMaxImERKT_S2_S2_, symObjAddr: 0x6C00, symBinAddr: 0xAAD0, symSize: 0x40 }
  - { offset: 0x7A88F, size: 0x8, addend: 0x0, symName: __ZNK12QHashPrivate4SpanINS_4NodeI7QString8QVariantEEE2atEm, symObjAddr: 0x6C40, symBinAddr: 0xAB10, symSize: 0x90 }
  - { offset: 0x7A8C4, size: 0x8, addend: 0x0, symName: __ZNK12QHashPrivate4DataINS_4NodeI7QString8QVariantEEE10findBucketIS2_EENS5_6BucketERKT_, symObjAddr: 0x6CD0, symBinAddr: 0xABA0, symSize: 0x50 }
  - { offset: 0x7A911, size: 0x8, addend: 0x0, symName: __ZN12QHashPrivate4DataINS_4NodeI7QString8QVariantEEE6BucketC1EPNS_4SpanIS4_EEm, symObjAddr: 0x6D20, symBinAddr: 0xABF0, symSize: 0x30 }
  - { offset: 0x7A959, size: 0x8, addend: 0x0, symName: __ZN12QHashPrivate4NodeI7QString8QVariantEC1ERKS3_, symObjAddr: 0x6D50, symBinAddr: 0xAC20, symSize: 0x30 }
  - { offset: 0x7A98E, size: 0x8, addend: 0x0, symName: __ZN12QHashPrivate4DataINS_4NodeI7QString8QVariantEEE6BucketC2EPNS_4SpanIS4_EEm, symObjAddr: 0x6D80, symBinAddr: 0xAC50, symSize: 0x30 }
  - { offset: 0x7A9D6, size: 0x8, addend: 0x0, symName: __ZN12QHashPrivate4NodeI7QString8QVariantEC2ERKS3_, symObjAddr: 0x6DB0, symBinAddr: 0xAC80, symSize: 0x60 }
  - { offset: 0x7AA0B, size: 0x8, addend: 0x0, symName: __ZN12QHashPrivate4DataINS_4NodeI7QString8QVariantEEEC1ERKS5_, symObjAddr: 0x6E10, symBinAddr: 0xACE0, symSize: 0x30 }
  - { offset: 0x7AAD0, size: 0x8, addend: 0x0, symName: __ZN12QHashPrivate4DataINS_4NodeI7QString8QVariantEEEC2ERKS5_, symObjAddr: 0x6E40, symBinAddr: 0xAD10, symSize: 0x190 }
  - { offset: 0x7ABE0, size: 0x8, addend: 0x0, symName: __ZN12QHashPrivate4DataINS_4NodeI7QString8QVariantEEE6BucketC2EPKS5_m, symObjAddr: 0x6FD0, symBinAddr: 0xAEA0, symSize: 0x40 }
  - { offset: 0x7AC28, size: 0x8, addend: 0x0, symName: __ZN12QHashPrivate4SpanINS_4NodeI7QString8QVariantEEE6insertEm, symObjAddr: 0x7010, symBinAddr: 0xAEE0, symSize: 0x110 }
  - { offset: 0x7AC6C, size: 0x8, addend: 0x0, symName: __ZN12QHashPrivate4SpanINS_4NodeI7QString8QVariantEEE10addStorageEv, symObjAddr: 0x7120, symBinAddr: 0xAFF0, symSize: 0x1A0 }
  - { offset: 0x7ACCE, size: 0x8, addend: 0x0, symName: __ZN12QHashPrivate4SpanINS_4NodeI7QString8QVariantEEE5Entry8nextFreeEv, symObjAddr: 0x72C0, symBinAddr: 0xB190, symSize: 0x10 }
  - { offset: 0x7ACF4, size: 0x8, addend: 0x0, symName: __ZN5QHashI7QString8QVariantE8iteratorC2EN12QHashPrivate8iteratorINS4_4NodeIS0_S1_EEEE, symObjAddr: 0x72D0, symBinAddr: 0xB1A0, symSize: 0x30 }
  - { offset: 0x7AD2D, size: 0x8, addend: 0x0, symName: __ZN5QHashI7QString8QVariantE16TryEmplaceResultC2ENS2_8iteratorEb, symObjAddr: 0x7300, symBinAddr: 0xB1D0, symSize: 0x40 }
  - { offset: 0x7AD75, size: 0x8, addend: 0x0, symName: __ZN17QArrayDataPointerIDsEC1EP15QTypedArrayDataIDsEPDsx, symObjAddr: 0x7340, symBinAddr: 0xB210, symSize: 0x40 }
  - { offset: 0x7ADC9, size: 0x8, addend: 0x0, symName: __ZN17QArrayDataPointerIDsEC2EP15QTypedArrayDataIDsEPDsx, symObjAddr: 0x7380, symBinAddr: 0xB250, symSize: 0x40 }
  - { offset: 0x7AE1D, size: 0x8, addend: 0x0, symName: __ZNK8QVariant7isValidEv, symObjAddr: 0x73C0, symBinAddr: 0xB290, symSize: 0x30 }
  - { offset: 0x7AE45, size: 0x8, addend: 0x0, symName: __ZNKR8QVariant5valueIdEET_v, symObjAddr: 0x73F0, symBinAddr: 0xB2C0, symSize: 0x20 }
  - { offset: 0x7AE74, size: 0x8, addend: 0x0, symName: __ZNK8QVariant7Private4typeEv, symObjAddr: 0x7410, symBinAddr: 0xB2E0, symSize: 0x30 }
  - { offset: 0x7AE9A, size: 0x8, addend: 0x0, symName: __ZNK9QMetaType7isValidEN2Qt15Disambiguated_tE, symObjAddr: 0x7440, symBinAddr: 0xB310, symSize: 0x20 }
  - { offset: 0x7AECD, size: 0x8, addend: 0x0, symName: __ZNK8QVariant7Private13typeInterfaceEv, symObjAddr: 0x7460, symBinAddr: 0xB330, symSize: 0x20 }
  - { offset: 0x7AEF3, size: 0x8, addend: 0x0, symName: __ZN9QMetaTypeC1EPKN9QtPrivate18QMetaTypeInterfaceE, symObjAddr: 0x7480, symBinAddr: 0xB350, symSize: 0x30 }
  - { offset: 0x7AF2C, size: 0x8, addend: 0x0, symName: __ZN9QMetaTypeC2EPKN9QtPrivate18QMetaTypeInterfaceE, symObjAddr: 0x74B0, symBinAddr: 0xB380, symSize: 0x20 }
  - { offset: 0x7AF64, size: 0x8, addend: 0x0, symName: __Z13qvariant_castIdET_RK8QVariant, symObjAddr: 0x74D0, symBinAddr: 0xB3A0, symSize: 0x70 }
  - { offset: 0x7AFAA, size: 0x8, addend: 0x0, symName: __ZN9QMetaType8fromTypeIdEES_v, symObjAddr: 0x7540, symBinAddr: 0xB410, symSize: 0x30 }
  - { offset: 0x7AFC7, size: 0x8, addend: 0x0, symName: __ZeqRK9QMetaTypeS1_, symObjAddr: 0x7570, symBinAddr: 0xB440, symSize: 0x30 }
  - { offset: 0x7B020, size: 0x8, addend: 0x0, symName: __ZNK8QVariant7Private3getIdEERKT_v, symObjAddr: 0x75A0, symBinAddr: 0xB470, symSize: 0x20 }
  - { offset: 0x7B04E, size: 0x8, addend: 0x0, symName: __Z13comparesEqualRK9QMetaTypeS1_, symObjAddr: 0x7640, symBinAddr: 0xB510, symSize: 0x80 }
  - { offset: 0x7B0AA, size: 0x8, addend: 0x0, symName: __ZNK9QMetaType2idEi, symObjAddr: 0x76C0, symBinAddr: 0xB590, symSize: 0x20 }
  - { offset: 0x7B0DB, size: 0x8, addend: 0x0, symName: __ZNK9QMetaType14registerHelperEv, symObjAddr: 0x76E0, symBinAddr: 0xB5B0, symSize: 0x70 }
  - { offset: 0x7B11F, size: 0x8, addend: 0x0, symName: __ZNK8QVariant7Private7storageEv, symObjAddr: 0x7750, symBinAddr: 0xB620, symSize: 0x50 }
  - { offset: 0x7B145, size: 0x8, addend: 0x0, symName: __ZN8QVariant13PrivateShared4dataEv, symObjAddr: 0x77A0, symBinAddr: 0xB670, symSize: 0x20 }
  - { offset: 0x7B16B, size: 0x8, addend: 0x0, symName: __ZNK8QVariant8metaTypeEv, symObjAddr: 0x77C0, symBinAddr: 0xB690, symSize: 0x30 }
  - { offset: 0x7B193, size: 0x8, addend: 0x0, symName: __ZNK8QVariant9constDataEv, symObjAddr: 0x77F0, symBinAddr: 0xB6C0, symSize: 0x1B }
  - { offset: 0x7DDCE, size: 0x8, addend: 0x0, symName: __ZN9QtPrivate20q_relocate_overlap_nI7QStringxEEvPT_T0_S3_, symObjAddr: 0x1B90, symBinAddr: 0xCC20, symSize: 0x50 }
  - { offset: 0x7DE24, size: 0x8, addend: 0x0, symName: __ZN9QtPrivateL19q_points_into_rangeI17QArrayDataPointerI7QStringEPKS2_EEbRKT0_RKT_, symObjAddr: 0x1BE0, symBinAddr: 0xCC70, symSize: 0xA0 }
  - { offset: 0x7DE70, size: 0x8, addend: 0x0, symName: __ZN9QtPrivateL19q_points_into_rangeI7QStringNSt3__14lessIvEEEEbPKT_S7_S7_T0_, symObjAddr: 0x1C80, symBinAddr: 0xCD10, symSize: 0x50 }
  - { offset: 0x7DEF3, size: 0x8, addend: 0x0, symName: __ZN6Defold12DefoldPlugin16staticMetaObjectE, symObjAddr: 0x3378, symBinAddr: 0x101F8, symSize: 0x0 }
  - { offset: 0x82EE4, size: 0x8, addend: 0x0, symName: __ZNSt3__18in_placeE, symObjAddr: 0x3594, symBinAddr: 0xE8B4, symSize: 0x0 }
  - { offset: 0x82EF1, size: 0x8, addend: 0x0, symName: __ZNSt3__14dataB9nqe210106I17QArrayDataPointerI7QStringEEEDTcldtfp_4dataEERKT_, symObjAddr: 0x1CD0, symBinAddr: 0xCD60, symSize: 0x20 }
  - { offset: 0x82F26, size: 0x8, addend: 0x0, symName: __ZNSt3__18distanceB9nqe210106IPK7QStringEENS_15iterator_traitsIT_E15difference_typeES5_S5_, symObjAddr: 0x1CF0, symBinAddr: 0xCD80, symSize: 0x30 }
  - { offset: 0x82F69, size: 0x8, addend: 0x0, symName: __ZNSt3__15beginB9nqe210106I17QArrayDataPointerI7QStringEEEDTcldtfp_5beginEERKT_, symObjAddr: 0x1D20, symBinAddr: 0xCDB0, symSize: 0x20 }
  - { offset: 0x82F9E, size: 0x8, addend: 0x0, symName: __ZNSt3__13endB9nqe210106I17QArrayDataPointerI7QStringEEEDTcldtfp_3endEERKT_, symObjAddr: 0x1D40, symBinAddr: 0xCDD0, symSize: 0x20 }
  - { offset: 0x83016, size: 0x8, addend: 0x0, symName: __ZNSt3__110__distanceB9nqe210106IPK7QStringEENS_15iterator_traitsIT_E15difference_typeES5_S5_NS_26random_access_iterator_tagE, symObjAddr: 0x1DB0, symBinAddr: 0xCE40, symSize: 0x30 }
  - { offset: 0x83064, size: 0x8, addend: 0x0, symName: __ZNSt3__13getB9nqe210106ILm0EP15QTypedArrayDataI7QStringEPS2_EEONS_13tuple_elementIXT_ENS_4pairIT0_T1_EEE4typeEOSA_, symObjAddr: 0x25A0, symBinAddr: 0xD630, symSize: 0x20 }
  - { offset: 0x830AE, size: 0x8, addend: 0x0, symName: __ZNSt3__13getB9nqe210106ILm1EP15QTypedArrayDataI7QStringEPS2_EEONS_13tuple_elementIXT_ENS_4pairIT0_T1_EEE4typeEOSA_, symObjAddr: 0x25C0, symBinAddr: 0xD650, symSize: 0x20 }
  - { offset: 0x83173, size: 0x8, addend: 0x0, symName: __ZNSt3__17destroyB9nqe210106IP7QStringEEvT_S3_, symObjAddr: 0x2E80, symBinAddr: 0xDD50, symSize: 0x30 }
  - { offset: 0x831B2, size: 0x8, addend: 0x0, symName: __ZNSt3__19__destroyB9nqe210106IP7QStringEET_S3_S3_, symObjAddr: 0x2EB0, symBinAddr: 0xDD80, symSize: 0x40 }
  - { offset: 0x831F6, size: 0x8, addend: 0x0, symName: __ZNSt3__112__destroy_atB9nqe210106I7QStringLi0EEEvPT_, symObjAddr: 0x2EF0, symBinAddr: 0xDDC0, symSize: 0x20 }
  - { offset: 0x93AB9, size: 0x8, addend: 0x0, symName: _qt_plugin_query_metadata_v2, symObjAddr: 0x150, symBinAddr: 0xB830, symSize: 0x30 }
  - { offset: 0x93ADF, size: 0x8, addend: 0x0, symName: __ZZ27qt_plugin_query_metadata_v2E2md, symObjAddr: 0x3478, symBinAddr: 0xF126, symSize: 0x0 }
  - { offset: 0x93B02, size: 0x8, addend: 0x0, symName: __ZL32qt_pluginMetaDataV2_DefoldPlugin, symObjAddr: 0x34D0, symBinAddr: 0xE7F0, symSize: 0x0 }
  - { offset: 0x93C75, size: 0x8, addend: 0x0, symName: _qt_plugin_instance, symObjAddr: 0x1E0, symBinAddr: 0xB8C0, symSize: 0xC0 }
  - { offset: 0x93C9B, size: 0x8, addend: 0x0, symName: __ZZ18qt_plugin_instanceE9_instance, symObjAddr: 0x148020, symBinAddr: 0x11080, symSize: 0x0 }
  - { offset: 0x93CAD, size: 0x8, addend: 0x0, symName: __ZTVN6Defold12DefoldPluginE, symObjAddr: 0x33B0, symBinAddr: 0x10230, symSize: 0x0 }
  - { offset: 0x93CC1, size: 0x8, addend: 0x0, symName: __ZN6Defold12DefoldPlugin32qt_staticMetaObjectStaticContentIN12_GLOBAL__N_138qt_meta_tag_ZN6Defold12DefoldPluginE_tEEE, symObjAddr: 0x3538, symBinAddr: 0xE858, symSize: 0x0 }
  - { offset: 0x93CEB, size: 0x8, addend: 0x0, symName: __ZN6Defold12DefoldPlugin36qt_staticMetaObjectRelocatingContentIN12_GLOBAL__N_138qt_meta_tag_ZN6Defold12DefoldPluginE_tEEE, symObjAddr: 0x3370, symBinAddr: 0x101F0, symSize: 0x0 }
  - { offset: 0x93D08, size: 0x8, addend: 0x0, symName: __ZN9QtPrivate25QMetaTypeInterfaceWrapperIN6Defold12DefoldPluginEE8metaTypeE, symObjAddr: 0x3598, symBinAddr: 0x11010, symSize: 0x0 }
  - { offset: 0x93D1B, size: 0x8, addend: 0x0, symName: __ZN9QtPrivate16QMetaTypeForTypeIN6Defold12DefoldPluginEE4nameE, symObjAddr: 0x3522, symBinAddr: 0xE842, symSize: 0x0 }
  - { offset: 0x93D6F, size: 0x8, addend: 0x0, symName: __ZL32qt_pluginMetaDataV2_DefoldPlugin, symObjAddr: 0x34D0, symBinAddr: 0xE7F0, symSize: 0x0 }
  - { offset: 0x93D93, size: 0x8, addend: 0x0, symName: __ZN6Defold12DefoldPlugin18qt_static_metacallEP7QObjectN11QMetaObject4CallEiPPv, symObjAddr: 0x0, symBinAddr: 0xB6E0, symSize: 0x20 }
  - { offset: 0x93DF0, size: 0x8, addend: 0x0, symName: __ZNK6Defold12DefoldPlugin10metaObjectEv, symObjAddr: 0x20, symBinAddr: 0xB700, symSize: 0x60 }
  - { offset: 0x93E18, size: 0x8, addend: 0x0, symName: __ZNK14QScopedPointerI11QObjectData21QScopedPointerDeleterIS0_EEptEv, symObjAddr: 0x80, symBinAddr: 0xB760, symSize: 0x20 }
  - { offset: 0x93E3E, size: 0x8, addend: 0x0, symName: __ZN6Defold12DefoldPlugin11qt_metacastEPKc, symObjAddr: 0xA0, symBinAddr: 0xB780, symSize: 0x70 }
  - { offset: 0x93E74, size: 0x8, addend: 0x0, symName: __ZN6Defold12DefoldPlugin11qt_metacallEN11QMetaObject4CallEiPPv, symObjAddr: 0x110, symBinAddr: 0xB7F0, symSize: 0x40 }
  - { offset: 0x93EC6, size: 0x8, addend: 0x0, symName: __ZNK17QPluginMetaDataV2IL_ZL32qt_pluginMetaDataV2_DefoldPluginEEcv15QPluginMetaDataEv, symObjAddr: 0x180, symBinAddr: 0xB860, symSize: 0x60 }
  - { offset: 0x93EEC, size: 0x8, addend: 0x0, symName: __ZN8QPointerI7QObjectED1Ev, symObjAddr: 0x2A0, symBinAddr: 0xB980, symSize: 0x20 }
  - { offset: 0x93F18, size: 0x8, addend: 0x0, symName: __ZNK8QPointerI7QObjectEcvbEv, symObjAddr: 0x2C0, symBinAddr: 0xB9A0, symSize: 0x20 }
  - { offset: 0x93F3E, size: 0x8, addend: 0x0, symName: __ZN8QPointerI7QObjectEaSEPS0_, symObjAddr: 0x2E0, symBinAddr: 0xB9C0, symSize: 0x30 }
  - { offset: 0x93F72, size: 0x8, addend: 0x0, symName: __ZNK8QPointerI7QObjectEcvPS0_Ev, symObjAddr: 0x310, symBinAddr: 0xB9F0, symSize: 0x20 }
  - { offset: 0x93F98, size: 0x8, addend: 0x0, symName: __ZN6Defold12DefoldPluginD1Ev, symObjAddr: 0x330, symBinAddr: 0xBA10, symSize: 0x20 }
  - { offset: 0x93FC4, size: 0x8, addend: 0x0, symName: __ZN6Defold12DefoldPluginD0Ev, symObjAddr: 0x350, symBinAddr: 0xBA30, symSize: 0x30 }
  - { offset: 0x93FF0, size: 0x8, addend: 0x0, symName: __ZNK5Tiled17WritableMapFormat12capabilitiesEv, symObjAddr: 0x380, symBinAddr: 0xBA60, symSize: 0x30 }
  - { offset: 0x94016, size: 0x8, addend: 0x0, symName: __ZNK5Tiled17WritableMapFormat12supportsFileERK7QString, symObjAddr: 0x3B0, symBinAddr: 0xBA90, symSize: 0x20 }
  - { offset: 0x94047, size: 0x8, addend: 0x0, symName: __ZNK5Tiled9MapFormat11outputFilesEPKNS_3MapERK7QString, symObjAddr: 0x3D0, symBinAddr: 0xBAB0, symSize: 0x40 }
  - { offset: 0x94086, size: 0x8, addend: 0x0, symName: __ZN5Tiled17WritableMapFormat4readERK7QString, symObjAddr: 0x410, symBinAddr: 0xBAF0, symSize: 0x30 }
  - { offset: 0x940B7, size: 0x8, addend: 0x0, symName: __ZN9QtPrivate17MetaObjectForTypeIN6Defold12DefoldPluginEvE18metaObjectFunctionEPKNS_18QMetaTypeInterfaceE, symObjAddr: 0x440, symBinAddr: 0xBB20, symSize: 0x20 }
  - { offset: 0x9410A, size: 0x8, addend: 0x0, symName: __ZZN9QtPrivate16QMetaTypeForTypeIN6Defold12DefoldPluginEE13getDefaultCtrEvENUlPKNS_18QMetaTypeInterfaceEPvE_8__invokeES6_S7_, symObjAddr: 0x460, symBinAddr: 0xBB40, symSize: 0x30 }
  - { offset: 0x9416F, size: 0x8, addend: 0x0, symName: __ZZN9QtPrivate16QMetaTypeForTypeIN6Defold12DefoldPluginEE7getDtorEvENUlPKNS_18QMetaTypeInterfaceEPvE_8__invokeES6_S7_, symObjAddr: 0x490, symBinAddr: 0xBB70, symSize: 0x30 }
  - { offset: 0x941AB, size: 0x8, addend: 0x0, symName: __ZZN9QtPrivate16QMetaTypeForTypeIN6Defold12DefoldPluginEE13getDefaultCtrEvENKUlPKNS_18QMetaTypeInterfaceEPvE_clES6_S7_, symObjAddr: 0x4C0, symBinAddr: 0xBBA0, symSize: 0x30 }
  - { offset: 0x941F9, size: 0x8, addend: 0x0, symName: __ZZN9QtPrivate16QMetaTypeForTypeIN6Defold12DefoldPluginEE7getDtorEvENKUlPKNS_18QMetaTypeInterfaceEPvE_clES6_S7_, symObjAddr: 0x4F0, symBinAddr: 0xBBD0, symSize: 0x30 }
  - { offset: 0x9423D, size: 0x8, addend: 0x0, symName: __ZN8QPointerI7QObjectED2Ev, symObjAddr: 0x520, symBinAddr: 0xBC00, symSize: 0x20 }
  - { offset: 0x94269, size: 0x8, addend: 0x0, symName: __ZN12QWeakPointerI7QObjectED1Ev, symObjAddr: 0x540, symBinAddr: 0xBC20, symSize: 0x20 }
  - { offset: 0x94293, size: 0x8, addend: 0x0, symName: __ZN12QWeakPointerI7QObjectED2Ev, symObjAddr: 0x560, symBinAddr: 0xBC40, symSize: 0x60 }
  - { offset: 0x942BD, size: 0x8, addend: 0x0, symName: __ZN15QtSharedPointer20ExternalRefCountDataD1Ev, symObjAddr: 0x5E0, symBinAddr: 0xBCA0, symSize: 0x20 }
  - { offset: 0x942E7, size: 0x8, addend: 0x0, symName: __ZN15QtSharedPointer20ExternalRefCountDatadlEPv, symObjAddr: 0x600, symBinAddr: 0xBCC0, symSize: 0x20 }
  - { offset: 0x9430A, size: 0x8, addend: 0x0, symName: __ZN15QtSharedPointer20ExternalRefCountDataD2Ev, symObjAddr: 0x740, symBinAddr: 0xBCE0, symSize: 0x70 }
  - { offset: 0x94334, size: 0x8, addend: 0x0, symName: __ZN6Defold12DefoldPluginD2Ev, symObjAddr: 0x870, symBinAddr: 0xBD50, symSize: 0x40 }
  - { offset: 0x94360, size: 0x8, addend: 0x0, symName: __ZN5Tiled17WritableMapFormatD2Ev, symObjAddr: 0x8D0, symBinAddr: 0xBD90, symSize: 0x20 }
  - { offset: 0x9438C, size: 0x8, addend: 0x0, symName: __ZN5Tiled9MapFormatD2Ev, symObjAddr: 0xA80, symBinAddr: 0xBDB0, symSize: 0x20 }
  - { offset: 0x943B8, size: 0x8, addend: 0x0, symName: __ZN5Tiled10FileFormatD2Ev, symObjAddr: 0xAA0, symBinAddr: 0xBDD0, symSize: 0x20 }
  - { offset: 0x943E4, size: 0x8, addend: 0x0, symName: __ZN6QFlagsIN5Tiled10FileFormat10CapabilityEEC1ES2_, symObjAddr: 0xAC0, symBinAddr: 0xBDF0, symSize: 0x30 }
  - { offset: 0x9441C, size: 0x8, addend: 0x0, symName: __ZN6QFlagsIN5Tiled10FileFormat10CapabilityEEC2ES2_, symObjAddr: 0xAF0, symBinAddr: 0xBE20, symSize: 0x30 }
  - { offset: 0x94454, size: 0x8, addend: 0x0, symName: __ZN9QtPrivate19QFlagsStorageHelperIN5Tiled10FileFormat10CapabilityELi4EECI2NS_13QFlagsStorageIS3_EEENSt3__110in_place_tEj, symObjAddr: 0xB20, symBinAddr: 0xBE50, symSize: 0x30 }
  - { offset: 0x94492, size: 0x8, addend: 0x0, symName: __ZN9QtPrivate13QFlagsStorageIN5Tiled10FileFormat10CapabilityEEC2ENSt3__110in_place_tEj, symObjAddr: 0xB60, symBinAddr: 0xBE80, symSize: 0x20 }
  - { offset: 0x944D5, size: 0x8, addend: 0x0, symName: __ZN5QListI7QStringEC1IS0_vEERKT_, symObjAddr: 0xB80, symBinAddr: 0xBEA0, symSize: 0x30 }
  - { offset: 0x94519, size: 0x8, addend: 0x0, symName: __ZN5QListI7QStringEC2IS0_vEERKT_, symObjAddr: 0xBB0, symBinAddr: 0xBED0, symSize: 0x50 }
  - { offset: 0x9455D, size: 0x8, addend: 0x0, symName: __ZN17QArrayDataPointerI7QStringEC1Ev, symObjAddr: 0xC00, symBinAddr: 0xBF20, symSize: 0x20 }
  - { offset: 0x94587, size: 0x8, addend: 0x0, symName: __ZN5QListI7QStringE6appendERKS0_, symObjAddr: 0xC20, symBinAddr: 0xBF40, symSize: 0x30 }
  - { offset: 0x945BC, size: 0x8, addend: 0x0, symName: __ZN17QArrayDataPointerI7QStringED1Ev, symObjAddr: 0xC50, symBinAddr: 0xBF70, symSize: 0x20 }
  - { offset: 0x945E6, size: 0x8, addend: 0x0, symName: __ZN17QArrayDataPointerI7QStringEC2Ev, symObjAddr: 0xC70, symBinAddr: 0xBF90, symSize: 0x30 }
  - { offset: 0x94610, size: 0x8, addend: 0x0, symName: __ZN5QListI7QStringE11emplaceBackIJRKS0_EEERS0_DpOT_, symObjAddr: 0xCA0, symBinAddr: 0xBFC0, symSize: 0x70 }
  - { offset: 0x94652, size: 0x8, addend: 0x0, symName: __ZN17QArrayDataPointerI7QStringEptEv, symObjAddr: 0xD10, symBinAddr: 0xC030, symSize: 0x10 }
  - { offset: 0x94678, size: 0x8, addend: 0x0, symName: __ZN9QtPrivate16QMovableArrayOpsI7QStringE7emplaceIJRKS1_EEEvxDpOT_, symObjAddr: 0xD20, symBinAddr: 0xC040, symSize: 0x210 }
  - { offset: 0x94705, size: 0x8, addend: 0x0, symName: __ZN5QListI7QStringE3endEv, symObjAddr: 0xF30, symBinAddr: 0xC250, symSize: 0x40 }
  - { offset: 0x9472B, size: 0x8, addend: 0x0, symName: __ZNK5QListI7QStringE8iteratormiEx, symObjAddr: 0xF70, symBinAddr: 0xC290, symSize: 0x40 }
  - { offset: 0x9475F, size: 0x8, addend: 0x0, symName: __ZNK5QListI7QStringE8iteratordeEv, symObjAddr: 0xFB0, symBinAddr: 0xC2D0, symSize: 0x20 }
  - { offset: 0x94785, size: 0x8, addend: 0x0, symName: __ZNK17QArrayDataPointerI7QStringE11needsDetachEv, symObjAddr: 0xFD0, symBinAddr: 0xC2F0, symSize: 0x40 }
  - { offset: 0x947AB, size: 0x8, addend: 0x0, symName: __ZNK17QArrayDataPointerI7QStringE14freeSpaceAtEndEv, symObjAddr: 0x1010, symBinAddr: 0xC330, symSize: 0x60 }
  - { offset: 0x947D1, size: 0x8, addend: 0x0, symName: __ZN17QArrayDataPointerI7QStringE3endEv, symObjAddr: 0x1070, symBinAddr: 0xC390, symSize: 0x30 }
  - { offset: 0x947F7, size: 0x8, addend: 0x0, symName: __ZNK17QArrayDataPointerI7QStringE16freeSpaceAtBeginEv, symObjAddr: 0x10D0, symBinAddr: 0xC3C0, symSize: 0x60 }
  - { offset: 0x9481D, size: 0x8, addend: 0x0, symName: __ZN17QArrayDataPointerI7QStringE5beginEv, symObjAddr: 0x1130, symBinAddr: 0xC420, symSize: 0x20 }
  - { offset: 0x94843, size: 0x8, addend: 0x0, symName: __ZN17QArrayDataPointerI7QStringE13detachAndGrowEN10QArrayData14GrowthPositionExPPKS0_PS1_, symObjAddr: 0x1150, symBinAddr: 0xC440, symSize: 0x100 }
  - { offset: 0x948E2, size: 0x8, addend: 0x0, symName: __ZN9QtPrivate16QMovableArrayOpsI7QStringE8InserterC1EP17QArrayDataPointerIS1_Exx, symObjAddr: 0x1280, symBinAddr: 0xC540, symSize: 0x40 }
  - { offset: 0x94939, size: 0x8, addend: 0x0, symName: __ZN9QtPrivate16QMovableArrayOpsI7QStringE8Inserter9insertOneEOS1_, symObjAddr: 0x12C0, symBinAddr: 0xC580, symSize: 0x40 }
  - { offset: 0x9496E, size: 0x8, addend: 0x0, symName: __ZN9QtPrivate16QMovableArrayOpsI7QStringE8InserterD1Ev, symObjAddr: 0x1300, symBinAddr: 0xC5C0, symSize: 0x20 }
  - { offset: 0x94998, size: 0x8, addend: 0x0, symName: __ZN10QArrayData11needsDetachEv, symObjAddr: 0x1320, symBinAddr: 0xC5E0, symSize: 0x30 }
  - { offset: 0x949BE, size: 0x8, addend: 0x0, symName: __ZNK10QArrayData22constAllocatedCapacityEv, symObjAddr: 0x1350, symBinAddr: 0xC610, symSize: 0x20 }
  - { offset: 0x949E4, size: 0x8, addend: 0x0, symName: __ZN17QArrayDataPointerI7QStringE4dataEv, symObjAddr: 0x1370, symBinAddr: 0xC630, symSize: 0x20 }
  - { offset: 0x94A0A, size: 0x8, addend: 0x0, symName: __ZN15QTypedArrayDataI7QStringE9dataStartEP10QArrayDatax, symObjAddr: 0x15C0, symBinAddr: 0xC650, symSize: 0x80 }
  - { offset: 0x94A49, size: 0x8, addend: 0x0, symName: __ZN17QArrayDataPointerI7QStringE20tryReadjustFreeSpaceEN10QArrayData14GrowthPositionExPPKS0_, symObjAddr: 0x1640, symBinAddr: 0xC6D0, symSize: 0x1E0 }
  - { offset: 0x94AD9, size: 0x8, addend: 0x0, symName: __ZN17QArrayDataPointerI7QStringE17reallocateAndGrowEN10QArrayData14GrowthPositionExPS1_, symObjAddr: 0x1820, symBinAddr: 0xC8B0, symSize: 0x260 }
  - { offset: 0x94B55, size: 0x8, addend: 0x0, symName: __ZNK17QArrayDataPointerI7QStringE22constAllocatedCapacityEv, symObjAddr: 0x1A80, symBinAddr: 0xCB10, symSize: 0x40 }
  - { offset: 0x94B7A, size: 0x8, addend: 0x0, symName: __Z4qMaxIixEN11QTypeTraits6detail8PromotedIT_T0_NSt3__19enable_ifIXaaaaaaaaaaaaaasr3stdE15is_arithmetic_vIS3_Esr3stdE15is_arithmetic_vIS4_Eeqsr3stdE19is_floating_point_vIS3_Esr3stdE19is_floating_point_vIS4_Eeqsr3stdE11is_signed_vIS3_Esr3stdE11is_signed_vIS4_Entsr3stdE9is_same_vIS3_bEntsr3stdE9is_same_vIS4_bEntsr3stdE9is_same_vIS3_cEntsr3stdE9is_same_vIS4_cEEvE4typeEE4typeERKS3_RKS4_, symObjAddr: 0x1AC0, symBinAddr: 0xCB50, symSize: 0x50 }
  - { offset: 0x94BEE, size: 0x8, addend: 0x0, symName: __ZN17QArrayDataPointerI7QStringE8relocateExPPKS0_, symObjAddr: 0x1B10, symBinAddr: 0xCBA0, symSize: 0x80 }
  - { offset: 0x94C51, size: 0x8, addend: 0x0, symName: __ZNKSt3__14lessIvEclB9nqe210106IRPK7QStringS6_EEDTltclsr3stdE7forwardIT_Efp_Eclsr3stdE7forwardIT0_Efp0_EEOS7_OS8_, symObjAddr: 0x1D60, symBinAddr: 0xCDF0, symSize: 0x30 }
  - { offset: 0x94CA7, size: 0x8, addend: 0x0, symName: __ZNK17QArrayDataPointerI7QStringE4dataEv, symObjAddr: 0x1D90, symBinAddr: 0xCE20, symSize: 0x20 }
  - { offset: 0x94CCD, size: 0x8, addend: 0x0, symName: __ZNK17QArrayDataPointerI7QStringE5beginEv, symObjAddr: 0x1DE0, symBinAddr: 0xCE70, symSize: 0x20 }
  - { offset: 0x94CF3, size: 0x8, addend: 0x0, symName: __ZNK17QArrayDataPointerI7QStringE3endEv, symObjAddr: 0x1E00, symBinAddr: 0xCE90, symSize: 0x30 }
  - { offset: 0x94D19, size: 0x8, addend: 0x0, symName: __ZN9QtPrivate16QMovableArrayOpsI7QStringE10reallocateExN10QArrayData16AllocationOptionE, symObjAddr: 0x1E30, symBinAddr: 0xCEC0, symSize: 0x80 }
  - { offset: 0x94D6C, size: 0x8, addend: 0x0, symName: __ZN17QArrayDataPointerI7QStringE12allocateGrowERKS1_xN10QArrayData14GrowthPositionE, symObjAddr: 0x1EB0, symBinAddr: 0xCF40, symSize: 0x230 }
  - { offset: 0x94E07, size: 0x8, addend: 0x0, symName: __ZN9QtPrivate16QGenericArrayOpsI7QStringE10copyAppendEPKS1_S4_, symObjAddr: 0x20E0, symBinAddr: 0xD170, symSize: 0x150 }
  - { offset: 0x94E5A, size: 0x8, addend: 0x0, symName: __ZN9QtPrivate16QGenericArrayOpsI7QStringE10moveAppendEPS1_S3_, symObjAddr: 0x2230, symBinAddr: 0xD2C0, symSize: 0x150 }
  - { offset: 0x94EAD, size: 0x8, addend: 0x0, symName: __ZN17QArrayDataPointerI7QStringE4swapERS1_, symObjAddr: 0x2380, symBinAddr: 0xD410, symSize: 0x60 }
  - { offset: 0x94EE1, size: 0x8, addend: 0x0, symName: __ZN15QTypedArrayDataI7QStringE19reallocateUnalignedEPS1_PS0_xN10QArrayData16AllocationOptionE, symObjAddr: 0x23E0, symBinAddr: 0xD470, symSize: 0x70 }
  - { offset: 0x94F48, size: 0x8, addend: 0x0, symName: __ZNSt3__14pairIP15QTypedArrayDataI7QStringEPS2_EC1B9nqe210106IS4_S5_Li0EEEOT_OT0_, symObjAddr: 0x2450, symBinAddr: 0xD4E0, symSize: 0x30 }
  - { offset: 0x94FA6, size: 0x8, addend: 0x0, symName: __ZNSt3__14pairIP15QTypedArrayDataI7QStringEPS2_EC2B9nqe210106IS4_S5_Li0EEEOT_OT0_, symObjAddr: 0x2480, symBinAddr: 0xD510, symSize: 0x30 }
  - { offset: 0x95003, size: 0x8, addend: 0x0, symName: __Z4qMaxIxERKT_S2_S2_, symObjAddr: 0x24B0, symBinAddr: 0xD540, symSize: 0x40 }
  - { offset: 0x95047, size: 0x8, addend: 0x0, symName: __ZNK17QArrayDataPointerI7QStringE14detachCapacityEx, symObjAddr: 0x24F0, symBinAddr: 0xD580, symSize: 0x50 }
  - { offset: 0x9507C, size: 0x8, addend: 0x0, symName: __ZN15QTypedArrayDataI7QStringE8allocateExN10QArrayData16AllocationOptionE, symObjAddr: 0x2540, symBinAddr: 0xD5D0, symSize: 0x60 }
  - { offset: 0x950C9, size: 0x8, addend: 0x0, symName: __ZN17QArrayDataPointerI7QStringEC1EP15QTypedArrayDataIS0_EPS0_x, symObjAddr: 0x25E0, symBinAddr: 0xD670, symSize: 0x40 }
  - { offset: 0x9511D, size: 0x8, addend: 0x0, symName: __ZNK17QArrayDataPointerI7QStringE5flagsEv, symObjAddr: 0x2620, symBinAddr: 0xD6B0, symSize: 0x40 }
  - { offset: 0x95143, size: 0x8, addend: 0x0, symName: __ZNK10QArrayData14detachCapacityEx, symObjAddr: 0x2660, symBinAddr: 0xD6F0, symSize: 0x90 }
  - { offset: 0x95177, size: 0x8, addend: 0x0, symName: __ZNK6QFlagsIN10QArrayData11ArrayOptionEEanES1_, symObjAddr: 0x26F0, symBinAddr: 0xD780, symSize: 0x40 }
  - { offset: 0x951AB, size: 0x8, addend: 0x0, symName: __ZNK6QFlagsIN10QArrayData11ArrayOptionEEcvjEv, symObjAddr: 0x2730, symBinAddr: 0xD7C0, symSize: 0x10 }
  - { offset: 0x951D1, size: 0x8, addend: 0x0, symName: __ZN6QFlagsIN10QArrayData11ArrayOptionEECI1N9QtPrivate13QFlagsStorageIS1_EEENSt3__110in_place_tEj, symObjAddr: 0x2740, symBinAddr: 0xD7D0, symSize: 0x30 }
  - { offset: 0x9520F, size: 0x8, addend: 0x0, symName: __ZN6QFlagsIN10QArrayData11ArrayOptionEECI2N9QtPrivate13QFlagsStorageIS1_EEENSt3__110in_place_tEj, symObjAddr: 0x2770, symBinAddr: 0xD800, symSize: 0x30 }
  - { offset: 0x9524D, size: 0x8, addend: 0x0, symName: __ZN9QtPrivate19QFlagsStorageHelperIN10QArrayData11ArrayOptionELi4EECI2NS_13QFlagsStorageIS2_EEENSt3__110in_place_tEj, symObjAddr: 0x27A0, symBinAddr: 0xD830, symSize: 0x30 }
  - { offset: 0x9528B, size: 0x8, addend: 0x0, symName: __ZN9QtPrivate13QFlagsStorageIN10QArrayData11ArrayOptionEEC2ENSt3__110in_place_tEj, symObjAddr: 0x27D0, symBinAddr: 0xD860, symSize: 0x20 }
  - { offset: 0x952CE, size: 0x8, addend: 0x0, symName: __ZNSt3__110__get_pairILm0EE3getB9nqe210106IP15QTypedArrayDataI7QStringEPS4_EEOT_ONS_4pairIS8_T0_EE, symObjAddr: 0x27F0, symBinAddr: 0xD880, symSize: 0x10 }
  - { offset: 0x95304, size: 0x8, addend: 0x0, symName: __ZNSt3__110__get_pairILm1EE3getB9nqe210106IP15QTypedArrayDataI7QStringEPS4_EEOT0_ONS_4pairIT_S8_EE, symObjAddr: 0x2800, symBinAddr: 0xD890, symSize: 0x20 }
  - { offset: 0x9533A, size: 0x8, addend: 0x0, symName: __ZN17QArrayDataPointerI7QStringEC2EP15QTypedArrayDataIS0_EPS0_x, symObjAddr: 0x2820, symBinAddr: 0xD8B0, symSize: 0x40 }
  - { offset: 0x9538E, size: 0x8, addend: 0x0, symName: __ZN6QFlagsIN10QArrayData11ArrayOptionEEC1ES1_, symObjAddr: 0x2860, symBinAddr: 0xD8F0, symSize: 0x30 }
  - { offset: 0x953C6, size: 0x8, addend: 0x0, symName: __ZN6QFlagsIN10QArrayData11ArrayOptionEEC2ES1_, symObjAddr: 0x2890, symBinAddr: 0xD920, symSize: 0x30 }
  - { offset: 0x953FE, size: 0x8, addend: 0x0, symName: __ZNK17QArrayDataPointerI7QStringE9isMutableEv, symObjAddr: 0x28C0, symBinAddr: 0xD950, symSize: 0x20 }
  - { offset: 0x95424, size: 0x8, addend: 0x0, symName: __ZNK17QArrayDataPointerI7QStringE8isSharedEv, symObjAddr: 0x28E0, symBinAddr: 0xD970, symSize: 0x40 }
  - { offset: 0x9544A, size: 0x8, addend: 0x0, symName: __ZNK10QArrayData8isSharedEv, symObjAddr: 0x2920, symBinAddr: 0xD9B0, symSize: 0x30 }
  - { offset: 0x95470, size: 0x8, addend: 0x0, symName: __Z11qt_ptr_swapI15QTypedArrayDataI7QStringEEvRPT_S5_, symObjAddr: 0x2950, symBinAddr: 0xD9E0, symSize: 0x40 }
  - { offset: 0x954BE, size: 0x8, addend: 0x0, symName: __Z11qt_ptr_swapI7QStringEvRPT_S3_, symObjAddr: 0x2990, symBinAddr: 0xDA20, symSize: 0x40 }
  - { offset: 0x9550C, size: 0x8, addend: 0x0, symName: __ZN9QtPrivate16QMovableArrayOpsI7QStringE8InserterC2EP17QArrayDataPointerIS1_Exx, symObjAddr: 0x2B90, symBinAddr: 0xDA60, symSize: 0x80 }
  - { offset: 0x95563, size: 0x8, addend: 0x0, symName: __ZN9QtPrivate16QMovableArrayOpsI7QStringE8Inserter10verifyPostEv, symObjAddr: 0x2C10, symBinAddr: 0xDAE0, symSize: 0x40 }
  - { offset: 0x95589, size: 0x8, addend: 0x0, symName: __ZN9QtPrivate16QMovableArrayOpsI7QStringE8InserterD2Ev, symObjAddr: 0x2C50, symBinAddr: 0xDB20, symSize: 0x30 }
  - { offset: 0x955D1, size: 0x8, addend: 0x0, symName: __ZN5QListI7QStringE6detachEv, symObjAddr: 0x2C80, symBinAddr: 0xDB50, symSize: 0x20 }
  - { offset: 0x955F7, size: 0x8, addend: 0x0, symName: __ZN5QListI7QStringE8iteratorC1EPS0_, symObjAddr: 0x2CA0, symBinAddr: 0xDB70, symSize: 0x30 }
  - { offset: 0x9562F, size: 0x8, addend: 0x0, symName: __ZN17QArrayDataPointerI7QStringE6detachEPS1_, symObjAddr: 0x2CD0, symBinAddr: 0xDBA0, symSize: 0x40 }
  - { offset: 0x95663, size: 0x8, addend: 0x0, symName: __ZN5QListI7QStringE8iteratorC2EPS0_, symObjAddr: 0x2D10, symBinAddr: 0xDBE0, symSize: 0x20 }
  - { offset: 0x9569B, size: 0x8, addend: 0x0, symName: __ZN17QArrayDataPointerI7QStringED2Ev, symObjAddr: 0x2D30, symBinAddr: 0xDC00, symSize: 0x50 }
  - { offset: 0x956C5, size: 0x8, addend: 0x0, symName: __ZN17QArrayDataPointerI7QStringE5derefEv, symObjAddr: 0x2D80, symBinAddr: 0xDC50, symSize: 0x40 }
  - { offset: 0x956EB, size: 0x8, addend: 0x0, symName: __ZN9QtPrivate16QGenericArrayOpsI7QStringE10destroyAllEv, symObjAddr: 0x2DC0, symBinAddr: 0xDC90, symSize: 0x90 }
  - { offset: 0x95711, size: 0x8, addend: 0x0, symName: __ZN15QTypedArrayDataI7QStringE10deallocateEP10QArrayData, symObjAddr: 0x2E50, symBinAddr: 0xDD20, symSize: 0x30 }
  - { offset: 0x95734, size: 0x8, addend: 0x0, symName: __ZNSt3__110unique_ptrIN5Tiled3MapENS_14default_deleteIS2_EEEC1B9nqe210106ILb1EvEEDn, symObjAddr: 0x2F10, symBinAddr: 0xDDE0, symSize: 0x30 }
  - { offset: 0x95775, size: 0x8, addend: 0x0, symName: __ZNSt3__110unique_ptrIN5Tiled3MapENS_14default_deleteIS2_EEEC2B9nqe210106ILb1EvEEDn, symObjAddr: 0x2F40, symBinAddr: 0xDE10, symSize: 0x20 }
  - { offset: 0x957B6, size: 0x8, addend: 0x0, symName: __ZNK8QPointerI7QObjectE6isNullEv, symObjAddr: 0x2F60, symBinAddr: 0xDE30, symSize: 0x20 }
  - { offset: 0x957DC, size: 0x8, addend: 0x0, symName: __ZNK12QWeakPointerI7QObjectE6isNullEv, symObjAddr: 0x2F80, symBinAddr: 0xDE50, symSize: 0x60 }
  - { offset: 0x95802, size: 0x8, addend: 0x0, symName: __ZN12QWeakPointerI7QObjectE6assignIS0_EERS1_PT_, symObjAddr: 0x2FE0, symBinAddr: 0xDEB0, symSize: 0x50 }
  - { offset: 0x95840, size: 0x8, addend: 0x0, symName: __ZN12QWeakPointerI7QObjectEC1EPS0_b, symObjAddr: 0x3030, symBinAddr: 0xDF00, symSize: 0x40 }
  - { offset: 0x95884, size: 0x8, addend: 0x0, symName: __ZN12QWeakPointerI7QObjectEaSEOS1_, symObjAddr: 0x3070, symBinAddr: 0xDF40, symSize: 0x50 }
  - { offset: 0x958C8, size: 0x8, addend: 0x0, symName: __ZN12QWeakPointerI7QObjectEC2EPS0_b, symObjAddr: 0x30C0, symBinAddr: 0xDF90, symSize: 0x60 }
  - { offset: 0x9590C, size: 0x8, addend: 0x0, symName: __ZN12QWeakPointerI7QObjectEC1EOS1_, symObjAddr: 0x3120, symBinAddr: 0xDFF0, symSize: 0x30 }
  - { offset: 0x95945, size: 0x8, addend: 0x0, symName: __ZN12QWeakPointerI7QObjectE4swapERS1_, symObjAddr: 0x3150, symBinAddr: 0xE020, symSize: 0x40 }
  - { offset: 0x9597A, size: 0x8, addend: 0x0, symName: __ZN12QWeakPointerI7QObjectEC2EOS1_, symObjAddr: 0x3190, symBinAddr: 0xE060, symSize: 0x40 }
  - { offset: 0x959B3, size: 0x8, addend: 0x0, symName: __Z11qt_ptr_swapIN15QtSharedPointer20ExternalRefCountDataEEvRPT_S4_, symObjAddr: 0x31D0, symBinAddr: 0xE0A0, symSize: 0x40 }
  - { offset: 0x95A01, size: 0x8, addend: 0x0, symName: __Z11qt_ptr_swapI7QObjectEvRPT_S3_, symObjAddr: 0x3210, symBinAddr: 0xE0E0, symSize: 0x40 }
  - { offset: 0x95A4F, size: 0x8, addend: 0x0, symName: __ZNK8QPointerI7QObjectE4dataEv, symObjAddr: 0x3250, symBinAddr: 0xE120, symSize: 0x20 }
  - { offset: 0x95A75, size: 0x8, addend: 0x0, symName: __ZNK12QWeakPointerI7QObjectE12internalDataEv, symObjAddr: 0x3270, symBinAddr: 0xE140, symSize: 0x4D }
...
