__Unwind_Resume U 0 0
__Z11qt_assert_xPKcS0_S0_i U 0 0
__Z5qHash6QPointm U 0 0
__Z9qBadAllocv U 0 0
__Z9qt_assertPKcS0_i U 0 0
__ZN10QArrayData10deallocateEPS_xx U 0 0
__ZN10QArrayData19reallocateUnalignedEPS_PvxxNS_16AllocationOptionE U 0 0
__ZN10QArrayData8allocateEPPS_xxxNS_16AllocationOptionE U 0 0
__ZN10QByteArray6_emptyE U 0 0
__ZN10QByteArray6numberEdci U 0 0
__ZN10QByteArray6numberEii U 0 0
__ZN10QByteArray6numberEji U 0 0
__ZN10QByteArrayC1EPKcx U 0 0
__ZN11QMetaObject14normalizedTypeEPKc U 0 0
__ZN15QtSharedPointer20ExternalRefCountData9getAndRefEPK7QObject U 0 0
__ZN16QCoreApplication18applicationVersionEv U 0 0
__ZN16QCoreApplication9translateEPKcS1_S1_i U 0 0
__ZN3Lua12LuaMapFormat11qt_metacallEN11QMetaObject4CallEiPPv T 17ea0 0
__ZN3Lua12LuaMapFormat11qt_metacastEPKc T 17e30 0
__ZN3Lua12LuaMapFormat16staticMetaObjectE S 1e448 0
__ZN3Lua12LuaMapFormat5writeEPKN5Tiled3MapERK7QString6QFlagsINS1_10FileFormat6OptionEE T 3fe0 0
__ZN3Lua16LuaTilesetFormat11qt_metacallEN11QMetaObject4CallEiPPv T 17fd0 0
__ZN3Lua16LuaTilesetFormat11qt_metacastEPKc T 17f60 0
__ZN3Lua16LuaTilesetFormat16staticMetaObjectE S 1e488 0
__ZN3Lua16LuaTilesetFormat5writeERKN5Tiled7TilesetERK7QString6QFlagsINS1_10FileFormat6OptionEE T 55f0 0
__ZN3Lua9LuaPlugin10initializeEv T 3ed0 0
__ZN3Lua9LuaPlugin11qt_metacallEN11QMetaObject4CallEiPPv T 17b70 0
__ZN3Lua9LuaPlugin11qt_metacastEPKc T 17ae0 0
__ZN3Lua9LuaPlugin16staticMetaObjectE S 1e408 0
__ZN4QDirC1ERK7QString U 0 0
__ZN4QDirC1ERKS_ U 0 0
__ZN4QDirD1Ev U 0 0
__ZN5Tiled10FileFormat13versionStringEv U 0 0
__ZN5Tiled10FileFormat20compatibilityVersionEv U 0 0
__ZN5Tiled10FileFormatC2EP7QObject U 0 0
__ZN5Tiled13ExportContextC1ERK7QString U 0 0
__ZN5Tiled15mergePropertiesER4QMapI7QString8QVariantERKS3_ U 0 0
__ZN5Tiled15toFileReferenceERK4QUrlRK7QString U 0 0
__ZN5Tiled17WritableMapFormat11qt_metacallEN11QMetaObject4CallEiPPv U 0 0
__ZN5Tiled17WritableMapFormat11qt_metacastEPKc U 0 0
__ZN5Tiled17WritableMapFormat16staticMetaObjectE U 0 0
__ZN5Tiled17alignmentToStringENS_9AlignmentE U 0 0
__ZN5Tiled17blendModeToStringENS_9BlendModeE U 0 0
__ZN5Tiled17drawOrderToStringENS_11ObjectGroup9DrawOrderE U 0 0
__ZN5Tiled18filePathRelativeToERK4QDirRK7QString U 0 0
__ZN5Tiled19orientationToStringENS_3Map11OrientationE U 0 0
__ZN5Tiled19renderOrderToStringENS_3Map11RenderOrderE U 0 0
__ZN5Tiled19staggerAxisToStringENS_3Map11StaggerAxisE U 0 0
__ZN5Tiled19wangSetTypeToStringENS_7WangSet4TypeE U 0 0
__ZN5Tiled20staggerIndexToStringENS_3Map12StaggerIndexE U 0 0
__ZN5Tiled21WritableTilesetFormat11qt_metacallEN11QMetaObject4CallEiPPv U 0 0
__ZN5Tiled21WritableTilesetFormat11qt_metacastEPKc U 0 0
__ZN5Tiled21WritableTilesetFormat16staticMetaObjectE U 0 0
__ZN5Tiled4Cell5emptyE U 0 0
__ZN5Tiled6Plugin11qt_metacallEN11QMetaObject4CallEiPPv U 0 0
__ZN5Tiled6Plugin11qt_metacastEPKc U 0 0
__ZN5Tiled6Plugin16staticMetaObjectE U 0 0
__ZN5Tiled6Plugin9addObjectEP7QObject U 0 0
__ZN5Tiled6PluginD2Ev U 0 0
__ZN5Tiled7Tileset16fillModeToStringENS0_8FillModeE U 0 0
__ZN5Tiled7Tileset19orientationToStringENS0_11OrientationE U 0 0
__ZN5Tiled7Tileset22tileRenderSizeToStringENS0_14TileRenderSizeE U 0 0
__ZN5Tiled8SaveFile6commitEv U 0 0
__ZN5Tiled8SaveFileC1ERK7QString U 0 0
__ZN5Tiled9GidMapperC1Ev U 0 0
__ZN5Tiled9ObjectRef16staticMetaObjectE U 0 0
__ZN6QColorC1EN2Qt11GlobalColorE U 0 0
__ZN7QObject10childEventEP11QChildEvent U 0 0
__ZN7QObject10timerEventEP11QTimerEvent U 0 0
__ZN7QObject11customEventEP6QEvent U 0 0
__ZN7QObject11eventFilterEPS_P6QEvent U 0 0
__ZN7QObject13connectNotifyERK11QMetaMethod U 0 0
__ZN7QObject16disconnectNotifyERK11QMetaMethod U 0 0
__ZN7QObject5eventEP6QEvent U 0 0
__ZN7QObjectC2EPS_ U 0 0
__ZN7QObjectD2Ev U 0 0
__ZN7QString11reallocDataExN10QArrayData16AllocationOptionE U 0 0
__ZN7QString13toUtf8_helperERKS_ U 0 0
__ZN7QString23toLatin1_helper_inplaceERS_ U 0 0
__ZN7QString6appendE5QChar U 0 0
__ZN7QString6appendERKS_ U 0 0
__ZN8QVariantD1Ev U 0 0
__ZN9QFileInfoC1ERK7QString U 0 0
__ZN9QFileInfoD1Ev U 0 0
__ZN9QIODevice5writeEPKcx U 0 0
__ZN9QMetaType14registerHelperEPKN9QtPrivate18QMetaTypeInterfaceE U 0 0
__ZN9QMetaType25registerNormalizedTypedefERK10QByteArrayS_ U 0 0
__ZN9QtPrivate12equalStringsE11QStringView13QLatin1String U 0 0
__ZNK11QFileDevice5errorEv U 0 0
__ZNK11QMetaObject2trEPKcS1_i U 0 0
__ZNK11QMetaObject9classNameEv U 0 0
__ZNK11QObjectData17dynamicMetaObjectEv U 0 0
__ZNK3Lua12LuaMapFormat10metaObjectEv T 17dd0 0
__ZNK3Lua12LuaMapFormat10nameFilterEv T 5430 0
__ZNK3Lua12LuaMapFormat11errorStringEv T 5590 0
__ZNK3Lua12LuaMapFormat9shortNameEv T 54b0 0
__ZNK3Lua16LuaTilesetFormat10metaObjectEv T 17f00 0
__ZNK3Lua16LuaTilesetFormat10nameFilterEv T 73c0 0
__ZNK3Lua16LuaTilesetFormat11errorStringEv T 74d0 0
__ZNK3Lua16LuaTilesetFormat9shortNameEv T 7440 0
__ZNK3Lua9LuaPlugin10metaObjectEv T 17a60 0
__ZNK4QDir4pathEv U 0 0
__ZNK4QUrl7isEmptyEv U 0 0
__ZNK5QFont5styleEv U 0 0
__ZNK5QFont6familyEv U 0 0
__ZNK5QFont6weightEv U 0 0
__ZNK5QFont7kerningEv U 0 0
__ZNK5QFont9pixelSizeEv U 0 0
__ZNK5QFont9strikeOutEv U 0 0
__ZNK5QFont9underlineEv U 0 0
__ZNK5Tiled13ExportContext13toExportValueERK8QVariant U 0 0
__ZNK5Tiled4Tile5imageEv U 0 0
__ZNK5Tiled6WangId10indexColorEi U 0 0
__ZNK5Tiled7Tileset17anyTileOutOfOrderEv U 0 0
__ZNK5Tiled7WangSet15sortedWangTilesEv U 0 0
__ZNK5Tiled9GidMapper15encodeLayerDataERKNS_9TileLayerENS_3Map15LayerDataFormatE5QRecti U 0 0
__ZNK5Tiled9GidMapper9cellToGidERKNS_4CellE U 0 0
__ZNK5Tiled9MapObject14templateObjectEv U 0 0
__ZNK5Tiled9TileLayer19sortedChunksToWriteE5QSize U 0 0
__ZNK6QColor3redEv U 0 0
__ZNK6QColor4blueEv U 0 0
__ZNK6QColor4nameENS_10NameFormatE U 0 0
__ZNK6QColor5alphaEv U 0 0
__ZNK6QColor5greenEv U 0 0
__ZNK6QColorneERKS_ U 0 0
__ZNK7QPixmap4rectEv U 0 0
__ZNK8QVariant5toIntEPb U 0 0
__ZNK8QVariant5toMapEv U 0 0
__ZNK8QVariant6toListEv U 0 0
__ZNK8QVariant8toStringEv U 0 0
__ZNK9QFileInfo4pathEv U 0 0
__ZNK9QIODevice11errorStringEv U 0 0
__ZNSt20bad_array_new_lengthC1Ev U 0 0
__ZNSt20bad_array_new_lengthD1Ev U 0 0
__ZSt9terminatev U 0 0
__ZTIN3Lua12LuaMapFormatE S 1e570 0
__ZTIN3Lua16LuaTilesetFormatE S 1e630 0
__ZTIN3Lua9LuaPluginE S 1e6c0 0
__ZTIN5Tiled17WritableMapFormatE U 0 0
__ZTIN5Tiled21WritableTilesetFormatE U 0 0
__ZTIN5Tiled6PluginE U 0 0
__ZTISt20bad_array_new_length U 0 0
__ZTSN3Lua12LuaMapFormatE S 1bbd4 0
__ZTSN3Lua16LuaTilesetFormatE S 1bbe9 0
__ZTSN3Lua9LuaPluginE S 1bc02 0
__ZTVN10__cxxabiv120__si_class_type_infoE U 0 0
__ZTVN3Lua12LuaMapFormatE S 1e4c0 0
__ZTVN3Lua16LuaTilesetFormatE S 1e588 0
__ZTVN3Lua9LuaPluginE S 1e648 0
__ZTVN5Tiled13TilesetFormatE U 0 0
__ZTVN5Tiled17WritableMapFormatE U 0 0
__ZTVN5Tiled21WritableTilesetFormatE U 0 0
__ZTVN5Tiled6PluginE U 0 0
__ZTVN5Tiled9MapFormatE U 0 0
__ZdlPv U 0 0
__ZdlPvSt11align_val_t U 0 0
__Znwm U 0 0
__ZnwmSt11align_val_t U 0 0
___cxa_allocate_exception U 0 0
___cxa_atexit U 0 0
___cxa_begin_catch U 0 0
___cxa_guard_acquire U 0 0
___cxa_guard_release U 0 0
___cxa_throw U 0 0
___gxx_personality_v0 U 0 0
___stack_chk_fail U 0 0
___stack_chk_guard U 0 0
_memcmp U 0 0
_memmove U 0 0
_memset U 0 0
_qt_plugin_instance T 17c40 0
_qt_plugin_query_metadata_v2 T 17bb0 0
_qt_version_tag_6_11 U 0 0
_strcmp U 0 0
_strlen U 0 0
===
__ZN3Lua12LuaMapFormat11qt_metacallEN11QMetaObject4CallEiPPv T 17ea0 0
__ZN3Lua12LuaMapFormat11qt_metacastEPKc T 17e30 0
__ZN3Lua12LuaMapFormat16staticMetaObjectE S 1e448 0
__ZN3Lua12LuaMapFormat5writeEPKN5Tiled3MapERK7QString6QFlagsINS1_10FileFormat6OptionEE T 3fe0 0
__ZN3Lua16LuaTilesetFormat11qt_metacallEN11QMetaObject4CallEiPPv T 17fd0 0
__ZN3Lua16LuaTilesetFormat11qt_metacastEPKc T 17f60 0
__ZN3Lua16LuaTilesetFormat16staticMetaObjectE S 1e488 0
__ZN3Lua16LuaTilesetFormat5writeERKN5Tiled7TilesetERK7QString6QFlagsINS1_10FileFormat6OptionEE T 55f0 0
__ZN3Lua9LuaPlugin10initializeEv T 3ed0 0
__ZN3Lua9LuaPlugin11qt_metacallEN11QMetaObject4CallEiPPv T 17b70 0
__ZN3Lua9LuaPlugin11qt_metacastEPKc T 17ae0 0
__ZN3Lua9LuaPlugin16staticMetaObjectE S 1e408 0
__ZNK3Lua12LuaMapFormat10metaObjectEv T 17dd0 0
__ZNK3Lua12LuaMapFormat10nameFilterEv T 5430 0
__ZNK3Lua12LuaMapFormat11errorStringEv T 5590 0
__ZNK3Lua12LuaMapFormat9shortNameEv T 54b0 0
__ZNK3Lua16LuaTilesetFormat10metaObjectEv T 17f00 0
__ZNK3Lua16LuaTilesetFormat10nameFilterEv T 73c0 0
__ZNK3Lua16LuaTilesetFormat11errorStringEv T 74d0 0
__ZNK3Lua16LuaTilesetFormat9shortNameEv T 7440 0
__ZNK3Lua9LuaPlugin10metaObjectEv T 17a60 0
__ZTIN3Lua12LuaMapFormatE S 1e570 0
__ZTIN3Lua16LuaTilesetFormatE S 1e630 0
__ZTIN3Lua9LuaPluginE S 1e6c0 0
__ZTSN3Lua12LuaMapFormatE S 1bbd4 0
__ZTSN3Lua16LuaTilesetFormatE S 1bbe9 0
__ZTSN3Lua9LuaPluginE S 1bc02 0
__ZTVN3Lua12LuaMapFormatE S 1e4c0 0
__ZTVN3Lua16LuaTilesetFormatE S 1e588 0
__ZTVN3Lua9LuaPluginE S 1e648 0
_qt_plugin_instance T 17c40 0
_qt_plugin_query_metadata_v2 T 17bb0 0
