__Unwind_Resume U 0 0
__Z11qt_assert_xPKcS0_S0_i U 0 0
__Z5qHash11QStringViewm U 0 0
__Z5qHash6QPointm U 0 0
__Z9qBadAllocv U 0 0
__Z9qt_assertPKcS0_i U 0 0
__ZN10QArrayData10deallocateEPS_xx U 0 0
__ZN10QArrayData19reallocateUnalignedEPS_PvxxNS_16AllocationOptionE U 0 0
__ZN10QArrayData8allocateEPPS_xxxNS_16AllocationOptionE U 0 0
__ZN10QTransform6rotateEdN2Qt4AxisE U 0 0
__ZN15QtSharedPointer20ExternalRefCountData9getAndRefEPK7QObject U 0 0
__ZN16QCoreApplication9translateEPKcS1_S1_i U 0 0
__ZN16QXmlStreamWriter12writeCommentE14QAnyStringView U 0 0
__ZN16QXmlStreamWriter14writeAttributeE14QAnyStringViewS0_ U 0 0
__ZN16QXmlStreamWriter15writeEndElementEv U 0 0
__ZN16QXmlStreamWriter16writeEndDocumentEv U 0 0
__ZN16QXmlStreamWriter16writeTextElementE14QAnyStringViewS0_ U 0 0
__ZN16QXmlStreamWriter17setAutoFormattingEb U 0 0
__ZN16QXmlStreamWriter17writeStartElementE14QAnyStringView U 0 0
__ZN16QXmlStreamWriter23setAutoFormattingIndentEi U 0 0
__ZN16QXmlStreamWriterC1EP9QIODevice U 0 0
__ZN16QXmlStreamWriterD1Ev U 0 0
__ZN18QRegularExpressionC1ERK7QString6QFlagsINS_13PatternOptionEE U 0 0
__ZN18QRegularExpressionD1Ev U 0 0
__ZN3Gmx9GmxPlugin11qt_metacallEN11QMetaObject4CallEiPPv T 1ad10 0
__ZN3Gmx9GmxPlugin11qt_metacastEPKc T 1aca0 0
__ZN3Gmx9GmxPlugin16staticMetaObjectE S 20610 0
__ZN3Gmx9GmxPlugin5writeEPKN5Tiled3MapERK7QString6QFlagsINS1_10FileFormat6OptionEE T 3fe0 0
__ZN3Gmx9GmxPluginC1Ev T 3fc0 0
__ZN3Gmx9GmxPluginC2Ev T 3f20 0
__ZN5Tiled10FileFormatC2EP7QObject U 0 0
__ZN5Tiled10JumpToTileC1EPKNS_3MapE6QPointPKNS_5LayerE U 0 0
__ZN5Tiled11SelectLayerC1EPKNS_5LayerE U 0 0
__ZN5Tiled12JumpToObjectC1EPKNS_9MapObjectE U 0 0
__ZN5Tiled13LayerIterator4nextEv U 0 0
__ZN5Tiled13LayerIterator6toBackEv U 0 0
__ZN5Tiled13LayerIterator7toFrontEv U 0 0
__ZN5Tiled15alignmentOffsetERK6QSizeFNS_9AlignmentE U 0 0
__ZN5Tiled16LoggingInterface6reportERKNS_5IssueE U 0 0
__ZN5Tiled16LoggingInterface8instanceEv U 0 0
__ZN5Tiled17WritableMapFormat11qt_metacallEN11QMetaObject4CallEiPPv U 0 0
__ZN5Tiled17WritableMapFormat11qt_metacastEPKc U 0 0
__ZN5Tiled17WritableMapFormat16staticMetaObjectE U 0 0
__ZN5Tiled4Cell5emptyE U 0 0
__ZN5Tiled5IssueC1ENS0_8SeverityERK7QStringNSt3__18functionIFvvEEEPKv U 0 0
__ZN5Tiled8SaveFile6commitEv U 0 0
__ZN5Tiled8SaveFileC1ERK7QString U 0 0
__ZN6QColor9setAlphaFEf U 0 0
__ZN7QObject10childEventEP11QChildEvent U 0 0
__ZN7QObject10timerEventEP11QTimerEvent U 0 0
__ZN7QObject11customEventEP6QEvent U 0 0
__ZN7QObject11eventFilterEPS_P6QEvent U 0 0
__ZN7QObject13connectNotifyERK11QMetaMethod U 0 0
__ZN7QObject16disconnectNotifyERK11QMetaMethod U 0 0
__ZN7QObject5eventEP6QEvent U 0 0
__ZN7QObjectD2Ev U 0 0
__ZN7QString10fromLatin1E14QByteArrayView U 0 0
__ZN7QString14compare_helperEPK5QCharxPKcxN2Qt15CaseSensitivityE U 0 0
__ZN7QString6_emptyE U 0 0
__ZN7QString6appendERKS_ U 0 0
__ZN7QString6numberEdci U 0 0
__ZN7QString6numberEii U 0 0
__ZN7QString6numberEji U 0 0
__ZN7QString7replaceERK18QRegularExpressionRKS_ U 0 0
__ZN7QString8fromUtf8E14QByteArrayView U 0 0
__ZN7QStringaSERKS_ U 0 0
__ZN8QVariantD1Ev U 0 0
__ZN9QFileInfoC1ERK7QString U 0 0
__ZN9QFileInfoD1Ev U 0 0
__ZN9QHashSeed10globalSeedEv U 0 0
__ZN9QMetaType14registerHelperEPKN9QtPrivate18QMetaTypeInterfaceE U 0 0
__ZN9QMetaType7convertES_PKvS_Pv U 0 0
__ZN9QtPrivate12equalStringsE11QStringViewS0_ U 0 0
__ZN9QtPrivate25QMetaTypeInterfaceWrapperI7QStringE8metaTypeE U 0 0
__ZN9QtPrivate25QMetaTypeInterfaceWrapperIbE8metaTypeE U 0 0
__ZN9QtPrivate25QMetaTypeInterfaceWrapperIdE8metaTypeE U 0 0
__ZN9QtPrivate25QMetaTypeInterfaceWrapperIiE8metaTypeE U 0 0
__ZNK10QTransform3mapERK7QPointF U 0 0
__ZNK11QMetaObject2trEPKcS1_i U 0 0
__ZNK11QObjectData17dynamicMetaObjectEv U 0 0
__ZNK3Gmx9GmxPlugin10metaObjectEv T 1ac20 0
__ZNK3Gmx9GmxPlugin10nameFilterEv T d8b0 0
__ZNK3Gmx9GmxPlugin11errorStringEv T d880 0
__ZNK3Gmx9GmxPlugin9shortNameEv T d930 0
__ZNK4QUrl4pathE6QFlagsINS_25ComponentFormattingOptionEE U 0 0
__ZNK4QUrl7isEmptyEv U 0 0
__ZNK5Tiled13LayerIteratoreqERKS0_ U 0 0
__ZNK5Tiled5Layer10isUnlockedEv U 0 0
__ZNK5Tiled5Layer16effectiveOpacityEv U 0 0
__ZNK5Tiled5Layer18effectiveTintColorEv U 0 0
__ZNK5Tiled6Object16resolvedPropertyERK7QString U 0 0
__ZNK5Tiled9MapObject18effectiveClassNameEv U 0 0
__ZNK5Tiled9MapObject9alignmentEPKNS_3MapE U 0 0
__ZNK6QColor4rgbaEv U 0 0
__ZNK6QColor6alphaFEv U 0 0
__ZNK7QPixmap6isNullEv U 0 0
__ZNK7QString8arg_implE14QAnyStringViewi5QChar U 0 0
__ZNK7QString8arg_implExii5QChar U 0 0
__ZNK9QFileInfo8baseNameEv U 0 0
__ZNK9QIODevice11errorStringEv U 0 0
__ZNKSt9exception4whatEv U 0 0
__ZNSt9exceptionD2Ev U 0 0
__ZSt7nothrow U 0 0
__ZSt9terminatev U 0 0
__ZTIN3Gmx9GmxPluginE S 206f8 0
__ZTIN5Tiled10JumpToTileE S 20548 0
__ZTIN5Tiled11SelectLayerE S 205e0 0
__ZTIN5Tiled12JumpToObjectE S 204b0 0
__ZTIN5Tiled17WritableMapFormatE U 0 0
__ZTINSt3__110__function6__baseIFvvEEE S 20408 0
__ZTINSt3__110__function6__funcIN5Tiled10JumpToTileEFvvEEE S 20530 0
__ZTINSt3__110__function6__funcIN5Tiled11SelectLayerEFvvEEE S 205c8 0
__ZTINSt3__110__function6__funcIN5Tiled12JumpToObjectEFvvEEE S 203f0 0
__ZTINSt3__117bad_function_callE S 20470 0
__ZTISt9exception U 0 0
__ZTSN3Gmx9GmxPluginE S 1d877 0
__ZTSN5Tiled10JumpToTileE S 1d78a 0
__ZTSN5Tiled11SelectLayerE S 1d7fe 0
__ZTSN5Tiled12JumpToObjectE S 1d712 0
__ZTSNSt3__110__function6__baseIFvvEEE S 1d6d4 0
__ZTSNSt3__110__function6__funcIN5Tiled10JumpToTileEFvvEEE S 1d754 0
__ZTSNSt3__110__function6__funcIN5Tiled11SelectLayerEFvvEEE S 1d7c7 0
__ZTSNSt3__110__function6__funcIN5Tiled12JumpToObjectEFvvEEE S 1d69c 0
__ZTSNSt3__117bad_function_callE S 1d6f6 0
__ZTVN10__cxxabiv117__class_type_infoE U 0 0
__ZTVN10__cxxabiv120__si_class_type_infoE U 0 0
__ZTVN3Gmx9GmxPluginE S 20648 0
__ZTVN5Tiled17WritableMapFormatE U 0 0
__ZTVN5Tiled9MapFormatE U 0 0
__ZTVSt9exception U 0 0
__ZdaPv U 0 0
__ZdlPv U 0 0
__ZdlPvSt11align_val_t U 0 0
__Znam U 0 0
__Znwm U 0 0
__ZnwmRKSt9nothrow_t U 0 0
____chkstk_darwin U 0 0
___cxa_allocate_exception U 0 0
___cxa_atexit U 0 0
___cxa_begin_catch U 0 0
___cxa_guard_abort U 0 0
___cxa_guard_acquire U 0 0
___cxa_guard_release U 0 0
___cxa_pure_virtual U 0 0
___cxa_throw U 0 0
___gxx_personality_v0 U 0 0
___stack_chk_fail U 0 0
___stack_chk_guard U 0 0
_memchr U 0 0
_memcpy U 0 0
_memmove U 0 0
_memset U 0 0
_qt_plugin_instance T 1ade0 0
_qt_plugin_query_metadata_v2 T 1ad50 0
_qt_version_tag_6_11 U 0 0
_strcmp U 0 0
_strlen U 0 0
===
__ZN3Gmx9GmxPlugin11qt_metacallEN11QMetaObject4CallEiPPv T 1ad10 0
__ZN3Gmx9GmxPlugin11qt_metacastEPKc T 1aca0 0
__ZN3Gmx9GmxPlugin16staticMetaObjectE S 20610 0
__ZN3Gmx9GmxPlugin5writeEPKN5Tiled3MapERK7QString6QFlagsINS1_10FileFormat6OptionEE T 3fe0 0
__ZN3Gmx9GmxPluginC1Ev T 3fc0 0
__ZN3Gmx9GmxPluginC2Ev T 3f20 0
__ZNK3Gmx9GmxPlugin10metaObjectEv T 1ac20 0
__ZNK3Gmx9GmxPlugin10nameFilterEv T d8b0 0
__ZNK3Gmx9GmxPlugin11errorStringEv T d880 0
__ZNK3Gmx9GmxPlugin9shortNameEv T d930 0
__ZTIN3Gmx9GmxPluginE S 206f8 0
__ZTIN5Tiled10JumpToTileE S 20548 0
__ZTIN5Tiled11SelectLayerE S 205e0 0
__ZTIN5Tiled12JumpToObjectE S 204b0 0
__ZTINSt3__110__function6__baseIFvvEEE S 20408 0
__ZTINSt3__110__function6__funcIN5Tiled10JumpToTileEFvvEEE S 20530 0
__ZTINSt3__110__function6__funcIN5Tiled11SelectLayerEFvvEEE S 205c8 0
__ZTINSt3__110__function6__funcIN5Tiled12JumpToObjectEFvvEEE S 203f0 0
__ZTINSt3__117bad_function_callE S 20470 0
__ZTSN3Gmx9GmxPluginE S 1d877 0
__ZTSN5Tiled10JumpToTileE S 1d78a 0
__ZTSN5Tiled11SelectLayerE S 1d7fe 0
__ZTSN5Tiled12JumpToObjectE S 1d712 0
__ZTSNSt3__110__function6__baseIFvvEEE S 1d6d4 0
__ZTSNSt3__110__function6__funcIN5Tiled10JumpToTileEFvvEEE S 1d754 0
__ZTSNSt3__110__function6__funcIN5Tiled11SelectLayerEFvvEEE S 1d7c7 0
__ZTSNSt3__110__function6__funcIN5Tiled12JumpToObjectEFvvEEE S 1d69c 0
__ZTSNSt3__117bad_function_callE S 1d6f6 0
__ZTVN3Gmx9GmxPluginE S 20648 0
_qt_plugin_instance T 1ade0 0
_qt_plugin_query_metadata_v2 T 1ad50 0
