---
triple:          'x86_64-apple-darwin'
binary-path:     '/Users/dz0400621/Documents/project/tiled/debug/json1.6bb6a635/libjson1.dylib'
relocations:
  - { offset: 0x3F, size: 0x8, addend: 0x0, symName: _qt_version_tag_6_11_use, symObjAddr: 0x68E8, symBinAddr: 0x16000, symSize: 0x0 }
  - { offset: 0x1E95, size: 0x8, addend: 0x0, symName: __ZN9QtPrivateL19lengthHelperPointerIcEExPKT_, symObjAddr: 0x3620, symBinAddr: 0x74F0, symSize: 0x50 }
  - { offset: 0x1ED8, size: 0x8, addend: 0x0, symName: __ZN9QtPrivateL30checkTypeIsSuitableForMetaTypeIxEEbv, symObjAddr: 0x63C0, symBinAddr: 0xA290, symSize: 0x10 }
  - { offset: 0x1F00, size: 0x8, addend: 0x0, symName: __ZN9QtPrivate25qMetaTypeInterfaceForTypeIxEEPKNS_18QMetaTypeInterfaceEv, symObjAddr: 0x63D0, symBinAddr: 0xA2A0, symSize: 0x10 }
  - { offset: 0x1F28, size: 0x8, addend: 0x0, symName: __ZN9QtPrivateL30checkTypeIsSuitableForMetaTypeI7QStringEEbv, symObjAddr: 0x6410, symBinAddr: 0xA2E0, symSize: 0x10 }
  - { offset: 0x1F50, size: 0x8, addend: 0x0, symName: __ZN9QtPrivate25qMetaTypeInterfaceForTypeI7QStringEEPKNS_18QMetaTypeInterfaceEv, symObjAddr: 0x6420, symBinAddr: 0xA2F0, symSize: 0x10 }
  - { offset: 0xE0FF, size: 0x8, addend: 0x0, symName: __ZNSt3__117__cxx_atomic_loadB9nqe210106IiEET_PKNS_22__cxx_atomic_base_implIS1_EENS_12memory_orderE, symObjAddr: 0x30D0, symBinAddr: 0x6FA0, symSize: 0x50 }
  - { offset: 0xE528, size: 0x8, addend: 0x0, symName: __ZNSt3__14swapB9nqe210106IxEENS_9enable_ifIXaasr21is_move_constructibleIT_EE5valuesr18is_move_assignableIS2_EE5valueEvE4typeERS2_S5_, symObjAddr: 0x2EF0, symBinAddr: 0x6DC0, symSize: 0x40 }
  - { offset: 0xE579, size: 0x8, addend: 0x0, symName: __ZNSt3__122__cxx_atomic_fetch_subB9nqe210106IiEET_PNS_22__cxx_atomic_base_implIS1_EES1_NS_12memory_orderE, symObjAddr: 0x3410, symBinAddr: 0x72E0, symSize: 0xC0 }
  - { offset: 0xE5CA, size: 0x8, addend: 0x0, symName: __ZNSt3__17destroyB9nqe210106IP8QVariantEEvT_S3_, symObjAddr: 0x34D0, symBinAddr: 0x73A0, symSize: 0x30 }
  - { offset: 0xE609, size: 0x8, addend: 0x0, symName: __ZNSt3__19__destroyB9nqe210106IP8QVariantEET_S3_S3_, symObjAddr: 0x3550, symBinAddr: 0x7420, symSize: 0x40 }
  - { offset: 0xE64C, size: 0x8, addend: 0x0, symName: __ZNSt3__112__destroy_atB9nqe210106I8QVariantLi0EEEvPT_, symObjAddr: 0x3590, symBinAddr: 0x7460, symSize: 0x20 }
  - { offset: 0xE683, size: 0x8, addend: 0x0, symName: __ZNSt3__18exchangeB9nqe210106IP15QTypedArrayDataIDsEDnEET_RS4_OT0_, symObjAddr: 0x3790, symBinAddr: 0x7660, symSize: 0x30 }
  - { offset: 0xE6DD, size: 0x8, addend: 0x0, symName: __ZNSt3__18exchangeB9nqe210106IPDsDnEET_RS2_OT0_, symObjAddr: 0x37C0, symBinAddr: 0x7690, symSize: 0x30 }
  - { offset: 0xE737, size: 0x8, addend: 0x0, symName: __ZNSt3__18exchangeB9nqe210106IxiEET_RS1_OT0_, symObjAddr: 0x37F0, symBinAddr: 0x76C0, symSize: 0x30 }
  - { offset: 0xE822, size: 0x8, addend: 0x0, symName: __ZNSt3__112__destroy_atB9nqe210106INS_4pairIK7QString8QVariantEELi0EEEvPT_, symObjAddr: 0x43B0, symBinAddr: 0x8280, symSize: 0x20 }
  - { offset: 0xE859, size: 0x8, addend: 0x0, symName: __ZNSt3__119__libcpp_deallocateB9nqe210106INS_11__tree_nodeINS_12__value_typeI7QString8QVariantEEPvEEEEvPNS_15__type_identityIT_E4typeENS_15__element_countEm, symObjAddr: 0x4450, symBinAddr: 0x8320, symSize: 0x50 }
  - { offset: 0xE8B4, size: 0x8, addend: 0x0, symName: __ZNSt3__124__is_overaligned_for_newB9nqe210106Em, symObjAddr: 0x44A0, symBinAddr: 0x8370, symSize: 0x20 }
  - { offset: 0xE913, size: 0x8, addend: 0x0, symName: __ZNSt3__122__cxx_atomic_fetch_addB9nqe210106IiEET_PNS_22__cxx_atomic_base_implIS1_EES1_NS_12memory_orderE, symObjAddr: 0x49E0, symBinAddr: 0x88B0, symSize: 0xB0 }
  - { offset: 0xE964, size: 0x8, addend: 0x0, symName: __ZNSt3__13getB9nqe210106ILm0EP15QTypedArrayDataI8QVariantEPS2_EEONS_13tuple_elementIXT_ENS_4pairIT0_T1_EEE4typeEOSA_, symObjAddr: 0x5720, symBinAddr: 0x95F0, symSize: 0x20 }
  - { offset: 0xE9AE, size: 0x8, addend: 0x0, symName: __ZNSt3__13getB9nqe210106ILm1EP15QTypedArrayDataI8QVariantEPS2_EEONS_13tuple_elementIXT_ENS_4pairIT0_T1_EEE4typeEOSA_, symObjAddr: 0x5740, symBinAddr: 0x9610, symSize: 0x20 }
  - { offset: 0xEA72, size: 0x8, addend: 0x0, symName: __ZNSt3__1neB9nqe210106ERKNS_20__map_const_iteratorINS_21__tree_const_iteratorINS_12__value_typeI7QString8QVariantEEPNS_11__tree_nodeIS5_PvEElEEEESD_, symObjAddr: 0x60F0, symBinAddr: 0x9FC0, symSize: 0x30 }
  - { offset: 0xEAAF, size: 0x8, addend: 0x0, symName: __ZNSt3__1neB9nqe210106ERKNS_21__tree_const_iteratorINS_12__value_typeI7QString8QVariantEEPNS_11__tree_nodeIS4_PvEElEESB_, symObjAddr: 0x6120, symBinAddr: 0x9FF0, symSize: 0x30 }
  - { offset: 0xEAEC, size: 0x8, addend: 0x0, symName: __ZNSt3__1eqB9nqe210106ERKNS_21__tree_const_iteratorINS_12__value_typeI7QString8QVariantEEPNS_11__tree_nodeIS4_PvEElEESB_, symObjAddr: 0x6150, symBinAddr: 0xA020, symSize: 0x30 }
  - { offset: 0xEB29, size: 0x8, addend: 0x0, symName: __ZNSt3__116__tree_next_iterB9nqe210106IPNS_15__tree_end_nodeIPNS_16__tree_node_baseIPvEEEES5_EET_T0_, symObjAddr: 0x61E0, symBinAddr: 0xA0B0, symSize: 0x80 }
  - { offset: 0xEB67, size: 0x8, addend: 0x0, symName: __ZNSt3__110__tree_minB9nqe210106IPNS_16__tree_node_baseIPvEEEET_S5_, symObjAddr: 0x6260, symBinAddr: 0xA130, symSize: 0x30 }
  - { offset: 0xEB9C, size: 0x8, addend: 0x0, symName: __ZNSt3__120__tree_is_left_childB9nqe210106IPNS_16__tree_node_baseIPvEEEEbT_, symObjAddr: 0x6290, symBinAddr: 0xA160, symSize: 0x20 }
  - { offset: 0x2A2BD, size: 0x8, addend: 0x0, symName: __ZN10JsonWriterC2Ev, symObjAddr: 0x0, symBinAddr: 0x3ED0, symSize: 0xB0 }
  - { offset: 0x2A2E9, size: 0x8, addend: 0x0, symName: __ZN7QStringC1Ev, symObjAddr: 0xB0, symBinAddr: 0x3F80, symSize: 0x20 }
  - { offset: 0x2A315, size: 0x8, addend: 0x0, symName: __ZN11QLatin1CharC1Ec, symObjAddr: 0xD0, symBinAddr: 0x3FA0, symSize: 0x30 }
  - { offset: 0x2A34D, size: 0x8, addend: 0x0, symName: __ZN5QCharC1I11QLatin1CharLb1EEET_, symObjAddr: 0x100, symBinAddr: 0x3FD0, symSize: 0x30 }
  - { offset: 0x2A394, size: 0x8, addend: 0x0, symName: __ZN7QStringD1Ev, symObjAddr: 0x130, symBinAddr: 0x4000, symSize: 0x20 }
  - { offset: 0x2A3C0, size: 0x8, addend: 0x0, symName: __ZN10JsonWriterC1Ev, symObjAddr: 0x150, symBinAddr: 0x4020, symSize: 0x20 }
  - { offset: 0x2A3EC, size: 0x8, addend: 0x0, symName: __ZN10JsonWriterD2Ev, symObjAddr: 0x170, symBinAddr: 0x4040, symSize: 0x40 }
  - { offset: 0x2A418, size: 0x8, addend: 0x0, symName: __ZN10JsonWriterD1Ev, symObjAddr: 0x1B0, symBinAddr: 0x4080, symSize: 0x20 }
  - { offset: 0x2A444, size: 0x8, addend: 0x0, symName: __ZN10JsonWriter17setAutoFormattingEb, symObjAddr: 0x1D0, symBinAddr: 0x40A0, symSize: 0x20 }
  - { offset: 0x2A47A, size: 0x8, addend: 0x0, symName: __ZNK10JsonWriter14autoFormattingEv, symObjAddr: 0x1F0, symBinAddr: 0x40C0, symSize: 0x20 }
  - { offset: 0x2A4A2, size: 0x8, addend: 0x0, symName: __ZN10JsonWriter23setAutoFormattingIndentEi, symObjAddr: 0x210, symBinAddr: 0x40E0, symSize: 0x90 }
  - { offset: 0x2A4D7, size: 0x8, addend: 0x0, symName: __Z4qAbsIiET_RKS0_, symObjAddr: 0x2A0, symBinAddr: 0x4170, symSize: 0x70 }
  - { offset: 0x2A50F, size: 0x8, addend: 0x0, symName: __ZN7QStringaSEOS_, symObjAddr: 0x310, symBinAddr: 0x41E0, symSize: 0x30 }
  - { offset: 0x2A544, size: 0x8, addend: 0x0, symName: __ZNK10JsonWriter20autoFormattingIndentEv, symObjAddr: 0x340, symBinAddr: 0x4210, symSize: 0xA0 }
  - { offset: 0x2A56C, size: 0x8, addend: 0x0, symName: __ZN10JsonWriter31setAutoFormattingWrapArrayCountEi, symObjAddr: 0x3E0, symBinAddr: 0x42B0, symSize: 0x20 }
  - { offset: 0x2A5A7, size: 0x8, addend: 0x0, symName: __ZN10JsonWriter9stringifyERK8QVarianti, symObjAddr: 0x400, symBinAddr: 0x42D0, symSize: 0x1760 }
  - { offset: 0x2A6E6, size: 0x8, addend: 0x0, symName: __ZNK8QVariant4typeEv, symObjAddr: 0x1B60, symBinAddr: 0x5A30, symSize: 0x50 }
  - { offset: 0x2A71C, size: 0x8, addend: 0x0, symName: __ZN7QStringpLE5QChar, symObjAddr: 0x1BB0, symBinAddr: 0x5A80, symSize: 0x30 }
  - { offset: 0x2A751, size: 0x8, addend: 0x0, symName: __ZNK5QListI8QVariantE5countEv, symObjAddr: 0x1BE0, symBinAddr: 0x5AB0, symSize: 0x20 }
  - { offset: 0x2A777, size: 0x8, addend: 0x0, symName: __ZN7QStringpLERKS_, symObjAddr: 0x1C00, symBinAddr: 0x5AD0, symSize: 0x30 }
  - { offset: 0x2A7AC, size: 0x8, addend: 0x0, symName: __ZN5QListI8QVariantEixEx, symObjAddr: 0x1C30, symBinAddr: 0x5B00, symSize: 0x70 }
  - { offset: 0x2A7E1, size: 0x8, addend: 0x0, symName: __ZN5QListI8QVariantED1Ev, symObjAddr: 0x1CA0, symBinAddr: 0x5B70, symSize: 0x20 }
  - { offset: 0x2A80D, size: 0x8, addend: 0x0, symName: __ZN13QLatin1StringC1EPKc, symObjAddr: 0x1CC0, symBinAddr: 0x5B90, symSize: 0x30 }
  - { offset: 0x2A845, size: 0x8, addend: 0x0, symName: __ZN7QStringpLE13QLatin1String, symObjAddr: 0x1CF0, symBinAddr: 0x5BC0, symSize: 0x40 }
  - { offset: 0x2A87A, size: 0x8, addend: 0x0, symName: __ZNK4QMapI7QString8QVariantE10constBeginEv, symObjAddr: 0x1D30, symBinAddr: 0x5C00, symSize: 0x30 }
  - { offset: 0x2A89F, size: 0x8, addend: 0x0, symName: __ZneRKN4QMapI7QString8QVariantE14const_iteratorES5_, symObjAddr: 0x1D60, symBinAddr: 0x5C30, symSize: 0x30 }
  - { offset: 0x2A8DD, size: 0x8, addend: 0x0, symName: __ZNK4QMapI7QString8QVariantE8constEndEv, symObjAddr: 0x1D90, symBinAddr: 0x5C60, symSize: 0x30 }
  - { offset: 0x2A902, size: 0x8, addend: 0x0, symName: __ZplRK7QString5QChar, symObjAddr: 0x1DC0, symBinAddr: 0x5C90, symSize: 0x90 }
  - { offset: 0x2A950, size: 0x8, addend: 0x0, symName: __ZplO7QStringRKS_, symObjAddr: 0x1E50, symBinAddr: 0x5D20, symSize: 0x50 }
  - { offset: 0x2A98D, size: 0x8, addend: 0x0, symName: __Zpl5QCharRK7QString, symObjAddr: 0x1EA0, symBinAddr: 0x5D70, symSize: 0x90 }
  - { offset: 0x2A9DB, size: 0x8, addend: 0x0, symName: __ZL6escapeRK8QVariant, symObjAddr: 0x1F30, symBinAddr: 0x5E00, symSize: 0x700 }
  - { offset: 0x2AA3A, size: 0x8, addend: 0x0, symName: __ZNK4QMapI7QString8QVariantE14const_iterator3keyEv, symObjAddr: 0x2630, symBinAddr: 0x6500, symSize: 0x20 }
  - { offset: 0x2AA60, size: 0x8, addend: 0x0, symName: __ZN7QStringC1E13QLatin1String, symObjAddr: 0x2650, symBinAddr: 0x6520, symSize: 0x60 }
  - { offset: 0x2AA9B, size: 0x8, addend: 0x0, symName: __ZNK4QMapI7QString8QVariantE14const_iterator5valueEv, symObjAddr: 0x26B0, symBinAddr: 0x6580, symSize: 0x20 }
  - { offset: 0x2AAC1, size: 0x8, addend: 0x0, symName: __ZN4QMapI7QString8QVariantE14const_iteratorppEv, symObjAddr: 0x26D0, symBinAddr: 0x65A0, symSize: 0x30 }
  - { offset: 0x2AAE7, size: 0x8, addend: 0x0, symName: __ZN4QMapI7QString8QVariantED1Ev, symObjAddr: 0x2700, symBinAddr: 0x65D0, symSize: 0x20 }
  - { offset: 0x2AB12, size: 0x8, addend: 0x0, symName: __ZplO7QString5QChar, symObjAddr: 0x2720, symBinAddr: 0x65F0, symSize: 0x50 }
  - { offset: 0x2AB50, size: 0x8, addend: 0x0, symName: __ZN5QChar7unicodeEv, symObjAddr: 0x2770, symBinAddr: 0x6640, symSize: 0x10 }
  - { offset: 0x2AB76, size: 0x8, addend: 0x0, symName: __ZNK8QVariant10canConvertIxEEbv, symObjAddr: 0x2780, symBinAddr: 0x6650, symSize: 0x40 }
  - { offset: 0x2ABA5, size: 0x8, addend: 0x0, symName: __ZNK8QVariant10canConvertI7QStringEEbv, symObjAddr: 0x27C0, symBinAddr: 0x6690, symSize: 0x40 }
  - { offset: 0x2ABD4, size: 0x8, addend: 0x0, symName: __ZNK7QString7isEmptyEv, symObjAddr: 0x2800, symBinAddr: 0x66D0, symSize: 0x30 }
  - { offset: 0x2ABFA, size: 0x8, addend: 0x0, symName: __ZN7QStringC1EO17QArrayDataPointerIDsE, symObjAddr: 0x2830, symBinAddr: 0x6700, symSize: 0x30 }
  - { offset: 0x2AC33, size: 0x8, addend: 0x0, symName: __ZNK7QString3argIS_Lb1EEES_RKT_i5QChar, symObjAddr: 0x2860, symBinAddr: 0x6730, symSize: 0x70 }
  - { offset: 0x2AC95, size: 0x8, addend: 0x0, symName: __ZNK8QVariant8typeNameEv, symObjAddr: 0x28D0, symBinAddr: 0x67A0, symSize: 0x30 }
  - { offset: 0x2ACC2, size: 0x8, addend: 0x0, symName: __ZN14QByteArrayViewC1IPKcLb1EEERKT_, symObjAddr: 0x2900, symBinAddr: 0x67D0, symSize: 0x70 }
  - { offset: 0x2AD09, size: 0x8, addend: 0x0, symName: __ZN5QCharC1IDsLb1EEET_, symObjAddr: 0x2970, symBinAddr: 0x6840, symSize: 0x30 }
  - { offset: 0x2AD50, size: 0x8, addend: 0x0, symName: __ZNK7QString3argIiLb1EEES_T_ii5QChar, symObjAddr: 0x29A0, symBinAddr: 0x6870, symSize: 0x60 }
  - { offset: 0x2ADC1, size: 0x8, addend: 0x0, symName: __ZNK8QVariant8userTypeEv, symObjAddr: 0x2A00, symBinAddr: 0x68D0, symSize: 0x20 }
  - { offset: 0x2ADE7, size: 0x8, addend: 0x0, symName: __ZN17QArrayDataPointerIDsED1Ev, symObjAddr: 0x2A20, symBinAddr: 0x68F0, symSize: 0x20 }
  - { offset: 0x2B32F, size: 0x8, addend: 0x0, symName: __ZN14QMessageLoggerC1EPKciS1_, symObjAddr: 0x2A40, symBinAddr: 0x6910, symSize: 0x40 }
  - { offset: 0x2B383, size: 0x8, addend: 0x0, symName: __ZN6QDebuglsEPKc, symObjAddr: 0x2A80, symBinAddr: 0x6950, symSize: 0x90 }
  - { offset: 0x2B3B7, size: 0x8, addend: 0x0, symName: __ZN6QDebuglsERK7QString, symObjAddr: 0x2B10, symBinAddr: 0x69E0, symSize: 0x50 }
  - { offset: 0x2B3EB, size: 0x8, addend: 0x0, symName: __ZN10JsonWriter9stringifyERK8QVariant, symObjAddr: 0x2B60, symBinAddr: 0x6A30, symSize: 0x50 }
  - { offset: 0x2B423, size: 0x8, addend: 0x0, symName: __ZN7QString5clearEv, symObjAddr: 0x2BB0, symBinAddr: 0x6A80, symSize: 0x50 }
  - { offset: 0x2B44B, size: 0x8, addend: 0x0, symName: __ZNK10JsonWriter6resultEv, symObjAddr: 0x2C00, symBinAddr: 0x6AD0, symSize: 0x30 }
  - { offset: 0x2B474, size: 0x8, addend: 0x0, symName: __ZN7QStringC1ERKS_, symObjAddr: 0x2C30, symBinAddr: 0x6B00, symSize: 0x30 }
  - { offset: 0x2B4AF, size: 0x8, addend: 0x0, symName: __ZNK10JsonWriter11errorStringEv, symObjAddr: 0x2C60, symBinAddr: 0x6B30, symSize: 0x30 }
  - { offset: 0x2B4D8, size: 0x8, addend: 0x0, symName: __ZN7QStringC2Ev, symObjAddr: 0x2C90, symBinAddr: 0x6B60, symSize: 0x20 }
  - { offset: 0x2B504, size: 0x8, addend: 0x0, symName: __ZN17QArrayDataPointerIDsEC1Ev, symObjAddr: 0x2CB0, symBinAddr: 0x6B80, symSize: 0x20 }
  - { offset: 0x2B52E, size: 0x8, addend: 0x0, symName: __ZN17QArrayDataPointerIDsEC2Ev, symObjAddr: 0x2CD0, symBinAddr: 0x6BA0, symSize: 0x30 }
  - { offset: 0x2B558, size: 0x8, addend: 0x0, symName: __ZN11QLatin1CharC2Ec, symObjAddr: 0x2D00, symBinAddr: 0x6BD0, symSize: 0x20 }
  - { offset: 0x2B590, size: 0x8, addend: 0x0, symName: __ZN5QCharC2I11QLatin1CharLb1EEET_, symObjAddr: 0x2D20, symBinAddr: 0x6BF0, symSize: 0x40 }
  - { offset: 0x2B5D7, size: 0x8, addend: 0x0, symName: __ZNK11QLatin1CharcvDsEv, symObjAddr: 0x2D60, symBinAddr: 0x6C30, symSize: 0x20 }
  - { offset: 0x2B5FD, size: 0x8, addend: 0x0, symName: __ZNK11QLatin1Char7unicodeEv, symObjAddr: 0x2D80, symBinAddr: 0x6C50, symSize: 0x20 }
  - { offset: 0x2B623, size: 0x8, addend: 0x0, symName: __ZN7QStringD2Ev, symObjAddr: 0x2DA0, symBinAddr: 0x6C70, symSize: 0x20 }
  - { offset: 0x2B64F, size: 0x8, addend: 0x0, symName: __ZNSt3__114numeric_limitsIiE3minB9nqe210106Ev, symObjAddr: 0x2DC0, symBinAddr: 0x6C90, symSize: 0x10 }
  - { offset: 0x2B663, size: 0x8, addend: 0x0, symName: __ZNSt3__123__libcpp_numeric_limitsIiLb1EE3minB9nqe210106Ev, symObjAddr: 0x2DD0, symBinAddr: 0x6CA0, symSize: 0x10 }
  - { offset: 0x2B677, size: 0x8, addend: 0x0, symName: __ZN7QString4swapERS_, symObjAddr: 0x2DE0, symBinAddr: 0x6CB0, symSize: 0x30 }
  - { offset: 0x2B6AC, size: 0x8, addend: 0x0, symName: __ZN17QArrayDataPointerIDsE4swapERS0_, symObjAddr: 0x2E10, symBinAddr: 0x6CE0, symSize: 0x60 }
  - { offset: 0x2B6DF, size: 0x8, addend: 0x0, symName: __Z11qt_ptr_swapI15QTypedArrayDataIDsEEvRPT_S4_, symObjAddr: 0x2E70, symBinAddr: 0x6D40, symSize: 0x40 }
  - { offset: 0x2B72C, size: 0x8, addend: 0x0, symName: __Z11qt_ptr_swapIDsEvRPT_S2_, symObjAddr: 0x2EB0, symBinAddr: 0x6D80, symSize: 0x40 }
  - { offset: 0x2B77A, size: 0x8, addend: 0x0, symName: __ZNK8QVariant7Private4typeEv, symObjAddr: 0x2F30, symBinAddr: 0x6E00, symSize: 0x30 }
  - { offset: 0x2B7A0, size: 0x8, addend: 0x0, symName: __ZNK9QMetaType2idEi, symObjAddr: 0x2F60, symBinAddr: 0x6E30, symSize: 0x20 }
  - { offset: 0x2B7D2, size: 0x8, addend: 0x0, symName: __ZNK8QVariant7Private13typeInterfaceEv, symObjAddr: 0x2F80, symBinAddr: 0x6E50, symSize: 0x20 }
  - { offset: 0x2B7F8, size: 0x8, addend: 0x0, symName: __ZN9QMetaTypeC1EPKN9QtPrivate18QMetaTypeInterfaceE, symObjAddr: 0x2FA0, symBinAddr: 0x6E70, symSize: 0x30 }
  - { offset: 0x2B831, size: 0x8, addend: 0x0, symName: __ZN9QMetaTypeC2EPKN9QtPrivate18QMetaTypeInterfaceE, symObjAddr: 0x2FD0, symBinAddr: 0x6EA0, symSize: 0x20 }
  - { offset: 0x2B86A, size: 0x8, addend: 0x0, symName: __ZNK9QMetaType14registerHelperEv, symObjAddr: 0x2FF0, symBinAddr: 0x6EC0, symSize: 0x70 }
  - { offset: 0x2B8AF, size: 0x8, addend: 0x0, symName: __ZNK19QBasicAtomicIntegerIiE11loadRelaxedEv, symObjAddr: 0x3060, symBinAddr: 0x6F30, symSize: 0x20 }
  - { offset: 0x2B8D5, size: 0x8, addend: 0x0, symName: __ZN10QAtomicOpsIiE11loadRelaxedIiEET_RKNSt3__16atomicIS2_EE, symObjAddr: 0x3080, symBinAddr: 0x6F50, symSize: 0x20 }
  - { offset: 0x2B901, size: 0x8, addend: 0x0, symName: __ZNKSt3__113__atomic_baseIiLb0EE4loadB9nqe210106ENS_12memory_orderE, symObjAddr: 0x30A0, symBinAddr: 0x6F70, symSize: 0x30 }
  - { offset: 0x2B935, size: 0x8, addend: 0x0, symName: __ZNK5QListI8QVariantE4sizeEv, symObjAddr: 0x3120, symBinAddr: 0x6FF0, symSize: 0x50 }
  - { offset: 0x2B99F, size: 0x8, addend: 0x0, symName: __ZZNK5QListI8QVariantE4sizeEvENKUlvE_clEv, symObjAddr: 0x3170, symBinAddr: 0x7040, symSize: 0x50 }
  - { offset: 0x2B9C9, size: 0x8, addend: 0x0, symName: __ZN5QListI8QVariantED2Ev, symObjAddr: 0x31D0, symBinAddr: 0x70A0, symSize: 0x20 }
  - { offset: 0x2B9F5, size: 0x8, addend: 0x0, symName: __ZN17QArrayDataPointerI8QVariantED1Ev, symObjAddr: 0x31F0, symBinAddr: 0x70C0, symSize: 0x20 }
  - { offset: 0x2BA1F, size: 0x8, addend: 0x0, symName: __ZN17QArrayDataPointerI8QVariantED2Ev, symObjAddr: 0x3210, symBinAddr: 0x70E0, symSize: 0x50 }
  - { offset: 0x2BA49, size: 0x8, addend: 0x0, symName: __ZN17QArrayDataPointerI8QVariantE5derefEv, symObjAddr: 0x3260, symBinAddr: 0x7130, symSize: 0x40 }
  - { offset: 0x2BA6F, size: 0x8, addend: 0x0, symName: __ZN17QArrayDataPointerI8QVariantEptEv, symObjAddr: 0x32A0, symBinAddr: 0x7170, symSize: 0x10 }
  - { offset: 0x2BA95, size: 0x8, addend: 0x0, symName: __ZN9QtPrivate16QGenericArrayOpsI8QVariantE10destroyAllEv, symObjAddr: 0x32B0, symBinAddr: 0x7180, symSize: 0x90 }
  - { offset: 0x2BABB, size: 0x8, addend: 0x0, symName: __ZN15QTypedArrayDataI8QVariantE10deallocateEP10QArrayData, symObjAddr: 0x3340, symBinAddr: 0x7210, symSize: 0x30 }
  - { offset: 0x2BADE, size: 0x8, addend: 0x0, symName: __ZN10QArrayData5derefEv, symObjAddr: 0x3370, symBinAddr: 0x7240, symSize: 0x20 }
  - { offset: 0x2BB04, size: 0x8, addend: 0x0, symName: __ZN19QBasicAtomicIntegerIiE5derefEv, symObjAddr: 0x3390, symBinAddr: 0x7260, symSize: 0x20 }
  - { offset: 0x2BB2A, size: 0x8, addend: 0x0, symName: __ZN10QAtomicOpsIiE5derefIiEEbRNSt3__16atomicIT_EE, symObjAddr: 0x33B0, symBinAddr: 0x7280, symSize: 0x30 }
  - { offset: 0x2BB57, size: 0x8, addend: 0x0, symName: __ZNSt3__113__atomic_baseIiLb1EE9fetch_subB9nqe210106EiNS_12memory_orderE, symObjAddr: 0x33E0, symBinAddr: 0x72B0, symSize: 0x30 }
  - { offset: 0x2BB99, size: 0x8, addend: 0x0, symName: __ZN17QArrayDataPointerI8QVariantE5beginEv, symObjAddr: 0x3500, symBinAddr: 0x73D0, symSize: 0x20 }
  - { offset: 0x2BBBF, size: 0x8, addend: 0x0, symName: __ZN17QArrayDataPointerI8QVariantE3endEv, symObjAddr: 0x3520, symBinAddr: 0x73F0, symSize: 0x30 }
  - { offset: 0x2BBE5, size: 0x8, addend: 0x0, symName: __ZN17QArrayDataPointerI8QVariantE4dataEv, symObjAddr: 0x35B0, symBinAddr: 0x7480, symSize: 0x20 }
  - { offset: 0x2BC0B, size: 0x8, addend: 0x0, symName: __ZN13QLatin1StringC2EPKc, symObjAddr: 0x35D0, symBinAddr: 0x74A0, symSize: 0x50 }
  - { offset: 0x2BC43, size: 0x8, addend: 0x0, symName: __ZN7QStringC1EOS_, symObjAddr: 0x3670, symBinAddr: 0x7540, symSize: 0x30 }
  - { offset: 0x2BC7C, size: 0x8, addend: 0x0, symName: __ZN7QStringC2EOS_, symObjAddr: 0x36A0, symBinAddr: 0x7570, symSize: 0x30 }
  - { offset: 0x2BCB5, size: 0x8, addend: 0x0, symName: __ZN17QArrayDataPointerIDsEC1EOS0_, symObjAddr: 0x36D0, symBinAddr: 0x75A0, symSize: 0x30 }
  - { offset: 0x2BCED, size: 0x8, addend: 0x0, symName: __ZN17QArrayDataPointerIDsEC2EOS0_, symObjAddr: 0x3700, symBinAddr: 0x75D0, symSize: 0x90 }
  - { offset: 0x2BD25, size: 0x8, addend: 0x0, symName: __ZN7QString7reserveEx, symObjAddr: 0x3820, symBinAddr: 0x76F0, symSize: 0xB0 }
  - { offset: 0x2BD5C, size: 0x8, addend: 0x0, symName: __ZNK7QString6lengthEv, symObjAddr: 0x38D0, symBinAddr: 0x77A0, symSize: 0x20 }
  - { offset: 0x2BD81, size: 0x8, addend: 0x0, symName: __ZeqRK5QCharS1_, symObjAddr: 0x38F0, symBinAddr: 0x77C0, symSize: 0x30 }
  - { offset: 0x2BE04, size: 0x8, addend: 0x0, symName: __ZN7QStringixEx, symObjAddr: 0x3920, symBinAddr: 0x77F0, symSize: 0xF0 }
  - { offset: 0x2BE6D, size: 0x8, addend: 0x0, symName: __ZNK17QArrayDataPointerIDsE11needsDetachEv, symObjAddr: 0x3A10, symBinAddr: 0x78E0, symSize: 0x40 }
  - { offset: 0x2BE93, size: 0x8, addend: 0x0, symName: __ZNK7QString8capacityEv, symObjAddr: 0x3A50, symBinAddr: 0x7920, symSize: 0x20 }
  - { offset: 0x2BEBB, size: 0x8, addend: 0x0, symName: __ZNK17QArrayDataPointerIDsE16freeSpaceAtBeginEv, symObjAddr: 0x3A70, symBinAddr: 0x7940, symSize: 0x60 }
  - { offset: 0x2BEE0, size: 0x8, addend: 0x0, symName: __Z4qMaxIxERKT_S2_S2_, symObjAddr: 0x3AD0, symBinAddr: 0x79A0, symSize: 0x40 }
  - { offset: 0x2BF24, size: 0x8, addend: 0x0, symName: __ZNK7QString4sizeEv, symObjAddr: 0x3B10, symBinAddr: 0x79E0, symSize: 0x50 }
  - { offset: 0x2BF7F, size: 0x8, addend: 0x0, symName: __ZNK17QArrayDataPointerIDsE22constAllocatedCapacityEv, symObjAddr: 0x3B60, symBinAddr: 0x7A30, symSize: 0x40 }
  - { offset: 0x2BFA5, size: 0x8, addend: 0x0, symName: __ZN17QArrayDataPointerIDsE7setFlagE6QFlagsIN10QArrayData11ArrayOptionEE, symObjAddr: 0x3BA0, symBinAddr: 0x7A70, symSize: 0x60 }
  - { offset: 0x2BFDA, size: 0x8, addend: 0x0, symName: __ZN6QFlagsIN10QArrayData11ArrayOptionEEC1ES1_, symObjAddr: 0x3C00, symBinAddr: 0x7AD0, symSize: 0x30 }
  - { offset: 0x2C012, size: 0x8, addend: 0x0, symName: __ZN10QArrayData11needsDetachEv, symObjAddr: 0x3C30, symBinAddr: 0x7B00, symSize: 0x30 }
  - { offset: 0x2C038, size: 0x8, addend: 0x0, symName: __ZN15QTypedArrayDataIDsE9dataStartEP10QArrayDatax, symObjAddr: 0x3C60, symBinAddr: 0x7B30, symSize: 0x80 }
  - { offset: 0x2C081, size: 0x8, addend: 0x0, symName: __ZZNK7QString4sizeEvENKUlvE_clEv, symObjAddr: 0x3CE0, symBinAddr: 0x7BB0, symSize: 0x50 }
  - { offset: 0x2C0AB, size: 0x8, addend: 0x0, symName: __ZNK10QArrayData22constAllocatedCapacityEv, symObjAddr: 0x3D30, symBinAddr: 0x7C00, symSize: 0x20 }
  - { offset: 0x2C0D1, size: 0x8, addend: 0x0, symName: __ZN6QFlagsIN10QArrayData11ArrayOptionEEoRES2_, symObjAddr: 0x3D50, symBinAddr: 0x7C20, symSize: 0x20 }
  - { offset: 0x2C105, size: 0x8, addend: 0x0, symName: __ZN6QFlagsIN10QArrayData11ArrayOptionEEC2ES1_, symObjAddr: 0x3D70, symBinAddr: 0x7C40, symSize: 0x30 }
  - { offset: 0x2C13D, size: 0x8, addend: 0x0, symName: __ZN9QtPrivate19QFlagsStorageHelperIN10QArrayData11ArrayOptionELi4EECI2NS_13QFlagsStorageIS2_EEENSt3__110in_place_tEj, symObjAddr: 0x3DA0, symBinAddr: 0x7C70, symSize: 0x30 }
  - { offset: 0x2C17B, size: 0x8, addend: 0x0, symName: __ZN9QtPrivate13QFlagsStorageIN10QArrayData11ArrayOptionEEC2ENSt3__110in_place_tEj, symObjAddr: 0x3DD0, symBinAddr: 0x7CA0, symSize: 0x20 }
  - { offset: 0x2C1BD, size: 0x8, addend: 0x0, symName: __Z13comparesEqualRK5QCharS1_, symObjAddr: 0x3DF0, symBinAddr: 0x7CC0, symSize: 0x30 }
  - { offset: 0x2C1FB, size: 0x8, addend: 0x0, symName: __ZN7QString4dataEv, symObjAddr: 0x3E20, symBinAddr: 0x7CF0, symSize: 0x60 }
  - { offset: 0x2C223, size: 0x8, addend: 0x0, symName: __ZN7QString6detachEv, symObjAddr: 0x3E80, symBinAddr: 0x7D50, symSize: 0x40 }
  - { offset: 0x2C24B, size: 0x8, addend: 0x0, symName: __ZN17QArrayDataPointerIDsE4dataEv, symObjAddr: 0x3EC0, symBinAddr: 0x7D90, symSize: 0x20 }
  - { offset: 0x2C271, size: 0x8, addend: 0x0, symName: __ZN7QString10fromLatin1EPKcx, symObjAddr: 0x3EE0, symBinAddr: 0x7DB0, symSize: 0x80 }
  - { offset: 0x2C2A4, size: 0x8, addend: 0x0, symName: __ZNK13QLatin1String4dataEv, symObjAddr: 0x3F60, symBinAddr: 0x7E30, symSize: 0x20 }
  - { offset: 0x2C2CA, size: 0x8, addend: 0x0, symName: __ZNK13QLatin1String4sizeEv, symObjAddr: 0x3F80, symBinAddr: 0x7E50, symSize: 0x20 }
  - { offset: 0x2C2EF, size: 0x8, addend: 0x0, symName: __Z7qstrlenPKc, symObjAddr: 0x3FA0, symBinAddr: 0x7E70, symSize: 0x40 }
  - { offset: 0x2C31C, size: 0x8, addend: 0x0, symName: __ZN14QByteArrayViewC1IcLb1EEEPKT_x, symObjAddr: 0x3FE0, symBinAddr: 0x7EB0, symSize: 0x30 }
  - { offset: 0x2C371, size: 0x8, addend: 0x0, symName: __ZN14QByteArrayViewC2IcLb1EEEPKT_x, symObjAddr: 0x4010, symBinAddr: 0x7EE0, symSize: 0x90 }
  - { offset: 0x2C3C6, size: 0x8, addend: 0x0, symName: __ZN14QByteArrayView10castHelperEPKc, symObjAddr: 0x40A0, symBinAddr: 0x7F70, symSize: 0x10 }
  - { offset: 0x2C3E9, size: 0x8, addend: 0x0, symName: __ZN4QMapI7QString8QVariantED2Ev, symObjAddr: 0x40B0, symBinAddr: 0x7F80, symSize: 0x20 }
  - { offset: 0x2C415, size: 0x8, addend: 0x0, symName: __ZN9QtPrivate30QExplicitlySharedDataPointerV2I8QMapDataINSt3__13mapI7QString8QVariantNS2_4lessIS4_EENS2_9allocatorINS2_4pairIKS4_S5_EEEEEEEED1Ev, symObjAddr: 0x40D0, symBinAddr: 0x7FA0, symSize: 0x20 }
  - { offset: 0x2C43F, size: 0x8, addend: 0x0, symName: __ZN9QtPrivate30QExplicitlySharedDataPointerV2I8QMapDataINSt3__13mapI7QString8QVariantNS2_4lessIS4_EENS2_9allocatorINS2_4pairIKS4_S5_EEEEEEEED2Ev, symObjAddr: 0x40F0, symBinAddr: 0x7FC0, symSize: 0x70 }
  - { offset: 0x2C469, size: 0x8, addend: 0x0, symName: __ZNK2Qt23totally_ordered_wrapperIP8QMapDataINSt3__13mapI7QString8QVariantNS2_4lessIS4_EENS2_9allocatorINS2_4pairIKS4_S5_EEEEEEEEcvbEv, symObjAddr: 0x4160, symBinAddr: 0x8030, symSize: 0x30 }
  - { offset: 0x2C48F, size: 0x8, addend: 0x0, symName: __ZNK2Qt23totally_ordered_wrapperIP8QMapDataINSt3__13mapI7QString8QVariantNS2_4lessIS4_EENS2_9allocatorINS2_4pairIKS4_S5_EEEEEEEEptEv, symObjAddr: 0x4190, symBinAddr: 0x8060, symSize: 0x20 }
  - { offset: 0x2C4B5, size: 0x8, addend: 0x0, symName: __ZNK2Qt23totally_ordered_wrapperIP8QMapDataINSt3__13mapI7QString8QVariantNS2_4lessIS4_EENS2_9allocatorINS2_4pairIKS4_S5_EEEEEEEE3getEv, symObjAddr: 0x41B0, symBinAddr: 0x8080, symSize: 0x20 }
  - { offset: 0x2C4DB, size: 0x8, addend: 0x0, symName: __ZN8QMapDataINSt3__13mapI7QString8QVariantNS0_4lessIS2_EENS0_9allocatorINS0_4pairIKS2_S3_EEEEEEED1Ev, symObjAddr: 0x41D0, symBinAddr: 0x80A0, symSize: 0x20 }
  - { offset: 0x2C507, size: 0x8, addend: 0x0, symName: __ZN8QMapDataINSt3__13mapI7QString8QVariantNS0_4lessIS2_EENS0_9allocatorINS0_4pairIKS2_S3_EEEEEEED2Ev, symObjAddr: 0x41F0, symBinAddr: 0x80C0, symSize: 0x20 }
  - { offset: 0x2C533, size: 0x8, addend: 0x0, symName: __ZNSt3__13mapI7QString8QVariantNS_4lessIS1_EENS_9allocatorINS_4pairIKS1_S2_EEEEED1B9nqe210106Ev, symObjAddr: 0x4210, symBinAddr: 0x80E0, symSize: 0x20 }
  - { offset: 0x2C55D, size: 0x8, addend: 0x0, symName: __ZNSt3__13mapI7QString8QVariantNS_4lessIS1_EENS_9allocatorINS_4pairIKS1_S2_EEEEED2B9nqe210106Ev, symObjAddr: 0x4230, symBinAddr: 0x8100, symSize: 0x20 }
  - { offset: 0x2C587, size: 0x8, addend: 0x0, symName: __ZNSt3__16__treeINS_12__value_typeI7QString8QVariantEENS_19__map_value_compareIS2_NS_4pairIKS2_S3_EENS_4lessIS2_EELb1EEENS_9allocatorIS8_EEED1Ev, symObjAddr: 0x4250, symBinAddr: 0x8120, symSize: 0x20 }
  - { offset: 0x2C5B3, size: 0x8, addend: 0x0, symName: __ZNSt3__16__treeINS_12__value_typeI7QString8QVariantEENS_19__map_value_compareIS2_NS_4pairIKS2_S3_EENS_4lessIS2_EELb1EEENS_9allocatorIS8_EEED2Ev, symObjAddr: 0x4270, symBinAddr: 0x8140, symSize: 0x30 }
  - { offset: 0x2C5DF, size: 0x8, addend: 0x0, symName: __ZNSt3__16__treeINS_12__value_typeI7QString8QVariantEENS_19__map_value_compareIS2_NS_4pairIKS2_S3_EENS_4lessIS2_EELb1EEENS_9allocatorIS8_EEE7destroyEPNS_11__tree_nodeIS4_PvEE, symObjAddr: 0x42A0, symBinAddr: 0x8170, symSize: 0x80 }
  - { offset: 0x2C62D, size: 0x8, addend: 0x0, symName: __ZNKSt3__16__treeINS_12__value_typeI7QString8QVariantEENS_19__map_value_compareIS2_NS_4pairIKS2_S3_EENS_4lessIS2_EELb1EEENS_9allocatorIS8_EEE6__rootB9nqe210106Ev, symObjAddr: 0x4320, symBinAddr: 0x81F0, symSize: 0x20 }
  - { offset: 0x2C653, size: 0x8, addend: 0x0, symName: __ZNSt3__16__treeINS_12__value_typeI7QString8QVariantEENS_19__map_value_compareIS2_NS_4pairIKS2_S3_EENS_4lessIS2_EELb1EEENS_9allocatorIS8_EEE12__node_allocB9nqe210106Ev, symObjAddr: 0x4340, symBinAddr: 0x8210, symSize: 0x20 }
  - { offset: 0x2C67E, size: 0x8, addend: 0x0, symName: __ZNSt3__116allocator_traitsINS_9allocatorINS_11__tree_nodeINS_12__value_typeI7QString8QVariantEEPvEEEEE7destroyB9nqe210106INS_4pairIKS4_S5_EELi0EEEvRS9_PT_, symObjAddr: 0x4360, symBinAddr: 0x8230, symSize: 0x20 }
  - { offset: 0x2C6BD, size: 0x8, addend: 0x0, symName: __ZNSt3__116allocator_traitsINS_9allocatorINS_11__tree_nodeINS_12__value_typeI7QString8QVariantEEPvEEEEE10deallocateB9nqe210106ERS9_PS8_m, symObjAddr: 0x4380, symBinAddr: 0x8250, symSize: 0x30 }
  - { offset: 0x2C6FF, size: 0x8, addend: 0x0, symName: __ZNSt3__14pairIK7QString8QVariantED1Ev, symObjAddr: 0x43D0, symBinAddr: 0x82A0, symSize: 0x20 }
  - { offset: 0x2C72B, size: 0x8, addend: 0x0, symName: __ZNSt3__14pairIK7QString8QVariantED2Ev, symObjAddr: 0x43F0, symBinAddr: 0x82C0, symSize: 0x30 }
  - { offset: 0x2C757, size: 0x8, addend: 0x0, symName: __ZNSt3__19allocatorINS_11__tree_nodeINS_12__value_typeI7QString8QVariantEEPvEEE10deallocateB9nqe210106EPS7_m, symObjAddr: 0x4420, symBinAddr: 0x82F0, symSize: 0x30 }
  - { offset: 0x2C799, size: 0x8, addend: 0x0, symName: __ZNKSt3__16__treeINS_12__value_typeI7QString8QVariantEENS_19__map_value_compareIS2_NS_4pairIKS2_S3_EENS_4lessIS2_EELb1EEENS_9allocatorIS8_EEE10__end_nodeB9nqe210106Ev, symObjAddr: 0x44C0, symBinAddr: 0x8390, symSize: 0x20 }
  - { offset: 0x2C7C4, size: 0x8, addend: 0x0, symName: __ZNSt3__114pointer_traitsIPNS_15__tree_end_nodeIPNS_16__tree_node_baseIPvEEEEE10pointer_toB9nqe210106ERS6_, symObjAddr: 0x44E0, symBinAddr: 0x83B0, symSize: 0x10 }
  - { offset: 0x2C7E7, size: 0x8, addend: 0x0, symName: __ZN7QStringC2EO17QArrayDataPointerIDsE, symObjAddr: 0x44F0, symBinAddr: 0x83C0, symSize: 0x30 }
  - { offset: 0x2C820, size: 0x8, addend: 0x0, symName: __ZNK9QMetaType4nameEv, symObjAddr: 0x4520, symBinAddr: 0x83F0, symSize: 0x40 }
  - { offset: 0x2C848, size: 0x8, addend: 0x0, symName: __ZN5QCharC2IDsLb1EEET_, symObjAddr: 0x4560, symBinAddr: 0x8430, symSize: 0x20 }
  - { offset: 0x2C88F, size: 0x8, addend: 0x0, symName: __ZNK8QVariant6typeIdEv, symObjAddr: 0x4580, symBinAddr: 0x8450, symSize: 0x70 }
  - { offset: 0x2C8FA, size: 0x8, addend: 0x0, symName: __ZNK8QVariant8metaTypeEv, symObjAddr: 0x45F0, symBinAddr: 0x84C0, symSize: 0x30 }
  - { offset: 0x2C922, size: 0x8, addend: 0x0, symName: __ZN9QMetaType5ifaceEv, symObjAddr: 0x4620, symBinAddr: 0x84F0, symSize: 0x20 }
  - { offset: 0x2C952, size: 0x8, addend: 0x0, symName: __ZZNK8QVariant6typeIdEvENKUlvE_clEv, symObjAddr: 0x4640, symBinAddr: 0x8510, symSize: 0x40 }
  - { offset: 0x2C97C, size: 0x8, addend: 0x0, symName: __ZN14QMessageLoggerC2EPKciS1_, symObjAddr: 0x4680, symBinAddr: 0x8550, symSize: 0x40 }
  - { offset: 0x2C9D0, size: 0x8, addend: 0x0, symName: __ZN18QMessageLogContextC1EPKciS1_S1_, symObjAddr: 0x46C0, symBinAddr: 0x8590, symSize: 0x40 }
  - { offset: 0x2CA32, size: 0x8, addend: 0x0, symName: __ZN18QMessageLogContextC2EPKciS1_S1_, symObjAddr: 0x4700, symBinAddr: 0x85D0, symSize: 0x50 }
  - { offset: 0x2CA94, size: 0x8, addend: 0x0, symName: __ZN6QDebug10maybeSpaceEv, symObjAddr: 0x4750, symBinAddr: 0x8620, symSize: 0x40 }
  - { offset: 0x2CABA, size: 0x8, addend: 0x0, symName: __ZNK7QString9constDataEv, symObjAddr: 0x4790, symBinAddr: 0x8660, symSize: 0x20 }
  - { offset: 0x2CAE2, size: 0x8, addend: 0x0, symName: __ZNK7QString4dataEv, symObjAddr: 0x47B0, symBinAddr: 0x8680, symSize: 0x50 }
  - { offset: 0x2CB0A, size: 0x8, addend: 0x0, symName: __ZNK17QArrayDataPointerIDsE4dataEv, symObjAddr: 0x4800, symBinAddr: 0x86D0, symSize: 0x20 }
  - { offset: 0x2CB30, size: 0x8, addend: 0x0, symName: __ZNK7QString6isNullEv, symObjAddr: 0x4820, symBinAddr: 0x86F0, symSize: 0x20 }
  - { offset: 0x2CB56, size: 0x8, addend: 0x0, symName: __ZNK17QArrayDataPointerIDsE6isNullEv, symObjAddr: 0x4840, symBinAddr: 0x8710, symSize: 0x20 }
  - { offset: 0x2CB7C, size: 0x8, addend: 0x0, symName: __ZN7QStringC2ERKS_, symObjAddr: 0x4860, symBinAddr: 0x8730, symSize: 0x30 }
  - { offset: 0x2CBB7, size: 0x8, addend: 0x0, symName: __ZN17QArrayDataPointerIDsEC1ERKS0_, symObjAddr: 0x4890, symBinAddr: 0x8760, symSize: 0x30 }
  - { offset: 0x2CBEF, size: 0x8, addend: 0x0, symName: __ZN17QArrayDataPointerIDsEC2ERKS0_, symObjAddr: 0x48C0, symBinAddr: 0x8790, symSize: 0x50 }
  - { offset: 0x2CC27, size: 0x8, addend: 0x0, symName: __ZN17QArrayDataPointerIDsE3refEv, symObjAddr: 0x4910, symBinAddr: 0x87E0, symSize: 0x30 }
  - { offset: 0x2CC4D, size: 0x8, addend: 0x0, symName: __ZN10QArrayData3refEv, symObjAddr: 0x4940, symBinAddr: 0x8810, symSize: 0x20 }
  - { offset: 0x2CC73, size: 0x8, addend: 0x0, symName: __ZN19QBasicAtomicIntegerIiE10refRelaxedEv, symObjAddr: 0x4960, symBinAddr: 0x8830, symSize: 0x20 }
  - { offset: 0x2CCC3, size: 0x8, addend: 0x0, symName: __ZN10QAtomicOpsIiE18fetchAndAddRelaxedIiEET_RNSt3__16atomicIS2_EEN19QAtomicAdditiveTypeIS2_E9AdditiveTE, symObjAddr: 0x4980, symBinAddr: 0x8850, symSize: 0x30 }
  - { offset: 0x2CCFF, size: 0x8, addend: 0x0, symName: __ZNSt3__113__atomic_baseIiLb1EE9fetch_addB9nqe210106EiNS_12memory_orderE, symObjAddr: 0x49B0, symBinAddr: 0x8880, symSize: 0x30 }
  - { offset: 0x2CD41, size: 0x8, addend: 0x0, symName: __ZN17QArrayDataPointerIDsED2Ev, symObjAddr: 0x4A90, symBinAddr: 0x8960, symSize: 0x40 }
  - { offset: 0x2CD6B, size: 0x8, addend: 0x0, symName: __ZN17QArrayDataPointerIDsE5derefEv, symObjAddr: 0x4AD0, symBinAddr: 0x89A0, symSize: 0x40 }
  - { offset: 0x2CD91, size: 0x8, addend: 0x0, symName: __ZN17QArrayDataPointerIDsEptEv, symObjAddr: 0x4B10, symBinAddr: 0x89E0, symSize: 0x10 }
  - { offset: 0x2CDB7, size: 0x8, addend: 0x0, symName: __ZN9QtPrivate12QPodArrayOpsIDsE10destroyAllEv, symObjAddr: 0x4B20, symBinAddr: 0x89F0, symSize: 0x70 }
  - { offset: 0x2CDDD, size: 0x8, addend: 0x0, symName: __ZN15QTypedArrayDataIDsE10deallocateEP10QArrayData, symObjAddr: 0x4B90, symBinAddr: 0x8A60, symSize: 0x30 }
  - { offset: 0x2CE00, size: 0x8, addend: 0x0, symName: __ZN5QListI8QVariantE4dataEv, symObjAddr: 0x4BC0, symBinAddr: 0x8A90, symSize: 0x30 }
  - { offset: 0x2CE26, size: 0x8, addend: 0x0, symName: __ZN5QListI8QVariantE6detachEv, symObjAddr: 0x4BF0, symBinAddr: 0x8AC0, symSize: 0x20 }
  - { offset: 0x2CE4C, size: 0x8, addend: 0x0, symName: __ZN17QArrayDataPointerI8QVariantE6detachEPS1_, symObjAddr: 0x4C10, symBinAddr: 0x8AE0, symSize: 0x40 }
  - { offset: 0x2CE80, size: 0x8, addend: 0x0, symName: __ZNK17QArrayDataPointerI8QVariantE11needsDetachEv, symObjAddr: 0x4C50, symBinAddr: 0x8B20, symSize: 0x40 }
  - { offset: 0x2CEA6, size: 0x8, addend: 0x0, symName: __ZN17QArrayDataPointerI8QVariantE17reallocateAndGrowEN10QArrayData14GrowthPositionExPS1_, symObjAddr: 0x4C90, symBinAddr: 0x8B60, symSize: 0x260 }
  - { offset: 0x2CF22, size: 0x8, addend: 0x0, symName: __ZN9QtPrivate16QMovableArrayOpsI8QVariantE10reallocateExN10QArrayData16AllocationOptionE, symObjAddr: 0x4EF0, symBinAddr: 0x8DC0, symSize: 0x80 }
  - { offset: 0x2CF76, size: 0x8, addend: 0x0, symName: __ZNK17QArrayDataPointerI8QVariantE22constAllocatedCapacityEv, symObjAddr: 0x4F70, symBinAddr: 0x8E40, symSize: 0x40 }
  - { offset: 0x2CF9C, size: 0x8, addend: 0x0, symName: __ZNK17QArrayDataPointerI8QVariantE14freeSpaceAtEndEv, symObjAddr: 0x4FB0, symBinAddr: 0x8E80, symSize: 0x60 }
  - { offset: 0x2CFC2, size: 0x8, addend: 0x0, symName: __ZN17QArrayDataPointerI8QVariantE12allocateGrowERKS1_xN10QArrayData14GrowthPositionE, symObjAddr: 0x5010, symBinAddr: 0x8EE0, symSize: 0x230 }
  - { offset: 0x2D061, size: 0x8, addend: 0x0, symName: __ZNK17QArrayDataPointerI8QVariantE16freeSpaceAtBeginEv, symObjAddr: 0x5240, symBinAddr: 0x9110, symSize: 0x60 }
  - { offset: 0x2D087, size: 0x8, addend: 0x0, symName: __ZN9QtPrivate16QGenericArrayOpsI8QVariantE10copyAppendEPKS1_S4_, symObjAddr: 0x52A0, symBinAddr: 0x9170, symSize: 0x150 }
  - { offset: 0x2D0DB, size: 0x8, addend: 0x0, symName: __ZN9QtPrivate16QGenericArrayOpsI8QVariantE10moveAppendEPS1_S3_, symObjAddr: 0x53F0, symBinAddr: 0x92C0, symSize: 0x150 }
  - { offset: 0x2D12F, size: 0x8, addend: 0x0, symName: __ZN17QArrayDataPointerI8QVariantE4swapERS1_, symObjAddr: 0x5540, symBinAddr: 0x9410, symSize: 0x60 }
  - { offset: 0x2D163, size: 0x8, addend: 0x0, symName: __ZN15QTypedArrayDataI8QVariantE19reallocateUnalignedEPS1_PS0_xN10QArrayData16AllocationOptionE, symObjAddr: 0x55A0, symBinAddr: 0x9470, symSize: 0x70 }
  - { offset: 0x2D1C8, size: 0x8, addend: 0x0, symName: __ZNSt3__14pairIP15QTypedArrayDataI8QVariantEPS2_EC1B9nqe210106IS4_S5_Li0EEEOT_OT0_, symObjAddr: 0x5610, symBinAddr: 0x94E0, symSize: 0x30 }
  - { offset: 0x2D226, size: 0x8, addend: 0x0, symName: __ZNSt3__14pairIP15QTypedArrayDataI8QVariantEPS2_EC2B9nqe210106IS4_S5_Li0EEEOT_OT0_, symObjAddr: 0x5640, symBinAddr: 0x9510, symSize: 0x30 }
  - { offset: 0x2D284, size: 0x8, addend: 0x0, symName: __ZNK17QArrayDataPointerI8QVariantE14detachCapacityEx, symObjAddr: 0x5670, symBinAddr: 0x9540, symSize: 0x50 }
  - { offset: 0x2D2B9, size: 0x8, addend: 0x0, symName: __ZN15QTypedArrayDataI8QVariantE8allocateExN10QArrayData16AllocationOptionE, symObjAddr: 0x56C0, symBinAddr: 0x9590, symSize: 0x60 }
  - { offset: 0x2D306, size: 0x8, addend: 0x0, symName: __ZN17QArrayDataPointerI8QVariantEC1EP15QTypedArrayDataIS0_EPS0_x, symObjAddr: 0x5760, symBinAddr: 0x9630, symSize: 0x40 }
  - { offset: 0x2D359, size: 0x8, addend: 0x0, symName: __Z4qMaxIixEN11QTypeTraits6detail8PromotedIT_T0_NSt3__19enable_ifIXaaaaaaaaaaaaaasr3stdE15is_arithmetic_vIS3_Esr3stdE15is_arithmetic_vIS4_Eeqsr3stdE19is_floating_point_vIS3_Esr3stdE19is_floating_point_vIS4_Eeqsr3stdE11is_signed_vIS3_Esr3stdE11is_signed_vIS4_Entsr3stdE9is_same_vIS3_bEntsr3stdE9is_same_vIS4_bEntsr3stdE9is_same_vIS3_cEntsr3stdE9is_same_vIS4_cEEvE4typeEE4typeERKS3_RKS4_, symObjAddr: 0x57A0, symBinAddr: 0x9670, symSize: 0x50 }
  - { offset: 0x2D3CD, size: 0x8, addend: 0x0, symName: __ZNK17QArrayDataPointerI8QVariantE5flagsEv, symObjAddr: 0x57F0, symBinAddr: 0x96C0, symSize: 0x40 }
  - { offset: 0x2D3F3, size: 0x8, addend: 0x0, symName: __ZNK10QArrayData14detachCapacityEx, symObjAddr: 0x5830, symBinAddr: 0x9700, symSize: 0x90 }
  - { offset: 0x2D427, size: 0x8, addend: 0x0, symName: __ZNK6QFlagsIN10QArrayData11ArrayOptionEEanES1_, symObjAddr: 0x58C0, symBinAddr: 0x9790, symSize: 0x40 }
  - { offset: 0x2D45B, size: 0x8, addend: 0x0, symName: __ZNK6QFlagsIN10QArrayData11ArrayOptionEEcvjEv, symObjAddr: 0x5900, symBinAddr: 0x97D0, symSize: 0x10 }
  - { offset: 0x2D481, size: 0x8, addend: 0x0, symName: __ZN6QFlagsIN10QArrayData11ArrayOptionEECI1N9QtPrivate13QFlagsStorageIS1_EEENSt3__110in_place_tEj, symObjAddr: 0x5910, symBinAddr: 0x97E0, symSize: 0x30 }
  - { offset: 0x2D4BF, size: 0x8, addend: 0x0, symName: __ZN6QFlagsIN10QArrayData11ArrayOptionEECI2N9QtPrivate13QFlagsStorageIS1_EEENSt3__110in_place_tEj, symObjAddr: 0x5940, symBinAddr: 0x9810, symSize: 0x30 }
  - { offset: 0x2D4FD, size: 0x8, addend: 0x0, symName: __ZNSt3__110__get_pairILm0EE3getB9nqe210106IP15QTypedArrayDataI8QVariantEPS4_EEOT_ONS_4pairIS8_T0_EE, symObjAddr: 0x5970, symBinAddr: 0x9840, symSize: 0x10 }
  - { offset: 0x2D533, size: 0x8, addend: 0x0, symName: __ZNSt3__110__get_pairILm1EE3getB9nqe210106IP15QTypedArrayDataI8QVariantEPS4_EEOT0_ONS_4pairIT_S8_EE, symObjAddr: 0x5980, symBinAddr: 0x9850, symSize: 0x20 }
  - { offset: 0x2D569, size: 0x8, addend: 0x0, symName: __ZN17QArrayDataPointerI8QVariantEC2EP15QTypedArrayDataIS0_EPS0_x, symObjAddr: 0x59A0, symBinAddr: 0x9870, symSize: 0x40 }
  - { offset: 0x2D5BD, size: 0x8, addend: 0x0, symName: __ZN15QTypedArrayDataI8QVariantE9dataStartEP10QArrayDatax, symObjAddr: 0x59E0, symBinAddr: 0x98B0, symSize: 0x80 }
  - { offset: 0x2D5FC, size: 0x8, addend: 0x0, symName: __ZNK17QArrayDataPointerI8QVariantE9isMutableEv, symObjAddr: 0x5A60, symBinAddr: 0x9930, symSize: 0x20 }
  - { offset: 0x2D622, size: 0x8, addend: 0x0, symName: __ZNK17QArrayDataPointerI8QVariantE8isSharedEv, symObjAddr: 0x5A80, symBinAddr: 0x9950, symSize: 0x40 }
  - { offset: 0x2D648, size: 0x8, addend: 0x0, symName: __ZNK10QArrayData8isSharedEv, symObjAddr: 0x5AC0, symBinAddr: 0x9990, symSize: 0x30 }
  - { offset: 0x2D66E, size: 0x8, addend: 0x0, symName: __ZN8QVariantC1EOS_, symObjAddr: 0x5AF0, symBinAddr: 0x99C0, symSize: 0x30 }
  - { offset: 0x2D6A7, size: 0x8, addend: 0x0, symName: __ZN8QVariantC2EOS_, symObjAddr: 0x5B20, symBinAddr: 0x99F0, symSize: 0x90 }
  - { offset: 0x2D6E0, size: 0x8, addend: 0x0, symName: __ZN8QVariant7PrivateC1Ev, symObjAddr: 0x5BB0, symBinAddr: 0x9A80, symSize: 0x20 }
  - { offset: 0x2D70A, size: 0x8, addend: 0x0, symName: __ZN8QVariant7PrivateC2Ev, symObjAddr: 0x5BD0, symBinAddr: 0x9AA0, symSize: 0x60 }
  - { offset: 0x2D739, size: 0x8, addend: 0x0, symName: __ZN8QVariant7PrivateUt_C1Ev, symObjAddr: 0x5C30, symBinAddr: 0x9B00, symSize: 0x20 }
  - { offset: 0x2D765, size: 0x8, addend: 0x0, symName: __ZN8QVariant7PrivateUt_C2Ev, symObjAddr: 0x5C50, symBinAddr: 0x9B20, symSize: 0x40 }
  - { offset: 0x2D790, size: 0x8, addend: 0x0, symName: __Z11qt_ptr_swapI15QTypedArrayDataI8QVariantEEvRPT_S5_, symObjAddr: 0x5C90, symBinAddr: 0x9B60, symSize: 0x40 }
  - { offset: 0x2D7DD, size: 0x8, addend: 0x0, symName: __Z11qt_ptr_swapI8QVariantEvRPT_S3_, symObjAddr: 0x5CD0, symBinAddr: 0x9BA0, symSize: 0x40 }
  - { offset: 0x2D82B, size: 0x8, addend: 0x0, symName: __ZNK4QMapI7QString8QVariantE5beginEv, symObjAddr: 0x5D10, symBinAddr: 0x9BE0, symSize: 0x70 }
  - { offset: 0x2D851, size: 0x8, addend: 0x0, symName: __ZNK9QtPrivate30QExplicitlySharedDataPointerV2I8QMapDataINSt3__13mapI7QString8QVariantNS2_4lessIS4_EENS2_9allocatorINS2_4pairIKS4_S5_EEEEEEEEcvbEv, symObjAddr: 0x5D80, symBinAddr: 0x9C50, symSize: 0x30 }
  - { offset: 0x2D877, size: 0x8, addend: 0x0, symName: __ZN4QMapI7QString8QVariantE14const_iteratorC1Ev, symObjAddr: 0x5DB0, symBinAddr: 0x9C80, symSize: 0x20 }
  - { offset: 0x2D8A1, size: 0x8, addend: 0x0, symName: __ZNK9QtPrivate30QExplicitlySharedDataPointerV2I8QMapDataINSt3__13mapI7QString8QVariantNS2_4lessIS4_EENS2_9allocatorINS2_4pairIKS4_S5_EEEEEEEEptEv, symObjAddr: 0x5DD0, symBinAddr: 0x9CA0, symSize: 0x20 }
  - { offset: 0x2D8C7, size: 0x8, addend: 0x0, symName: __ZNKSt3__13mapI7QString8QVariantNS_4lessIS1_EENS_9allocatorINS_4pairIKS1_S2_EEEEE6cbeginB9nqe210106Ev, symObjAddr: 0x5DF0, symBinAddr: 0x9CC0, symSize: 0x30 }
  - { offset: 0x2D8ED, size: 0x8, addend: 0x0, symName: __ZN4QMapI7QString8QVariantE14const_iteratorC1ENSt3__120__map_const_iteratorINS4_21__tree_const_iteratorINS4_12__value_typeIS0_S1_EEPNS4_11__tree_nodeIS8_PvEElEEEE, symObjAddr: 0x5E20, symBinAddr: 0x9CF0, symSize: 0x30 }
  - { offset: 0x2D926, size: 0x8, addend: 0x0, symName: __ZN4QMapI7QString8QVariantE14const_iteratorC2Ev, symObjAddr: 0x5E50, symBinAddr: 0x9D20, symSize: 0x20 }
  - { offset: 0x2D950, size: 0x8, addend: 0x0, symName: __ZNSt3__120__map_const_iteratorINS_21__tree_const_iteratorINS_12__value_typeI7QString8QVariantEEPNS_11__tree_nodeIS5_PvEElEEEC1B9nqe210106Ev, symObjAddr: 0x5E70, symBinAddr: 0x9D40, symSize: 0x20 }
  - { offset: 0x2D97A, size: 0x8, addend: 0x0, symName: __ZNSt3__120__map_const_iteratorINS_21__tree_const_iteratorINS_12__value_typeI7QString8QVariantEEPNS_11__tree_nodeIS5_PvEElEEEC2B9nqe210106Ev, symObjAddr: 0x5E90, symBinAddr: 0x9D60, symSize: 0x20 }
  - { offset: 0x2D9A4, size: 0x8, addend: 0x0, symName: __ZNSt3__121__tree_const_iteratorINS_12__value_typeI7QString8QVariantEEPNS_11__tree_nodeIS4_PvEElEC1B9nqe210106Ev, symObjAddr: 0x5EB0, symBinAddr: 0x9D80, symSize: 0x20 }
  - { offset: 0x2D9CE, size: 0x8, addend: 0x0, symName: __ZNSt3__121__tree_const_iteratorINS_12__value_typeI7QString8QVariantEEPNS_11__tree_nodeIS4_PvEElEC2B9nqe210106Ev, symObjAddr: 0x5ED0, symBinAddr: 0x9DA0, symSize: 0x20 }
  - { offset: 0x2D9F8, size: 0x8, addend: 0x0, symName: __ZNKSt3__13mapI7QString8QVariantNS_4lessIS1_EENS_9allocatorINS_4pairIKS1_S2_EEEEE5beginB9nqe210106Ev, symObjAddr: 0x5EF0, symBinAddr: 0x9DC0, symSize: 0x30 }
  - { offset: 0x2DA1E, size: 0x8, addend: 0x0, symName: __ZNKSt3__16__treeINS_12__value_typeI7QString8QVariantEENS_19__map_value_compareIS2_NS_4pairIKS2_S3_EENS_4lessIS2_EELb1EEENS_9allocatorIS8_EEE5beginB9nqe210106Ev, symObjAddr: 0x5F20, symBinAddr: 0x9DF0, symSize: 0x30 }
  - { offset: 0x2DA44, size: 0x8, addend: 0x0, symName: __ZNSt3__120__map_const_iteratorINS_21__tree_const_iteratorINS_12__value_typeI7QString8QVariantEEPNS_11__tree_nodeIS5_PvEElEEEC1B9nqe210106ESA_, symObjAddr: 0x5F50, symBinAddr: 0x9E20, symSize: 0x30 }
  - { offset: 0x2DA7D, size: 0x8, addend: 0x0, symName: __ZNKSt3__16__treeINS_12__value_typeI7QString8QVariantEENS_19__map_value_compareIS2_NS_4pairIKS2_S3_EENS_4lessIS2_EELb1EEENS_9allocatorIS8_EEE12__begin_nodeB9nqe210106Ev, symObjAddr: 0x5F80, symBinAddr: 0x9E50, symSize: 0x10 }
  - { offset: 0x2DAA3, size: 0x8, addend: 0x0, symName: __ZNSt3__121__tree_const_iteratorINS_12__value_typeI7QString8QVariantEEPNS_11__tree_nodeIS4_PvEElEC1B9nqe210106EPNS_15__tree_end_nodeIPNS_16__tree_node_baseIS6_EEEE, symObjAddr: 0x5F90, symBinAddr: 0x9E60, symSize: 0x30 }
  - { offset: 0x2DADC, size: 0x8, addend: 0x0, symName: __ZNSt3__121__tree_const_iteratorINS_12__value_typeI7QString8QVariantEEPNS_11__tree_nodeIS4_PvEElEC2B9nqe210106EPNS_15__tree_end_nodeIPNS_16__tree_node_baseIS6_EEEE, symObjAddr: 0x5FC0, symBinAddr: 0x9E90, symSize: 0x20 }
  - { offset: 0x2DB15, size: 0x8, addend: 0x0, symName: __ZNSt3__120__map_const_iteratorINS_21__tree_const_iteratorINS_12__value_typeI7QString8QVariantEEPNS_11__tree_nodeIS5_PvEElEEEC2B9nqe210106ESA_, symObjAddr: 0x5FE0, symBinAddr: 0x9EB0, symSize: 0x20 }
  - { offset: 0x2DB4E, size: 0x8, addend: 0x0, symName: __ZN4QMapI7QString8QVariantE14const_iteratorC2ENSt3__120__map_const_iteratorINS4_21__tree_const_iteratorINS4_12__value_typeIS0_S1_EEPNS4_11__tree_nodeIS8_PvEElEEEE, symObjAddr: 0x6000, symBinAddr: 0x9ED0, symSize: 0x20 }
  - { offset: 0x2DB87, size: 0x8, addend: 0x0, symName: __ZNK4QMapI7QString8QVariantE3endEv, symObjAddr: 0x6020, symBinAddr: 0x9EF0, symSize: 0x70 }
  - { offset: 0x2DBAD, size: 0x8, addend: 0x0, symName: __ZNKSt3__13mapI7QString8QVariantNS_4lessIS1_EENS_9allocatorINS_4pairIKS1_S2_EEEEE3endB9nqe210106Ev, symObjAddr: 0x6090, symBinAddr: 0x9F60, symSize: 0x30 }
  - { offset: 0x2DBD3, size: 0x8, addend: 0x0, symName: __ZNKSt3__16__treeINS_12__value_typeI7QString8QVariantEENS_19__map_value_compareIS2_NS_4pairIKS2_S3_EENS_4lessIS2_EELb1EEENS_9allocatorIS8_EEE3endB9nqe210106Ev, symObjAddr: 0x60C0, symBinAddr: 0x9F90, symSize: 0x30 }
  - { offset: 0x2DBF9, size: 0x8, addend: 0x0, symName: __ZNSt3__120__map_const_iteratorINS_21__tree_const_iteratorINS_12__value_typeI7QString8QVariantEEPNS_11__tree_nodeIS5_PvEElEEEppB9nqe210106Ev, symObjAddr: 0x6180, symBinAddr: 0xA050, symSize: 0x30 }
  - { offset: 0x2DC1F, size: 0x8, addend: 0x0, symName: __ZNSt3__121__tree_const_iteratorINS_12__value_typeI7QString8QVariantEEPNS_11__tree_nodeIS4_PvEElEppB9nqe210106Ev, symObjAddr: 0x61B0, symBinAddr: 0xA080, symSize: 0x30 }
  - { offset: 0x2DC45, size: 0x8, addend: 0x0, symName: __ZNKSt3__116__tree_node_baseIPvE15__parent_unsafeB9nqe210106Ev, symObjAddr: 0x62B0, symBinAddr: 0xA180, symSize: 0x20 }
  - { offset: 0x2DC6B, size: 0x8, addend: 0x0, symName: __ZNKSt3__120__map_const_iteratorINS_21__tree_const_iteratorINS_12__value_typeI7QString8QVariantEEPNS_11__tree_nodeIS5_PvEElEEEptB9nqe210106Ev, symObjAddr: 0x62D0, symBinAddr: 0xA1A0, symSize: 0x30 }
  - { offset: 0x2DC91, size: 0x8, addend: 0x0, symName: __ZNSt3__114pointer_traitsIPKNS_4pairIK7QString8QVariantEEE10pointer_toB9nqe210106ERS6_, symObjAddr: 0x6300, symBinAddr: 0xA1D0, symSize: 0x10 }
  - { offset: 0x2DCB4, size: 0x8, addend: 0x0, symName: __ZNKSt3__121__tree_const_iteratorINS_12__value_typeI7QString8QVariantEEPNS_11__tree_nodeIS4_PvEElEdeB9nqe210106Ev, symObjAddr: 0x6310, symBinAddr: 0xA1E0, symSize: 0x20 }
  - { offset: 0x2DCDA, size: 0x8, addend: 0x0, symName: __ZNKSt3__121__tree_const_iteratorINS_12__value_typeI7QString8QVariantEEPNS_11__tree_nodeIS4_PvEElE8__get_npB9nqe210106Ev, symObjAddr: 0x6330, symBinAddr: 0xA200, symSize: 0x20 }
  - { offset: 0x2DD00, size: 0x8, addend: 0x0, symName: __ZNK8QVariant10canConvertE9QMetaType, symObjAddr: 0x6350, symBinAddr: 0xA220, symSize: 0x40 }
  - { offset: 0x2DD35, size: 0x8, addend: 0x0, symName: __ZN9QMetaType8fromTypeIxEES_v, symObjAddr: 0x6390, symBinAddr: 0xA260, symSize: 0x30 }
  - { offset: 0x2DD53, size: 0x8, addend: 0x0, symName: __ZN9QMetaType8fromTypeI7QStringEES_v, symObjAddr: 0x63E0, symBinAddr: 0xA2B0, symSize: 0x30 }
  - { offset: 0x2DD71, size: 0x8, addend: 0x0, symName: __ZN17QArrayDataPointerIDsEC1EP15QTypedArrayDataIDsEPDsx, symObjAddr: 0x6430, symBinAddr: 0xA300, symSize: 0x40 }
  - { offset: 0x2DDC5, size: 0x8, addend: 0x0, symName: __ZN17QArrayDataPointerIDsEC2EP15QTypedArrayDataIDsEPDsx, symObjAddr: 0x6470, symBinAddr: 0xA340, symSize: 0x40 }
  - { offset: 0x2DE19, size: 0x8, addend: 0x0, symName: __ZN14QAnyStringViewC1ERK7QString, symObjAddr: 0x64B0, symBinAddr: 0xA380, symSize: 0x50 }
  - { offset: 0x2DE55, size: 0x8, addend: 0x0, symName: __ZNK7QString5beginEv, symObjAddr: 0x6500, symBinAddr: 0xA3D0, symSize: 0x20 }
  - { offset: 0x2DE7D, size: 0x8, addend: 0x0, symName: __ZN14QAnyStringViewC1I5QCharLb1EEEPKT_x, symObjAddr: 0x6520, symBinAddr: 0xA3F0, symSize: 0x30 }
  - { offset: 0x2DED2, size: 0x8, addend: 0x0, symName: __ZN14QAnyStringViewC2I5QCharLb1EEEPKT_x, symObjAddr: 0x6550, symBinAddr: 0xA420, symSize: 0x50 }
  - { offset: 0x2DF27, size: 0x8, addend: 0x0, symName: __ZN14QAnyStringView10encodeTypeI5QCharEEmPKT_x, symObjAddr: 0x65A0, symBinAddr: 0xA470, symSize: 0xD0 }
  - { offset: 0x2DF61, size: 0x8, addend: 0x0, symName: __ZN14QAnyStringView29isAsciiOnlyCharsAtCompileTimeIK5QCharEEbPT_x, symObjAddr: 0x6670, symBinAddr: 0xA540, symSize: 0x12 }
  - { offset: 0x35070, size: 0x8, addend: 0x0, symName: __ZN9QtPrivateL19lengthHelperPointerIcEExPKT_, symObjAddr: 0x5650, symBinAddr: 0xF2C0, symSize: 0x50 }
  - { offset: 0x45637, size: 0x8, addend: 0x0, symName: __ZNSt3__17advanceB9nqe210106IPKcllLi0EEEvRT_T0_, symObjAddr: 0x4640, symBinAddr: 0xE630, symSize: 0x30 }
  - { offset: 0x45AEE, size: 0x8, addend: 0x0, symName: __ZNSt3__14nextB9nqe210106IPKcLi0EEET_S3_NS_15iterator_traitsIS3_E15difference_typeE, symObjAddr: 0x45A0, symBinAddr: 0xE590, symSize: 0x30 }
  - { offset: 0x45B37, size: 0x8, addend: 0x0, symName: __ZNSt3__18distanceB9nqe210106IPKcEENS_15iterator_traitsIT_E15difference_typeES4_S4_, symObjAddr: 0x45D0, symBinAddr: 0xE5C0, symSize: 0x30 }
  - { offset: 0x45B7A, size: 0x8, addend: 0x0, symName: __ZNSt3__118__constexpr_memchrB9nqe210106IKccEEPT_S3_T0_m, symObjAddr: 0x4600, symBinAddr: 0xE5F0, symSize: 0x40 }
  - { offset: 0x45BF1, size: 0x8, addend: 0x0, symName: __ZNSt3__121__convert_to_integralB9nqe210106El, symObjAddr: 0x4670, symBinAddr: 0xE660, symSize: 0x10 }
  - { offset: 0x45C1D, size: 0x8, addend: 0x0, symName: __ZNSt3__19__advanceB9nqe210106IPKcEEvRT_NS_15iterator_traitsIS3_E15difference_typeENS_26random_access_iterator_tagE, symObjAddr: 0x4680, symBinAddr: 0xE670, symSize: 0x20 }
  - { offset: 0x45C67, size: 0x8, addend: 0x0, symName: __ZNSt3__110__distanceB9nqe210106IPKcEENS_15iterator_traitsIT_E15difference_typeES4_S4_NS_26random_access_iterator_tagE, symObjAddr: 0x46A0, symBinAddr: 0xE690, symSize: 0x20 }
  - { offset: 0x45CB5, size: 0x8, addend: 0x0, symName: __ZNSt3__112__destroy_atB9nqe210106INS_4pairIKj14QSharedPointerIN5Tiled7TilesetEEEELi0EEEvPT_, symObjAddr: 0x5060, symBinAddr: 0xEED0, symSize: 0x20 }
  - { offset: 0x45CEC, size: 0x8, addend: 0x0, symName: __ZNSt3__119__libcpp_deallocateB9nqe210106INS_11__tree_nodeINS_12__value_typeIj14QSharedPointerIN5Tiled7TilesetEEEEPvEEEEvPNS_15__type_identityIT_E4typeENS_15__element_countEm, symObjAddr: 0x50F0, symBinAddr: 0xEF60, symSize: 0x50 }
  - { offset: 0x93980, size: 0x8, addend: 0x0, symName: __ZN4Json10JsonPlugin10initializeEv, symObjAddr: 0x0, symBinAddr: 0xA560, symSize: 0x140 }
  - { offset: 0x939A8, size: 0x8, addend: 0x0, symName: __ZN4Json13JsonMapFormatC1ENS0_9SubFormatEP7QObject, symObjAddr: 0x140, symBinAddr: 0xA6A0, symSize: 0x30 }
  - { offset: 0x93A13, size: 0x8, addend: 0x0, symName: __ZN4Json17JsonTilesetFormatC1EP7QObject, symObjAddr: 0x170, symBinAddr: 0xA6D0, symSize: 0x30 }
  - { offset: 0x93AAC, size: 0x8, addend: 0x0, symName: __ZN4Json24JsonObjectTemplateFormatC1EP7QObject, symObjAddr: 0x1A0, symBinAddr: 0xA700, symSize: 0x30 }
  - { offset: 0x93AE8, size: 0x8, addend: 0x0, symName: __ZN4Json13JsonMapFormatC2ENS0_9SubFormatEP7QObject, symObjAddr: 0x1D0, symBinAddr: 0xA730, symSize: 0x50 }
  - { offset: 0x93B30, size: 0x8, addend: 0x0, symName: __ZN5Tiled9MapFormatC2EP7QObject, symObjAddr: 0x220, symBinAddr: 0xA780, symSize: 0x40 }
  - { offset: 0x93B68, size: 0x8, addend: 0x0, symName: __ZN4Json13JsonMapFormat4readERK7QString, symObjAddr: 0x280, symBinAddr: 0xA7C0, symSize: 0x620 }
  - { offset: 0x93C0D, size: 0x8, addend: 0x0, symName: __ZorN13QIODeviceBase12OpenModeFlagES0_, symObjAddr: 0x8A0, symBinAddr: 0xADE0, symSize: 0x40 }
  - { offset: 0x93C48, size: 0x8, addend: 0x0, symName: __ZNSt3__110unique_ptrIN5Tiled3MapENS_14default_deleteIS2_EEEC1B9nqe210106ILb1EvEEDn, symObjAddr: 0x930, symBinAddr: 0xAE20, symSize: 0x30 }
  - { offset: 0x93C89, size: 0x8, addend: 0x0, symName: __ZNK10QByteArray4sizeEv, symObjAddr: 0x960, symBinAddr: 0xAE50, symSize: 0x50 }
  - { offset: 0x93D12, size: 0x8, addend: 0x0, symName: __ZN10QByteArrayixEx, symObjAddr: 0x9B0, symBinAddr: 0xAEA0, symSize: 0xE0 }
  - { offset: 0x93D7B, size: 0x8, addend: 0x0, symName: __ZNK10QByteArray7indexOfE14QByteArrayViewx, symObjAddr: 0xA90, symBinAddr: 0xAF80, symSize: 0x60 }
  - { offset: 0x93DC2, size: 0x8, addend: 0x0, symName: __ZN14QByteArrayViewC1ILm3EEERAT__Kc, symObjAddr: 0xAF0, symBinAddr: 0xAFE0, symSize: 0x50 }
  - { offset: 0x93E04, size: 0x8, addend: 0x0, symName: __ZNKR10QByteArray7trimmedEv, symObjAddr: 0xB40, symBinAddr: 0xB030, symSize: 0x30 }
  - { offset: 0x93E2A, size: 0x8, addend: 0x0, symName: __ZN10QByteArrayaSEOS_, symObjAddr: 0xB70, symBinAddr: 0xB060, symSize: 0x30 }
  - { offset: 0x93E5E, size: 0x8, addend: 0x0, symName: __ZN10QByteArrayD1Ev, symObjAddr: 0xBA0, symBinAddr: 0xB090, symSize: 0x20 }
  - { offset: 0x93E8A, size: 0x8, addend: 0x0, symName: __ZNK10QByteArray8endsWithEc, symObjAddr: 0xBC0, symBinAddr: 0xB0B0, symSize: 0x50 }
  - { offset: 0x93EC3, size: 0x8, addend: 0x0, symName: __ZN15QJsonParseErrorC1Ev, symObjAddr: 0xC10, symBinAddr: 0xB100, symSize: 0x20 }
  - { offset: 0x93EEF, size: 0x8, addend: 0x0, symName: __ZN4Json13JsonMapFormat2trEPKcS2_i, symObjAddr: 0xC30, symBinAddr: 0xB120, symSize: 0x40 }
  - { offset: 0x93F42, size: 0x8, addend: 0x0, symName: __ZN5Tiled21VariantToMapConverterC1Ev, symObjAddr: 0xD10, symBinAddr: 0xB160, symSize: 0x20 }
  - { offset: 0x93F6C, size: 0x8, addend: 0x0, symName: __ZNKSt3__110unique_ptrIN5Tiled3MapENS_14default_deleteIS2_EEEcvbB9nqe210106Ev, symObjAddr: 0xD30, symBinAddr: 0xB180, symSize: 0x20 }
  - { offset: 0x93F92, size: 0x8, addend: 0x0, symName: __ZNK5Tiled21VariantToMapConverter11errorStringEv, symObjAddr: 0xD50, symBinAddr: 0xB1A0, symSize: 0x30 }
  - { offset: 0x93FB8, size: 0x8, addend: 0x0, symName: __ZNSt3__110unique_ptrIN5Tiled3MapENS_14default_deleteIS2_EEED1B9nqe210106Ev, symObjAddr: 0xD80, symBinAddr: 0xB1D0, symSize: 0x20 }
  - { offset: 0x93FE2, size: 0x8, addend: 0x0, symName: __ZN5Tiled21VariantToMapConverterD1Ev, symObjAddr: 0xDA0, symBinAddr: 0xB1F0, symSize: 0x20 }
  - { offset: 0x9400E, size: 0x8, addend: 0x0, symName: __ZN4Json13JsonMapFormat5writeEPKN5Tiled3MapERK7QString6QFlagsINS1_10FileFormat6OptionEE, symObjAddr: 0xDC0, symBinAddr: 0xB210, symSize: 0x870 }
  - { offset: 0x9411E, size: 0x8, addend: 0x0, symName: __ZN5Tiled8SaveFile4openE6QFlagsIN13QIODeviceBase12OpenModeFlagEE, symObjAddr: 0x1630, symBinAddr: 0xBA80, symSize: 0x40 }
  - { offset: 0x941A8, size: 0x8, addend: 0x0, symName: __ZN5Tiled21MapToVariantConverterC1Ei, symObjAddr: 0x1670, symBinAddr: 0xBAC0, symSize: 0x30 }
  - { offset: 0x941E0, size: 0x8, addend: 0x0, symName: __ZNK6QFlagsIN5Tiled10FileFormat6OptionEE8testFlagES2_, symObjAddr: 0x16A0, symBinAddr: 0xBAF0, symSize: 0x40 }
  - { offset: 0x94214, size: 0x8, addend: 0x0, symName: __ZNK5Tiled3Map8infiniteEv, symObjAddr: 0x16E0, symBinAddr: 0xBB30, symSize: 0x20 }
  - { offset: 0x9423C, size: 0x8, addend: 0x0, symName: __ZNK5Tiled3Map9chunkSizeEv, symObjAddr: 0x1700, symBinAddr: 0xBB50, symSize: 0x20 }
  - { offset: 0x94264, size: 0x8, addend: 0x0, symName: __ZNK5QSize5widthEv, symObjAddr: 0x1720, symBinAddr: 0xBB70, symSize: 0x20 }
  - { offset: 0x9428B, size: 0x8, addend: 0x0, symName: __ZNK5Tiled3Map5widthEv, symObjAddr: 0x1740, symBinAddr: 0xBB90, symSize: 0x20 }
  - { offset: 0x942B3, size: 0x8, addend: 0x0, symName: __ZNK5Tiled8SaveFile6deviceEv, symObjAddr: 0x1760, symBinAddr: 0xBBB0, symSize: 0x20 }
  - { offset: 0x942DA, size: 0x8, addend: 0x0, symName: __ZNK5Tiled8SaveFile5errorEv, symObjAddr: 0x1780, symBinAddr: 0xBBD0, symSize: 0x30 }
  - { offset: 0x94301, size: 0x8, addend: 0x0, symName: __ZNK5Tiled8SaveFile11errorStringEv, symObjAddr: 0x17B0, symBinAddr: 0xBC00, symSize: 0x40 }
  - { offset: 0x94328, size: 0x8, addend: 0x0, symName: __ZN5Tiled21MapToVariantConverterD1Ev, symObjAddr: 0x17F0, symBinAddr: 0xBC40, symSize: 0x20 }
  - { offset: 0x94354, size: 0x8, addend: 0x0, symName: __ZN5Tiled8SaveFileD1Ev, symObjAddr: 0x1810, symBinAddr: 0xBC60, symSize: 0x20 }
  - { offset: 0x94380, size: 0x8, addend: 0x0, symName: __ZNK4Json13JsonMapFormat10nameFilterEv, symObjAddr: 0x1830, symBinAddr: 0xBC80, symSize: 0x70 }
  - { offset: 0x943B2, size: 0x8, addend: 0x0, symName: __ZNK4Json13JsonMapFormat9shortNameEv, symObjAddr: 0x18A0, symBinAddr: 0xBCF0, symSize: 0x120 }
  - { offset: 0x9442A, size: 0x8, addend: 0x0, symName: __ZNK4Json13JsonMapFormat12supportsFileERK7QString, symObjAddr: 0x1A10, symBinAddr: 0xBE10, symSize: 0x480 }
  - { offset: 0x944A9, size: 0x8, addend: 0x0, symName: __ZeqRK7QStringRK13QLatin1String, symObjAddr: 0x1EC0, symBinAddr: 0xC290, symSize: 0x50 }
  - { offset: 0x944FE, size: 0x8, addend: 0x0, symName: __ZNK4Json13JsonMapFormat11errorStringEv, symObjAddr: 0x1F10, symBinAddr: 0xC2E0, symSize: 0x30 }
  - { offset: 0x94526, size: 0x8, addend: 0x0, symName: __ZN4Json17JsonTilesetFormatC2EP7QObject, symObjAddr: 0x1F70, symBinAddr: 0xC310, symSize: 0x50 }
  - { offset: 0x94560, size: 0x8, addend: 0x0, symName: __ZN5Tiled13TilesetFormatC2EP7QObject, symObjAddr: 0x1FC0, symBinAddr: 0xC360, symSize: 0x40 }
  - { offset: 0x94598, size: 0x8, addend: 0x0, symName: __ZN4Json17JsonTilesetFormat4readERK7QString, symObjAddr: 0x2000, symBinAddr: 0xC3A0, symSize: 0x4A0 }
  - { offset: 0x94619, size: 0x8, addend: 0x0, symName: __ZN14QSharedPointerIN5Tiled7TilesetEEC1Ev, symObjAddr: 0x24A0, symBinAddr: 0xC840, symSize: 0x20 }
  - { offset: 0x94643, size: 0x8, addend: 0x0, symName: __ZN4Json17JsonTilesetFormat2trEPKcS2_i, symObjAddr: 0x24C0, symBinAddr: 0xC860, symSize: 0x40 }
  - { offset: 0x94682, size: 0x8, addend: 0x0, symName: __ZNK14QSharedPointerIN5Tiled7TilesetEEntEv, symObjAddr: 0x2500, symBinAddr: 0xC8A0, symSize: 0x20 }
  - { offset: 0x946A8, size: 0x8, addend: 0x0, symName: __ZN14QSharedPointerIN5Tiled7TilesetEED1Ev, symObjAddr: 0x2520, symBinAddr: 0xC8C0, symSize: 0x20 }
  - { offset: 0x946D2, size: 0x8, addend: 0x0, symName: __ZNK4Json17JsonTilesetFormat12supportsFileERK7QString, symObjAddr: 0x2540, symBinAddr: 0xC8E0, symSize: 0x340 }
  - { offset: 0x94733, size: 0x8, addend: 0x0, symName: __ZN4Json17JsonTilesetFormat5writeERKN5Tiled7TilesetERK7QString6QFlagsINS1_10FileFormat6OptionEE, symObjAddr: 0x2880, symBinAddr: 0xCC20, symSize: 0x550 }
  - { offset: 0x947DE, size: 0x8, addend: 0x0, symName: __ZNK4Json17JsonTilesetFormat10nameFilterEv, symObjAddr: 0x2DD0, symBinAddr: 0xD170, symSize: 0x40 }
  - { offset: 0x94807, size: 0x8, addend: 0x0, symName: __ZNK4Json17JsonTilesetFormat9shortNameEv, symObjAddr: 0x2E10, symBinAddr: 0xD1B0, symSize: 0x90 }
  - { offset: 0x94859, size: 0x8, addend: 0x0, symName: __ZNK4Json17JsonTilesetFormat11errorStringEv, symObjAddr: 0x2EA0, symBinAddr: 0xD240, symSize: 0x30 }
  - { offset: 0x94882, size: 0x8, addend: 0x0, symName: __ZN4Json24JsonObjectTemplateFormatC2EP7QObject, symObjAddr: 0x2ED0, symBinAddr: 0xD270, symSize: 0x50 }
  - { offset: 0x948BE, size: 0x8, addend: 0x0, symName: __ZN5Tiled20ObjectTemplateFormatC2EP7QObject, symObjAddr: 0x2F20, symBinAddr: 0xD2C0, symSize: 0x40 }
  - { offset: 0x948F6, size: 0x8, addend: 0x0, symName: __ZN4Json24JsonObjectTemplateFormat4readERK7QString, symObjAddr: 0x2F60, symBinAddr: 0xD300, symSize: 0x4C0 }
  - { offset: 0x94983, size: 0x8, addend: 0x0, symName: __ZNSt3__110unique_ptrIN5Tiled14ObjectTemplateENS_14default_deleteIS2_EEEC1B9nqe210106ILb1EvEEDn, symObjAddr: 0x3420, symBinAddr: 0xD7C0, symSize: 0x30 }
  - { offset: 0x949C4, size: 0x8, addend: 0x0, symName: __ZN4Json24JsonObjectTemplateFormat2trEPKcS2_i, symObjAddr: 0x3450, symBinAddr: 0xD7F0, symSize: 0x40 }
  - { offset: 0x94A03, size: 0x8, addend: 0x0, symName: __ZNKSt3__110unique_ptrIN5Tiled14ObjectTemplateENS_14default_deleteIS2_EEEcvbB9nqe210106Ev, symObjAddr: 0x3490, symBinAddr: 0xD830, symSize: 0x20 }
  - { offset: 0x94A29, size: 0x8, addend: 0x0, symName: __ZNKSt3__110unique_ptrIN5Tiled14ObjectTemplateENS_14default_deleteIS2_EEEptB9nqe210106Ev, symObjAddr: 0x34B0, symBinAddr: 0xD850, symSize: 0x20 }
  - { offset: 0x94A4F, size: 0x8, addend: 0x0, symName: __ZN5Tiled14ObjectTemplate11setFileNameERK7QString, symObjAddr: 0x34D0, symBinAddr: 0xD870, symSize: 0x30 }
  - { offset: 0x94A84, size: 0x8, addend: 0x0, symName: __ZNSt3__110unique_ptrIN5Tiled14ObjectTemplateENS_14default_deleteIS2_EEED1B9nqe210106Ev, symObjAddr: 0x3500, symBinAddr: 0xD8A0, symSize: 0x20 }
  - { offset: 0x94AAE, size: 0x8, addend: 0x0, symName: __ZNK4Json24JsonObjectTemplateFormat12supportsFileERK7QString, symObjAddr: 0x3520, symBinAddr: 0xD8C0, symSize: 0x270 }
  - { offset: 0x94B15, size: 0x8, addend: 0x0, symName: __ZN4Json24JsonObjectTemplateFormat5writeEPKN5Tiled14ObjectTemplateERK7QString, symObjAddr: 0x3790, symBinAddr: 0xDB30, symSize: 0x540 }
  - { offset: 0x94BB1, size: 0x8, addend: 0x0, symName: __ZNK4Json24JsonObjectTemplateFormat10nameFilterEv, symObjAddr: 0x3CD0, symBinAddr: 0xE070, symSize: 0x40 }
  - { offset: 0x94BDA, size: 0x8, addend: 0x0, symName: __ZNK4Json24JsonObjectTemplateFormat9shortNameEv, symObjAddr: 0x3D10, symBinAddr: 0xE0B0, symSize: 0x90 }
  - { offset: 0x94C2C, size: 0x8, addend: 0x0, symName: __ZNK4Json24JsonObjectTemplateFormat11errorStringEv, symObjAddr: 0x3DA0, symBinAddr: 0xE140, symSize: 0x30 }
  - { offset: 0x94C55, size: 0x8, addend: 0x0, symName: __ZN6QFlagsIN13QIODeviceBase12OpenModeFlagEEC1ES1_, symObjAddr: 0x3E40, symBinAddr: 0xE170, symSize: 0x30 }
  - { offset: 0x94C8D, size: 0x8, addend: 0x0, symName: __ZNK6QFlagsIN13QIODeviceBase12OpenModeFlagEEorES1_, symObjAddr: 0x3E70, symBinAddr: 0xE1A0, symSize: 0x40 }
  - { offset: 0x94CC1, size: 0x8, addend: 0x0, symName: __ZN6QFlagsIN13QIODeviceBase12OpenModeFlagEEC2ES1_, symObjAddr: 0x3EB0, symBinAddr: 0xE1E0, symSize: 0x30 }
  - { offset: 0x94CF9, size: 0x8, addend: 0x0, symName: __ZN9QtPrivate19QFlagsStorageHelperIN13QIODeviceBase12OpenModeFlagELi4EECI2NS_13QFlagsStorageIS2_EEENSt3__110in_place_tEj, symObjAddr: 0x3EE0, symBinAddr: 0xE210, symSize: 0x30 }
  - { offset: 0x94D37, size: 0x8, addend: 0x0, symName: __ZN9QtPrivate13QFlagsStorageIN13QIODeviceBase12OpenModeFlagEEC2ENSt3__110in_place_tEj, symObjAddr: 0x3F20, symBinAddr: 0xE240, symSize: 0x20 }
  - { offset: 0x94D7A, size: 0x8, addend: 0x0, symName: __ZN6QFlagsIN13QIODeviceBase12OpenModeFlagEECI1N9QtPrivate13QFlagsStorageIS1_EEENSt3__110in_place_tEj, symObjAddr: 0x3F40, symBinAddr: 0xE260, symSize: 0x30 }
  - { offset: 0x94DB8, size: 0x8, addend: 0x0, symName: __ZN6QFlagsIN13QIODeviceBase12OpenModeFlagEECI2N9QtPrivate13QFlagsStorageIS1_EEENSt3__110in_place_tEj, symObjAddr: 0x3F70, symBinAddr: 0xE290, symSize: 0x30 }
  - { offset: 0x94DF6, size: 0x8, addend: 0x0, symName: __ZNSt3__110unique_ptrIN5Tiled3MapENS_14default_deleteIS2_EEEC2B9nqe210106ILb1EvEEDn, symObjAddr: 0x4110, symBinAddr: 0xE2C0, symSize: 0x20 }
  - { offset: 0x94E41, size: 0x8, addend: 0x0, symName: __ZZNK10QByteArray4sizeEvENKUlvE_clEv, symObjAddr: 0x4130, symBinAddr: 0xE2E0, symSize: 0x50 }
  - { offset: 0x94E6B, size: 0x8, addend: 0x0, symName: __ZN10QByteArray4dataEv, symObjAddr: 0x4180, symBinAddr: 0xE330, symSize: 0x60 }
  - { offset: 0x94E93, size: 0x8, addend: 0x0, symName: __ZN10QByteArray6detachEv, symObjAddr: 0x41E0, symBinAddr: 0xE390, symSize: 0x40 }
  - { offset: 0x94EBB, size: 0x8, addend: 0x0, symName: __ZN17QArrayDataPointerIcE4dataEv, symObjAddr: 0x4220, symBinAddr: 0xE3D0, symSize: 0x20 }
  - { offset: 0x94EE1, size: 0x8, addend: 0x0, symName: __ZNK17QArrayDataPointerIcE11needsDetachEv, symObjAddr: 0x4240, symBinAddr: 0xE3F0, symSize: 0x40 }
  - { offset: 0x94F06, size: 0x8, addend: 0x0, symName: __Z28qToByteArrayViewIgnoringNullI10QByteArrayLb1EE14QByteArrayViewRKT_, symObjAddr: 0x4370, symBinAddr: 0xE430, symSize: 0x50 }
  - { offset: 0x94F44, size: 0x8, addend: 0x0, symName: __ZNK10QByteArray5beginEv, symObjAddr: 0x43C0, symBinAddr: 0xE480, symSize: 0x20 }
  - { offset: 0x94F6A, size: 0x8, addend: 0x0, symName: __ZNK17QArrayDataPointerIcE4dataEv, symObjAddr: 0x4410, symBinAddr: 0xE4A0, symSize: 0x20 }
  - { offset: 0x94F90, size: 0x8, addend: 0x0, symName: __ZN14QByteArrayView21lengthHelperCharArrayEPKcm, symObjAddr: 0x44D0, symBinAddr: 0xE4C0, symSize: 0x90 }
  - { offset: 0x94FDD, size: 0x8, addend: 0x0, symName: __ZNSt3__111char_traitsIcE4findB9nqe210106EPKcmRS2_, symObjAddr: 0x4560, symBinAddr: 0xE550, symSize: 0x40 }
  - { offset: 0x9501C, size: 0x8, addend: 0x0, symName: __ZN10QByteArray4swapERS_, symObjAddr: 0x46C0, symBinAddr: 0xE6B0, symSize: 0x30 }
  - { offset: 0x95050, size: 0x8, addend: 0x0, symName: __ZN17QArrayDataPointerIcE4swapERS0_, symObjAddr: 0x46F0, symBinAddr: 0xE6E0, symSize: 0x60 }
  - { offset: 0x95083, size: 0x8, addend: 0x0, symName: __Z11qt_ptr_swapI15QTypedArrayDataIcEEvRPT_S4_, symObjAddr: 0x4750, symBinAddr: 0xE740, symSize: 0x40 }
  - { offset: 0x950D0, size: 0x8, addend: 0x0, symName: __Z11qt_ptr_swapIcEvRPT_S2_, symObjAddr: 0x4790, symBinAddr: 0xE780, symSize: 0x40 }
  - { offset: 0x9511E, size: 0x8, addend: 0x0, symName: __ZN10QByteArrayD2Ev, symObjAddr: 0x47D0, symBinAddr: 0xE7C0, symSize: 0x20 }
  - { offset: 0x9514A, size: 0x8, addend: 0x0, symName: __ZN17QArrayDataPointerIcED1Ev, symObjAddr: 0x47F0, symBinAddr: 0xE7E0, symSize: 0x20 }
  - { offset: 0x95174, size: 0x8, addend: 0x0, symName: __ZN17QArrayDataPointerIcED2Ev, symObjAddr: 0x4810, symBinAddr: 0xE800, symSize: 0x40 }
  - { offset: 0x9519E, size: 0x8, addend: 0x0, symName: __ZN17QArrayDataPointerIcE5derefEv, symObjAddr: 0x4850, symBinAddr: 0xE840, symSize: 0x40 }
  - { offset: 0x951C4, size: 0x8, addend: 0x0, symName: __ZN17QArrayDataPointerIcEptEv, symObjAddr: 0x4890, symBinAddr: 0xE880, symSize: 0x10 }
  - { offset: 0x951EA, size: 0x8, addend: 0x0, symName: __ZN9QtPrivate12QPodArrayOpsIcE10destroyAllEv, symObjAddr: 0x48A0, symBinAddr: 0xE890, symSize: 0x70 }
  - { offset: 0x95210, size: 0x8, addend: 0x0, symName: __ZN15QTypedArrayDataIcE10deallocateEP10QArrayData, symObjAddr: 0x4910, symBinAddr: 0xE900, symSize: 0x30 }
  - { offset: 0x95233, size: 0x8, addend: 0x0, symName: __ZNK10QByteArray4backEv, symObjAddr: 0x4AA0, symBinAddr: 0xE930, symSize: 0x40 }
  - { offset: 0x95259, size: 0x8, addend: 0x0, symName: __ZNK10QByteArray2atEx, symObjAddr: 0x4AE0, symBinAddr: 0xE970, symSize: 0xF0 }
  - { offset: 0x952C2, size: 0x8, addend: 0x0, symName: __ZN15QJsonParseErrorC2Ev, symObjAddr: 0x4BD0, symBinAddr: 0xEA60, symSize: 0x20 }
  - { offset: 0x952EE, size: 0x8, addend: 0x0, symName: __ZN5Tiled21VariantToMapConverterC2Ev, symObjAddr: 0x4C10, symBinAddr: 0xEA80, symSize: 0xB0 }
  - { offset: 0x95318, size: 0x8, addend: 0x0, symName: __ZN5Tiled21VariantToMapConverterD2Ev, symObjAddr: 0x4CC0, symBinAddr: 0xEB30, symSize: 0x40 }
  - { offset: 0x95344, size: 0x8, addend: 0x0, symName: __ZN5Tiled9GidMapperD1Ev, symObjAddr: 0x4D00, symBinAddr: 0xEB70, symSize: 0x20 }
  - { offset: 0x95370, size: 0x8, addend: 0x0, symName: __ZN5Tiled9GidMapperD2Ev, symObjAddr: 0x4D20, symBinAddr: 0xEB90, symSize: 0x20 }
  - { offset: 0x9539C, size: 0x8, addend: 0x0, symName: __ZN4QMapIj14QSharedPointerIN5Tiled7TilesetEEED1Ev, symObjAddr: 0x4D40, symBinAddr: 0xEBB0, symSize: 0x20 }
  - { offset: 0x953C8, size: 0x8, addend: 0x0, symName: __ZN4QMapIj14QSharedPointerIN5Tiled7TilesetEEED2Ev, symObjAddr: 0x4D60, symBinAddr: 0xEBD0, symSize: 0x20 }
  - { offset: 0x953F4, size: 0x8, addend: 0x0, symName: __ZN9QtPrivate30QExplicitlySharedDataPointerV2I8QMapDataINSt3__13mapIj14QSharedPointerIN5Tiled7TilesetEENS2_4lessIjEENS2_9allocatorINS2_4pairIKjS7_EEEEEEEED1Ev, symObjAddr: 0x4D80, symBinAddr: 0xEBF0, symSize: 0x20 }
  - { offset: 0x9541E, size: 0x8, addend: 0x0, symName: __ZN9QtPrivate30QExplicitlySharedDataPointerV2I8QMapDataINSt3__13mapIj14QSharedPointerIN5Tiled7TilesetEENS2_4lessIjEENS2_9allocatorINS2_4pairIKjS7_EEEEEEEED2Ev, symObjAddr: 0x4DA0, symBinAddr: 0xEC10, symSize: 0x70 }
  - { offset: 0x95448, size: 0x8, addend: 0x0, symName: __ZNK2Qt23totally_ordered_wrapperIP8QMapDataINSt3__13mapIj14QSharedPointerIN5Tiled7TilesetEENS2_4lessIjEENS2_9allocatorINS2_4pairIKjS7_EEEEEEEEcvbEv, symObjAddr: 0x4E10, symBinAddr: 0xEC80, symSize: 0x30 }
  - { offset: 0x9546E, size: 0x8, addend: 0x0, symName: __ZNK2Qt23totally_ordered_wrapperIP8QMapDataINSt3__13mapIj14QSharedPointerIN5Tiled7TilesetEENS2_4lessIjEENS2_9allocatorINS2_4pairIKjS7_EEEEEEEEptEv, symObjAddr: 0x4E40, symBinAddr: 0xECB0, symSize: 0x20 }
  - { offset: 0x95494, size: 0x8, addend: 0x0, symName: __ZNK2Qt23totally_ordered_wrapperIP8QMapDataINSt3__13mapIj14QSharedPointerIN5Tiled7TilesetEENS2_4lessIjEENS2_9allocatorINS2_4pairIKjS7_EEEEEEEE3getEv, symObjAddr: 0x4E60, symBinAddr: 0xECD0, symSize: 0x20 }
  - { offset: 0x954BA, size: 0x8, addend: 0x0, symName: __ZN8QMapDataINSt3__13mapIj14QSharedPointerIN5Tiled7TilesetEENS0_4lessIjEENS0_9allocatorINS0_4pairIKjS5_EEEEEEED1Ev, symObjAddr: 0x4E80, symBinAddr: 0xECF0, symSize: 0x20 }
  - { offset: 0x954E6, size: 0x8, addend: 0x0, symName: __ZN8QMapDataINSt3__13mapIj14QSharedPointerIN5Tiled7TilesetEENS0_4lessIjEENS0_9allocatorINS0_4pairIKjS5_EEEEEEED2Ev, symObjAddr: 0x4EA0, symBinAddr: 0xED10, symSize: 0x20 }
  - { offset: 0x95512, size: 0x8, addend: 0x0, symName: __ZNSt3__13mapIj14QSharedPointerIN5Tiled7TilesetEENS_4lessIjEENS_9allocatorINS_4pairIKjS4_EEEEED1B9nqe210106Ev, symObjAddr: 0x4EC0, symBinAddr: 0xED30, symSize: 0x20 }
  - { offset: 0x9553C, size: 0x8, addend: 0x0, symName: __ZNSt3__13mapIj14QSharedPointerIN5Tiled7TilesetEENS_4lessIjEENS_9allocatorINS_4pairIKjS4_EEEEED2B9nqe210106Ev, symObjAddr: 0x4EE0, symBinAddr: 0xED50, symSize: 0x20 }
  - { offset: 0x95566, size: 0x8, addend: 0x0, symName: __ZNSt3__16__treeINS_12__value_typeIj14QSharedPointerIN5Tiled7TilesetEEEENS_19__map_value_compareIjNS_4pairIKjS5_EENS_4lessIjEELb1EEENS_9allocatorISA_EEED1Ev, symObjAddr: 0x4F00, symBinAddr: 0xED70, symSize: 0x20 }
  - { offset: 0x95592, size: 0x8, addend: 0x0, symName: __ZNSt3__16__treeINS_12__value_typeIj14QSharedPointerIN5Tiled7TilesetEEEENS_19__map_value_compareIjNS_4pairIKjS5_EENS_4lessIjEELb1EEENS_9allocatorISA_EEED2Ev, symObjAddr: 0x4F20, symBinAddr: 0xED90, symSize: 0x30 }
  - { offset: 0x955BE, size: 0x8, addend: 0x0, symName: __ZNSt3__16__treeINS_12__value_typeIj14QSharedPointerIN5Tiled7TilesetEEEENS_19__map_value_compareIjNS_4pairIKjS5_EENS_4lessIjEELb1EEENS_9allocatorISA_EEE7destroyEPNS_11__tree_nodeIS6_PvEE, symObjAddr: 0x4F50, symBinAddr: 0xEDC0, symSize: 0x80 }
  - { offset: 0x9560C, size: 0x8, addend: 0x0, symName: __ZNKSt3__16__treeINS_12__value_typeIj14QSharedPointerIN5Tiled7TilesetEEEENS_19__map_value_compareIjNS_4pairIKjS5_EENS_4lessIjEELb1EEENS_9allocatorISA_EEE6__rootB9nqe210106Ev, symObjAddr: 0x4FD0, symBinAddr: 0xEE40, symSize: 0x20 }
  - { offset: 0x95632, size: 0x8, addend: 0x0, symName: __ZNSt3__16__treeINS_12__value_typeIj14QSharedPointerIN5Tiled7TilesetEEEENS_19__map_value_compareIjNS_4pairIKjS5_EENS_4lessIjEELb1EEENS_9allocatorISA_EEE12__node_allocB9nqe210106Ev, symObjAddr: 0x4FF0, symBinAddr: 0xEE60, symSize: 0x20 }
  - { offset: 0x95658, size: 0x8, addend: 0x0, symName: __ZNSt3__116allocator_traitsINS_9allocatorINS_11__tree_nodeINS_12__value_typeIj14QSharedPointerIN5Tiled7TilesetEEEEPvEEEEE7destroyB9nqe210106INS_4pairIKjS7_EELi0EEEvRSB_PT_, symObjAddr: 0x5010, symBinAddr: 0xEE80, symSize: 0x20 }
  - { offset: 0x95697, size: 0x8, addend: 0x0, symName: __ZNSt3__116allocator_traitsINS_9allocatorINS_11__tree_nodeINS_12__value_typeIj14QSharedPointerIN5Tiled7TilesetEEEEPvEEEEE10deallocateB9nqe210106ERSB_PSA_m, symObjAddr: 0x5030, symBinAddr: 0xEEA0, symSize: 0x30 }
  - { offset: 0x956D9, size: 0x8, addend: 0x0, symName: __ZNSt3__14pairIKj14QSharedPointerIN5Tiled7TilesetEEED1Ev, symObjAddr: 0x5080, symBinAddr: 0xEEF0, symSize: 0x20 }
  - { offset: 0x95705, size: 0x8, addend: 0x0, symName: __ZNSt3__14pairIKj14QSharedPointerIN5Tiled7TilesetEEED2Ev, symObjAddr: 0x50A0, symBinAddr: 0xEF10, symSize: 0x20 }
  - { offset: 0x95731, size: 0x8, addend: 0x0, symName: __ZNSt3__19allocatorINS_11__tree_nodeINS_12__value_typeIj14QSharedPointerIN5Tiled7TilesetEEEEPvEEE10deallocateB9nqe210106EPS9_m, symObjAddr: 0x50C0, symBinAddr: 0xEF30, symSize: 0x30 }
  - { offset: 0x95773, size: 0x8, addend: 0x0, symName: __ZNKSt3__16__treeINS_12__value_typeIj14QSharedPointerIN5Tiled7TilesetEEEENS_19__map_value_compareIjNS_4pairIKjS5_EENS_4lessIjEELb1EEENS_9allocatorISA_EEE10__end_nodeB9nqe210106Ev, symObjAddr: 0x5160, symBinAddr: 0xEFB0, symSize: 0x20 }
  - { offset: 0x95799, size: 0x8, addend: 0x0, symName: __ZNKSt3__110unique_ptrI11QFileDeviceNS_14default_deleteIS1_EEEptB9nqe210106Ev, symObjAddr: 0x5190, symBinAddr: 0xEFD0, symSize: 0x20 }
  - { offset: 0x957BF, size: 0x8, addend: 0x0, symName: __ZN5Tiled21MapToVariantConverterC2Ei, symObjAddr: 0x51B0, symBinAddr: 0xEFF0, symSize: 0xA0 }
  - { offset: 0x957F7, size: 0x8, addend: 0x0, symName: __ZNK6QFlagsIN5Tiled10FileFormat6OptionEE9testFlagsES3_, symObjAddr: 0x5250, symBinAddr: 0xF090, symSize: 0x50 }
  - { offset: 0x9582B, size: 0x8, addend: 0x0, symName: __ZN6QFlagsIN5Tiled10FileFormat6OptionEEC1ES2_, symObjAddr: 0x52A0, symBinAddr: 0xF0E0, symSize: 0x30 }
  - { offset: 0x95863, size: 0x8, addend: 0x0, symName: __ZN6QFlagsIN5Tiled10FileFormat6OptionEEC2ES2_, symObjAddr: 0x52D0, symBinAddr: 0xF110, symSize: 0x30 }
  - { offset: 0x9589B, size: 0x8, addend: 0x0, symName: __ZN9QtPrivate19QFlagsStorageHelperIN5Tiled10FileFormat6OptionELi4EECI2NS_13QFlagsStorageIS3_EEENSt3__110in_place_tEj, symObjAddr: 0x5300, symBinAddr: 0xF140, symSize: 0x30 }
  - { offset: 0x958D9, size: 0x8, addend: 0x0, symName: __ZN9QtPrivate13QFlagsStorageIN5Tiled10FileFormat6OptionEEC2ENSt3__110in_place_tEj, symObjAddr: 0x5330, symBinAddr: 0xF170, symSize: 0x20 }
  - { offset: 0x9591C, size: 0x8, addend: 0x0, symName: __ZNK9QtPrivate16QCheckedIntegers11QCheckedIntIiNS0_13SafeCheckImplIiEENS0_18AssertReportPolicyEE5valueEv, symObjAddr: 0x5350, symBinAddr: 0xF190, symSize: 0x10 }
  - { offset: 0x95942, size: 0x8, addend: 0x0, symName: __ZNKSt3__110unique_ptrI11QFileDeviceNS_14default_deleteIS1_EEE3getB9nqe210106Ev, symObjAddr: 0x5360, symBinAddr: 0xF1A0, symSize: 0x20 }
  - { offset: 0x95968, size: 0x8, addend: 0x0, symName: __ZN5Tiled21MapToVariantConverterD2Ev, symObjAddr: 0x5380, symBinAddr: 0xF1C0, symSize: 0x30 }
  - { offset: 0x95994, size: 0x8, addend: 0x0, symName: __ZN5Tiled8SaveFileD2Ev, symObjAddr: 0x53B0, symBinAddr: 0xF1F0, symSize: 0x20 }
  - { offset: 0x959C0, size: 0x8, addend: 0x0, symName: __ZNSt3__110unique_ptrI11QFileDeviceNS_14default_deleteIS1_EEED1B9nqe210106Ev, symObjAddr: 0x53D0, symBinAddr: 0xF210, symSize: 0x20 }
  - { offset: 0x959EA, size: 0x8, addend: 0x0, symName: __ZNSt3__110unique_ptrI11QFileDeviceNS_14default_deleteIS1_EEED2B9nqe210106Ev, symObjAddr: 0x53F0, symBinAddr: 0xF230, symSize: 0x20 }
  - { offset: 0x95A14, size: 0x8, addend: 0x0, symName: __ZNSt3__110unique_ptrI11QFileDeviceNS_14default_deleteIS1_EEE5resetB9nqe210106EPS1_, symObjAddr: 0x5410, symBinAddr: 0xF250, symSize: 0x40 }
  - { offset: 0x95A59, size: 0x8, addend: 0x0, symName: __ZNKSt3__114default_deleteI11QFileDeviceEclB9nqe210106EPS1_, symObjAddr: 0x5450, symBinAddr: 0xF290, symSize: 0x30 }
  - { offset: 0x95A8C, size: 0x8, addend: 0x0, symName: __Z13comparesEqualRK7QString13QLatin1String, symObjAddr: 0x56A0, symBinAddr: 0xF310, symSize: 0x80 }
  - { offset: 0x95ACA, size: 0x8, addend: 0x0, symName: __ZN11QStringViewC1I7QStringLb1EEERKT_, symObjAddr: 0x5790, symBinAddr: 0xF390, symSize: 0x50 }
  - { offset: 0x95B11, size: 0x8, addend: 0x0, symName: __ZN11QStringViewC1I5QCharLb1EEEPKT_x, symObjAddr: 0x5850, symBinAddr: 0xF3E0, symSize: 0x30 }
  - { offset: 0x95B66, size: 0x8, addend: 0x0, symName: __ZN11QStringViewC2I5QCharLb1EEEPKT_x, symObjAddr: 0x58A0, symBinAddr: 0xF410, symSize: 0x90 }
  - { offset: 0x95BBB, size: 0x8, addend: 0x0, symName: __ZN11QStringView10castHelperI5QCharEEPKDsPKT_, symObjAddr: 0x5930, symBinAddr: 0xF4A0, symSize: 0x10 }
  - { offset: 0x95BE7, size: 0x8, addend: 0x0, symName: __ZN14QSharedPointerIN5Tiled7TilesetEEC2Ev, symObjAddr: 0x5B70, symBinAddr: 0xF4B0, symSize: 0x40 }
  - { offset: 0x95C11, size: 0x8, addend: 0x0, symName: __ZN2Qt23totally_ordered_wrapperIPN5Tiled7TilesetEEC1EDn, symObjAddr: 0x5BB0, symBinAddr: 0xF4F0, symSize: 0x30 }
  - { offset: 0x95C47, size: 0x8, addend: 0x0, symName: __ZN2Qt23totally_ordered_wrapperIPN5Tiled7TilesetEEC1ES3_, symObjAddr: 0x5BE0, symBinAddr: 0xF520, symSize: 0x30 }
  - { offset: 0x95C80, size: 0x8, addend: 0x0, symName: __ZN2Qt23totally_ordered_wrapperIPN5Tiled7TilesetEEC2ES3_, symObjAddr: 0x5C10, symBinAddr: 0xF550, symSize: 0x20 }
  - { offset: 0x95CB9, size: 0x8, addend: 0x0, symName: __ZNSt3__110unique_ptrIN5Tiled14ObjectTemplateENS_14default_deleteIS2_EEEC2B9nqe210106ILb1EvEEDn, symObjAddr: 0x5C30, symBinAddr: 0xF570, symSize: 0x20 }
  - { offset: 0x95CFA, size: 0x8, addend: 0x0, symName: __ZN14QSharedPointerIN5Tiled7TilesetEED2Ev, symObjAddr: 0x5D80, symBinAddr: 0xF590, symSize: 0x20 }
  - { offset: 0x95D24, size: 0x8, addend: 0x0, symName: __ZN14QSharedPointerIN5Tiled7TilesetEE5derefEv, symObjAddr: 0x5DA0, symBinAddr: 0xF5B0, symSize: 0x20 }
  - { offset: 0x95D4A, size: 0x8, addend: 0x0, symName: __ZN14QSharedPointerIN5Tiled7TilesetEE5derefEPN15QtSharedPointer20ExternalRefCountDataE, symObjAddr: 0x5DC0, symBinAddr: 0xF5D0, symSize: 0x70 }
  - { offset: 0x95D6E, size: 0x8, addend: 0x0, symName: __ZN15QtSharedPointer20ExternalRefCountData7destroyEv, symObjAddr: 0x5E30, symBinAddr: 0xF640, symSize: 0x20 }
  - { offset: 0x95D94, size: 0x8, addend: 0x0, symName: __ZN15QtSharedPointer20ExternalRefCountDataD1Ev, symObjAddr: 0x5E50, symBinAddr: 0xF660, symSize: 0x20 }
  - { offset: 0x95DBE, size: 0x8, addend: 0x0, symName: __ZN15QtSharedPointer20ExternalRefCountDatadlEPv, symObjAddr: 0x5E70, symBinAddr: 0xF680, symSize: 0x20 }
  - { offset: 0x95DE1, size: 0x8, addend: 0x0, symName: __ZN15QtSharedPointer20ExternalRefCountDataD2Ev, symObjAddr: 0x5E90, symBinAddr: 0xF6A0, symSize: 0x70 }
  - { offset: 0x95E0B, size: 0x8, addend: 0x0, symName: __ZNSt3__110unique_ptrIN5Tiled3MapENS_14default_deleteIS2_EEED2B9nqe210106Ev, symObjAddr: 0x60C0, symBinAddr: 0xF710, symSize: 0x20 }
  - { offset: 0x95E35, size: 0x8, addend: 0x0, symName: __ZNSt3__110unique_ptrIN5Tiled3MapENS_14default_deleteIS2_EEE5resetB9nqe210106EPS2_, symObjAddr: 0x60E0, symBinAddr: 0xF730, symSize: 0x40 }
  - { offset: 0x95E7A, size: 0x8, addend: 0x0, symName: __ZNKSt3__114default_deleteIN5Tiled3MapEEclB9nqe210106EPS2_, symObjAddr: 0x6120, symBinAddr: 0xF770, symSize: 0x30 }
  - { offset: 0x95EAE, size: 0x8, addend: 0x0, symName: __ZNK14QSharedPointerIN5Tiled7TilesetEE6isNullEv, symObjAddr: 0x61D0, symBinAddr: 0xF7A0, symSize: 0x30 }
  - { offset: 0x95ED4, size: 0x8, addend: 0x0, symName: __ZNK14QSharedPointerIN5Tiled7TilesetEE4dataEv, symObjAddr: 0x6200, symBinAddr: 0xF7D0, symSize: 0x20 }
  - { offset: 0x95EFA, size: 0x8, addend: 0x0, symName: __ZNK2Qt23totally_ordered_wrapperIPN5Tiled7TilesetEE3getEv, symObjAddr: 0x6220, symBinAddr: 0xF7F0, symSize: 0x20 }
  - { offset: 0x95F20, size: 0x8, addend: 0x0, symName: __ZNSt3__110unique_ptrIN5Tiled14ObjectTemplateENS_14default_deleteIS2_EEED2B9nqe210106Ev, symObjAddr: 0x6240, symBinAddr: 0xF810, symSize: 0x20 }
  - { offset: 0x95F4A, size: 0x8, addend: 0x0, symName: __ZNSt3__110unique_ptrIN5Tiled14ObjectTemplateENS_14default_deleteIS2_EEE5resetB9nqe210106EPS2_, symObjAddr: 0x6260, symBinAddr: 0xF830, symSize: 0x40 }
  - { offset: 0x95F8F, size: 0x8, addend: 0x0, symName: __ZNKSt3__114default_deleteIN5Tiled14ObjectTemplateEEclB9nqe210106EPS2_, symObjAddr: 0x62A0, symBinAddr: 0xF870, symSize: 0x36 }
  - { offset: 0x9935B, size: 0x8, addend: 0x0, symName: __ZN9QtPrivate20q_relocate_overlap_nI7QStringxEEvPT_T0_S3_, symObjAddr: 0x22D0, symBinAddr: 0x113F0, symSize: 0x50 }
  - { offset: 0x993B1, size: 0x8, addend: 0x0, symName: __ZN9QtPrivateL19q_points_into_rangeI17QArrayDataPointerI7QStringEPKS2_EEbRKT0_RKT_, symObjAddr: 0x2320, symBinAddr: 0x11440, symSize: 0xA0 }
  - { offset: 0x993FD, size: 0x8, addend: 0x0, symName: __ZN9QtPrivateL19q_points_into_rangeI7QStringNSt3__14lessIvEEEEbPKT_S7_S7_T0_, symObjAddr: 0x23C0, symBinAddr: 0x114E0, symSize: 0x50 }
  - { offset: 0x99481, size: 0x8, addend: 0x0, symName: __ZN4Json10JsonPlugin16staticMetaObjectE, symObjAddr: 0x3B28, symBinAddr: 0x15410, symSize: 0x0 }
  - { offset: 0xA1D4E, size: 0x8, addend: 0x0, symName: __ZNSt3__18in_placeE, symObjAddr: 0x46FC, symBinAddr: 0x13F7C, symSize: 0x0 }
  - { offset: 0xA1D5B, size: 0x8, addend: 0x0, symName: __ZNSt3__14dataB9nqe210106I17QArrayDataPointerI7QStringEEEDTcldtfp_4dataEERKT_, symObjAddr: 0x2410, symBinAddr: 0x11530, symSize: 0x20 }
  - { offset: 0xA1D90, size: 0x8, addend: 0x0, symName: __ZNSt3__18distanceB9nqe210106IPK7QStringEENS_15iterator_traitsIT_E15difference_typeES5_S5_, symObjAddr: 0x2430, symBinAddr: 0x11550, symSize: 0x30 }
  - { offset: 0xA1DD3, size: 0x8, addend: 0x0, symName: __ZNSt3__15beginB9nqe210106I17QArrayDataPointerI7QStringEEEDTcldtfp_5beginEERKT_, symObjAddr: 0x2460, symBinAddr: 0x11580, symSize: 0x20 }
  - { offset: 0xA1E08, size: 0x8, addend: 0x0, symName: __ZNSt3__13endB9nqe210106I17QArrayDataPointerI7QStringEEEDTcldtfp_3endEERKT_, symObjAddr: 0x2490, symBinAddr: 0x115A0, symSize: 0x20 }
  - { offset: 0xA1E7F, size: 0x8, addend: 0x0, symName: __ZNSt3__110__distanceB9nqe210106IPK7QStringEENS_15iterator_traitsIT_E15difference_typeES5_S5_NS_26random_access_iterator_tagE, symObjAddr: 0x2500, symBinAddr: 0x11610, symSize: 0x30 }
  - { offset: 0xA1ECD, size: 0x8, addend: 0x0, symName: __ZNSt3__13getB9nqe210106ILm0EP15QTypedArrayDataI7QStringEPS2_EEONS_13tuple_elementIXT_ENS_4pairIT0_T1_EEE4typeEOSA_, symObjAddr: 0x2CF0, symBinAddr: 0x11DC0, symSize: 0x20 }
  - { offset: 0xA1F17, size: 0x8, addend: 0x0, symName: __ZNSt3__13getB9nqe210106ILm1EP15QTypedArrayDataI7QStringEPS2_EEONS_13tuple_elementIXT_ENS_4pairIT0_T1_EEE4typeEOSA_, symObjAddr: 0x2D10, symBinAddr: 0x11DE0, symSize: 0x20 }
  - { offset: 0xA1FDB, size: 0x8, addend: 0x0, symName: __ZNSt3__17destroyB9nqe210106IP7QStringEEvT_S3_, symObjAddr: 0x35D0, symBinAddr: 0x122C0, symSize: 0x30 }
  - { offset: 0xA201A, size: 0x8, addend: 0x0, symName: __ZNSt3__19__destroyB9nqe210106IP7QStringEET_S3_S3_, symObjAddr: 0x3600, symBinAddr: 0x122F0, symSize: 0x40 }
  - { offset: 0xA205D, size: 0x8, addend: 0x0, symName: __ZNSt3__112__destroy_atB9nqe210106I7QStringLi0EEEvPT_, symObjAddr: 0x3640, symBinAddr: 0x12330, symSize: 0x20 }
  - { offset: 0xADC3B, size: 0x8, addend: 0x0, symName: _qt_plugin_query_metadata_v2, symObjAddr: 0x170, symBinAddr: 0xFA20, symSize: 0x30 }
  - { offset: 0xADC61, size: 0x8, addend: 0x0, symName: __ZZ27qt_plugin_query_metadata_v2E2md, symObjAddr: 0x4448, symBinAddr: 0x13F7D, symSize: 0x0 }
  - { offset: 0xADC84, size: 0x8, addend: 0x0, symName: __ZL30qt_pluginMetaDataV2_JsonPlugin, symObjAddr: 0x4490, symBinAddr: 0x13D10, symSize: 0x0 }
  - { offset: 0xADDF5, size: 0x8, addend: 0x0, symName: _qt_plugin_instance, symObjAddr: 0x200, symBinAddr: 0xFAB0, symSize: 0xC0 }
  - { offset: 0xADE1B, size: 0x8, addend: 0x0, symName: __ZZ18qt_plugin_instanceE9_instance, symObjAddr: 0x16BBE0, symBinAddr: 0x161D0, symSize: 0x0 }
  - { offset: 0xAE1CB, size: 0x8, addend: 0x0, symName: __ZN4Json13JsonMapFormat16staticMetaObjectE, symObjAddr: 0x3B68, symBinAddr: 0x15450, symSize: 0x0 }
  - { offset: 0xBC0DC, size: 0x8, addend: 0x0, symName: __ZN4Json17JsonTilesetFormat16staticMetaObjectE, symObjAddr: 0x3BA8, symBinAddr: 0x15490, symSize: 0x0 }
  - { offset: 0xBC12E, size: 0x8, addend: 0x0, symName: __ZN4Json24JsonObjectTemplateFormat16staticMetaObjectE, symObjAddr: 0x3BE8, symBinAddr: 0x154D0, symSize: 0x0 }
  - { offset: 0xBC17C, size: 0x8, addend: 0x0, symName: __ZTVN4Json10JsonPluginE, symObjAddr: 0x3C20, symBinAddr: 0x15508, symSize: 0x0 }
  - { offset: 0xBC191, size: 0x8, addend: 0x0, symName: __ZTVN4Json13JsonMapFormatE, symObjAddr: 0x3CB0, symBinAddr: 0x15598, symSize: 0x0 }
  - { offset: 0xBC1A6, size: 0x8, addend: 0x0, symName: __ZTVN4Json17JsonTilesetFormatE, symObjAddr: 0x3D78, symBinAddr: 0x15660, symSize: 0x0 }
  - { offset: 0xBC1BB, size: 0x8, addend: 0x0, symName: __ZTVN4Json24JsonObjectTemplateFormatE, symObjAddr: 0x3E38, symBinAddr: 0x15720, symSize: 0x0 }
  - { offset: 0xBC1CF, size: 0x8, addend: 0x0, symName: __ZN4Json10JsonPlugin32qt_staticMetaObjectStaticContentIN12_GLOBAL__N_134qt_meta_tag_ZN4Json10JsonPluginE_tEEE, symObjAddr: 0x4540, symBinAddr: 0x13DC0, symSize: 0x0 }
  - { offset: 0xBC214, size: 0x8, addend: 0x0, symName: __ZN4Json10JsonPlugin36qt_staticMetaObjectRelocatingContentIN12_GLOBAL__N_134qt_meta_tag_ZN4Json10JsonPluginE_tEEE, symObjAddr: 0x3B20, symBinAddr: 0x15408, symSize: 0x0 }
  - { offset: 0xBC232, size: 0x8, addend: 0x0, symName: __ZN9QtPrivate25QMetaTypeInterfaceWrapperIN4Json10JsonPluginEE8metaTypeE, symObjAddr: 0x4700, symBinAddr: 0x16010, symSize: 0x0 }
  - { offset: 0xBC246, size: 0x8, addend: 0x0, symName: __ZN9QtPrivate16QMetaTypeForTypeIN4Json10JsonPluginEE4nameE, symObjAddr: 0x452D, symBinAddr: 0x13DAD, symSize: 0x0 }
  - { offset: 0xBC298, size: 0x8, addend: 0x0, symName: __ZL30qt_pluginMetaDataV2_JsonPlugin, symObjAddr: 0x4490, symBinAddr: 0x13D10, symSize: 0x0 }
  - { offset: 0xBC2B8, size: 0x8, addend: 0x0, symName: __ZN4Json13JsonMapFormat32qt_staticMetaObjectStaticContentIN12_GLOBAL__N_137qt_meta_tag_ZN4Json13JsonMapFormatE_tEEE, symObjAddr: 0x45AC, symBinAddr: 0x13E2C, symSize: 0x0 }
  - { offset: 0xBC2D6, size: 0x8, addend: 0x0, symName: __ZN4Json13JsonMapFormat36qt_staticMetaObjectRelocatingContentIN12_GLOBAL__N_137qt_meta_tag_ZN4Json13JsonMapFormatE_tEEE, symObjAddr: 0x3B60, symBinAddr: 0x15448, symSize: 0x0 }
  - { offset: 0xBC2F4, size: 0x8, addend: 0x0, symName: __ZN9QtPrivate25QMetaTypeInterfaceWrapperIN4Json13JsonMapFormatEE8metaTypeE, symObjAddr: 0x4770, symBinAddr: 0x16080, symSize: 0x0 }
  - { offset: 0xBC308, size: 0x8, addend: 0x0, symName: __ZN9QtPrivate16QMetaTypeForTypeIN4Json13JsonMapFormatEE4nameE, symObjAddr: 0x4598, symBinAddr: 0x13E18, symSize: 0x0 }
  - { offset: 0xBC349, size: 0x8, addend: 0x0, symName: __ZN4Json17JsonTilesetFormat32qt_staticMetaObjectStaticContentIN12_GLOBAL__N_141qt_meta_tag_ZN4Json17JsonTilesetFormatE_tEEE, symObjAddr: 0x461C, symBinAddr: 0x13E9C, symSize: 0x0 }
  - { offset: 0xBC367, size: 0x8, addend: 0x0, symName: __ZN4Json17JsonTilesetFormat36qt_staticMetaObjectRelocatingContentIN12_GLOBAL__N_141qt_meta_tag_ZN4Json17JsonTilesetFormatE_tEEE, symObjAddr: 0x3BA0, symBinAddr: 0x15488, symSize: 0x0 }
  - { offset: 0xBC385, size: 0x8, addend: 0x0, symName: __ZN9QtPrivate25QMetaTypeInterfaceWrapperIN4Json17JsonTilesetFormatEE8metaTypeE, symObjAddr: 0x47E0, symBinAddr: 0x160F0, symSize: 0x0 }
  - { offset: 0xBC399, size: 0x8, addend: 0x0, symName: __ZN9QtPrivate16QMetaTypeForTypeIN4Json17JsonTilesetFormatEE4nameE, symObjAddr: 0x4604, symBinAddr: 0x13E84, symSize: 0x0 }
  - { offset: 0xBC3DA, size: 0x8, addend: 0x0, symName: __ZN4Json24JsonObjectTemplateFormat32qt_staticMetaObjectStaticContentIN12_GLOBAL__N_148qt_meta_tag_ZN4Json24JsonObjectTemplateFormatE_tEEE, symObjAddr: 0x4698, symBinAddr: 0x13F18, symSize: 0x0 }
  - { offset: 0xBC3F8, size: 0x8, addend: 0x0, symName: __ZN4Json24JsonObjectTemplateFormat36qt_staticMetaObjectRelocatingContentIN12_GLOBAL__N_148qt_meta_tag_ZN4Json24JsonObjectTemplateFormatE_tEEE, symObjAddr: 0x3BE0, symBinAddr: 0x154C8, symSize: 0x0 }
  - { offset: 0xBC416, size: 0x8, addend: 0x0, symName: __ZN9QtPrivate25QMetaTypeInterfaceWrapperIN4Json24JsonObjectTemplateFormatEE8metaTypeE, symObjAddr: 0x4850, symBinAddr: 0x16160, symSize: 0x0 }
  - { offset: 0xBC42A, size: 0x8, addend: 0x0, symName: __ZN9QtPrivate16QMetaTypeForTypeIN4Json24JsonObjectTemplateFormatEE4nameE, symObjAddr: 0x4678, symBinAddr: 0x13EF8, symSize: 0x0 }
  - { offset: 0xBC492, size: 0x8, addend: 0x0, symName: __ZN4Json10JsonPlugin18qt_static_metacallEP7QObjectN11QMetaObject4CallEiPPv, symObjAddr: 0x0, symBinAddr: 0xF8B0, symSize: 0x20 }
  - { offset: 0xBC4EF, size: 0x8, addend: 0x0, symName: __ZNK4Json10JsonPlugin10metaObjectEv, symObjAddr: 0x20, symBinAddr: 0xF8D0, symSize: 0x60 }
  - { offset: 0xBC517, size: 0x8, addend: 0x0, symName: __ZNK14QScopedPointerI11QObjectData21QScopedPointerDeleterIS0_EEptEv, symObjAddr: 0x80, symBinAddr: 0xF930, symSize: 0x20 }
  - { offset: 0xBC53D, size: 0x8, addend: 0x0, symName: __ZN4Json10JsonPlugin11qt_metacastEPKc, symObjAddr: 0xA0, symBinAddr: 0xF950, symSize: 0x90 }
  - { offset: 0xBC573, size: 0x8, addend: 0x0, symName: __ZN4Json10JsonPlugin11qt_metacallEN11QMetaObject4CallEiPPv, symObjAddr: 0x130, symBinAddr: 0xF9E0, symSize: 0x40 }
  - { offset: 0xBC5C5, size: 0x8, addend: 0x0, symName: __ZNK17QPluginMetaDataV2IL_ZL30qt_pluginMetaDataV2_JsonPluginEEcv15QPluginMetaDataEv, symObjAddr: 0x1A0, symBinAddr: 0xFA50, symSize: 0x60 }
  - { offset: 0xBC5EB, size: 0x8, addend: 0x0, symName: __ZN8QPointerI7QObjectED1Ev, symObjAddr: 0x2C0, symBinAddr: 0xFB70, symSize: 0x20 }
  - { offset: 0xBC617, size: 0x8, addend: 0x0, symName: __ZNK8QPointerI7QObjectEcvbEv, symObjAddr: 0x2E0, symBinAddr: 0xFB90, symSize: 0x20 }
  - { offset: 0xBC63D, size: 0x8, addend: 0x0, symName: __ZN4Json10JsonPluginC1Ev, symObjAddr: 0x300, symBinAddr: 0xFBB0, symSize: 0x20 }
  - { offset: 0xBC669, size: 0x8, addend: 0x0, symName: __ZN8QPointerI7QObjectEaSEPS0_, symObjAddr: 0x320, symBinAddr: 0xFBD0, symSize: 0x30 }
  - { offset: 0xBC69D, size: 0x8, addend: 0x0, symName: __ZNK8QPointerI7QObjectEcvPS0_Ev, symObjAddr: 0x350, symBinAddr: 0xFC00, symSize: 0x20 }
  - { offset: 0xBC6C3, size: 0x8, addend: 0x0, symName: __ZN4Json13JsonMapFormat18qt_static_metacallEP7QObjectN11QMetaObject4CallEiPPv, symObjAddr: 0x370, symBinAddr: 0xFC20, symSize: 0x20 }
  - { offset: 0xBC720, size: 0x8, addend: 0x0, symName: __ZNK4Json13JsonMapFormat10metaObjectEv, symObjAddr: 0x390, symBinAddr: 0xFC40, symSize: 0x60 }
  - { offset: 0xBC748, size: 0x8, addend: 0x0, symName: __ZN4Json13JsonMapFormat11qt_metacastEPKc, symObjAddr: 0x3F0, symBinAddr: 0xFCA0, symSize: 0x90 }
  - { offset: 0xBC77E, size: 0x8, addend: 0x0, symName: __ZN4Json13JsonMapFormat11qt_metacallEN11QMetaObject4CallEiPPv, symObjAddr: 0x480, symBinAddr: 0xFD30, symSize: 0x40 }
  - { offset: 0xBC7D0, size: 0x8, addend: 0x0, symName: __ZN4Json17JsonTilesetFormat18qt_static_metacallEP7QObjectN11QMetaObject4CallEiPPv, symObjAddr: 0x4C0, symBinAddr: 0xFD70, symSize: 0x20 }
  - { offset: 0xBC82D, size: 0x8, addend: 0x0, symName: __ZNK4Json17JsonTilesetFormat10metaObjectEv, symObjAddr: 0x4E0, symBinAddr: 0xFD90, symSize: 0x60 }
  - { offset: 0xBC855, size: 0x8, addend: 0x0, symName: __ZN4Json17JsonTilesetFormat11qt_metacastEPKc, symObjAddr: 0x540, symBinAddr: 0xFDF0, symSize: 0x90 }
  - { offset: 0xBC88B, size: 0x8, addend: 0x0, symName: __ZN4Json17JsonTilesetFormat11qt_metacallEN11QMetaObject4CallEiPPv, symObjAddr: 0x5D0, symBinAddr: 0xFE80, symSize: 0x40 }
  - { offset: 0xBC8DD, size: 0x8, addend: 0x0, symName: __ZN4Json24JsonObjectTemplateFormat18qt_static_metacallEP7QObjectN11QMetaObject4CallEiPPv, symObjAddr: 0x610, symBinAddr: 0xFEC0, symSize: 0x20 }
  - { offset: 0xBC941, size: 0x8, addend: 0x0, symName: __ZNK4Json24JsonObjectTemplateFormat10metaObjectEv, symObjAddr: 0x630, symBinAddr: 0xFEE0, symSize: 0x60 }
  - { offset: 0xBC96A, size: 0x8, addend: 0x0, symName: __ZN4Json24JsonObjectTemplateFormat11qt_metacastEPKc, symObjAddr: 0x690, symBinAddr: 0xFF40, symSize: 0x90 }
  - { offset: 0xBC9A2, size: 0x8, addend: 0x0, symName: __ZN4Json24JsonObjectTemplateFormat11qt_metacallEN11QMetaObject4CallEiPPv, symObjAddr: 0x720, symBinAddr: 0xFFD0, symSize: 0x40 }
  - { offset: 0xBC9F8, size: 0x8, addend: 0x0, symName: __ZN4Json10JsonPluginD1Ev, symObjAddr: 0x760, symBinAddr: 0x10010, symSize: 0x20 }
  - { offset: 0xBCA24, size: 0x8, addend: 0x0, symName: __ZN4Json10JsonPluginD0Ev, symObjAddr: 0x780, symBinAddr: 0x10030, symSize: 0x30 }
  - { offset: 0xBCA50, size: 0x8, addend: 0x0, symName: __ZN4Json13JsonMapFormatD1Ev, symObjAddr: 0x7B0, symBinAddr: 0x10060, symSize: 0x20 }
  - { offset: 0xBCA7C, size: 0x8, addend: 0x0, symName: __ZN4Json13JsonMapFormatD0Ev, symObjAddr: 0x7D0, symBinAddr: 0x10080, symSize: 0x30 }
  - { offset: 0xBCAA8, size: 0x8, addend: 0x0, symName: __ZNK5Tiled9MapFormat11outputFilesEPKNS_3MapERK7QString, symObjAddr: 0x800, symBinAddr: 0x100B0, symSize: 0x40 }
  - { offset: 0xBCAE7, size: 0x8, addend: 0x0, symName: __ZN4Json17JsonTilesetFormatD1Ev, symObjAddr: 0x840, symBinAddr: 0x100F0, symSize: 0x20 }
  - { offset: 0xBCB13, size: 0x8, addend: 0x0, symName: __ZN4Json17JsonTilesetFormatD0Ev, symObjAddr: 0x860, symBinAddr: 0x10110, symSize: 0x30 }
  - { offset: 0xBCB3F, size: 0x8, addend: 0x0, symName: __ZN4Json24JsonObjectTemplateFormatD1Ev, symObjAddr: 0x890, symBinAddr: 0x10140, symSize: 0x20 }
  - { offset: 0xBCB6B, size: 0x8, addend: 0x0, symName: __ZN4Json24JsonObjectTemplateFormatD0Ev, symObjAddr: 0x8B0, symBinAddr: 0x10160, symSize: 0x30 }
  - { offset: 0xBCB97, size: 0x8, addend: 0x0, symName: __ZN9QtPrivate17MetaObjectForTypeIN4Json10JsonPluginEvE18metaObjectFunctionEPKNS_18QMetaTypeInterfaceE, symObjAddr: 0x8E0, symBinAddr: 0x10190, symSize: 0x20 }
  - { offset: 0xBCBEB, size: 0x8, addend: 0x0, symName: __ZZN9QtPrivate16QMetaTypeForTypeIN4Json10JsonPluginEE13getDefaultCtrEvENUlPKNS_18QMetaTypeInterfaceEPvE_8__invokeES6_S7_, symObjAddr: 0x900, symBinAddr: 0x101B0, symSize: 0x30 }
  - { offset: 0xBCC50, size: 0x8, addend: 0x0, symName: __ZZN9QtPrivate16QMetaTypeForTypeIN4Json10JsonPluginEE7getDtorEvENUlPKNS_18QMetaTypeInterfaceEPvE_8__invokeES6_S7_, symObjAddr: 0x930, symBinAddr: 0x101E0, symSize: 0x30 }
  - { offset: 0xBCC8C, size: 0x8, addend: 0x0, symName: __ZZN9QtPrivate16QMetaTypeForTypeIN4Json10JsonPluginEE13getDefaultCtrEvENKUlPKNS_18QMetaTypeInterfaceEPvE_clES6_S7_, symObjAddr: 0x960, symBinAddr: 0x10210, symSize: 0x40 }
  - { offset: 0xBCCDB, size: 0x8, addend: 0x0, symName: __ZZN9QtPrivate16QMetaTypeForTypeIN4Json10JsonPluginEE7getDtorEvENKUlPKNS_18QMetaTypeInterfaceEPvE_clES6_S7_, symObjAddr: 0x9A0, symBinAddr: 0x10250, symSize: 0x30 }
  - { offset: 0xBCD20, size: 0x8, addend: 0x0, symName: __ZN8QPointerI7QObjectED2Ev, symObjAddr: 0x9D0, symBinAddr: 0x10280, symSize: 0x20 }
  - { offset: 0xBCD4C, size: 0x8, addend: 0x0, symName: __ZN12QWeakPointerI7QObjectED1Ev, symObjAddr: 0x9F0, symBinAddr: 0x102A0, symSize: 0x20 }
  - { offset: 0xBCD76, size: 0x8, addend: 0x0, symName: __ZN12QWeakPointerI7QObjectED2Ev, symObjAddr: 0xA10, symBinAddr: 0x102C0, symSize: 0x60 }
  - { offset: 0xBCDA0, size: 0x8, addend: 0x0, symName: __ZN4Json10JsonPluginC2Ev, symObjAddr: 0xD20, symBinAddr: 0x10320, symSize: 0x40 }
  - { offset: 0xBCDCC, size: 0x8, addend: 0x0, symName: __ZN5Tiled6PluginC2Ev, symObjAddr: 0xD60, symBinAddr: 0x10360, symSize: 0x40 }
  - { offset: 0xBCDF8, size: 0x8, addend: 0x0, symName: __ZN5QListIP7QObjectEC1Ev, symObjAddr: 0xDA0, symBinAddr: 0x103A0, symSize: 0x20 }
  - { offset: 0xBCE22, size: 0x8, addend: 0x0, symName: __ZN5QListIP7QObjectEC2Ev, symObjAddr: 0xDC0, symBinAddr: 0x103C0, symSize: 0x20 }
  - { offset: 0xBCE4C, size: 0x8, addend: 0x0, symName: __ZN17QArrayDataPointerIP7QObjectEC1Ev, symObjAddr: 0xDE0, symBinAddr: 0x103E0, symSize: 0x20 }
  - { offset: 0xBCE76, size: 0x8, addend: 0x0, symName: __ZN17QArrayDataPointerIP7QObjectEC2Ev, symObjAddr: 0xE00, symBinAddr: 0x10400, symSize: 0x30 }
  - { offset: 0xBCEA0, size: 0x8, addend: 0x0, symName: __ZN9QtPrivate17MetaObjectForTypeIN4Json13JsonMapFormatEvE18metaObjectFunctionEPKNS_18QMetaTypeInterfaceE, symObjAddr: 0xE30, symBinAddr: 0x10430, symSize: 0x20 }
  - { offset: 0xBCEF4, size: 0x8, addend: 0x0, symName: __ZZN9QtPrivate16QMetaTypeForTypeIN4Json13JsonMapFormatEE7getDtorEvENUlPKNS_18QMetaTypeInterfaceEPvE_8__invokeES6_S7_, symObjAddr: 0xE50, symBinAddr: 0x10450, symSize: 0x30 }
  - { offset: 0xBCF30, size: 0x8, addend: 0x0, symName: __ZZN9QtPrivate16QMetaTypeForTypeIN4Json13JsonMapFormatEE7getDtorEvENKUlPKNS_18QMetaTypeInterfaceEPvE_clES6_S7_, symObjAddr: 0xE80, symBinAddr: 0x10480, symSize: 0x30 }
  - { offset: 0xBCF75, size: 0x8, addend: 0x0, symName: __ZN9QtPrivate17MetaObjectForTypeIN4Json17JsonTilesetFormatEvE18metaObjectFunctionEPKNS_18QMetaTypeInterfaceE, symObjAddr: 0xEB0, symBinAddr: 0x104B0, symSize: 0x20 }
  - { offset: 0xBCFC9, size: 0x8, addend: 0x0, symName: __ZZN9QtPrivate16QMetaTypeForTypeIN4Json17JsonTilesetFormatEE13getDefaultCtrEvENUlPKNS_18QMetaTypeInterfaceEPvE_8__invokeES6_S7_, symObjAddr: 0xED0, symBinAddr: 0x104D0, symSize: 0x30 }
  - { offset: 0xBD02E, size: 0x8, addend: 0x0, symName: __ZZN9QtPrivate16QMetaTypeForTypeIN4Json17JsonTilesetFormatEE7getDtorEvENUlPKNS_18QMetaTypeInterfaceEPvE_8__invokeES6_S7_, symObjAddr: 0xF00, symBinAddr: 0x10500, symSize: 0x30 }
  - { offset: 0xBD06A, size: 0x8, addend: 0x0, symName: __ZZN9QtPrivate16QMetaTypeForTypeIN4Json17JsonTilesetFormatEE13getDefaultCtrEvENKUlPKNS_18QMetaTypeInterfaceEPvE_clES6_S7_, symObjAddr: 0xF30, symBinAddr: 0x10530, symSize: 0x30 }
  - { offset: 0xBD0B9, size: 0x8, addend: 0x0, symName: __ZZN9QtPrivate16QMetaTypeForTypeIN4Json17JsonTilesetFormatEE7getDtorEvENKUlPKNS_18QMetaTypeInterfaceEPvE_clES6_S7_, symObjAddr: 0xF60, symBinAddr: 0x10560, symSize: 0x30 }
  - { offset: 0xBD0FE, size: 0x8, addend: 0x0, symName: __ZN9QtPrivate17MetaObjectForTypeIN4Json24JsonObjectTemplateFormatEvE18metaObjectFunctionEPKNS_18QMetaTypeInterfaceE, symObjAddr: 0xF90, symBinAddr: 0x10590, symSize: 0x20 }
  - { offset: 0xBD152, size: 0x8, addend: 0x0, symName: __ZZN9QtPrivate16QMetaTypeForTypeIN4Json24JsonObjectTemplateFormatEE13getDefaultCtrEvENUlPKNS_18QMetaTypeInterfaceEPvE_8__invokeES6_S7_, symObjAddr: 0xFB0, symBinAddr: 0x105B0, symSize: 0x30 }
  - { offset: 0xBD1B7, size: 0x8, addend: 0x0, symName: __ZZN9QtPrivate16QMetaTypeForTypeIN4Json24JsonObjectTemplateFormatEE7getDtorEvENUlPKNS_18QMetaTypeInterfaceEPvE_8__invokeES6_S7_, symObjAddr: 0xFE0, symBinAddr: 0x105E0, symSize: 0x30 }
  - { offset: 0xBD1F3, size: 0x8, addend: 0x0, symName: __ZZN9QtPrivate16QMetaTypeForTypeIN4Json24JsonObjectTemplateFormatEE13getDefaultCtrEvENKUlPKNS_18QMetaTypeInterfaceEPvE_clES6_S7_, symObjAddr: 0x1010, symBinAddr: 0x10610, symSize: 0x30 }
  - { offset: 0xBD242, size: 0x8, addend: 0x0, symName: __ZZN9QtPrivate16QMetaTypeForTypeIN4Json24JsonObjectTemplateFormatEE7getDtorEvENKUlPKNS_18QMetaTypeInterfaceEPvE_clES6_S7_, symObjAddr: 0x1040, symBinAddr: 0x10640, symSize: 0x30 }
  - { offset: 0xBD287, size: 0x8, addend: 0x0, symName: __ZN4Json10JsonPluginD2Ev, symObjAddr: 0x1070, symBinAddr: 0x10670, symSize: 0x20 }
  - { offset: 0xBD2B3, size: 0x8, addend: 0x0, symName: __ZN4Json13JsonMapFormatD2Ev, symObjAddr: 0x1090, symBinAddr: 0x10690, symSize: 0x40 }
  - { offset: 0xBD2DF, size: 0x8, addend: 0x0, symName: __ZN5Tiled9MapFormatD2Ev, symObjAddr: 0x10F0, symBinAddr: 0x106D0, symSize: 0x20 }
  - { offset: 0xBD30B, size: 0x8, addend: 0x0, symName: __ZN5Tiled10FileFormatD2Ev, symObjAddr: 0x12A0, symBinAddr: 0x106F0, symSize: 0x20 }
  - { offset: 0xBD337, size: 0x8, addend: 0x0, symName: __ZN5QListI7QStringEC1IS0_vEERKT_, symObjAddr: 0x12C0, symBinAddr: 0x10710, symSize: 0x30 }
  - { offset: 0xBD37B, size: 0x8, addend: 0x0, symName: __ZN5QListI7QStringEC2IS0_vEERKT_, symObjAddr: 0x12F0, symBinAddr: 0x10740, symSize: 0x50 }
  - { offset: 0xBD3BF, size: 0x8, addend: 0x0, symName: __ZN17QArrayDataPointerI7QStringEC1Ev, symObjAddr: 0x1340, symBinAddr: 0x10790, symSize: 0x20 }
  - { offset: 0xBD3E9, size: 0x8, addend: 0x0, symName: __ZN5QListI7QStringE6appendERKS0_, symObjAddr: 0x1360, symBinAddr: 0x107B0, symSize: 0x30 }
  - { offset: 0xBD41E, size: 0x8, addend: 0x0, symName: __ZN17QArrayDataPointerI7QStringED1Ev, symObjAddr: 0x1390, symBinAddr: 0x107E0, symSize: 0x20 }
  - { offset: 0xBD448, size: 0x8, addend: 0x0, symName: __ZN17QArrayDataPointerI7QStringEC2Ev, symObjAddr: 0x13B0, symBinAddr: 0x10800, symSize: 0x30 }
  - { offset: 0xBD472, size: 0x8, addend: 0x0, symName: __ZN5QListI7QStringE11emplaceBackIJRKS0_EEERS0_DpOT_, symObjAddr: 0x13E0, symBinAddr: 0x10830, symSize: 0x70 }
  - { offset: 0xBD4B4, size: 0x8, addend: 0x0, symName: __ZN17QArrayDataPointerI7QStringEptEv, symObjAddr: 0x1450, symBinAddr: 0x108A0, symSize: 0x10 }
  - { offset: 0xBD4DA, size: 0x8, addend: 0x0, symName: __ZN9QtPrivate16QMovableArrayOpsI7QStringE7emplaceIJRKS1_EEEvxDpOT_, symObjAddr: 0x1460, symBinAddr: 0x108B0, symSize: 0x210 }
  - { offset: 0xBD56B, size: 0x8, addend: 0x0, symName: __ZN5QListI7QStringE3endEv, symObjAddr: 0x1670, symBinAddr: 0x10AC0, symSize: 0x40 }
  - { offset: 0xBD591, size: 0x8, addend: 0x0, symName: __ZNK5QListI7QStringE8iteratormiEx, symObjAddr: 0x16B0, symBinAddr: 0x10B00, symSize: 0x40 }
  - { offset: 0xBD5C5, size: 0x8, addend: 0x0, symName: __ZNK5QListI7QStringE8iteratordeEv, symObjAddr: 0x16F0, symBinAddr: 0x10B40, symSize: 0x20 }
  - { offset: 0xBD5EB, size: 0x8, addend: 0x0, symName: __ZNK17QArrayDataPointerI7QStringE11needsDetachEv, symObjAddr: 0x1710, symBinAddr: 0x10B60, symSize: 0x40 }
  - { offset: 0xBD611, size: 0x8, addend: 0x0, symName: __ZNK17QArrayDataPointerI7QStringE14freeSpaceAtEndEv, symObjAddr: 0x1750, symBinAddr: 0x10BA0, symSize: 0x60 }
  - { offset: 0xBD637, size: 0x8, addend: 0x0, symName: __ZN17QArrayDataPointerI7QStringE3endEv, symObjAddr: 0x17B0, symBinAddr: 0x10C00, symSize: 0x30 }
  - { offset: 0xBD65D, size: 0x8, addend: 0x0, symName: __ZNK17QArrayDataPointerI7QStringE16freeSpaceAtBeginEv, symObjAddr: 0x1810, symBinAddr: 0x10C30, symSize: 0x60 }
  - { offset: 0xBD683, size: 0x8, addend: 0x0, symName: __ZN17QArrayDataPointerI7QStringE5beginEv, symObjAddr: 0x1870, symBinAddr: 0x10C90, symSize: 0x20 }
  - { offset: 0xBD6A9, size: 0x8, addend: 0x0, symName: __ZN17QArrayDataPointerI7QStringE13detachAndGrowEN10QArrayData14GrowthPositionExPPKS0_PS1_, symObjAddr: 0x1890, symBinAddr: 0x10CB0, symSize: 0x100 }
  - { offset: 0xBD746, size: 0x8, addend: 0x0, symName: __ZN9QtPrivate16QMovableArrayOpsI7QStringE8InserterC1EP17QArrayDataPointerIS1_Exx, symObjAddr: 0x19C0, symBinAddr: 0x10DB0, symSize: 0x40 }
  - { offset: 0xBD79D, size: 0x8, addend: 0x0, symName: __ZN9QtPrivate16QMovableArrayOpsI7QStringE8Inserter9insertOneEOS1_, symObjAddr: 0x1A00, symBinAddr: 0x10DF0, symSize: 0x40 }
  - { offset: 0xBD7D2, size: 0x8, addend: 0x0, symName: __ZN9QtPrivate16QMovableArrayOpsI7QStringE8InserterD1Ev, symObjAddr: 0x1A40, symBinAddr: 0x10E30, symSize: 0x20 }
  - { offset: 0xBD7FC, size: 0x8, addend: 0x0, symName: __ZN17QArrayDataPointerI7QStringE4dataEv, symObjAddr: 0x1AB0, symBinAddr: 0x10E50, symSize: 0x20 }
  - { offset: 0xBD822, size: 0x8, addend: 0x0, symName: __ZN15QTypedArrayDataI7QStringE9dataStartEP10QArrayDatax, symObjAddr: 0x1D00, symBinAddr: 0x10E70, symSize: 0x80 }
  - { offset: 0xBD861, size: 0x8, addend: 0x0, symName: __ZN17QArrayDataPointerI7QStringE20tryReadjustFreeSpaceEN10QArrayData14GrowthPositionExPPKS0_, symObjAddr: 0x1D80, symBinAddr: 0x10EF0, symSize: 0x1E0 }
  - { offset: 0xBD8F5, size: 0x8, addend: 0x0, symName: __ZN17QArrayDataPointerI7QStringE17reallocateAndGrowEN10QArrayData14GrowthPositionExPS1_, symObjAddr: 0x1F60, symBinAddr: 0x110D0, symSize: 0x260 }
  - { offset: 0xBD971, size: 0x8, addend: 0x0, symName: __ZNK17QArrayDataPointerI7QStringE22constAllocatedCapacityEv, symObjAddr: 0x21C0, symBinAddr: 0x11330, symSize: 0x40 }
  - { offset: 0xBD997, size: 0x8, addend: 0x0, symName: __ZN17QArrayDataPointerI7QStringE8relocateExPPKS0_, symObjAddr: 0x2250, symBinAddr: 0x11370, symSize: 0x80 }
  - { offset: 0xBD9FA, size: 0x8, addend: 0x0, symName: __ZNKSt3__14lessIvEclB9nqe210106IRPK7QStringS6_EEDTltclsr3stdE7forwardIT_Efp_Eclsr3stdE7forwardIT0_Efp0_EEOS7_OS8_, symObjAddr: 0x24B0, symBinAddr: 0x115C0, symSize: 0x30 }
  - { offset: 0xBDA50, size: 0x8, addend: 0x0, symName: __ZNK17QArrayDataPointerI7QStringE4dataEv, symObjAddr: 0x24E0, symBinAddr: 0x115F0, symSize: 0x20 }
  - { offset: 0xBDA76, size: 0x8, addend: 0x0, symName: __ZNK17QArrayDataPointerI7QStringE5beginEv, symObjAddr: 0x2530, symBinAddr: 0x11640, symSize: 0x20 }
  - { offset: 0xBDA9C, size: 0x8, addend: 0x0, symName: __ZNK17QArrayDataPointerI7QStringE3endEv, symObjAddr: 0x2550, symBinAddr: 0x11660, symSize: 0x30 }
  - { offset: 0xBDAC2, size: 0x8, addend: 0x0, symName: __ZN9QtPrivate16QMovableArrayOpsI7QStringE10reallocateExN10QArrayData16AllocationOptionE, symObjAddr: 0x2580, symBinAddr: 0x11690, symSize: 0x80 }
  - { offset: 0xBDB16, size: 0x8, addend: 0x0, symName: __ZN17QArrayDataPointerI7QStringE12allocateGrowERKS1_xN10QArrayData14GrowthPositionE, symObjAddr: 0x2600, symBinAddr: 0x11710, symSize: 0x230 }
  - { offset: 0xBDBB5, size: 0x8, addend: 0x0, symName: __ZN9QtPrivate16QGenericArrayOpsI7QStringE10copyAppendEPKS1_S4_, symObjAddr: 0x2830, symBinAddr: 0x11940, symSize: 0x150 }
  - { offset: 0xBDC09, size: 0x8, addend: 0x0, symName: __ZN9QtPrivate16QGenericArrayOpsI7QStringE10moveAppendEPS1_S3_, symObjAddr: 0x2980, symBinAddr: 0x11A90, symSize: 0x150 }
  - { offset: 0xBDC5D, size: 0x8, addend: 0x0, symName: __ZN17QArrayDataPointerI7QStringE4swapERS1_, symObjAddr: 0x2AD0, symBinAddr: 0x11BE0, symSize: 0x60 }
  - { offset: 0xBDC91, size: 0x8, addend: 0x0, symName: __ZN15QTypedArrayDataI7QStringE19reallocateUnalignedEPS1_PS0_xN10QArrayData16AllocationOptionE, symObjAddr: 0x2B30, symBinAddr: 0x11C40, symSize: 0x70 }
  - { offset: 0xBDCF6, size: 0x8, addend: 0x0, symName: __ZNSt3__14pairIP15QTypedArrayDataI7QStringEPS2_EC1B9nqe210106IS4_S5_Li0EEEOT_OT0_, symObjAddr: 0x2BA0, symBinAddr: 0x11CB0, symSize: 0x30 }
  - { offset: 0xBDD54, size: 0x8, addend: 0x0, symName: __ZNSt3__14pairIP15QTypedArrayDataI7QStringEPS2_EC2B9nqe210106IS4_S5_Li0EEEOT_OT0_, symObjAddr: 0x2BD0, symBinAddr: 0x11CE0, symSize: 0x30 }
  - { offset: 0xBDDB2, size: 0x8, addend: 0x0, symName: __ZNK17QArrayDataPointerI7QStringE14detachCapacityEx, symObjAddr: 0x2C40, symBinAddr: 0x11D10, symSize: 0x50 }
  - { offset: 0xBDDE7, size: 0x8, addend: 0x0, symName: __ZN15QTypedArrayDataI7QStringE8allocateExN10QArrayData16AllocationOptionE, symObjAddr: 0x2C90, symBinAddr: 0x11D60, symSize: 0x60 }
  - { offset: 0xBDE34, size: 0x8, addend: 0x0, symName: __ZN17QArrayDataPointerI7QStringEC1EP15QTypedArrayDataIS0_EPS0_x, symObjAddr: 0x2D30, symBinAddr: 0x11E00, symSize: 0x40 }
  - { offset: 0xBDE88, size: 0x8, addend: 0x0, symName: __ZNK17QArrayDataPointerI7QStringE5flagsEv, symObjAddr: 0x2D70, symBinAddr: 0x11E40, symSize: 0x40 }
  - { offset: 0xBDEAE, size: 0x8, addend: 0x0, symName: __ZNSt3__110__get_pairILm0EE3getB9nqe210106IP15QTypedArrayDataI7QStringEPS4_EEOT_ONS_4pairIS8_T0_EE, symObjAddr: 0x2F40, symBinAddr: 0x11E80, symSize: 0x10 }
  - { offset: 0xBDEE4, size: 0x8, addend: 0x0, symName: __ZNSt3__110__get_pairILm1EE3getB9nqe210106IP15QTypedArrayDataI7QStringEPS4_EEOT0_ONS_4pairIT_S8_EE, symObjAddr: 0x2F50, symBinAddr: 0x11E90, symSize: 0x20 }
  - { offset: 0xBDF1A, size: 0x8, addend: 0x0, symName: __ZN17QArrayDataPointerI7QStringEC2EP15QTypedArrayDataIS0_EPS0_x, symObjAddr: 0x2F70, symBinAddr: 0x11EB0, symSize: 0x40 }
  - { offset: 0xBDF6E, size: 0x8, addend: 0x0, symName: __ZNK17QArrayDataPointerI7QStringE9isMutableEv, symObjAddr: 0x3010, symBinAddr: 0x11EF0, symSize: 0x20 }
  - { offset: 0xBDF94, size: 0x8, addend: 0x0, symName: __ZNK17QArrayDataPointerI7QStringE8isSharedEv, symObjAddr: 0x3030, symBinAddr: 0x11F10, symSize: 0x40 }
  - { offset: 0xBDFB9, size: 0x8, addend: 0x0, symName: __Z11qt_ptr_swapI15QTypedArrayDataI7QStringEEvRPT_S5_, symObjAddr: 0x30A0, symBinAddr: 0x11F50, symSize: 0x40 }
  - { offset: 0xBE006, size: 0x8, addend: 0x0, symName: __Z11qt_ptr_swapI7QStringEvRPT_S3_, symObjAddr: 0x30E0, symBinAddr: 0x11F90, symSize: 0x40 }
  - { offset: 0xBE054, size: 0x8, addend: 0x0, symName: __ZN9QtPrivate16QMovableArrayOpsI7QStringE8InserterC2EP17QArrayDataPointerIS1_Exx, symObjAddr: 0x32E0, symBinAddr: 0x11FD0, symSize: 0x80 }
  - { offset: 0xBE0AB, size: 0x8, addend: 0x0, symName: __ZN9QtPrivate16QMovableArrayOpsI7QStringE8Inserter10verifyPostEv, symObjAddr: 0x3360, symBinAddr: 0x12050, symSize: 0x40 }
  - { offset: 0xBE0D1, size: 0x8, addend: 0x0, symName: __ZN9QtPrivate16QMovableArrayOpsI7QStringE8InserterD2Ev, symObjAddr: 0x33A0, symBinAddr: 0x12090, symSize: 0x30 }
  - { offset: 0xBE11A, size: 0x8, addend: 0x0, symName: __ZN5QListI7QStringE6detachEv, symObjAddr: 0x33D0, symBinAddr: 0x120C0, symSize: 0x20 }
  - { offset: 0xBE140, size: 0x8, addend: 0x0, symName: __ZN5QListI7QStringE8iteratorC1EPS0_, symObjAddr: 0x33F0, symBinAddr: 0x120E0, symSize: 0x30 }
  - { offset: 0xBE178, size: 0x8, addend: 0x0, symName: __ZN17QArrayDataPointerI7QStringE6detachEPS1_, symObjAddr: 0x3420, symBinAddr: 0x12110, symSize: 0x40 }
  - { offset: 0xBE1AC, size: 0x8, addend: 0x0, symName: __ZN5QListI7QStringE8iteratorC2EPS0_, symObjAddr: 0x3460, symBinAddr: 0x12150, symSize: 0x20 }
  - { offset: 0xBE1E4, size: 0x8, addend: 0x0, symName: __ZN17QArrayDataPointerI7QStringED2Ev, symObjAddr: 0x3480, symBinAddr: 0x12170, symSize: 0x50 }
  - { offset: 0xBE20E, size: 0x8, addend: 0x0, symName: __ZN17QArrayDataPointerI7QStringE5derefEv, symObjAddr: 0x34D0, symBinAddr: 0x121C0, symSize: 0x40 }
  - { offset: 0xBE234, size: 0x8, addend: 0x0, symName: __ZN9QtPrivate16QGenericArrayOpsI7QStringE10destroyAllEv, symObjAddr: 0x3510, symBinAddr: 0x12200, symSize: 0x90 }
  - { offset: 0xBE25A, size: 0x8, addend: 0x0, symName: __ZN15QTypedArrayDataI7QStringE10deallocateEP10QArrayData, symObjAddr: 0x35A0, symBinAddr: 0x12290, symSize: 0x30 }
  - { offset: 0xBE27D, size: 0x8, addend: 0x0, symName: __ZN4Json17JsonTilesetFormatD2Ev, symObjAddr: 0x3660, symBinAddr: 0x12350, symSize: 0x40 }
  - { offset: 0xBE2A9, size: 0x8, addend: 0x0, symName: __ZN5Tiled13TilesetFormatD2Ev, symObjAddr: 0x36A0, symBinAddr: 0x12390, symSize: 0x20 }
  - { offset: 0xBE2D5, size: 0x8, addend: 0x0, symName: __ZN4Json24JsonObjectTemplateFormatD2Ev, symObjAddr: 0x36C0, symBinAddr: 0x123B0, symSize: 0x40 }
  - { offset: 0xBE301, size: 0x8, addend: 0x0, symName: __ZN5Tiled20ObjectTemplateFormatD2Ev, symObjAddr: 0x3700, symBinAddr: 0x123F0, symSize: 0x20 }
  - { offset: 0xBE32D, size: 0x8, addend: 0x0, symName: __ZNK8QPointerI7QObjectE6isNullEv, symObjAddr: 0x3720, symBinAddr: 0x12410, symSize: 0x20 }
  - { offset: 0xBE353, size: 0x8, addend: 0x0, symName: __ZNK12QWeakPointerI7QObjectE6isNullEv, symObjAddr: 0x3740, symBinAddr: 0x12430, symSize: 0x60 }
  - { offset: 0xBE379, size: 0x8, addend: 0x0, symName: __ZN12QWeakPointerI7QObjectE6assignIS0_EERS1_PT_, symObjAddr: 0x37A0, symBinAddr: 0x12490, symSize: 0x50 }
  - { offset: 0xBE3B7, size: 0x8, addend: 0x0, symName: __ZN12QWeakPointerI7QObjectEC1EPS0_b, symObjAddr: 0x37F0, symBinAddr: 0x124E0, symSize: 0x40 }
  - { offset: 0xBE3FC, size: 0x8, addend: 0x0, symName: __ZN12QWeakPointerI7QObjectEaSEOS1_, symObjAddr: 0x3830, symBinAddr: 0x12520, symSize: 0x50 }
  - { offset: 0xBE441, size: 0x8, addend: 0x0, symName: __ZN12QWeakPointerI7QObjectEC2EPS0_b, symObjAddr: 0x3880, symBinAddr: 0x12570, symSize: 0x60 }
  - { offset: 0xBE486, size: 0x8, addend: 0x0, symName: __ZN12QWeakPointerI7QObjectEC1EOS1_, symObjAddr: 0x38E0, symBinAddr: 0x125D0, symSize: 0x30 }
  - { offset: 0xBE4BF, size: 0x8, addend: 0x0, symName: __ZN12QWeakPointerI7QObjectE4swapERS1_, symObjAddr: 0x3910, symBinAddr: 0x12600, symSize: 0x40 }
  - { offset: 0xBE4F4, size: 0x8, addend: 0x0, symName: __ZN12QWeakPointerI7QObjectEC2EOS1_, symObjAddr: 0x3950, symBinAddr: 0x12640, symSize: 0x40 }
  - { offset: 0xBE52C, size: 0x8, addend: 0x0, symName: __Z11qt_ptr_swapIN15QtSharedPointer20ExternalRefCountDataEEvRPT_S4_, symObjAddr: 0x3990, symBinAddr: 0x12680, symSize: 0x40 }
  - { offset: 0xBE579, size: 0x8, addend: 0x0, symName: __Z11qt_ptr_swapI7QObjectEvRPT_S3_, symObjAddr: 0x39D0, symBinAddr: 0x126C0, symSize: 0x40 }
  - { offset: 0xBE5C7, size: 0x8, addend: 0x0, symName: __ZNK8QPointerI7QObjectE4dataEv, symObjAddr: 0x3A10, symBinAddr: 0x12700, symSize: 0x20 }
  - { offset: 0xBE5ED, size: 0x8, addend: 0x0, symName: __ZNK12QWeakPointerI7QObjectE12internalDataEv, symObjAddr: 0x3A30, symBinAddr: 0x12720, symSize: 0x4D }
...
