---
triple:          'x86_64-apple-darwin'
binary-path:     '/Users/dz0400621/Documents/project/tiled/debug/test-automapping.5ce21f29/.tmp/test_automapping'
relocations:
  - { offset: 0x3F, size: 0x8, addend: 0x0, symName: _qt_version_tag_6_11_use, symObjAddr: 0x9750, symBinAddr: 0x10000D000, symSize: 0x0 }
  - { offset: 0x3DBF, size: 0x8, addend: 0x0, symName: __ZN9QtPrivate16QCheckedIntegersplIiLb1EEENS0_11QCheckedIntIiNS0_13SafeCheckImplIiEENS0_18AssertReportPolicyEEES6_T_, symObjAddr: 0x32E0, symBinAddr: 0x100004090, symSize: 0x40 }
  - { offset: 0x3E08, size: 0x8, addend: 0x0, symName: __ZN9QtPrivate16QCheckedIntegersplENS0_11QCheckedIntIiNS0_13SafeCheckImplIiEENS0_18AssertReportPolicyEEES5_, symObjAddr: 0x3390, symBinAddr: 0x100004140, symSize: 0x60 }
  - { offset: 0x3E5E, size: 0x8, addend: 0x0, symName: __ZN9QtPrivate16QCheckedIntegersmiIiLb1EEENS0_11QCheckedIntIiNS0_13SafeCheckImplIiEENS0_18AssertReportPolicyEEES6_T_, symObjAddr: 0x37C0, symBinAddr: 0x100004570, symSize: 0x40 }
  - { offset: 0x3EA7, size: 0x8, addend: 0x0, symName: __ZN9QtPrivate16QCheckedIntegersmiENS0_11QCheckedIntIiNS0_13SafeCheckImplIiEENS0_18AssertReportPolicyEEES5_, symObjAddr: 0x3840, symBinAddr: 0x1000045F0, symSize: 0x60 }
  - { offset: 0x3EFD, size: 0x8, addend: 0x0, symName: __ZN9QtPrivate16QCheckedIntegerseqERKNS0_11QCheckedIntIiNS0_13SafeCheckImplIiEENS0_18AssertReportPolicyEEES7_, symObjAddr: 0x5340, symBinAddr: 0x1000060F0, symSize: 0x40 }
  - { offset: 0x3F4F, size: 0x8, addend: 0x0, symName: __ZN9QtPrivate16QCheckedIntegers13comparesEqualENS0_11QCheckedIntIiNS0_13SafeCheckImplIiEENS0_18AssertReportPolicyEEES5_, symObjAddr: 0x5380, symBinAddr: 0x100006130, symSize: 0x20 }
  - { offset: 0xA5F0, size: 0x8, addend: 0x0, symName: __ZN16test_AutoMapping16staticMetaObjectE, symObjAddr: 0xA0B0, symBinAddr: 0x10000C930, symSize: 0x0 }
  - { offset: 0x16998, size: 0x8, addend: 0x0, symName: __ZNSt3__110__function10__not_nullB9nqe210106IZNK5Tiled9TileLayer6regionEvEUlRKNS2_4CellEE_EEbRKT_, symObjAddr: 0x3E10, symBinAddr: 0x100004BC0, symSize: 0x10 }
  - { offset: 0x20B11, size: 0x8, addend: 0x0, symName: __ZNSt3__117__cxx_atomic_loadB9nqe210106IiEET_PKNS_22__cxx_atomic_base_implIS1_EENS_12memory_orderE, symObjAddr: 0x5A30, symBinAddr: 0x1000067E0, symSize: 0x50 }
  - { offset: 0x23B08, size: 0x8, addend: 0x0, symName: __ZNSt3__1neB9nqe210106ERKNS_19__hash_map_iteratorINS_15__hash_iteratorIPNS_11__hash_nodeINS_17__hash_value_typeIPN5Tiled9TileLayerENS_10unique_ptrIS5_NS_14default_deleteIS5_EEEEEEPvEEEEEESI_, symObjAddr: 0x2070, symBinAddr: 0x100002E20, symSize: 0x30 }
  - { offset: 0x23B45, size: 0x8, addend: 0x0, symName: __ZNSt3__13getB9nqe210106ILm0EKPN5Tiled9TileLayerENS_10unique_ptrIS2_NS_14default_deleteIS2_EEEEEERNS_13tuple_elementIXT_ENS_4pairIT0_T1_EEE4typeERSD_, symObjAddr: 0x20C0, symBinAddr: 0x100002E70, symSize: 0x20 }
  - { offset: 0x23B8F, size: 0x8, addend: 0x0, symName: __ZNSt3__13getB9nqe210106ILm1EKPN5Tiled9TileLayerENS_10unique_ptrIS2_NS_14default_deleteIS2_EEEEEERNS_13tuple_elementIXT_ENS_4pairIT0_T1_EEE4typeERSD_, symObjAddr: 0x20E0, symBinAddr: 0x100002E90, symSize: 0x20 }
  - { offset: 0x23BD9, size: 0x8, addend: 0x0, symName: __ZNSt3__1neB9nqe210106IPNS_10unique_ptrIN5Tiled5LayerENS_14default_deleteIS3_EEEEEEbRKNS_11__wrap_iterIT_EESC_, symObjAddr: 0x21F0, symBinAddr: 0x100002FA0, symSize: 0x30 }
  - { offset: 0x23C58, size: 0x8, addend: 0x0, symName: __ZNSt3__18exchangeB9nqe210106IP15QTypedArrayDataIDsEDnEET_RS4_OT0_, symObjAddr: 0x2DF0, symBinAddr: 0x100003BA0, symSize: 0x30 }
  - { offset: 0x23CB2, size: 0x8, addend: 0x0, symName: __ZNSt3__18exchangeB9nqe210106IPDsDnEET_RS2_OT0_, symObjAddr: 0x2E20, symBinAddr: 0x100003BD0, symSize: 0x30 }
  - { offset: 0x23D0C, size: 0x8, addend: 0x0, symName: __ZNSt3__18exchangeB9nqe210106IxiEET_RS1_OT0_, symObjAddr: 0x2E50, symBinAddr: 0x100003C00, symSize: 0x30 }
  - { offset: 0x23D66, size: 0x8, addend: 0x0, symName: __ZNSt3__122__cxx_atomic_fetch_addB9nqe210106IiEET_PNS_22__cxx_atomic_base_implIS1_EES1_NS_12memory_orderE, symObjAddr: 0x3020, symBinAddr: 0x100003DD0, symSize: 0xB0 }
  - { offset: 0x23E31, size: 0x8, addend: 0x0, symName: __ZNSt3__1eqB9nqe210106IPNS_10unique_ptrIN5Tiled5LayerENS_14default_deleteIS3_EEEEEEbRKNS_11__wrap_iterIT_EESC_, symObjAddr: 0x3940, symBinAddr: 0x1000046F0, symSize: 0x40 }
  - { offset: 0x23E74, size: 0x8, addend: 0x0, symName: __ZNSt3__110__invoke_rB9nqe210106IbJRZNK5Tiled9TileLayer6regionEvEUlRKNS1_4CellEE_S5_EEET_DpOT0_, symObjAddr: 0x4130, symBinAddr: 0x100004EE0, symSize: 0x30 }
  - { offset: 0x23F11, size: 0x8, addend: 0x0, symName: __ZNSt3__18__invokeB9nqe210106IJRZNK5Tiled9TileLayer6regionEvEUlRKNS1_4CellEE_S5_EEENS_20__invoke_result_implIvJDpT_EE4typeEDpOS9_, symObjAddr: 0x4190, symBinAddr: 0x100004F40, symSize: 0x30 }
  - { offset: 0x23F5C, size: 0x8, addend: 0x0, symName: __ZNSt3__18distanceB9nqe210106IN5QListIN5Tiled4CellEE14const_iteratorEEENS_15iterator_traitsIT_E15difference_typeES7_S7_, symObjAddr: 0x4AF0, symBinAddr: 0x1000058A0, symSize: 0x40 }
  - { offset: 0x23F9F, size: 0x8, addend: 0x0, symName: __ZNSt3__110__distanceB9nqe210106IN5QListIN5Tiled4CellEE14const_iteratorEEENS_15iterator_traitsIT_E15difference_typeES7_S7_NS_26random_access_iterator_tagE, symObjAddr: 0x4BC0, symBinAddr: 0x100005970, symSize: 0x30 }
  - { offset: 0x23FEC, size: 0x8, addend: 0x0, symName: __ZNSt3__122__cxx_atomic_fetch_subB9nqe210106IiEET_PNS_22__cxx_atomic_base_implIS1_EES1_NS_12memory_orderE, symObjAddr: 0x5AE0, symBinAddr: 0x100006890, symSize: 0xC0 }
  - { offset: 0x240CF, size: 0x8, addend: 0x0, symName: __ZNSt3__112__destroy_atB9nqe210106INS_11__hash_nodeINS_17__hash_value_typeIPN5Tiled9TileLayerENS_10unique_ptrIS4_NS_14default_deleteIS4_EEEEEEPvEELi0EEEvPT_, symObjAddr: 0x65D0, symBinAddr: 0x100007380, symSize: 0x20 }
  - { offset: 0x2413A, size: 0x8, addend: 0x0, symName: __ZNSt3__112__destroy_atB9nqe210106INS_4pairIKPN5Tiled9TileLayerENS_10unique_ptrIS3_NS_14default_deleteIS3_EEEEEELi0EEEvPT_, symObjAddr: 0x6630, symBinAddr: 0x1000073E0, symSize: 0x20 }
  - { offset: 0x24172, size: 0x8, addend: 0x0, symName: __ZNSt3__119__libcpp_deallocateB9nqe210106INS_11__hash_nodeINS_17__hash_value_typeIPN5Tiled9TileLayerENS_10unique_ptrIS4_NS_14default_deleteIS4_EEEEEEPvEEEEvPNS_15__type_identityIT_E4typeENS_15__element_countEm, symObjAddr: 0x67A0, symBinAddr: 0x100007550, symSize: 0x50 }
  - { offset: 0x241CD, size: 0x8, addend: 0x0, symName: __ZNSt3__124__is_overaligned_for_newB9nqe210106Em, symObjAddr: 0x67F0, symBinAddr: 0x1000075A0, symSize: 0x20 }
  - { offset: 0x241FA, size: 0x8, addend: 0x0, symName: __ZNSt3__119__libcpp_deallocateB9nqe210106IPNS_16__hash_node_baseIPNS_11__hash_nodeINS_17__hash_value_typeIPN5Tiled9TileLayerENS_10unique_ptrIS5_NS_14default_deleteIS5_EEEEEEPvEEEEEEvPNS_15__type_identityIT_E4typeENS_15__element_countEm, symObjAddr: 0x6950, symBinAddr: 0x100007700, symSize: 0x50 }
  - { offset: 0x24256, size: 0x8, addend: 0x0, symName: __ZNSt3__112__destroy_atB9nqe210106INS_4pairIK7QString8QVariantEELi0EEEvPT_, symObjAddr: 0x6F30, symBinAddr: 0x100007CE0, symSize: 0x20 }
  - { offset: 0x2428E, size: 0x8, addend: 0x0, symName: __ZNSt3__119__libcpp_deallocateB9nqe210106INS_11__tree_nodeINS_12__value_typeI7QString8QVariantEEPvEEEEvPNS_15__type_identityIT_E4typeENS_15__element_countEm, symObjAddr: 0x6FD0, symBinAddr: 0x100007D80, symSize: 0x50 }
  - { offset: 0x2431D, size: 0x8, addend: 0x0, symName: __ZNSt3__17destroyB9nqe210106IP5QListIN5Tiled19AddRemoveMapObjects5EntryEEEEvT_S7_, symObjAddr: 0x73D0, symBinAddr: 0x100008180, symSize: 0x30 }
  - { offset: 0x2435C, size: 0x8, addend: 0x0, symName: __ZNSt3__19__destroyB9nqe210106IP5QListIN5Tiled19AddRemoveMapObjects5EntryEEEET_S7_S7_, symObjAddr: 0x7450, symBinAddr: 0x100008200, symSize: 0x40 }
  - { offset: 0x243A0, size: 0x8, addend: 0x0, symName: __ZNSt3__112__destroy_atB9nqe210106I5QListIN5Tiled19AddRemoveMapObjects5EntryEELi0EEEvPT_, symObjAddr: 0x7490, symBinAddr: 0x100008240, symSize: 0x20 }
  - { offset: 0x243D8, size: 0x8, addend: 0x0, symName: __ZNSt3__17destroyB9nqe210106IPN5Tiled19AddRemoveMapObjects5EntryEEEvT_S5_, symObjAddr: 0x7670, symBinAddr: 0x100008420, symSize: 0x30 }
  - { offset: 0x24417, size: 0x8, addend: 0x0, symName: __ZNSt3__19__destroyB9nqe210106IPN5Tiled19AddRemoveMapObjects5EntryEEET_S5_S5_, symObjAddr: 0x76F0, symBinAddr: 0x1000084A0, symSize: 0x40 }
  - { offset: 0x2445B, size: 0x8, addend: 0x0, symName: __ZNSt3__112__destroy_atB9nqe210106IN5Tiled19AddRemoveMapObjects5EntryELi0EEEvPT_, symObjAddr: 0x7730, symBinAddr: 0x1000084E0, symSize: 0x10 }
  - { offset: 0x24492, size: 0x8, addend: 0x0, symName: __ZNSt3__112__to_addressB9nqe210106INS_10unique_ptrIN5Tiled5LayerENS_14default_deleteIS3_EEEEEEPT_S8_, symObjAddr: 0x7AD0, symBinAddr: 0x100008880, symSize: 0x10 }
  - { offset: 0x244C8, size: 0x8, addend: 0x0, symName: __ZNSt3__131__annotate_contiguous_containerB9nqe210106INS_9allocatorINS_10unique_ptrIN5Tiled5LayerENS_14default_deleteIS4_EEEEEEEEvPKvSA_SA_SA_, symObjAddr: 0x7B80, symBinAddr: 0x100008930, symSize: 0x20 }
  - { offset: 0x24524, size: 0x8, addend: 0x0, symName: __ZNSt3__119__libcpp_deallocateB9nqe210106INS_10unique_ptrIN5Tiled5LayerENS_14default_deleteIS3_EEEEEEvPNS_15__type_identityIT_E4typeENS_15__element_countEm, symObjAddr: 0x7BD0, symBinAddr: 0x100008980, symSize: 0x50 }
  - { offset: 0x24580, size: 0x8, addend: 0x0, symName: __ZNSt3__17destroyB9nqe210106IP14QSharedPointerIN5Tiled7TilesetEEEEvT_S6_, symObjAddr: 0x7DC0, symBinAddr: 0x100008B70, symSize: 0x30 }
  - { offset: 0x245BF, size: 0x8, addend: 0x0, symName: __ZNSt3__19__destroyB9nqe210106IP14QSharedPointerIN5Tiled7TilesetEEEET_S6_S6_, symObjAddr: 0x7E40, symBinAddr: 0x100008BF0, symSize: 0x40 }
  - { offset: 0x24603, size: 0x8, addend: 0x0, symName: __ZNSt3__112__destroy_atB9nqe210106I14QSharedPointerIN5Tiled7TilesetEELi0EEEvPT_, symObjAddr: 0x7E80, symBinAddr: 0x100008C30, symSize: 0x20 }
  - { offset: 0x2463A, size: 0x8, addend: 0x0, symName: __ZNSt3__1neB9nqe210106ERKNS_15__hash_iteratorIPNS_11__hash_nodeINS_17__hash_value_typeIPN5Tiled9TileLayerENS_10unique_ptrIS4_NS_14default_deleteIS4_EEEEEEPvEEEESG_, symObjAddr: 0x8580, symBinAddr: 0x100009330, symSize: 0x30 }
  - { offset: 0x24677, size: 0x8, addend: 0x0, symName: __ZNSt3__1eqB9nqe210106ERKNS_15__hash_iteratorIPNS_11__hash_nodeINS_17__hash_value_typeIPN5Tiled9TileLayerENS_10unique_ptrIS4_NS_14default_deleteIS4_EEEEEEPvEEEESG_, symObjAddr: 0x85B0, symBinAddr: 0x100009360, symSize: 0x30 }
  - { offset: 0x511B6, size: 0x8, addend: 0x0, symName: __ZN12QHashPrivate13calculateHashI6QPointEEmRKT_m, symObjAddr: 0x4FD0, symBinAddr: 0x100005D80, symSize: 0x30 }
  - { offset: 0x511FE, size: 0x8, addend: 0x0, symName: __ZN12QHashPrivate12GrowthPolicy13bucketForHashEmm, symObjAddr: 0x50E0, symBinAddr: 0x100005E90, symSize: 0x20 }
  - { offset: 0x6F6FB, size: 0x8, addend: 0x0, symName: __ZTV16test_AutoMapping, symObjAddr: 0xA0E8, symBinAddr: 0x10000C968, symSize: 0x0 }
  - { offset: 0x6F710, size: 0x8, addend: 0x0, symName: __ZTVNSt3__110__function6__funcIZNK5Tiled9TileLayer6regionEvEUlRKNS2_4CellEE_FbS6_EEE, symObjAddr: 0xA170, symBinAddr: 0x10000C9F0, symSize: 0x0 }
  - { offset: 0x75835, size: 0x8, addend: 0x0, symName: __ZN5TiledneERKNS_9TileLayer14const_iteratorES3_, symObjAddr: 0x2690, symBinAddr: 0x100003440, symSize: 0x80 }
  - { offset: 0x99020, size: 0x8, addend: 0x0, symName: __ZNK5Tiled9TileLayer6regionEv, symObjAddr: 0x2540, symBinAddr: 0x1000032F0, symSize: 0xE0 }
  - { offset: 0x99091, size: 0x8, addend: 0x0, symName: __ZTVNSt3__110__function6__baseIFbRKN5Tiled4CellEEEE, symObjAddr: 0xA1F0, symBinAddr: 0x10000CA70, symSize: 0x0 }
  - { offset: 0x990A5, size: 0x8, addend: 0x0, symName: __ZN16test_AutoMapping32qt_staticMetaObjectStaticContentIN12_GLOBAL__N_135qt_meta_tag_ZN16test_AutoMappingE_tEEE, symObjAddr: 0xA268, symBinAddr: 0x10000B4AC, symSize: 0x0 }
  - { offset: 0x99198, size: 0x8, addend: 0x0, symName: __ZN16test_AutoMapping36qt_staticMetaObjectRelocatingContentIN12_GLOBAL__N_135qt_meta_tag_ZN16test_AutoMappingE_tEEE, symObjAddr: 0xA098, symBinAddr: 0x10000C918, symSize: 0x0 }
  - { offset: 0x991BA, size: 0x8, addend: 0x0, symName: __ZN9QtPrivate25QMetaTypeInterfaceWrapperI16test_AutoMappingE8metaTypeE, symObjAddr: 0xA3F8, symBinAddr: 0x10000D010, symSize: 0x0 }
  - { offset: 0x991CD, size: 0x8, addend: 0x0, symName: __ZN9QtPrivate16QMetaTypeForTypeI16test_AutoMappingE4nameE, symObjAddr: 0xA3E7, symBinAddr: 0x10000B62B, symSize: 0x0 }
  - { offset: 0x99227, size: 0x8, addend: 0x0, symName: __ZN9QtPrivate25QMetaTypeInterfaceWrapperIvE8metaTypeE, symObjAddr: 0xA468, symBinAddr: 0x10000D080, symSize: 0x0 }
  - { offset: 0xAAC0B, size: 0x8, addend: 0x0, symName: __ZN5QTest9addColumnI7QStringEEvPKcPT_, symObjAddr: 0xB30, symBinAddr: 0x1000018E0, symSize: 0x30 }
  - { offset: 0xAAC4A, size: 0x8, addend: 0x0, symName: __ZN5QTest8qCompareIN5Tiled5Layer8TypeFlagES3_EEbRKT_RKT0_PKcSB_SB_i, symObjAddr: 0x2390, symBinAddr: 0x100003140, symSize: 0x80 }
  - { offset: 0xAACD5, size: 0x8, addend: 0x0, symName: __ZN5QTest8qCompareERK7QStringS2_PKcS4_S4_i, symObjAddr: 0x2430, symBinAddr: 0x1000031E0, symSize: 0x70 }
  - { offset: 0xAAD4E, size: 0x8, addend: 0x0, symName: __ZN5QTest8qCompareI7QRegionS1_EEbRKT_RKT0_PKcS9_S9_i, symObjAddr: 0x24C0, symBinAddr: 0x100003270, symSize: 0x80 }
  - { offset: 0xAADD9, size: 0x8, addend: 0x0, symName: __ZN5QTest8qCompareIN5Tiled4CellES2_EEbRKT_RKT0_PKcSA_SA_i, symObjAddr: 0x28B0, symBinAddr: 0x100003660, symSize: 0x80 }
  - { offset: 0xAAE6A, size: 0x8, addend: 0x0, symName: __ZN5QTest8Internal12callInitMainI16test_AutoMappingEEvv, symObjAddr: 0x2A50, symBinAddr: 0x100003800, symSize: 0x10 }
  - { offset: 0xAAE8D, size: 0x8, addend: 0x0, symName: __ZN5QTest8Internal15genericToStringIN5Tiled5Layer8TypeFlagEEEPKcPKv, symObjAddr: 0x87A0, symBinAddr: 0x100009550, symSize: 0x20 }
  - { offset: 0xAAEC4, size: 0x8, addend: 0x0, symName: __ZN5QTest8Internal8toStringIN5Tiled5Layer8TypeFlagEEENSt3__19enable_ifIXaantsr9QtPrivate13IsQEnumHelperIT_EE5Valuesr3stdE9is_enum_vIS7_EEPcE4typeERKS7_, symObjAddr: 0x87E0, symBinAddr: 0x100009590, symSize: 0x70 }
  - { offset: 0xAAEF9, size: 0x8, addend: 0x0, symName: __ZN5QTest8Internal15genericToStringI7QRegionEEPKcPKv, symObjAddr: 0x8A70, symBinAddr: 0x100009820, symSize: 0x20 }
  - { offset: 0xAAF30, size: 0x8, addend: 0x0, symName: __ZN5QTest8Internal15genericToStringIN5Tiled4CellEEEPKcPKv, symObjAddr: 0x92A0, symBinAddr: 0x10000A050, symSize: 0x20 }
  - { offset: 0xAAF67, size: 0x8, addend: 0x0, symName: __ZN5QTest8Internal8toStringIN5Tiled4CellEEENSt3__19enable_ifIXaantsr9QtPrivate13IsQEnumHelperIT_EE5Valuentsr3stdE9is_enum_vIS6_EEPcE4typeERKS6_, symObjAddr: 0x9300, symBinAddr: 0x10000A0B0, symSize: 0x16 }
  - { offset: 0xAAFAB, size: 0x8, addend: 0x0, symName: __ZN5QTest8toStringIN5Tiled5Layer8TypeFlagEEEPcRKT_, symObjAddr: 0x87C0, symBinAddr: 0x100009570, symSize: 0x20 }
  - { offset: 0xAAFE0, size: 0x8, addend: 0x0, symName: __ZN5QTest8toStringI7QRegionEEPcRKT_, symObjAddr: 0x8A90, symBinAddr: 0x100009840, symSize: 0x370 }
  - { offset: 0xAB082, size: 0x8, addend: 0x0, symName: __ZN5QTest8toStringIN5Tiled4CellEEEPcRKT_, symObjAddr: 0x92E0, symBinAddr: 0x10000A090, symSize: 0x20 }
  - { offset: 0xB354A, size: 0x8, addend: 0x0, symName: __ZN16test_AutoMapping12autoMap_dataEv, symObjAddr: 0x0, symBinAddr: 0x100000DB0, symSize: 0xB30 }
  - { offset: 0xB378E, size: 0x8, addend: 0x0, symName: __ZlsI7QStringER9QTestDataS2_RKT_, symObjAddr: 0xB60, symBinAddr: 0x100001910, symSize: 0x40 }
  - { offset: 0xB37D2, size: 0x8, addend: 0x0, symName: __ZN7QStringC1EO17QArrayDataPointerIDsE, symObjAddr: 0xBA0, symBinAddr: 0x100001950, symSize: 0x30 }
  - { offset: 0xB380B, size: 0x8, addend: 0x0, symName: __ZN7QStringD1Ev, symObjAddr: 0xBD0, symBinAddr: 0x100001980, symSize: 0x20 }
  - { offset: 0xB3837, size: 0x8, addend: 0x0, symName: __ZN17QArrayDataPointerIDsED1Ev, symObjAddr: 0xBF0, symBinAddr: 0x1000019A0, symSize: 0x20 }
  - { offset: 0xB3861, size: 0x8, addend: 0x0, symName: __ZN16test_AutoMapping7autoMapEv, symObjAddr: 0xC10, symBinAddr: 0x1000019C0, symSize: 0x1100 }
  - { offset: 0xB3B7C, size: 0x8, addend: 0x0, symName: __Z11qMetaTypeIdI7QStringEiv, symObjAddr: 0x1D10, symBinAddr: 0x100002AC0, symSize: 0x10 }
  - { offset: 0xB3BA5, size: 0x8, addend: 0x0, symName: __ZN7QStringC1ERKS_, symObjAddr: 0x1D20, symBinAddr: 0x100002AD0, symSize: 0x30 }
  - { offset: 0xB3BDF, size: 0x8, addend: 0x0, symName: __ZplRK7QStringS1_, symObjAddr: 0x1D50, symBinAddr: 0x100002B00, symSize: 0x80 }
  - { offset: 0xB3C2D, size: 0x8, addend: 0x0, symName: __ZNKSt3__110unique_ptrIN5Tiled3MapENS_14default_deleteIS2_EEE3getB9nqe210106Ev, symObjAddr: 0x1DD0, symBinAddr: 0x100002B80, symSize: 0x20 }
  - { offset: 0xB3C53, size: 0x8, addend: 0x0, symName: __ZNSt3__110unique_ptrIN5Tiled3MapENS_14default_deleteIS2_EEEC1B9nqe210106EOS5_, symObjAddr: 0x1DF0, symBinAddr: 0x100002BA0, symSize: 0x30 }
  - { offset: 0xB3C8B, size: 0x8, addend: 0x0, symName: __ZNSt3__110unique_ptrIN5Tiled3MapENS_14default_deleteIS2_EEED1B9nqe210106Ev, symObjAddr: 0x1E20, symBinAddr: 0x100002BD0, symSize: 0x20 }
  - { offset: 0xB3CB5, size: 0x8, addend: 0x0, symName: __ZNK5Tiled11MapDocument3mapEv, symObjAddr: 0x1E40, symBinAddr: 0x100002BF0, symSize: 0x30 }
  - { offset: 0xB3CDB, size: 0x8, addend: 0x0, symName: __ZNK5Tiled3Map8infiniteEv, symObjAddr: 0x1E70, symBinAddr: 0x100002C20, symSize: 0x20 }
  - { offset: 0xB3D03, size: 0x8, addend: 0x0, symName: __ZN5Tiled13LayerIteratorC1EPKNS_3MapEi, symObjAddr: 0x1E90, symBinAddr: 0x100002C40, symSize: 0x30 }
  - { offset: 0xB3D4D, size: 0x8, addend: 0x0, symName: __ZN5QRectC1Ev, symObjAddr: 0x1EC0, symBinAddr: 0x100002C70, symSize: 0x20 }
  - { offset: 0xB3D77, size: 0x8, addend: 0x0, symName: __ZNK5QRect6unitedERKS_, symObjAddr: 0x1EE0, symBinAddr: 0x100002C90, symSize: 0x40 }
  - { offset: 0xB3DAE, size: 0x8, addend: 0x0, symName: __ZNK5Tiled9TileLayer6boundsEv, symObjAddr: 0x1F20, symBinAddr: 0x100002CD0, symSize: 0x40 }
  - { offset: 0xB3DD4, size: 0x8, addend: 0x0, symName: __ZN7QRegionaSEOS_, symObjAddr: 0x1F60, symBinAddr: 0x100002D10, symSize: 0x30 }
  - { offset: 0xB3E08, size: 0x8, addend: 0x0, symName: __ZN6QPointC1Ev, symObjAddr: 0x1F90, symBinAddr: 0x100002D40, symSize: 0x20 }
  - { offset: 0xB3E33, size: 0x8, addend: 0x0, symName: __ZNK5Tiled3Map4sizeEv, symObjAddr: 0x1FB0, symBinAddr: 0x100002D60, symSize: 0x30 }
  - { offset: 0xB3E5B, size: 0x8, addend: 0x0, symName: __ZN5QRectC1ERK6QPointRK5QSize, symObjAddr: 0x1FE0, symBinAddr: 0x100002D90, symSize: 0x30 }
  - { offset: 0xB3F3D, size: 0x8, addend: 0x0, symName: __ZNSt3__113unordered_mapIPN5Tiled9TileLayerENS_10unique_ptrIS2_NS_14default_deleteIS2_EEEENS_4hashIS3_EENS_8equal_toIS3_EENS_9allocatorINS_4pairIKS3_S7_EEEEE5beginB9nqe210106Ev, symObjAddr: 0x2010, symBinAddr: 0x100002DC0, symSize: 0x30 }
  - { offset: 0xB3F63, size: 0x8, addend: 0x0, symName: __ZNSt3__113unordered_mapIPN5Tiled9TileLayerENS_10unique_ptrIS2_NS_14default_deleteIS2_EEEENS_4hashIS3_EENS_8equal_toIS3_EENS_9allocatorINS_4pairIKS3_S7_EEEEE3endB9nqe210106Ev, symObjAddr: 0x2040, symBinAddr: 0x100002DF0, symSize: 0x30 }
  - { offset: 0xB3F89, size: 0x8, addend: 0x0, symName: __ZNKSt3__119__hash_map_iteratorINS_15__hash_iteratorIPNS_11__hash_nodeINS_17__hash_value_typeIPN5Tiled9TileLayerENS_10unique_ptrIS5_NS_14default_deleteIS5_EEEEEEPvEEEEEdeB9nqe210106Ev, symObjAddr: 0x20A0, symBinAddr: 0x100002E50, symSize: 0x20 }
  - { offset: 0xB3FAF, size: 0x8, addend: 0x0, symName: __ZNKSt3__110unique_ptrIN5Tiled9TileLayerENS_14default_deleteIS2_EEEdeB9nqe210106Ev, symObjAddr: 0x2100, symBinAddr: 0x100002EB0, symSize: 0x20 }
  - { offset: 0xB3FD5, size: 0x8, addend: 0x0, symName: __ZNKSt3__110unique_ptrIN5Tiled9TileLayerENS_14default_deleteIS2_EEE3getB9nqe210106Ev, symObjAddr: 0x2120, symBinAddr: 0x100002ED0, symSize: 0x20 }
  - { offset: 0xB3FFB, size: 0x8, addend: 0x0, symName: __ZNSt3__119__hash_map_iteratorINS_15__hash_iteratorIPNS_11__hash_nodeINS_17__hash_value_typeIPN5Tiled9TileLayerENS_10unique_ptrIS5_NS_14default_deleteIS5_EEEEEEPvEEEEEppB9nqe210106Ev, symObjAddr: 0x2140, symBinAddr: 0x100002EF0, symSize: 0x30 }
  - { offset: 0xB4021, size: 0x8, addend: 0x0, symName: __ZNSt3__16vectorINS_10unique_ptrIN5Tiled5LayerENS_14default_deleteIS3_EEEENS_9allocatorIS6_EEE5beginB9nqe210106Ev, symObjAddr: 0x2170, symBinAddr: 0x100002F20, symSize: 0x40 }
  - { offset: 0xB4047, size: 0x8, addend: 0x0, symName: __ZNSt3__16vectorINS_10unique_ptrIN5Tiled5LayerENS_14default_deleteIS3_EEEENS_9allocatorIS6_EEE3endB9nqe210106Ev, symObjAddr: 0x21B0, symBinAddr: 0x100002F60, symSize: 0x40 }
  - { offset: 0xB406D, size: 0x8, addend: 0x0, symName: __ZNKSt3__111__wrap_iterIPNS_10unique_ptrIN5Tiled5LayerENS_14default_deleteIS3_EEEEEdeB9nqe210106Ev, symObjAddr: 0x2220, symBinAddr: 0x100002FD0, symSize: 0x20 }
  - { offset: 0xB4093, size: 0x8, addend: 0x0, symName: __ZNKSt3__110unique_ptrIN5Tiled5LayerENS_14default_deleteIS2_EEEptB9nqe210106Ev, symObjAddr: 0x2240, symBinAddr: 0x100002FF0, symSize: 0x20 }
  - { offset: 0xB40B9, size: 0x8, addend: 0x0, symName: __ZN5Tiled3Map8addLayerENSt3__110unique_ptrINS_5LayerENS1_14default_deleteIS3_EEEE, symObjAddr: 0x2260, symBinAddr: 0x100003010, symSize: 0x40 }
  - { offset: 0xB40F1, size: 0x8, addend: 0x0, symName: __ZNSt3__110unique_ptrIN5Tiled5LayerENS_14default_deleteIS2_EEEC1B9nqe210106EOS5_, symObjAddr: 0x22A0, symBinAddr: 0x100003050, symSize: 0x30 }
  - { offset: 0xB4129, size: 0x8, addend: 0x0, symName: __ZNSt3__110unique_ptrIN5Tiled5LayerENS_14default_deleteIS2_EEED1B9nqe210106Ev, symObjAddr: 0x22D0, symBinAddr: 0x100003080, symSize: 0x20 }
  - { offset: 0xB4153, size: 0x8, addend: 0x0, symName: __ZNSt3__111__wrap_iterIPNS_10unique_ptrIN5Tiled5LayerENS_14default_deleteIS3_EEEEEppB9nqe210106Ev, symObjAddr: 0x22F0, symBinAddr: 0x1000030A0, symSize: 0x20 }
  - { offset: 0xB4179, size: 0x8, addend: 0x0, symName: __ZNK5Tiled3Map10layerCountEv, symObjAddr: 0x2310, symBinAddr: 0x1000030C0, symSize: 0x30 }
  - { offset: 0xB41A1, size: 0x8, addend: 0x0, symName: __ZNKSt3__110unique_ptrIN5Tiled3MapENS_14default_deleteIS2_EEEptB9nqe210106Ev, symObjAddr: 0x2340, symBinAddr: 0x1000030F0, symSize: 0x20 }
  - { offset: 0xB41C7, size: 0x8, addend: 0x0, symName: __ZNK5Tiled3Map7layerAtEi, symObjAddr: 0x2360, symBinAddr: 0x100003110, symSize: 0x30 }
  - { offset: 0xB41FE, size: 0x8, addend: 0x0, symName: __ZNK5Tiled5Layer9layerTypeEv, symObjAddr: 0x2410, symBinAddr: 0x1000031C0, symSize: 0x20 }
  - { offset: 0xB4224, size: 0x8, addend: 0x0, symName: __ZNK5Tiled5Layer4nameEv, symObjAddr: 0x24A0, symBinAddr: 0x100003250, symSize: 0x20 }
  - { offset: 0xB424A, size: 0x8, addend: 0x0, symName: __ZNK5Tiled9TileLayer5beginEv, symObjAddr: 0x2620, symBinAddr: 0x1000033D0, symSize: 0x70 }
  - { offset: 0xB4270, size: 0x8, addend: 0x0, symName: __ZNK5Tiled9TileLayer3endEv, symObjAddr: 0x2710, symBinAddr: 0x1000034C0, symSize: 0x70 }
  - { offset: 0xB4296, size: 0x8, addend: 0x0, symName: __ZNK5Tiled9TileLayer14const_iterator3keyEv, symObjAddr: 0x2780, symBinAddr: 0x100003530, symSize: 0xC0 }
  - { offset: 0xB42EB, size: 0x8, addend: 0x0, symName: __ZNK5Tiled9TileLayer14const_iterator5valueEv, symObjAddr: 0x2840, symBinAddr: 0x1000035F0, symSize: 0x20 }
  - { offset: 0xB4311, size: 0x8, addend: 0x0, symName: __ZNK5Tiled9TileLayer6cellAtE6QPoint, symObjAddr: 0x2860, symBinAddr: 0x100003610, symSize: 0x50 }
  - { offset: 0xB4348, size: 0x8, addend: 0x0, symName: __ZN5Tiled9TileLayer14const_iteratorppEv, symObjAddr: 0x2930, symBinAddr: 0x1000036E0, symSize: 0x30 }
  - { offset: 0xB7CEB, size: 0x8, addend: 0x0, symName: __ZN5Tiled18AutoMappingContextD1Ev, symObjAddr: 0x2960, symBinAddr: 0x100003710, symSize: 0x20 }
  - { offset: 0xB7D17, size: 0x8, addend: 0x0, symName: _main, symObjAddr: 0x2980, symBinAddr: 0x100003730, symSize: 0xD0 }
  - { offset: 0xB7D6A, size: 0x8, addend: 0x0, symName: __ZN16test_AutoMappingC1Ev, symObjAddr: 0x2A60, symBinAddr: 0x100003810, symSize: 0x20 }
  - { offset: 0xB7D96, size: 0x8, addend: 0x0, symName: __ZN16test_AutoMappingD1Ev, symObjAddr: 0x2A80, symBinAddr: 0x100003830, symSize: 0x20 }
  - { offset: 0xB7DC2, size: 0x8, addend: 0x0, symName: __ZN16test_AutoMapping18qt_static_metacallEP7QObjectN11QMetaObject4CallEiPPv, symObjAddr: 0x2AA0, symBinAddr: 0x100003850, symSize: 0x60 }
  - { offset: 0xB7E1F, size: 0x8, addend: 0x0, symName: __ZNK16test_AutoMapping10metaObjectEv, symObjAddr: 0x2B00, symBinAddr: 0x1000038B0, symSize: 0x60 }
  - { offset: 0xB7E47, size: 0x8, addend: 0x0, symName: __ZNK14QScopedPointerI11QObjectData21QScopedPointerDeleterIS0_EEptEv, symObjAddr: 0x2B60, symBinAddr: 0x100003910, symSize: 0x20 }
  - { offset: 0xB7E6D, size: 0x8, addend: 0x0, symName: __ZN16test_AutoMapping11qt_metacastEPKc, symObjAddr: 0x2B80, symBinAddr: 0x100003930, symSize: 0x70 }
  - { offset: 0xB7EA3, size: 0x8, addend: 0x0, symName: __ZN16test_AutoMapping11qt_metacallEN11QMetaObject4CallEiPPv, symObjAddr: 0x2BF0, symBinAddr: 0x1000039A0, symSize: 0xC0 }
  - { offset: 0xB7EF5, size: 0x8, addend: 0x0, symName: __ZN9QMetaTypeC1Ev, symObjAddr: 0x2CB0, symBinAddr: 0x100003A60, symSize: 0x20 }
  - { offset: 0xB7F1F, size: 0x8, addend: 0x0, symName: __ZN16test_AutoMappingD0Ev, symObjAddr: 0x2CD0, symBinAddr: 0x100003A80, symSize: 0x30 }
  - { offset: 0xB7F4B, size: 0x8, addend: 0x0, symName: __ZN7QStringC2EO17QArrayDataPointerIDsE, symObjAddr: 0x2D00, symBinAddr: 0x100003AB0, symSize: 0x30 }
  - { offset: 0xB7F84, size: 0x8, addend: 0x0, symName: __ZN17QArrayDataPointerIDsEC1EOS0_, symObjAddr: 0x2D30, symBinAddr: 0x100003AE0, symSize: 0x30 }
  - { offset: 0xB7FBC, size: 0x8, addend: 0x0, symName: __ZN17QArrayDataPointerIDsEC2EOS0_, symObjAddr: 0x2D60, symBinAddr: 0x100003B10, symSize: 0x90 }
  - { offset: 0xB7FF4, size: 0x8, addend: 0x0, symName: __ZN7QStringD2Ev, symObjAddr: 0x2E80, symBinAddr: 0x100003C30, symSize: 0x20 }
  - { offset: 0xB8020, size: 0x8, addend: 0x0, symName: __ZN7QStringC2ERKS_, symObjAddr: 0x2EA0, symBinAddr: 0x100003C50, symSize: 0x30 }
  - { offset: 0xB805B, size: 0x8, addend: 0x0, symName: __ZN17QArrayDataPointerIDsEC1ERKS0_, symObjAddr: 0x2ED0, symBinAddr: 0x100003C80, symSize: 0x30 }
  - { offset: 0xB8093, size: 0x8, addend: 0x0, symName: __ZN17QArrayDataPointerIDsEC2ERKS0_, symObjAddr: 0x2F00, symBinAddr: 0x100003CB0, symSize: 0x50 }
  - { offset: 0xB80CB, size: 0x8, addend: 0x0, symName: __ZN17QArrayDataPointerIDsE3refEv, symObjAddr: 0x2F50, symBinAddr: 0x100003D00, symSize: 0x30 }
  - { offset: 0xB80F1, size: 0x8, addend: 0x0, symName: __ZN10QArrayData3refEv, symObjAddr: 0x2F80, symBinAddr: 0x100003D30, symSize: 0x20 }
  - { offset: 0xB8117, size: 0x8, addend: 0x0, symName: __ZN19QBasicAtomicIntegerIiE10refRelaxedEv, symObjAddr: 0x2FA0, symBinAddr: 0x100003D50, symSize: 0x20 }
  - { offset: 0xB8167, size: 0x8, addend: 0x0, symName: __ZN10QAtomicOpsIiE18fetchAndAddRelaxedIiEET_RNSt3__16atomicIS2_EEN19QAtomicAdditiveTypeIS2_E9AdditiveTE, symObjAddr: 0x2FC0, symBinAddr: 0x100003D70, symSize: 0x30 }
  - { offset: 0xB81A3, size: 0x8, addend: 0x0, symName: __ZNSt3__113__atomic_baseIiLb1EE9fetch_addB9nqe210106EiNS_12memory_orderE, symObjAddr: 0x2FF0, symBinAddr: 0x100003DA0, symSize: 0x30 }
  - { offset: 0xB81E5, size: 0x8, addend: 0x0, symName: __ZN7QStringpLERKS_, symObjAddr: 0x30D0, symBinAddr: 0x100003E80, symSize: 0x30 }
  - { offset: 0xB821A, size: 0x8, addend: 0x0, symName: __ZN5Tiled13LayerIteratorC2EPKNS_3MapEi, symObjAddr: 0x3100, symBinAddr: 0x100003EB0, symSize: 0x40 }
  - { offset: 0xB8264, size: 0x8, addend: 0x0, symName: __ZN5QRectC2Ev, symObjAddr: 0x3140, symBinAddr: 0x100003EF0, symSize: 0x60 }
  - { offset: 0xB828E, size: 0x8, addend: 0x0, symName: __ZN9QtPrivate16QCheckedIntegers11QCheckedIntIiNS0_13SafeCheckImplIiEENS0_18AssertReportPolicyEEC1Ei, symObjAddr: 0x31A0, symBinAddr: 0x100003F50, symSize: 0x30 }
  - { offset: 0xB82C6, size: 0x8, addend: 0x0, symName: __ZN9QtPrivate16QCheckedIntegers11QCheckedIntIiNS0_13SafeCheckImplIiEENS0_18AssertReportPolicyEEC2Ei, symObjAddr: 0x31D0, symBinAddr: 0x100003F80, symSize: 0x20 }
  - { offset: 0xB82FE, size: 0x8, addend: 0x0, symName: __ZNK5QRect10translatedEii, symObjAddr: 0x31F0, symBinAddr: 0x100003FA0, symSize: 0xF0 }
  - { offset: 0xB8344, size: 0x8, addend: 0x0, symName: __ZN6QPointC1EN9QtPrivate16QCheckedIntegers11QCheckedIntIiNS1_13SafeCheckImplIiEENS1_18AssertReportPolicyEEES6_, symObjAddr: 0x3330, symBinAddr: 0x1000040E0, symSize: 0x30 }
  - { offset: 0xB838A, size: 0x8, addend: 0x0, symName: __ZN5QRectC1ERK6QPointS2_, symObjAddr: 0x3360, symBinAddr: 0x100004110, symSize: 0x30 }
  - { offset: 0xB83D1, size: 0x8, addend: 0x0, symName: __ZN9QtPrivate16QCheckedIntegers13SafeCheckImplIiE3addEiiPi, symObjAddr: 0x33F0, symBinAddr: 0x1000041A0, symSize: 0x40 }
  - { offset: 0xB8410, size: 0x8, addend: 0x0, symName: __ZN9QtPrivate16QCheckedIntegers18AssertReportPolicy5checkEbPKcS3_, symObjAddr: 0x3430, symBinAddr: 0x1000041E0, symSize: 0x40 }
  - { offset: 0xB844E, size: 0x8, addend: 0x0, symName: __Z12qAddOverflowIiENSt3__19enable_ifIXsr3stdE11is_signed_vIT_EEbE4typeES2_S2_PS2_, symObjAddr: 0x3470, symBinAddr: 0x100004220, symSize: 0x30 }
  - { offset: 0xB84A4, size: 0x8, addend: 0x0, symName: __ZN6QPointC2EN9QtPrivate16QCheckedIntegers11QCheckedIntIiNS1_13SafeCheckImplIiEENS1_18AssertReportPolicyEEES6_, symObjAddr: 0x34A0, symBinAddr: 0x100004250, symSize: 0x20 }
  - { offset: 0xB84EA, size: 0x8, addend: 0x0, symName: __ZN5QRectC2ERK6QPointS2_, symObjAddr: 0x34C0, symBinAddr: 0x100004270, symSize: 0xA0 }
  - { offset: 0xB8531, size: 0x8, addend: 0x0, symName: __ZNK6QPoint1xEv, symObjAddr: 0x3560, symBinAddr: 0x100004310, symSize: 0x20 }
  - { offset: 0xB8558, size: 0x8, addend: 0x0, symName: __ZNK6QPoint1yEv, symObjAddr: 0x3580, symBinAddr: 0x100004330, symSize: 0x20 }
  - { offset: 0xB857F, size: 0x8, addend: 0x0, symName: __ZNK9QtPrivate16QCheckedIntegers11QCheckedIntIiNS0_13SafeCheckImplIiEENS0_18AssertReportPolicyEE5valueEv, symObjAddr: 0x35A0, symBinAddr: 0x100004350, symSize: 0x10 }
  - { offset: 0xB85A5, size: 0x8, addend: 0x0, symName: __ZN7QRegion4swapERS_, symObjAddr: 0x35B0, symBinAddr: 0x100004360, symSize: 0x30 }
  - { offset: 0xB85D9, size: 0x8, addend: 0x0, symName: __Z11qt_ptr_swapIN7QRegion11QRegionDataEEvRPT_S4_, symObjAddr: 0x35E0, symBinAddr: 0x100004390, symSize: 0x40 }
  - { offset: 0xB8627, size: 0x8, addend: 0x0, symName: __ZN6QPointC2Ev, symObjAddr: 0x3620, symBinAddr: 0x1000043D0, symSize: 0x30 }
  - { offset: 0xB8652, size: 0x8, addend: 0x0, symName: __ZN5QSizeC1Eii, symObjAddr: 0x3650, symBinAddr: 0x100004400, symSize: 0x30 }
  - { offset: 0xB8699, size: 0x8, addend: 0x0, symName: __ZN5QSizeC2Eii, symObjAddr: 0x3680, symBinAddr: 0x100004430, symSize: 0x40 }
  - { offset: 0xB86E0, size: 0x8, addend: 0x0, symName: __ZN5QRectC2ERK6QPointRK5QSize, symObjAddr: 0x36C0, symBinAddr: 0x100004470, symSize: 0x100 }
  - { offset: 0xB8727, size: 0x8, addend: 0x0, symName: __ZNK5QSize5widthEv, symObjAddr: 0x3800, symBinAddr: 0x1000045B0, symSize: 0x20 }
  - { offset: 0xB874E, size: 0x8, addend: 0x0, symName: __ZNK5QSize6heightEv, symObjAddr: 0x3820, symBinAddr: 0x1000045D0, symSize: 0x20 }
  - { offset: 0xB8775, size: 0x8, addend: 0x0, symName: __ZN9QtPrivate16QCheckedIntegers13SafeCheckImplIiE3subEiiPi, symObjAddr: 0x38A0, symBinAddr: 0x100004650, symSize: 0x40 }
  - { offset: 0xB87B3, size: 0x8, addend: 0x0, symName: __Z12qSubOverflowIiENSt3__19enable_ifIXsr3stdE11is_signed_vIT_EEbE4typeES2_S2_PS2_, symObjAddr: 0x38E0, symBinAddr: 0x100004690, symSize: 0x30 }
  - { offset: 0xB8809, size: 0x8, addend: 0x0, symName: __ZNSt3__110__get_pairILm0EE3getB9nqe210106IKPN5Tiled9TileLayerENS_10unique_ptrIS4_NS_14default_deleteIS4_EEEEEERT_RNS_4pairISB_T0_EE, symObjAddr: 0x3910, symBinAddr: 0x1000046C0, symSize: 0x10 }
  - { offset: 0xB883F, size: 0x8, addend: 0x0, symName: __ZNSt3__110__get_pairILm1EE3getB9nqe210106IKPN5Tiled9TileLayerENS_10unique_ptrIS4_NS_14default_deleteIS4_EEEEEERT0_RNS_4pairIT_SB_EE, symObjAddr: 0x3920, symBinAddr: 0x1000046D0, symSize: 0x20 }
  - { offset: 0xB8875, size: 0x8, addend: 0x0, symName: __ZNKSt3__111__wrap_iterIPNS_10unique_ptrIN5Tiled5LayerENS_14default_deleteIS3_EEEEE4baseB9nqe210106Ev, symObjAddr: 0x3980, symBinAddr: 0x100004730, symSize: 0x20 }
  - { offset: 0xB889B, size: 0x8, addend: 0x0, symName: __ZNSt3__110unique_ptrIN5Tiled5LayerENS_14default_deleteIS2_EEE7releaseB9nqe210106Ev, symObjAddr: 0x39A0, symBinAddr: 0x100004750, symSize: 0x20 }
  - { offset: 0xB88D0, size: 0x8, addend: 0x0, symName: __ZNK5QListIPN5Tiled5LayerEE4sizeEv, symObjAddr: 0x39C0, symBinAddr: 0x100004770, symSize: 0x50 }
  - { offset: 0xB8939, size: 0x8, addend: 0x0, symName: __ZZNK5QListIPN5Tiled5LayerEE4sizeEvENKUlvE_clEv, symObjAddr: 0x3A10, symBinAddr: 0x1000047C0, symSize: 0x50 }
  - { offset: 0xB8963, size: 0x8, addend: 0x0, symName: __ZNK5QListIPN5Tiled5LayerEE2atEx, symObjAddr: 0x3A60, symBinAddr: 0x100004810, symSize: 0x70 }
  - { offset: 0xB8998, size: 0x8, addend: 0x0, symName: __ZNK17QArrayDataPointerIPN5Tiled5LayerEEptEv, symObjAddr: 0x3AD0, symBinAddr: 0x100004880, symSize: 0x10 }
  - { offset: 0xB89BE, size: 0x8, addend: 0x0, symName: __ZNK5QListIPN5Tiled5LayerEE4dataEv, symObjAddr: 0x3AE0, symBinAddr: 0x100004890, symSize: 0x30 }
  - { offset: 0xB89E4, size: 0x8, addend: 0x0, symName: __ZNK17QArrayDataPointerIPN5Tiled5LayerEE4dataEv, symObjAddr: 0x3B10, symBinAddr: 0x1000048C0, symSize: 0x20 }
  - { offset: 0xB8A0A, size: 0x8, addend: 0x0, symName: __ZN11QStringViewC1I7QStringLb1EEERKT_, symObjAddr: 0x3B30, symBinAddr: 0x1000048E0, symSize: 0x50 }
  - { offset: 0xB8A51, size: 0x8, addend: 0x0, symName: __ZNK7QString5beginEv, symObjAddr: 0x3B80, symBinAddr: 0x100004930, symSize: 0x20 }
  - { offset: 0xB8A79, size: 0x8, addend: 0x0, symName: __ZNK7QString4sizeEv, symObjAddr: 0x3BA0, symBinAddr: 0x100004950, symSize: 0x50 }
  - { offset: 0xB8AD3, size: 0x8, addend: 0x0, symName: __ZN11QStringViewC1I5QCharLb1EEEPKT_x, symObjAddr: 0x3BF0, symBinAddr: 0x1000049A0, symSize: 0x30 }
  - { offset: 0xB8B28, size: 0x8, addend: 0x0, symName: __ZNK17QArrayDataPointerIDsE4dataEv, symObjAddr: 0x3C20, symBinAddr: 0x1000049D0, symSize: 0x20 }
  - { offset: 0xB8B58, size: 0x8, addend: 0x0, symName: __ZZNK7QString4sizeEvENKUlvE_clEv, symObjAddr: 0x3C40, symBinAddr: 0x1000049F0, symSize: 0x50 }
  - { offset: 0xB8B82, size: 0x8, addend: 0x0, symName: __ZN11QStringViewC2I5QCharLb1EEEPKT_x, symObjAddr: 0x3C90, symBinAddr: 0x100004A40, symSize: 0x90 }
  - { offset: 0xB8BD7, size: 0x8, addend: 0x0, symName: __ZN11QStringView10castHelperI5QCharEEPKDsPKT_, symObjAddr: 0x3D20, symBinAddr: 0x100004AD0, symSize: 0x10 }
  - { offset: 0xB8C03, size: 0x8, addend: 0x0, symName: __ZNSt3__18functionIFbRKN5Tiled4CellEEEC1IZNKS1_9TileLayer6regionEvEUlS4_E_vEET_, symObjAddr: 0x3D30, symBinAddr: 0x100004AE0, symSize: 0x20 }
  - { offset: 0xB8C46, size: 0x8, addend: 0x0, symName: __ZNSt3__18functionIFbRKN5Tiled4CellEEED1Ev, symObjAddr: 0x3D50, symBinAddr: 0x100004B00, symSize: 0x20 }
  - { offset: 0xB8C72, size: 0x8, addend: 0x0, symName: __ZNSt3__18functionIFbRKN5Tiled4CellEEEC2IZNKS1_9TileLayer6regionEvEUlS4_E_vEET_, symObjAddr: 0x3D70, symBinAddr: 0x100004B20, symSize: 0x20 }
  - { offset: 0xB8CB5, size: 0x8, addend: 0x0, symName: __ZNSt3__110__function12__value_funcIFbRKN5Tiled4CellEEEC1B9nqe210106IZNKS2_9TileLayer6regionEvEUlS5_E_Li0EEEOT_, symObjAddr: 0x3D90, symBinAddr: 0x100004B40, symSize: 0x30 }
  - { offset: 0xB8CFC, size: 0x8, addend: 0x0, symName: __ZNSt3__110__function12__value_funcIFbRKN5Tiled4CellEEEC2B9nqe210106IZNKS2_9TileLayer6regionEvEUlS5_E_Li0EEEOT_, symObjAddr: 0x3DC0, symBinAddr: 0x100004B70, symSize: 0x50 }
  - { offset: 0xB8D43, size: 0x8, addend: 0x0, symName: __ZNSt3__110__function6__funcIZNK5Tiled9TileLayer6regionEvEUlRKNS2_4CellEE_FbS6_EEC1B9nqe210106EOS7_, symObjAddr: 0x3E20, symBinAddr: 0x100004BD0, symSize: 0x30 }
  - { offset: 0xB8D7B, size: 0x8, addend: 0x0, symName: __ZNSt3__110__function6__funcIZNK5Tiled9TileLayer6regionEvEUlRKNS2_4CellEE_FbS6_EEC2B9nqe210106EOS7_, symObjAddr: 0x3E50, symBinAddr: 0x100004C00, symSize: 0x40 }
  - { offset: 0xB8DB3, size: 0x8, addend: 0x0, symName: __ZNSt3__110__function6__baseIFbRKN5Tiled4CellEEEC2B9nqe210106Ev, symObjAddr: 0x3E90, symBinAddr: 0x100004C40, symSize: 0x20 }
  - { offset: 0xB8DDD, size: 0x8, addend: 0x0, symName: __ZNSt3__110__function6__funcIZNK5Tiled9TileLayer6regionEvEUlRKNS2_4CellEE_FbS6_EED1Ev, symObjAddr: 0x3EB0, symBinAddr: 0x100004C60, symSize: 0x20 }
  - { offset: 0xB8E09, size: 0x8, addend: 0x0, symName: __ZNSt3__110__function6__funcIZNK5Tiled9TileLayer6regionEvEUlRKNS2_4CellEE_FbS6_EED0Ev, symObjAddr: 0x3ED0, symBinAddr: 0x100004C80, symSize: 0x30 }
  - { offset: 0xB8E35, size: 0x8, addend: 0x0, symName: __ZNKSt3__110__function6__funcIZNK5Tiled9TileLayer6regionEvEUlRKNS2_4CellEE_FbS6_EE7__cloneEv, symObjAddr: 0x3F00, symBinAddr: 0x100004CB0, symSize: 0x60 }
  - { offset: 0xB8E5B, size: 0x8, addend: 0x0, symName: __ZNKSt3__110__function6__funcIZNK5Tiled9TileLayer6regionEvEUlRKNS2_4CellEE_FbS6_EE7__cloneEPNS0_6__baseIS8_EE, symObjAddr: 0x3F60, symBinAddr: 0x100004D10, symSize: 0x30 }
  - { offset: 0xB8E8F, size: 0x8, addend: 0x0, symName: __ZNSt3__110__function6__funcIZNK5Tiled9TileLayer6regionEvEUlRKNS2_4CellEE_FbS6_EE7destroyEv, symObjAddr: 0x3F90, symBinAddr: 0x100004D40, symSize: 0x10 }
  - { offset: 0xB8EB5, size: 0x8, addend: 0x0, symName: __ZNSt3__110__function6__funcIZNK5Tiled9TileLayer6regionEvEUlRKNS2_4CellEE_FbS6_EE18destroy_deallocateEv, symObjAddr: 0x3FA0, symBinAddr: 0x100004D50, symSize: 0x30 }
  - { offset: 0xB8EDB, size: 0x8, addend: 0x0, symName: __ZNSt3__110__function6__funcIZNK5Tiled9TileLayer6regionEvEUlRKNS2_4CellEE_FbS6_EEclES6_, symObjAddr: 0x3FD0, symBinAddr: 0x100004D80, symSize: 0x30 }
  - { offset: 0xB8F0F, size: 0x8, addend: 0x0, symName: __ZNKSt3__110__function6__funcIZNK5Tiled9TileLayer6regionEvEUlRKNS2_4CellEE_FbS6_EE6targetERKSt9type_info, symObjAddr: 0x4000, symBinAddr: 0x100004DB0, symSize: 0x50 }
  - { offset: 0xB8F43, size: 0x8, addend: 0x0, symName: __ZNKSt3__110__function6__funcIZNK5Tiled9TileLayer6regionEvEUlRKNS2_4CellEE_FbS6_EE11target_typeEv, symObjAddr: 0x4050, symBinAddr: 0x100004E00, symSize: 0x20 }
  - { offset: 0xB8F69, size: 0x8, addend: 0x0, symName: __ZNSt3__110__function6__baseIFbRKN5Tiled4CellEEED1Ev, symObjAddr: 0x4070, symBinAddr: 0x100004E20, symSize: 0x10 }
  - { offset: 0xB8F93, size: 0x8, addend: 0x0, symName: __ZNSt3__110__function6__baseIFbRKN5Tiled4CellEEED0Ev, symObjAddr: 0x4080, symBinAddr: 0x100004E30, symSize: 0x10 }
  - { offset: 0xB8FBD, size: 0x8, addend: 0x0, symName: __ZNSt3__110__function6__funcIZNK5Tiled9TileLayer6regionEvEUlRKNS2_4CellEE_FbS6_EED2Ev, symObjAddr: 0x4090, symBinAddr: 0x100004E40, symSize: 0x20 }
  - { offset: 0xB8FE9, size: 0x8, addend: 0x0, symName: __ZNSt3__110__function6__baseIFbRKN5Tiled4CellEEED2Ev, symObjAddr: 0x40B0, symBinAddr: 0x100004E60, symSize: 0x10 }
  - { offset: 0xB9013, size: 0x8, addend: 0x0, symName: __ZNSt3__110__function6__funcIZNK5Tiled9TileLayer6regionEvEUlRKNS2_4CellEE_FbS6_EEC1B9nqe210106ERKS7_, symObjAddr: 0x40C0, symBinAddr: 0x100004E70, symSize: 0x30 }
  - { offset: 0xB904B, size: 0x8, addend: 0x0, symName: __ZNSt3__110__function6__funcIZNK5Tiled9TileLayer6regionEvEUlRKNS2_4CellEE_FbS6_EEC2B9nqe210106ERKS7_, symObjAddr: 0x40F0, symBinAddr: 0x100004EA0, symSize: 0x40 }
  - { offset: 0xB9089, size: 0x8, addend: 0x0, symName: __ZNSt3__128__invoke_void_return_wrapperIbLb0EE6__callB9nqe210106IJRZNK5Tiled9TileLayer6regionEvEUlRKNS3_4CellEE_S7_EEEbDpOT_, symObjAddr: 0x4160, symBinAddr: 0x100004F10, symSize: 0x30 }
  - { offset: 0xB90D2, size: 0x8, addend: 0x0, symName: __ZZNK5Tiled9TileLayer6regionEvENKUlRKNS_4CellEE_clES3_, symObjAddr: 0x41C0, symBinAddr: 0x100004F70, symSize: 0x30 }
  - { offset: 0xB910B, size: 0x8, addend: 0x0, symName: __ZNK5Tiled4Cell7isEmptyEv, symObjAddr: 0x41F0, symBinAddr: 0x100004FA0, symSize: 0x20 }
  - { offset: 0xB9151, size: 0x8, addend: 0x0, symName: __ZNKSt9type_infoeqB9nqe210106ERKS_, symObjAddr: 0x4210, symBinAddr: 0x100004FC0, symSize: 0x40 }
  - { offset: 0xB91AF, size: 0x8, addend: 0x0, symName: __ZNSt3__18functionIFbRKN5Tiled4CellEEED2Ev, symObjAddr: 0x4250, symBinAddr: 0x100005000, symSize: 0x20 }
  - { offset: 0xB91DB, size: 0x8, addend: 0x0, symName: __ZNSt3__110__function12__value_funcIFbRKN5Tiled4CellEEED1B9nqe210106Ev, symObjAddr: 0x4270, symBinAddr: 0x100005020, symSize: 0x20 }
  - { offset: 0xB9205, size: 0x8, addend: 0x0, symName: __ZNSt3__110__function12__value_funcIFbRKN5Tiled4CellEEED2B9nqe210106Ev, symObjAddr: 0x4290, symBinAddr: 0x100005040, symSize: 0x50 }
  - { offset: 0xB922F, size: 0x8, addend: 0x0, symName: __ZNK5QHashI6QPointN5Tiled5ChunkEE5beginEv, symObjAddr: 0x42E0, symBinAddr: 0x100005090, symSize: 0x80 }
  - { offset: 0xB9255, size: 0x8, addend: 0x0, symName: __ZNK5QHashI6QPointN5Tiled5ChunkEE3endEv, symObjAddr: 0x4360, symBinAddr: 0x100005110, symSize: 0x30 }
  - { offset: 0xB927B, size: 0x8, addend: 0x0, symName: __ZN5Tiled9TileLayer14const_iteratorC1EN5QHashI6QPointNS_5ChunkEE14const_iteratorES6_, symObjAddr: 0x4390, symBinAddr: 0x100005140, symSize: 0x40 }
  - { offset: 0xB92C3, size: 0x8, addend: 0x0, symName: __ZNK12QHashPrivate4DataINS_4NodeI6QPointN5Tiled5ChunkEEEE5beginEv, symObjAddr: 0x43D0, symBinAddr: 0x100005180, symSize: 0x50 }
  - { offset: 0xB92F8, size: 0x8, addend: 0x0, symName: __ZN5QHashI6QPointN5Tiled5ChunkEE14const_iteratorC1EN12QHashPrivate8iteratorINS5_4NodeIS0_S2_EEEE, symObjAddr: 0x4420, symBinAddr: 0x1000051D0, symSize: 0x30 }
  - { offset: 0xB9331, size: 0x8, addend: 0x0, symName: __ZN5QHashI6QPointN5Tiled5ChunkEE14const_iteratorC1Ev, symObjAddr: 0x4450, symBinAddr: 0x100005200, symSize: 0x20 }
  - { offset: 0xB935B, size: 0x8, addend: 0x0, symName: __ZNK12QHashPrivate8iteratorINS_4NodeI6QPointN5Tiled5ChunkEEEE8isUnusedEv, symObjAddr: 0x4470, symBinAddr: 0x100005220, symSize: 0x60 }
  - { offset: 0xB9381, size: 0x8, addend: 0x0, symName: __ZN12QHashPrivate8iteratorINS_4NodeI6QPointN5Tiled5ChunkEEEEppEv, symObjAddr: 0x44D0, symBinAddr: 0x100005280, symSize: 0x80 }
  - { offset: 0xB93A7, size: 0x8, addend: 0x0, symName: __ZNK12QHashPrivate8iteratorINS_4NodeI6QPointN5Tiled5ChunkEEEE4spanEv, symObjAddr: 0x4550, symBinAddr: 0x100005300, symSize: 0x20 }
  - { offset: 0xB93CD, size: 0x8, addend: 0x0, symName: __ZNK12QHashPrivate4SpanINS_4NodeI6QPointN5Tiled5ChunkEEEE7hasNodeEm, symObjAddr: 0x4570, symBinAddr: 0x100005320, symSize: 0x30 }
  - { offset: 0xB9402, size: 0x8, addend: 0x0, symName: __ZNK12QHashPrivate8iteratorINS_4NodeI6QPointN5Tiled5ChunkEEEE5indexEv, symObjAddr: 0x45A0, symBinAddr: 0x100005350, symSize: 0x20 }
  - { offset: 0xB9428, size: 0x8, addend: 0x0, symName: __ZN5QHashI6QPointN5Tiled5ChunkEE14const_iteratorC2EN12QHashPrivate8iteratorINS5_4NodeIS0_S2_EEEE, symObjAddr: 0x45C0, symBinAddr: 0x100005370, symSize: 0x30 }
  - { offset: 0xB9461, size: 0x8, addend: 0x0, symName: __ZN5QHashI6QPointN5Tiled5ChunkEE14const_iteratorC2Ev, symObjAddr: 0x45F0, symBinAddr: 0x1000053A0, symSize: 0x20 }
  - { offset: 0xB948B, size: 0x8, addend: 0x0, symName: __ZN12QHashPrivate8iteratorINS_4NodeI6QPointN5Tiled5ChunkEEEEC1Ev, symObjAddr: 0x4610, symBinAddr: 0x1000053C0, symSize: 0x20 }
  - { offset: 0xB94B8, size: 0x8, addend: 0x0, symName: __ZN12QHashPrivate8iteratorINS_4NodeI6QPointN5Tiled5ChunkEEEEC2Ev, symObjAddr: 0x4630, symBinAddr: 0x1000053E0, symSize: 0x20 }
  - { offset: 0xB94E5, size: 0x8, addend: 0x0, symName: __ZN5Tiled9TileLayer14const_iteratorC2EN5QHashI6QPointNS_5ChunkEE14const_iteratorES6_, symObjAddr: 0x4650, symBinAddr: 0x100005400, symSize: 0x90 }
  - { offset: 0xB952D, size: 0x8, addend: 0x0, symName: __ZN5QListIN5Tiled4CellEE14const_iteratorC1Ev, symObjAddr: 0x46E0, symBinAddr: 0x100005490, symSize: 0x20 }
  - { offset: 0xB9557, size: 0x8, addend: 0x0, symName: __ZNK5QHashI6QPointN5Tiled5ChunkEE14const_iteratorneERKS4_, symObjAddr: 0x4700, symBinAddr: 0x1000054B0, symSize: 0x40 }
  - { offset: 0xB958C, size: 0x8, addend: 0x0, symName: __ZNK5QHashI6QPointN5Tiled5ChunkEE14const_iterator5valueEv, symObjAddr: 0x4740, symBinAddr: 0x1000054F0, symSize: 0x20 }
  - { offset: 0xB95B2, size: 0x8, addend: 0x0, symName: __ZNK5Tiled5Chunk5beginEv, symObjAddr: 0x4760, symBinAddr: 0x100005510, symSize: 0x30 }
  - { offset: 0xB95D8, size: 0x8, addend: 0x0, symName: __ZN5QListIN5Tiled4CellEE14const_iteratorC2Ev, symObjAddr: 0x4790, symBinAddr: 0x100005540, symSize: 0x20 }
  - { offset: 0xB9602, size: 0x8, addend: 0x0, symName: __ZNK12QHashPrivate8iteratorINS_4NodeI6QPointN5Tiled5ChunkEEEEneES6_, symObjAddr: 0x47B0, symBinAddr: 0x100005560, symSize: 0x40 }
  - { offset: 0xB9637, size: 0x8, addend: 0x0, symName: __ZNK12QHashPrivate8iteratorINS_4NodeI6QPointN5Tiled5ChunkEEEEeqES6_, symObjAddr: 0x47F0, symBinAddr: 0x1000055A0, symSize: 0x40 }
  - { offset: 0xB966C, size: 0x8, addend: 0x0, symName: __ZNK12QHashPrivate8iteratorINS_4NodeI6QPointN5Tiled5ChunkEEEE4nodeEv, symObjAddr: 0x4830, symBinAddr: 0x1000055E0, symSize: 0x80 }
  - { offset: 0xB9692, size: 0x8, addend: 0x0, symName: __ZN12QHashPrivate4SpanINS_4NodeI6QPointN5Tiled5ChunkEEEE2atEm, symObjAddr: 0x48B0, symBinAddr: 0x100005660, symSize: 0xA0 }
  - { offset: 0xB96C7, size: 0x8, addend: 0x0, symName: __ZN12QHashPrivate4SpanINS_4NodeI6QPointN5Tiled5ChunkEEEE5Entry4nodeEv, symObjAddr: 0x4950, symBinAddr: 0x100005700, symSize: 0x10 }
  - { offset: 0xB96ED, size: 0x8, addend: 0x0, symName: __ZNK5QListIN5Tiled4CellEE5beginEv, symObjAddr: 0x4960, symBinAddr: 0x100005710, symSize: 0x40 }
  - { offset: 0xB9713, size: 0x8, addend: 0x0, symName: __ZNK17QArrayDataPointerIN5Tiled4CellEEptEv, symObjAddr: 0x49A0, symBinAddr: 0x100005750, symSize: 0x10 }
  - { offset: 0xB9739, size: 0x8, addend: 0x0, symName: __ZNK17QArrayDataPointerIN5Tiled4CellEE10constBeginEv, symObjAddr: 0x49B0, symBinAddr: 0x100005760, symSize: 0x20 }
  - { offset: 0xB975F, size: 0x8, addend: 0x0, symName: __ZN5QListIN5Tiled4CellEE14const_iteratorC1EPKS1_, symObjAddr: 0x49D0, symBinAddr: 0x100005780, symSize: 0x30 }
  - { offset: 0xB9797, size: 0x8, addend: 0x0, symName: __ZNK17QArrayDataPointerIN5Tiled4CellEE4dataEv, symObjAddr: 0x4A00, symBinAddr: 0x1000057B0, symSize: 0x20 }
  - { offset: 0xB97BD, size: 0x8, addend: 0x0, symName: __ZN5QListIN5Tiled4CellEE14const_iteratorC2EPKS1_, symObjAddr: 0x4A20, symBinAddr: 0x1000057D0, symSize: 0x20 }
  - { offset: 0xB97F5, size: 0x8, addend: 0x0, symName: __ZNK5QHashI6QPointN5Tiled5ChunkEE14const_iteratoreqERKS4_, symObjAddr: 0x4A40, symBinAddr: 0x1000057F0, symSize: 0x40 }
  - { offset: 0xB982A, size: 0x8, addend: 0x0, symName: __ZNK5QListIN5Tiled4CellEE14const_iteratorneES3_, symObjAddr: 0x4A80, symBinAddr: 0x100005830, symSize: 0x20 }
  - { offset: 0xB985E, size: 0x8, addend: 0x0, symName: __ZNK5QHashI6QPointN5Tiled5ChunkEE14const_iterator3keyEv, symObjAddr: 0x4AA0, symBinAddr: 0x100005850, symSize: 0x20 }
  - { offset: 0xB9884, size: 0x8, addend: 0x0, symName: __ZN6QPointC1Eii, symObjAddr: 0x4AC0, symBinAddr: 0x100005870, symSize: 0x30 }
  - { offset: 0xB98CB, size: 0x8, addend: 0x0, symName: __ZN6QPointpLERKS_, symObjAddr: 0x4B30, symBinAddr: 0x1000058E0, symSize: 0x50 }
  - { offset: 0xB9900, size: 0x8, addend: 0x0, symName: __ZN6QPointC2Eii, symObjAddr: 0x4B80, symBinAddr: 0x100005930, symSize: 0x40 }
  - { offset: 0xB9947, size: 0x8, addend: 0x0, symName: __ZNK5QListIN5Tiled4CellEE14const_iteratormiES3_, symObjAddr: 0x4BF0, symBinAddr: 0x1000059A0, symSize: 0x20 }
  - { offset: 0xB997B, size: 0x8, addend: 0x0, symName: __ZN9QtPrivate16QCheckedIntegers11QCheckedIntIiNS0_13SafeCheckImplIiEENS0_18AssertReportPolicyEEpLES5_, symObjAddr: 0x4C10, symBinAddr: 0x1000059C0, symSize: 0x50 }
  - { offset: 0xB99AF, size: 0x8, addend: 0x0, symName: __ZNK5QListIN5Tiled4CellEE14const_iteratordeEv, symObjAddr: 0x4C60, symBinAddr: 0x100005A10, symSize: 0x20 }
  - { offset: 0xB99D5, size: 0x8, addend: 0x0, symName: __ZNK5Tiled9TileLayer6cellAtEii, symObjAddr: 0x4C80, symBinAddr: 0x100005A30, symSize: 0x60 }
  - { offset: 0xB9A39, size: 0x8, addend: 0x0, symName: __ZNK5Tiled9TileLayer9findChunkEii, symObjAddr: 0x4CE0, symBinAddr: 0x100005A90, symSize: 0xA0 }
  - { offset: 0xB9A9D, size: 0x8, addend: 0x0, symName: __ZNK5Tiled5Chunk6cellAtEii, symObjAddr: 0x4D80, symBinAddr: 0x100005B30, symSize: 0x30 }
  - { offset: 0xB9AE0, size: 0x8, addend: 0x0, symName: __ZNK5QHashI6QPointN5Tiled5ChunkEE4findERKS0_, symObjAddr: 0x4DB0, symBinAddr: 0x100005B60, symSize: 0x40 }
  - { offset: 0xB9B15, size: 0x8, addend: 0x0, symName: __ZNK5QHashI6QPointN5Tiled5ChunkEE13constFindImplIS0_EENS3_14const_iteratorERKT_, symObjAddr: 0x4DF0, symBinAddr: 0x100005BA0, symSize: 0xC0 }
  - { offset: 0xB9B62, size: 0x8, addend: 0x0, symName: __ZNK5QHashI6QPointN5Tiled5ChunkEE7isEmptyEv, symObjAddr: 0x4EB0, symBinAddr: 0x100005C60, symSize: 0x40 }
  - { offset: 0xB9B88, size: 0x8, addend: 0x0, symName: __ZNK12QHashPrivate4DataINS_4NodeI6QPointN5Tiled5ChunkEEEE10findBucketIS2_EENS6_6BucketERKT_, symObjAddr: 0x4EF0, symBinAddr: 0x100005CA0, symSize: 0x70 }
  - { offset: 0xB9BD5, size: 0x8, addend: 0x0, symName: __ZNK12QHashPrivate4DataINS_4NodeI6QPointN5Tiled5ChunkEEEE6Bucket8isUnusedEv, symObjAddr: 0x4F60, symBinAddr: 0x100005D10, symSize: 0x30 }
  - { offset: 0xB9BFB, size: 0x8, addend: 0x0, symName: __ZNK12QHashPrivate4DataINS_4NodeI6QPointN5Tiled5ChunkEEEE6Bucket13toBucketIndexEPKS6_, symObjAddr: 0x4F90, symBinAddr: 0x100005D40, symSize: 0x40 }
  - { offset: 0xB9C30, size: 0x8, addend: 0x0, symName: __ZNK12QHashPrivate4DataINS_4NodeI6QPointN5Tiled5ChunkEEEE18findBucketWithHashIS2_EENS6_6BucketERKT_m, symObjAddr: 0x5000, symBinAddr: 0x100005DB0, symSize: 0xE0 }
  - { offset: 0xB9CB8, size: 0x8, addend: 0x0, symName: __ZN12QHashPrivate4DataINS_4NodeI6QPointN5Tiled5ChunkEEEE6BucketC1EPKS6_m, symObjAddr: 0x5100, symBinAddr: 0x100005EB0, symSize: 0x30 }
  - { offset: 0xB9D00, size: 0x8, addend: 0x0, symName: __ZNK12QHashPrivate4DataINS_4NodeI6QPointN5Tiled5ChunkEEEE6Bucket6offsetEv, symObjAddr: 0x5130, symBinAddr: 0x100005EE0, symSize: 0x30 }
  - { offset: 0xB9D26, size: 0x8, addend: 0x0, symName: __ZN12QHashPrivate4DataINS_4NodeI6QPointN5Tiled5ChunkEEEE6Bucket12nodeAtOffsetEm, symObjAddr: 0x5160, symBinAddr: 0x100005F10, symSize: 0x30 }
  - { offset: 0xB9D5A, size: 0x8, addend: 0x0, symName: __Z11qHashEqualsI6QPointEbRKT_S3_, symObjAddr: 0x5190, symBinAddr: 0x100005F40, symSize: 0x30 }
  - { offset: 0xB9DA1, size: 0x8, addend: 0x0, symName: __ZN12QHashPrivate4DataINS_4NodeI6QPointN5Tiled5ChunkEEEE6Bucket14advanceWrappedEPKS6_, symObjAddr: 0x51C0, symBinAddr: 0x100005F70, symSize: 0x30 }
  - { offset: 0xB9DD6, size: 0x8, addend: 0x0, symName: __ZN12QHashPrivate4DataINS_4NodeI6QPointN5Tiled5ChunkEEEE6BucketC2EPKS6_m, symObjAddr: 0x51F0, symBinAddr: 0x100005FA0, symSize: 0x40 }
  - { offset: 0xB9E1E, size: 0x8, addend: 0x0, symName: __ZNK12QHashPrivate4SpanINS_4NodeI6QPointN5Tiled5ChunkEEEE6offsetEm, symObjAddr: 0x5230, symBinAddr: 0x100005FE0, symSize: 0x20 }
  - { offset: 0xB9E53, size: 0x8, addend: 0x0, symName: __ZN12QHashPrivate4SpanINS_4NodeI6QPointN5Tiled5ChunkEEEE8atOffsetEm, symObjAddr: 0x5250, symBinAddr: 0x100006000, symSize: 0x70 }
  - { offset: 0xB9E87, size: 0x8, addend: 0x0, symName: __ZeqRK6QPointS1_, symObjAddr: 0x52C0, symBinAddr: 0x100006070, symSize: 0x30 }
  - { offset: 0xB9ED5, size: 0x8, addend: 0x0, symName: __Z13comparesEqualRK6QPointS1_, symObjAddr: 0x52F0, symBinAddr: 0x1000060A0, symSize: 0x50 }
  - { offset: 0xB9F10, size: 0x8, addend: 0x0, symName: __ZN12QHashPrivate4DataINS_4NodeI6QPointN5Tiled5ChunkEEEE6Bucket12advance_implEPKS6_PNS_4SpanIS5_EE, symObjAddr: 0x53A0, symBinAddr: 0x100006150, symSize: 0xC0 }
  - { offset: 0xB9F54, size: 0x8, addend: 0x0, symName: __ZNK5QListIN5Tiled4CellEE2atEx, symObjAddr: 0x5460, symBinAddr: 0x100006210, symSize: 0x70 }
  - { offset: 0xB9F89, size: 0x8, addend: 0x0, symName: __ZNK5QListIN5Tiled4CellEE4dataEv, symObjAddr: 0x54D0, symBinAddr: 0x100006280, symSize: 0x30 }
  - { offset: 0xB9FAF, size: 0x8, addend: 0x0, symName: __ZN5Tiled9TileLayer14const_iterator7advanceEv, symObjAddr: 0x5500, symBinAddr: 0x1000062B0, symSize: 0xC0 }
  - { offset: 0xB9FD7, size: 0x8, addend: 0x0, symName: __ZN5QListIN5Tiled4CellEE14const_iteratorppEv, symObjAddr: 0x55C0, symBinAddr: 0x100006370, symSize: 0x20 }
  - { offset: 0xB9FFD, size: 0x8, addend: 0x0, symName: __ZNK5QListIN5Tiled4CellEE14const_iteratoreqES3_, symObjAddr: 0x55E0, symBinAddr: 0x100006390, symSize: 0x20 }
  - { offset: 0xBA031, size: 0x8, addend: 0x0, symName: __ZNK5Tiled5Chunk3endEv, symObjAddr: 0x5600, symBinAddr: 0x1000063B0, symSize: 0x30 }
  - { offset: 0xBA057, size: 0x8, addend: 0x0, symName: __ZN5QHashI6QPointN5Tiled5ChunkEE14const_iteratorppEi, symObjAddr: 0x5630, symBinAddr: 0x1000063E0, symSize: 0x40 }
  - { offset: 0xBA098, size: 0x8, addend: 0x0, symName: __ZNK5QListIN5Tiled4CellEE3endEv, symObjAddr: 0x5670, symBinAddr: 0x100006420, symSize: 0x40 }
  - { offset: 0xBA0BE, size: 0x8, addend: 0x0, symName: __ZNK17QArrayDataPointerIN5Tiled4CellEE8constEndEv, symObjAddr: 0x56B0, symBinAddr: 0x100006460, symSize: 0x30 }
  - { offset: 0xBA0E4, size: 0x8, addend: 0x0, symName: __ZN5Tiled18AutoMappingContextD2Ev, symObjAddr: 0x56E0, symBinAddr: 0x100006490, symSize: 0xB0 }
  - { offset: 0xBA110, size: 0x8, addend: 0x0, symName: __ZN5QHashI7QStringPN5Tiled11ObjectGroupEED1Ev, symObjAddr: 0x5790, symBinAddr: 0x100006540, symSize: 0x20 }
  - { offset: 0xBA13A, size: 0x8, addend: 0x0, symName: __ZN5QHashI7QStringPN5Tiled9TileLayerEED1Ev, symObjAddr: 0x57B0, symBinAddr: 0x100006560, symSize: 0x20 }
  - { offset: 0xBA164, size: 0x8, addend: 0x0, symName: __ZN5QHashI7QStringPKN5Tiled9TileLayerEED1Ev, symObjAddr: 0x57D0, symBinAddr: 0x100006580, symSize: 0x20 }
  - { offset: 0xBA18E, size: 0x8, addend: 0x0, symName: __ZN5QListIPKN5Tiled9TileLayerEED1Ev, symObjAddr: 0x57F0, symBinAddr: 0x1000065A0, symSize: 0x20 }
  - { offset: 0xBA1BA, size: 0x8, addend: 0x0, symName: __ZNSt3__113unordered_mapIPN5Tiled9TileLayerENS_10unique_ptrIS2_NS_14default_deleteIS2_EEEENS_4hashIS3_EENS_8equal_toIS3_EENS_9allocatorINS_4pairIKS3_S7_EEEEED1B9nqe210106Ev, symObjAddr: 0x5810, symBinAddr: 0x1000065C0, symSize: 0x20 }
  - { offset: 0xBA1E4, size: 0x8, addend: 0x0, symName: __ZN5QHashIPKN5Tiled5LayerE4QMapI7QString8QVariantEED1Ev, symObjAddr: 0x5830, symBinAddr: 0x1000065E0, symSize: 0x20 }
  - { offset: 0xBA20E, size: 0x8, addend: 0x0, symName: __ZN4QSetIPN5Tiled9MapObjectEED1Ev, symObjAddr: 0x5850, symBinAddr: 0x100006600, symSize: 0x20 }
  - { offset: 0xBA23A, size: 0x8, addend: 0x0, symName: __ZN5QListIS_IN5Tiled19AddRemoveMapObjects5EntryEEED1Ev, symObjAddr: 0x5870, symBinAddr: 0x100006620, symSize: 0x20 }
  - { offset: 0xBA266, size: 0x8, addend: 0x0, symName: __ZNSt3__16vectorINS_10unique_ptrIN5Tiled5LayerENS_14default_deleteIS3_EEEENS_9allocatorIS6_EEED1B9nqe210106Ev, symObjAddr: 0x5890, symBinAddr: 0x100006640, symSize: 0x20 }
  - { offset: 0xBA290, size: 0x8, addend: 0x0, symName: __ZN5QListI14QSharedPointerIN5Tiled7TilesetEEED1Ev, symObjAddr: 0x58B0, symBinAddr: 0x100006660, symSize: 0x20 }
  - { offset: 0xBA2BC, size: 0x8, addend: 0x0, symName: __ZN5QHashI7QStringPN5Tiled11ObjectGroupEED2Ev, symObjAddr: 0x58D0, symBinAddr: 0x100006680, symSize: 0x60 }
  - { offset: 0xBA2E6, size: 0x8, addend: 0x0, symName: __ZN9QtPrivate8RefCount5derefEv, symObjAddr: 0x5930, symBinAddr: 0x1000066E0, symSize: 0x50 }
  - { offset: 0xBA31A, size: 0x8, addend: 0x0, symName: __ZN12QHashPrivate4DataINS_4NodeI7QStringPN5Tiled11ObjectGroupEEEED1Ev, symObjAddr: 0x5980, symBinAddr: 0x100006730, symSize: 0x20 }
  - { offset: 0xBA344, size: 0x8, addend: 0x0, symName: __ZNK19QBasicAtomicIntegerIiE11loadRelaxedEv, symObjAddr: 0x59A0, symBinAddr: 0x100006750, symSize: 0x20 }
  - { offset: 0xBA36A, size: 0x8, addend: 0x0, symName: __ZN19QBasicAtomicIntegerIiE5derefEv, symObjAddr: 0x59C0, symBinAddr: 0x100006770, symSize: 0x20 }
  - { offset: 0xBA390, size: 0x8, addend: 0x0, symName: __ZN10QAtomicOpsIiE11loadRelaxedIiEET_RKNSt3__16atomicIS2_EE, symObjAddr: 0x59E0, symBinAddr: 0x100006790, symSize: 0x20 }
  - { offset: 0xBA3BC, size: 0x8, addend: 0x0, symName: __ZNKSt3__113__atomic_baseIiLb0EE4loadB9nqe210106ENS_12memory_orderE, symObjAddr: 0x5A00, symBinAddr: 0x1000067B0, symSize: 0x30 }
  - { offset: 0xBA3F0, size: 0x8, addend: 0x0, symName: __ZN10QAtomicOpsIiE5derefIiEEbRNSt3__16atomicIT_EE, symObjAddr: 0x5A80, symBinAddr: 0x100006830, symSize: 0x30 }
  - { offset: 0xBA41D, size: 0x8, addend: 0x0, symName: __ZNSt3__113__atomic_baseIiLb1EE9fetch_subB9nqe210106EiNS_12memory_orderE, symObjAddr: 0x5AB0, symBinAddr: 0x100006860, symSize: 0x30 }
  - { offset: 0xBA45F, size: 0x8, addend: 0x0, symName: __ZN12QHashPrivate4DataINS_4NodeI7QStringPN5Tiled11ObjectGroupEEEED2Ev, symObjAddr: 0x5BA0, symBinAddr: 0x100006950, symSize: 0x80 }
  - { offset: 0xBA489, size: 0x8, addend: 0x0, symName: __ZN12QHashPrivate4SpanINS_4NodeI7QStringPN5Tiled11ObjectGroupEEEED1Ev, symObjAddr: 0x5C20, symBinAddr: 0x1000069D0, symSize: 0x20 }
  - { offset: 0xBA4B3, size: 0x8, addend: 0x0, symName: __ZN12QHashPrivate4SpanINS_4NodeI7QStringPN5Tiled11ObjectGroupEEEED2Ev, symObjAddr: 0x5C40, symBinAddr: 0x1000069F0, symSize: 0x20 }
  - { offset: 0xBA4DD, size: 0x8, addend: 0x0, symName: __ZN12QHashPrivate4SpanINS_4NodeI7QStringPN5Tiled11ObjectGroupEEEE8freeDataEv, symObjAddr: 0x5C60, symBinAddr: 0x100006A10, symSize: 0xE0 }
  - { offset: 0xBA547, size: 0x8, addend: 0x0, symName: __ZN12QHashPrivate4SpanINS_4NodeI7QStringPN5Tiled11ObjectGroupEEEE5Entry4nodeEv, symObjAddr: 0x5D40, symBinAddr: 0x100006AF0, symSize: 0x10 }
  - { offset: 0xBA56D, size: 0x8, addend: 0x0, symName: __ZN12QHashPrivate4NodeI7QStringPN5Tiled11ObjectGroupEED1Ev, symObjAddr: 0x5D50, symBinAddr: 0x100006B00, symSize: 0x20 }
  - { offset: 0xBA599, size: 0x8, addend: 0x0, symName: __ZN12QHashPrivate4NodeI7QStringPN5Tiled11ObjectGroupEED2Ev, symObjAddr: 0x5D70, symBinAddr: 0x100006B20, symSize: 0x20 }
  - { offset: 0xBA5C5, size: 0x8, addend: 0x0, symName: __ZN5QHashI7QStringPN5Tiled9TileLayerEED2Ev, symObjAddr: 0x5D90, symBinAddr: 0x100006B40, symSize: 0x60 }
  - { offset: 0xBA5EF, size: 0x8, addend: 0x0, symName: __ZN12QHashPrivate4DataINS_4NodeI7QStringPN5Tiled9TileLayerEEEED1Ev, symObjAddr: 0x5DF0, symBinAddr: 0x100006BA0, symSize: 0x20 }
  - { offset: 0xBA619, size: 0x8, addend: 0x0, symName: __ZN12QHashPrivate4DataINS_4NodeI7QStringPN5Tiled9TileLayerEEEED2Ev, symObjAddr: 0x5E10, symBinAddr: 0x100006BC0, symSize: 0x80 }
  - { offset: 0xBA643, size: 0x8, addend: 0x0, symName: __ZN12QHashPrivate4SpanINS_4NodeI7QStringPN5Tiled9TileLayerEEEED1Ev, symObjAddr: 0x5E90, symBinAddr: 0x100006C40, symSize: 0x20 }
  - { offset: 0xBA66D, size: 0x8, addend: 0x0, symName: __ZN12QHashPrivate4SpanINS_4NodeI7QStringPN5Tiled9TileLayerEEEED2Ev, symObjAddr: 0x5EB0, symBinAddr: 0x100006C60, symSize: 0x20 }
  - { offset: 0xBA697, size: 0x8, addend: 0x0, symName: __ZN12QHashPrivate4SpanINS_4NodeI7QStringPN5Tiled9TileLayerEEEE8freeDataEv, symObjAddr: 0x5ED0, symBinAddr: 0x100006C80, symSize: 0xE0 }
  - { offset: 0xBA701, size: 0x8, addend: 0x0, symName: __ZN12QHashPrivate4SpanINS_4NodeI7QStringPN5Tiled9TileLayerEEEE5Entry4nodeEv, symObjAddr: 0x5FB0, symBinAddr: 0x100006D60, symSize: 0x10 }
  - { offset: 0xBA727, size: 0x8, addend: 0x0, symName: __ZN12QHashPrivate4NodeI7QStringPN5Tiled9TileLayerEED1Ev, symObjAddr: 0x5FC0, symBinAddr: 0x100006D70, symSize: 0x20 }
  - { offset: 0xBA753, size: 0x8, addend: 0x0, symName: __ZN12QHashPrivate4NodeI7QStringPN5Tiled9TileLayerEED2Ev, symObjAddr: 0x5FE0, symBinAddr: 0x100006D90, symSize: 0x20 }
  - { offset: 0xBA77F, size: 0x8, addend: 0x0, symName: __ZN5QHashI7QStringPKN5Tiled9TileLayerEED2Ev, symObjAddr: 0x6000, symBinAddr: 0x100006DB0, symSize: 0x60 }
  - { offset: 0xBA7A9, size: 0x8, addend: 0x0, symName: __ZN12QHashPrivate4DataINS_4NodeI7QStringPKN5Tiled9TileLayerEEEED1Ev, symObjAddr: 0x6060, symBinAddr: 0x100006E10, symSize: 0x20 }
  - { offset: 0xBA7D3, size: 0x8, addend: 0x0, symName: __ZN12QHashPrivate4DataINS_4NodeI7QStringPKN5Tiled9TileLayerEEEED2Ev, symObjAddr: 0x6080, symBinAddr: 0x100006E30, symSize: 0x80 }
  - { offset: 0xBA7FD, size: 0x8, addend: 0x0, symName: __ZN12QHashPrivate4SpanINS_4NodeI7QStringPKN5Tiled9TileLayerEEEED1Ev, symObjAddr: 0x6100, symBinAddr: 0x100006EB0, symSize: 0x20 }
  - { offset: 0xBA827, size: 0x8, addend: 0x0, symName: __ZN12QHashPrivate4SpanINS_4NodeI7QStringPKN5Tiled9TileLayerEEEED2Ev, symObjAddr: 0x6120, symBinAddr: 0x100006ED0, symSize: 0x20 }
  - { offset: 0xBA851, size: 0x8, addend: 0x0, symName: __ZN12QHashPrivate4SpanINS_4NodeI7QStringPKN5Tiled9TileLayerEEEE8freeDataEv, symObjAddr: 0x6140, symBinAddr: 0x100006EF0, symSize: 0xE0 }
  - { offset: 0xBA8BB, size: 0x8, addend: 0x0, symName: __ZN12QHashPrivate4SpanINS_4NodeI7QStringPKN5Tiled9TileLayerEEEE5Entry4nodeEv, symObjAddr: 0x6220, symBinAddr: 0x100006FD0, symSize: 0x10 }
  - { offset: 0xBA8E1, size: 0x8, addend: 0x0, symName: __ZN12QHashPrivate4NodeI7QStringPKN5Tiled9TileLayerEED1Ev, symObjAddr: 0x6230, symBinAddr: 0x100006FE0, symSize: 0x20 }
  - { offset: 0xBA90D, size: 0x8, addend: 0x0, symName: __ZN12QHashPrivate4NodeI7QStringPKN5Tiled9TileLayerEED2Ev, symObjAddr: 0x6250, symBinAddr: 0x100007000, symSize: 0x20 }
  - { offset: 0xBA939, size: 0x8, addend: 0x0, symName: __ZN5QListIPKN5Tiled9TileLayerEED2Ev, symObjAddr: 0x6270, symBinAddr: 0x100007020, symSize: 0x20 }
  - { offset: 0xBA965, size: 0x8, addend: 0x0, symName: __ZN17QArrayDataPointerIPKN5Tiled9TileLayerEED1Ev, symObjAddr: 0x6290, symBinAddr: 0x100007040, symSize: 0x20 }
  - { offset: 0xBA98F, size: 0x8, addend: 0x0, symName: __ZN17QArrayDataPointerIPKN5Tiled9TileLayerEED2Ev, symObjAddr: 0x62B0, symBinAddr: 0x100007060, symSize: 0x40 }
  - { offset: 0xBA9B9, size: 0x8, addend: 0x0, symName: __ZN17QArrayDataPointerIPKN5Tiled9TileLayerEE5derefEv, symObjAddr: 0x62F0, symBinAddr: 0x1000070A0, symSize: 0x40 }
  - { offset: 0xBA9DF, size: 0x8, addend: 0x0, symName: __ZN17QArrayDataPointerIPKN5Tiled9TileLayerEEptEv, symObjAddr: 0x6330, symBinAddr: 0x1000070E0, symSize: 0x10 }
  - { offset: 0xBAA05, size: 0x8, addend: 0x0, symName: __ZN9QtPrivate12QPodArrayOpsIPKN5Tiled9TileLayerEE10destroyAllEv, symObjAddr: 0x6340, symBinAddr: 0x1000070F0, symSize: 0x70 }
  - { offset: 0xBAA2B, size: 0x8, addend: 0x0, symName: __ZN15QTypedArrayDataIPKN5Tiled9TileLayerEE10deallocateEP10QArrayData, symObjAddr: 0x63B0, symBinAddr: 0x100007160, symSize: 0x30 }
  - { offset: 0xBAA4E, size: 0x8, addend: 0x0, symName: __ZN10QArrayData5derefEv, symObjAddr: 0x63E0, symBinAddr: 0x100007190, symSize: 0x20 }
  - { offset: 0xBAA74, size: 0x8, addend: 0x0, symName: __ZNSt3__113unordered_mapIPN5Tiled9TileLayerENS_10unique_ptrIS2_NS_14default_deleteIS2_EEEENS_4hashIS3_EENS_8equal_toIS3_EENS_9allocatorINS_4pairIKS3_S7_EEEEED2B9nqe210106Ev, symObjAddr: 0x6400, symBinAddr: 0x1000071B0, symSize: 0x20 }
  - { offset: 0xBAA9E, size: 0x8, addend: 0x0, symName: __ZNSt3__112__hash_tableINS_17__hash_value_typeIPN5Tiled9TileLayerENS_10unique_ptrIS3_NS_14default_deleteIS3_EEEEEENS_22__unordered_map_hasherIS4_NS_4pairIKS4_S8_EENS_4hashIS4_EENS_8equal_toIS4_EELb1EEENS_21__unordered_map_equalIS4_SD_SH_SF_Lb1EEENS_9allocatorISD_EEED1Ev, symObjAddr: 0x6420, symBinAddr: 0x1000071D0, symSize: 0x20 }
  - { offset: 0xBAACA, size: 0x8, addend: 0x0, symName: __ZNSt3__112__hash_tableINS_17__hash_value_typeIPN5Tiled9TileLayerENS_10unique_ptrIS3_NS_14default_deleteIS3_EEEEEENS_22__unordered_map_hasherIS4_NS_4pairIKS4_S8_EENS_4hashIS4_EENS_8equal_toIS4_EELb1EEENS_21__unordered_map_equalIS4_SD_SH_SF_Lb1EEENS_9allocatorISD_EEED2Ev, symObjAddr: 0x6440, symBinAddr: 0x1000071F0, symSize: 0x30 }
  - { offset: 0xBAAF6, size: 0x8, addend: 0x0, symName: __ZNSt3__112__hash_tableINS_17__hash_value_typeIPN5Tiled9TileLayerENS_10unique_ptrIS3_NS_14default_deleteIS3_EEEEEENS_22__unordered_map_hasherIS4_NS_4pairIKS4_S8_EENS_4hashIS4_EENS_8equal_toIS4_EELb1EEENS_21__unordered_map_equalIS4_SD_SH_SF_Lb1EEENS_9allocatorISD_EEE17__deallocate_nodeEPNS_16__hash_node_baseIPNS_11__hash_nodeIS9_PvEEEE, symObjAddr: 0x6470, symBinAddr: 0x100007220, symSize: 0xB0 }
  - { offset: 0xBAB61, size: 0x8, addend: 0x0, symName: __ZNSt3__110unique_ptrIA_PNS_16__hash_node_baseIPNS_11__hash_nodeINS_17__hash_value_typeIPN5Tiled9TileLayerENS0_IS5_NS_14default_deleteIS5_EEEEEEPvEEEENS_25__bucket_list_deallocatorINS_9allocatorISF_EEEEED1B9nqe210106Ev, symObjAddr: 0x6520, symBinAddr: 0x1000072D0, symSize: 0x20 }
  - { offset: 0xBAB8B, size: 0x8, addend: 0x0, symName: __ZNSt3__112__hash_tableINS_17__hash_value_typeIPN5Tiled9TileLayerENS_10unique_ptrIS3_NS_14default_deleteIS3_EEEEEENS_22__unordered_map_hasherIS4_NS_4pairIKS4_S8_EENS_4hashIS4_EENS_8equal_toIS4_EELb1EEENS_21__unordered_map_equalIS4_SD_SH_SF_Lb1EEENS_9allocatorISD_EEE12__node_allocB9nqe210106Ev, symObjAddr: 0x6540, symBinAddr: 0x1000072F0, symSize: 0x20 }
  - { offset: 0xBABB1, size: 0x8, addend: 0x0, symName: __ZNSt3__116__hash_node_baseIPNS_11__hash_nodeINS_17__hash_value_typeIPN5Tiled9TileLayerENS_10unique_ptrIS4_NS_14default_deleteIS4_EEEEEEPvEEE8__upcastB9nqe210106Ev, symObjAddr: 0x6560, symBinAddr: 0x100007310, symSize: 0x20 }
  - { offset: 0xBABDD, size: 0x8, addend: 0x0, symName: __ZNSt3__116allocator_traitsINS_9allocatorINS_11__hash_nodeINS_17__hash_value_typeIPN5Tiled9TileLayerENS_10unique_ptrIS5_NS_14default_deleteIS5_EEEEEEPvEEEEE7destroyB9nqe210106INS_4pairIKS6_SA_EELi0EEEvRSE_PT_, symObjAddr: 0x6580, symBinAddr: 0x100007330, symSize: 0x20 }
  - { offset: 0xBAC1C, size: 0x8, addend: 0x0, symName: __ZNSt3__122__hash_key_value_typesINS_17__hash_value_typeIPN5Tiled9TileLayerENS_10unique_ptrIS3_NS_14default_deleteIS3_EEEEEEE9__get_ptrB9nqe210106ERNS_4pairIKS4_S8_EE, symObjAddr: 0x65A0, symBinAddr: 0x100007350, symSize: 0x10 }
  - { offset: 0xBAC3F, size: 0x8, addend: 0x0, symName: __ZNSt3__111__hash_nodeINS_17__hash_value_typeIPN5Tiled9TileLayerENS_10unique_ptrIS3_NS_14default_deleteIS3_EEEEEEPvE11__get_valueB9nqe210106Ev, symObjAddr: 0x65B0, symBinAddr: 0x100007360, symSize: 0x20 }
  - { offset: 0xBAC65, size: 0x8, addend: 0x0, symName: __ZNSt3__116allocator_traitsINS_9allocatorINS_11__hash_nodeINS_17__hash_value_typeIPN5Tiled9TileLayerENS_10unique_ptrIS5_NS_14default_deleteIS5_EEEEEEPvEEEEE10deallocateB9nqe210106ERSE_PSD_m, symObjAddr: 0x65F0, symBinAddr: 0x1000073A0, symSize: 0x30 }
  - { offset: 0xBACAD, size: 0x8, addend: 0x0, symName: __ZNSt3__114pointer_traitsIPNS_16__hash_node_baseIPNS_11__hash_nodeINS_17__hash_value_typeIPN5Tiled9TileLayerENS_10unique_ptrIS5_NS_14default_deleteIS5_EEEEEEPvEEEEE10pointer_toB9nqe210106ERSF_, symObjAddr: 0x6620, symBinAddr: 0x1000073D0, symSize: 0x10 }
  - { offset: 0xBACD0, size: 0x8, addend: 0x0, symName: __ZNSt3__14pairIKPN5Tiled9TileLayerENS_10unique_ptrIS2_NS_14default_deleteIS2_EEEEED1Ev, symObjAddr: 0x6650, symBinAddr: 0x100007400, symSize: 0x20 }
  - { offset: 0xBACFC, size: 0x8, addend: 0x0, symName: __ZNSt3__14pairIKPN5Tiled9TileLayerENS_10unique_ptrIS2_NS_14default_deleteIS2_EEEEED2Ev, symObjAddr: 0x6670, symBinAddr: 0x100007420, symSize: 0x20 }
  - { offset: 0xBAD28, size: 0x8, addend: 0x0, symName: __ZNSt3__110unique_ptrIN5Tiled9TileLayerENS_14default_deleteIS2_EEED1B9nqe210106Ev, symObjAddr: 0x6690, symBinAddr: 0x100007440, symSize: 0x20 }
  - { offset: 0xBAD52, size: 0x8, addend: 0x0, symName: __ZNSt3__110unique_ptrIN5Tiled9TileLayerENS_14default_deleteIS2_EEED2B9nqe210106Ev, symObjAddr: 0x66B0, symBinAddr: 0x100007460, symSize: 0x20 }
  - { offset: 0xBAD7C, size: 0x8, addend: 0x0, symName: __ZNSt3__110unique_ptrIN5Tiled9TileLayerENS_14default_deleteIS2_EEE5resetB9nqe210106EPS2_, symObjAddr: 0x66D0, symBinAddr: 0x100007480, symSize: 0x40 }
  - { offset: 0xBADC0, size: 0x8, addend: 0x0, symName: __ZNKSt3__114default_deleteIN5Tiled9TileLayerEEclB9nqe210106EPS2_, symObjAddr: 0x6710, symBinAddr: 0x1000074C0, symSize: 0x30 }
  - { offset: 0xBADF4, size: 0x8, addend: 0x0, symName: __ZNSt3__111__hash_nodeINS_17__hash_value_typeIPN5Tiled9TileLayerENS_10unique_ptrIS3_NS_14default_deleteIS3_EEEEEEPvED1B9nqe210106Ev, symObjAddr: 0x6740, symBinAddr: 0x1000074F0, symSize: 0x20 }
  - { offset: 0xBAE1E, size: 0x8, addend: 0x0, symName: __ZNSt3__111__hash_nodeINS_17__hash_value_typeIPN5Tiled9TileLayerENS_10unique_ptrIS3_NS_14default_deleteIS3_EEEEEEPvED2B9nqe210106Ev, symObjAddr: 0x6760, symBinAddr: 0x100007510, symSize: 0x10 }
  - { offset: 0xBAE48, size: 0x8, addend: 0x0, symName: __ZNSt3__19allocatorINS_11__hash_nodeINS_17__hash_value_typeIPN5Tiled9TileLayerENS_10unique_ptrIS4_NS_14default_deleteIS4_EEEEEEPvEEE10deallocateB9nqe210106EPSC_m, symObjAddr: 0x6770, symBinAddr: 0x100007520, symSize: 0x30 }
  - { offset: 0xBAE8A, size: 0x8, addend: 0x0, symName: __ZNSt3__110unique_ptrIA_PNS_16__hash_node_baseIPNS_11__hash_nodeINS_17__hash_value_typeIPN5Tiled9TileLayerENS0_IS5_NS_14default_deleteIS5_EEEEEEPvEEEENS_25__bucket_list_deallocatorINS_9allocatorISF_EEEEED2B9nqe210106Ev, symObjAddr: 0x6810, symBinAddr: 0x1000075C0, symSize: 0x20 }
  - { offset: 0xBAEB4, size: 0x8, addend: 0x0, symName: __ZNSt3__110unique_ptrIA_PNS_16__hash_node_baseIPNS_11__hash_nodeINS_17__hash_value_typeIPN5Tiled9TileLayerENS0_IS5_NS_14default_deleteIS5_EEEEEEPvEEEENS_25__bucket_list_deallocatorINS_9allocatorISF_EEEEE5resetB9nqe210106EDn, symObjAddr: 0x6830, symBinAddr: 0x1000075E0, symSize: 0x50 }
  - { offset: 0xBAEF5, size: 0x8, addend: 0x0, symName: __ZNSt3__125__bucket_list_deallocatorINS_9allocatorIPNS_16__hash_node_baseIPNS_11__hash_nodeINS_17__hash_value_typeIPN5Tiled9TileLayerENS_10unique_ptrIS6_NS_14default_deleteIS6_EEEEEEPvEEEEEEEclB9nqe210106EPSH_, symObjAddr: 0x6880, symBinAddr: 0x100007630, symSize: 0x50 }
  - { offset: 0xBAF2A, size: 0x8, addend: 0x0, symName: __ZNSt3__116allocator_traitsINS_9allocatorIPNS_16__hash_node_baseIPNS_11__hash_nodeINS_17__hash_value_typeIPN5Tiled9TileLayerENS_10unique_ptrIS6_NS_14default_deleteIS6_EEEEEEPvEEEEEEE10deallocateB9nqe210106ERSI_PSH_m, symObjAddr: 0x68D0, symBinAddr: 0x100007680, symSize: 0x30 }
  - { offset: 0xBAF6C, size: 0x8, addend: 0x0, symName: __ZNSt3__125__bucket_list_deallocatorINS_9allocatorIPNS_16__hash_node_baseIPNS_11__hash_nodeINS_17__hash_value_typeIPN5Tiled9TileLayerENS_10unique_ptrIS6_NS_14default_deleteIS6_EEEEEEPvEEEEEEE7__allocB9nqe210106Ev, symObjAddr: 0x6900, symBinAddr: 0x1000076B0, symSize: 0x10 }
  - { offset: 0xBAF92, size: 0x8, addend: 0x0, symName: __ZNSt3__125__bucket_list_deallocatorINS_9allocatorIPNS_16__hash_node_baseIPNS_11__hash_nodeINS_17__hash_value_typeIPN5Tiled9TileLayerENS_10unique_ptrIS6_NS_14default_deleteIS6_EEEEEEPvEEEEEEE4sizeB9nqe210106Ev, symObjAddr: 0x6910, symBinAddr: 0x1000076C0, symSize: 0x10 }
  - { offset: 0xBAFB8, size: 0x8, addend: 0x0, symName: __ZNSt3__19allocatorIPNS_16__hash_node_baseIPNS_11__hash_nodeINS_17__hash_value_typeIPN5Tiled9TileLayerENS_10unique_ptrIS5_NS_14default_deleteIS5_EEEEEEPvEEEEE10deallocateB9nqe210106EPSG_m, symObjAddr: 0x6920, symBinAddr: 0x1000076D0, symSize: 0x30 }
  - { offset: 0xBAFFA, size: 0x8, addend: 0x0, symName: __ZN5QHashIPKN5Tiled5LayerE4QMapI7QString8QVariantEED2Ev, symObjAddr: 0x69A0, symBinAddr: 0x100007750, symSize: 0x60 }
  - { offset: 0xBB024, size: 0x8, addend: 0x0, symName: __ZN12QHashPrivate4DataINS_4NodeIPKN5Tiled5LayerE4QMapI7QString8QVariantEEEED1Ev, symObjAddr: 0x6A00, symBinAddr: 0x1000077B0, symSize: 0x20 }
  - { offset: 0xBB04E, size: 0x8, addend: 0x0, symName: __ZN12QHashPrivate4DataINS_4NodeIPKN5Tiled5LayerE4QMapI7QString8QVariantEEEED2Ev, symObjAddr: 0x6A20, symBinAddr: 0x1000077D0, symSize: 0x80 }
  - { offset: 0xBB078, size: 0x8, addend: 0x0, symName: __ZN12QHashPrivate4SpanINS_4NodeIPKN5Tiled5LayerE4QMapI7QString8QVariantEEEED1Ev, symObjAddr: 0x6AA0, symBinAddr: 0x100007850, symSize: 0x20 }
  - { offset: 0xBB0A2, size: 0x8, addend: 0x0, symName: __ZN12QHashPrivate4SpanINS_4NodeIPKN5Tiled5LayerE4QMapI7QString8QVariantEEEED2Ev, symObjAddr: 0x6AC0, symBinAddr: 0x100007870, symSize: 0x20 }
  - { offset: 0xBB0CC, size: 0x8, addend: 0x0, symName: __ZN12QHashPrivate4SpanINS_4NodeIPKN5Tiled5LayerE4QMapI7QString8QVariantEEEE8freeDataEv, symObjAddr: 0x6AE0, symBinAddr: 0x100007890, symSize: 0xE0 }
  - { offset: 0xBB136, size: 0x8, addend: 0x0, symName: __ZN12QHashPrivate4SpanINS_4NodeIPKN5Tiled5LayerE4QMapI7QString8QVariantEEEE5Entry4nodeEv, symObjAddr: 0x6BC0, symBinAddr: 0x100007970, symSize: 0x10 }
  - { offset: 0xBB15C, size: 0x8, addend: 0x0, symName: __ZN12QHashPrivate4NodeIPKN5Tiled5LayerE4QMapI7QString8QVariantEED1Ev, symObjAddr: 0x6BD0, symBinAddr: 0x100007980, symSize: 0x20 }
  - { offset: 0xBB188, size: 0x8, addend: 0x0, symName: __ZN12QHashPrivate4NodeIPKN5Tiled5LayerE4QMapI7QString8QVariantEED2Ev, symObjAddr: 0x6BF0, symBinAddr: 0x1000079A0, symSize: 0x20 }
  - { offset: 0xBB1B4, size: 0x8, addend: 0x0, symName: __ZN4QMapI7QString8QVariantED1Ev, symObjAddr: 0x6C10, symBinAddr: 0x1000079C0, symSize: 0x20 }
  - { offset: 0xBB1E0, size: 0x8, addend: 0x0, symName: __ZN4QMapI7QString8QVariantED2Ev, symObjAddr: 0x6C30, symBinAddr: 0x1000079E0, symSize: 0x20 }
  - { offset: 0xBB20C, size: 0x8, addend: 0x0, symName: __ZN9QtPrivate30QExplicitlySharedDataPointerV2I8QMapDataINSt3__13mapI7QString8QVariantNS2_4lessIS4_EENS2_9allocatorINS2_4pairIKS4_S5_EEEEEEEED1Ev, symObjAddr: 0x6C50, symBinAddr: 0x100007A00, symSize: 0x20 }
  - { offset: 0xBB236, size: 0x8, addend: 0x0, symName: __ZN9QtPrivate30QExplicitlySharedDataPointerV2I8QMapDataINSt3__13mapI7QString8QVariantNS2_4lessIS4_EENS2_9allocatorINS2_4pairIKS4_S5_EEEEEEEED2Ev, symObjAddr: 0x6C70, symBinAddr: 0x100007A20, symSize: 0x70 }
  - { offset: 0xBB260, size: 0x8, addend: 0x0, symName: __ZNK2Qt23totally_ordered_wrapperIP8QMapDataINSt3__13mapI7QString8QVariantNS2_4lessIS4_EENS2_9allocatorINS2_4pairIKS4_S5_EEEEEEEEcvbEv, symObjAddr: 0x6CE0, symBinAddr: 0x100007A90, symSize: 0x30 }
  - { offset: 0xBB286, size: 0x8, addend: 0x0, symName: __ZNK2Qt23totally_ordered_wrapperIP8QMapDataINSt3__13mapI7QString8QVariantNS2_4lessIS4_EENS2_9allocatorINS2_4pairIKS4_S5_EEEEEEEEptEv, symObjAddr: 0x6D10, symBinAddr: 0x100007AC0, symSize: 0x20 }
  - { offset: 0xBB2AC, size: 0x8, addend: 0x0, symName: __ZNK2Qt23totally_ordered_wrapperIP8QMapDataINSt3__13mapI7QString8QVariantNS2_4lessIS4_EENS2_9allocatorINS2_4pairIKS4_S5_EEEEEEEE3getEv, symObjAddr: 0x6D30, symBinAddr: 0x100007AE0, symSize: 0x20 }
  - { offset: 0xBB2D2, size: 0x8, addend: 0x0, symName: __ZN8QMapDataINSt3__13mapI7QString8QVariantNS0_4lessIS2_EENS0_9allocatorINS0_4pairIKS2_S3_EEEEEEED1Ev, symObjAddr: 0x6D50, symBinAddr: 0x100007B00, symSize: 0x20 }
  - { offset: 0xBB2FE, size: 0x8, addend: 0x0, symName: __ZN8QMapDataINSt3__13mapI7QString8QVariantNS0_4lessIS2_EENS0_9allocatorINS0_4pairIKS2_S3_EEEEEEED2Ev, symObjAddr: 0x6D70, symBinAddr: 0x100007B20, symSize: 0x20 }
  - { offset: 0xBB32A, size: 0x8, addend: 0x0, symName: __ZNSt3__13mapI7QString8QVariantNS_4lessIS1_EENS_9allocatorINS_4pairIKS1_S2_EEEEED1B9nqe210106Ev, symObjAddr: 0x6D90, symBinAddr: 0x100007B40, symSize: 0x20 }
  - { offset: 0xBB354, size: 0x8, addend: 0x0, symName: __ZNSt3__13mapI7QString8QVariantNS_4lessIS1_EENS_9allocatorINS_4pairIKS1_S2_EEEEED2B9nqe210106Ev, symObjAddr: 0x6DB0, symBinAddr: 0x100007B60, symSize: 0x20 }
  - { offset: 0xBB37E, size: 0x8, addend: 0x0, symName: __ZNSt3__16__treeINS_12__value_typeI7QString8QVariantEENS_19__map_value_compareIS2_NS_4pairIKS2_S3_EENS_4lessIS2_EELb1EEENS_9allocatorIS8_EEED1Ev, symObjAddr: 0x6DD0, symBinAddr: 0x100007B80, symSize: 0x20 }
  - { offset: 0xBB3AA, size: 0x8, addend: 0x0, symName: __ZNSt3__16__treeINS_12__value_typeI7QString8QVariantEENS_19__map_value_compareIS2_NS_4pairIKS2_S3_EENS_4lessIS2_EELb1EEENS_9allocatorIS8_EEED2Ev, symObjAddr: 0x6DF0, symBinAddr: 0x100007BA0, symSize: 0x30 }
  - { offset: 0xBB3D6, size: 0x8, addend: 0x0, symName: __ZNSt3__16__treeINS_12__value_typeI7QString8QVariantEENS_19__map_value_compareIS2_NS_4pairIKS2_S3_EENS_4lessIS2_EELb1EEENS_9allocatorIS8_EEE7destroyEPNS_11__tree_nodeIS4_PvEE, symObjAddr: 0x6E20, symBinAddr: 0x100007BD0, symSize: 0x80 }
  - { offset: 0xBB423, size: 0x8, addend: 0x0, symName: __ZNKSt3__16__treeINS_12__value_typeI7QString8QVariantEENS_19__map_value_compareIS2_NS_4pairIKS2_S3_EENS_4lessIS2_EELb1EEENS_9allocatorIS8_EEE6__rootB9nqe210106Ev, symObjAddr: 0x6EA0, symBinAddr: 0x100007C50, symSize: 0x20 }
  - { offset: 0xBB449, size: 0x8, addend: 0x0, symName: __ZNSt3__16__treeINS_12__value_typeI7QString8QVariantEENS_19__map_value_compareIS2_NS_4pairIKS2_S3_EENS_4lessIS2_EELb1EEENS_9allocatorIS8_EEE12__node_allocB9nqe210106Ev, symObjAddr: 0x6EC0, symBinAddr: 0x100007C70, symSize: 0x20 }
  - { offset: 0xBB46F, size: 0x8, addend: 0x0, symName: __ZNSt3__116allocator_traitsINS_9allocatorINS_11__tree_nodeINS_12__value_typeI7QString8QVariantEEPvEEEEE7destroyB9nqe210106INS_4pairIKS4_S5_EELi0EEEvRS9_PT_, symObjAddr: 0x6EE0, symBinAddr: 0x100007C90, symSize: 0x20 }
  - { offset: 0xBB4AE, size: 0x8, addend: 0x0, symName: __ZNSt3__116allocator_traitsINS_9allocatorINS_11__tree_nodeINS_12__value_typeI7QString8QVariantEEPvEEEEE10deallocateB9nqe210106ERS9_PS8_m, symObjAddr: 0x6F00, symBinAddr: 0x100007CB0, symSize: 0x30 }
  - { offset: 0xBB4F0, size: 0x8, addend: 0x0, symName: __ZNSt3__14pairIK7QString8QVariantED1Ev, symObjAddr: 0x6F50, symBinAddr: 0x100007D00, symSize: 0x20 }
  - { offset: 0xBB51C, size: 0x8, addend: 0x0, symName: __ZNSt3__14pairIK7QString8QVariantED2Ev, symObjAddr: 0x6F70, symBinAddr: 0x100007D20, symSize: 0x30 }
  - { offset: 0xBB548, size: 0x8, addend: 0x0, symName: __ZNSt3__19allocatorINS_11__tree_nodeINS_12__value_typeI7QString8QVariantEEPvEEE10deallocateB9nqe210106EPS7_m, symObjAddr: 0x6FA0, symBinAddr: 0x100007D50, symSize: 0x30 }
  - { offset: 0xBB58A, size: 0x8, addend: 0x0, symName: __ZNKSt3__16__treeINS_12__value_typeI7QString8QVariantEENS_19__map_value_compareIS2_NS_4pairIKS2_S3_EENS_4lessIS2_EELb1EEENS_9allocatorIS8_EEE10__end_nodeB9nqe210106Ev, symObjAddr: 0x7020, symBinAddr: 0x100007DD0, symSize: 0x20 }
  - { offset: 0xBB5B6, size: 0x8, addend: 0x0, symName: __ZNSt3__114pointer_traitsIPNS_15__tree_end_nodeIPNS_16__tree_node_baseIPvEEEEE10pointer_toB9nqe210106ERS6_, symObjAddr: 0x7040, symBinAddr: 0x100007DF0, symSize: 0x10 }
  - { offset: 0xBB5D9, size: 0x8, addend: 0x0, symName: __ZN4QSetIPN5Tiled9MapObjectEED2Ev, symObjAddr: 0x7050, symBinAddr: 0x100007E00, symSize: 0x20 }
  - { offset: 0xBB605, size: 0x8, addend: 0x0, symName: __ZN5QHashIPN5Tiled9MapObjectE15QHashDummyValueED1Ev, symObjAddr: 0x7070, symBinAddr: 0x100007E20, symSize: 0x20 }
  - { offset: 0xBB62F, size: 0x8, addend: 0x0, symName: __ZN5QHashIPN5Tiled9MapObjectE15QHashDummyValueED2Ev, symObjAddr: 0x7090, symBinAddr: 0x100007E40, symSize: 0x60 }
  - { offset: 0xBB659, size: 0x8, addend: 0x0, symName: __ZN12QHashPrivate4DataINS_4NodeIPN5Tiled9MapObjectE15QHashDummyValueEEED1Ev, symObjAddr: 0x70F0, symBinAddr: 0x100007EA0, symSize: 0x20 }
  - { offset: 0xBB683, size: 0x8, addend: 0x0, symName: __ZN12QHashPrivate4DataINS_4NodeIPN5Tiled9MapObjectE15QHashDummyValueEEED2Ev, symObjAddr: 0x7110, symBinAddr: 0x100007EC0, symSize: 0x80 }
  - { offset: 0xBB6AD, size: 0x8, addend: 0x0, symName: __ZN12QHashPrivate4SpanINS_4NodeIPN5Tiled9MapObjectE15QHashDummyValueEEED1Ev, symObjAddr: 0x7190, symBinAddr: 0x100007F40, symSize: 0x20 }
  - { offset: 0xBB6D7, size: 0x8, addend: 0x0, symName: __ZN12QHashPrivate4SpanINS_4NodeIPN5Tiled9MapObjectE15QHashDummyValueEEED2Ev, symObjAddr: 0x71B0, symBinAddr: 0x100007F60, symSize: 0x20 }
  - { offset: 0xBB701, size: 0x8, addend: 0x0, symName: __ZN12QHashPrivate4SpanINS_4NodeIPN5Tiled9MapObjectE15QHashDummyValueEEE8freeDataEv, symObjAddr: 0x71D0, symBinAddr: 0x100007F80, symSize: 0x60 }
  - { offset: 0xBB727, size: 0x8, addend: 0x0, symName: __ZN5QListIS_IN5Tiled19AddRemoveMapObjects5EntryEEED2Ev, symObjAddr: 0x7230, symBinAddr: 0x100007FE0, symSize: 0x20 }
  - { offset: 0xBB753, size: 0x8, addend: 0x0, symName: __ZN17QArrayDataPointerI5QListIN5Tiled19AddRemoveMapObjects5EntryEEED1Ev, symObjAddr: 0x7250, symBinAddr: 0x100008000, symSize: 0x20 }
  - { offset: 0xBB77D, size: 0x8, addend: 0x0, symName: __ZN17QArrayDataPointerI5QListIN5Tiled19AddRemoveMapObjects5EntryEEED2Ev, symObjAddr: 0x7270, symBinAddr: 0x100008020, symSize: 0x50 }
  - { offset: 0xBB7A7, size: 0x8, addend: 0x0, symName: __ZN17QArrayDataPointerI5QListIN5Tiled19AddRemoveMapObjects5EntryEEE5derefEv, symObjAddr: 0x72C0, symBinAddr: 0x100008070, symSize: 0x40 }
  - { offset: 0xBB7CD, size: 0x8, addend: 0x0, symName: __ZN17QArrayDataPointerI5QListIN5Tiled19AddRemoveMapObjects5EntryEEEptEv, symObjAddr: 0x7300, symBinAddr: 0x1000080B0, symSize: 0x10 }
  - { offset: 0xBB7F3, size: 0x8, addend: 0x0, symName: __ZN9QtPrivate16QGenericArrayOpsI5QListIN5Tiled19AddRemoveMapObjects5EntryEEE10destroyAllEv, symObjAddr: 0x7310, symBinAddr: 0x1000080C0, symSize: 0x90 }
  - { offset: 0xBB819, size: 0x8, addend: 0x0, symName: __ZN15QTypedArrayDataI5QListIN5Tiled19AddRemoveMapObjects5EntryEEE10deallocateEP10QArrayData, symObjAddr: 0x73A0, symBinAddr: 0x100008150, symSize: 0x30 }
  - { offset: 0xBB83C, size: 0x8, addend: 0x0, symName: __ZN17QArrayDataPointerI5QListIN5Tiled19AddRemoveMapObjects5EntryEEE5beginEv, symObjAddr: 0x7400, symBinAddr: 0x1000081B0, symSize: 0x20 }
  - { offset: 0xBB862, size: 0x8, addend: 0x0, symName: __ZN17QArrayDataPointerI5QListIN5Tiled19AddRemoveMapObjects5EntryEEE3endEv, symObjAddr: 0x7420, symBinAddr: 0x1000081D0, symSize: 0x30 }
  - { offset: 0xBB888, size: 0x8, addend: 0x0, symName: __ZN5QListIN5Tiled19AddRemoveMapObjects5EntryEED1Ev, symObjAddr: 0x74B0, symBinAddr: 0x100008260, symSize: 0x20 }
  - { offset: 0xBB8B4, size: 0x8, addend: 0x0, symName: __ZN5QListIN5Tiled19AddRemoveMapObjects5EntryEED2Ev, symObjAddr: 0x74D0, symBinAddr: 0x100008280, symSize: 0x20 }
  - { offset: 0xBB8E0, size: 0x8, addend: 0x0, symName: __ZN17QArrayDataPointerIN5Tiled19AddRemoveMapObjects5EntryEED1Ev, symObjAddr: 0x74F0, symBinAddr: 0x1000082A0, symSize: 0x20 }
  - { offset: 0xBB90A, size: 0x8, addend: 0x0, symName: __ZN17QArrayDataPointerIN5Tiled19AddRemoveMapObjects5EntryEED2Ev, symObjAddr: 0x7510, symBinAddr: 0x1000082C0, symSize: 0x50 }
  - { offset: 0xBB934, size: 0x8, addend: 0x0, symName: __ZN17QArrayDataPointerIN5Tiled19AddRemoveMapObjects5EntryEE5derefEv, symObjAddr: 0x7560, symBinAddr: 0x100008310, symSize: 0x40 }
  - { offset: 0xBB95A, size: 0x8, addend: 0x0, symName: __ZN17QArrayDataPointerIN5Tiled19AddRemoveMapObjects5EntryEEptEv, symObjAddr: 0x75A0, symBinAddr: 0x100008350, symSize: 0x10 }
  - { offset: 0xBB980, size: 0x8, addend: 0x0, symName: __ZN9QtPrivate16QGenericArrayOpsIN5Tiled19AddRemoveMapObjects5EntryEE10destroyAllEv, symObjAddr: 0x75B0, symBinAddr: 0x100008360, symSize: 0x90 }
  - { offset: 0xBB9A6, size: 0x8, addend: 0x0, symName: __ZN15QTypedArrayDataIN5Tiled19AddRemoveMapObjects5EntryEE10deallocateEP10QArrayData, symObjAddr: 0x7640, symBinAddr: 0x1000083F0, symSize: 0x30 }
  - { offset: 0xBB9C9, size: 0x8, addend: 0x0, symName: __ZN17QArrayDataPointerIN5Tiled19AddRemoveMapObjects5EntryEE5beginEv, symObjAddr: 0x76A0, symBinAddr: 0x100008450, symSize: 0x20 }
  - { offset: 0xBB9EF, size: 0x8, addend: 0x0, symName: __ZN17QArrayDataPointerIN5Tiled19AddRemoveMapObjects5EntryEE3endEv, symObjAddr: 0x76C0, symBinAddr: 0x100008470, symSize: 0x30 }
  - { offset: 0xBBA15, size: 0x8, addend: 0x0, symName: __ZN17QArrayDataPointerIN5Tiled19AddRemoveMapObjects5EntryEE4dataEv, symObjAddr: 0x7740, symBinAddr: 0x1000084F0, symSize: 0x20 }
  - { offset: 0xBBA3B, size: 0x8, addend: 0x0, symName: __ZN17QArrayDataPointerI5QListIN5Tiled19AddRemoveMapObjects5EntryEEE4dataEv, symObjAddr: 0x7760, symBinAddr: 0x100008510, symSize: 0x20 }
  - { offset: 0xBBA61, size: 0x8, addend: 0x0, symName: __ZNSt3__16vectorINS_10unique_ptrIN5Tiled5LayerENS_14default_deleteIS3_EEEENS_9allocatorIS6_EEED2B9nqe210106Ev, symObjAddr: 0x7780, symBinAddr: 0x100008530, symSize: 0x40 }
  - { offset: 0xBBA8B, size: 0x8, addend: 0x0, symName: __ZNSt3__16vectorINS_10unique_ptrIN5Tiled5LayerENS_14default_deleteIS3_EEEENS_9allocatorIS6_EEE16__destroy_vectorC1B9nqe210106ERS9_, symObjAddr: 0x77C0, symBinAddr: 0x100008570, symSize: 0x30 }
  - { offset: 0xBBAC3, size: 0x8, addend: 0x0, symName: __ZNSt3__16vectorINS_10unique_ptrIN5Tiled5LayerENS_14default_deleteIS3_EEEENS_9allocatorIS6_EEE16__destroy_vectorclB9nqe210106Ev, symObjAddr: 0x77F0, symBinAddr: 0x1000085A0, symSize: 0x70 }
  - { offset: 0xBBAE9, size: 0x8, addend: 0x0, symName: __ZNSt3__16vectorINS_10unique_ptrIN5Tiled5LayerENS_14default_deleteIS3_EEEENS_9allocatorIS6_EEE16__destroy_vectorC2B9nqe210106ERS9_, symObjAddr: 0x7860, symBinAddr: 0x100008610, symSize: 0x20 }
  - { offset: 0xBBB21, size: 0x8, addend: 0x0, symName: __ZNSt3__16vectorINS_10unique_ptrIN5Tiled5LayerENS_14default_deleteIS3_EEEENS_9allocatorIS6_EEE5clearB9nqe210106Ev, symObjAddr: 0x7880, symBinAddr: 0x100008630, symSize: 0x40 }
  - { offset: 0xBBB56, size: 0x8, addend: 0x0, symName: __ZNKSt3__16vectorINS_10unique_ptrIN5Tiled5LayerENS_14default_deleteIS3_EEEENS_9allocatorIS6_EEE17__annotate_deleteB9nqe210106Ev, symObjAddr: 0x78C0, symBinAddr: 0x100008670, symSize: 0x80 }
  - { offset: 0xBBB7C, size: 0x8, addend: 0x0, symName: __ZNSt3__116allocator_traitsINS_9allocatorINS_10unique_ptrIN5Tiled5LayerENS_14default_deleteIS4_EEEEEEE10deallocateB9nqe210106ERS8_PS7_m, symObjAddr: 0x7940, symBinAddr: 0x1000086F0, symSize: 0x30 }
  - { offset: 0xBBBBE, size: 0x8, addend: 0x0, symName: __ZNKSt3__16vectorINS_10unique_ptrIN5Tiled5LayerENS_14default_deleteIS3_EEEENS_9allocatorIS6_EEE8capacityB9nqe210106Ev, symObjAddr: 0x7970, symBinAddr: 0x100008720, symSize: 0x20 }
  - { offset: 0xBBBE4, size: 0x8, addend: 0x0, symName: __ZNKSt3__16vectorINS_10unique_ptrIN5Tiled5LayerENS_14default_deleteIS3_EEEENS_9allocatorIS6_EEE4sizeB9nqe210106Ev, symObjAddr: 0x7990, symBinAddr: 0x100008740, symSize: 0x20 }
  - { offset: 0xBBC0A, size: 0x8, addend: 0x0, symName: __ZNSt3__16vectorINS_10unique_ptrIN5Tiled5LayerENS_14default_deleteIS3_EEEENS_9allocatorIS6_EEE22__base_destruct_at_endB9nqe210106EPS6_, symObjAddr: 0x79B0, symBinAddr: 0x100008760, symSize: 0x80 }
  - { offset: 0xBBC4E, size: 0x8, addend: 0x0, symName: __ZNKSt3__16vectorINS_10unique_ptrIN5Tiled5LayerENS_14default_deleteIS3_EEEENS_9allocatorIS6_EEE17__annotate_shrinkB9nqe210106Em, symObjAddr: 0x7A30, symBinAddr: 0x1000087E0, symSize: 0x70 }
  - { offset: 0xBBC83, size: 0x8, addend: 0x0, symName: __ZNSt3__116allocator_traitsINS_9allocatorINS_10unique_ptrIN5Tiled5LayerENS_14default_deleteIS4_EEEEEEE7destroyB9nqe210106IS7_Li0EEEvRS8_PT_, symObjAddr: 0x7AA0, symBinAddr: 0x100008850, symSize: 0x30 }
  - { offset: 0xBBCC5, size: 0x8, addend: 0x0, symName: __ZNSt3__19allocatorINS_10unique_ptrIN5Tiled5LayerENS_14default_deleteIS3_EEEEE7destroyB9nqe210106EPS6_, symObjAddr: 0x7AE0, symBinAddr: 0x100008890, symSize: 0x20 }
  - { offset: 0xBBCF9, size: 0x8, addend: 0x0, symName: __ZNKSt3__16vectorINS_10unique_ptrIN5Tiled5LayerENS_14default_deleteIS3_EEEENS_9allocatorIS6_EEE31__annotate_contiguous_containerB9nqe210106EPKvSB_, symObjAddr: 0x7B00, symBinAddr: 0x1000088B0, symSize: 0x60 }
  - { offset: 0xBBD3D, size: 0x8, addend: 0x0, symName: __ZNKSt3__16vectorINS_10unique_ptrIN5Tiled5LayerENS_14default_deleteIS3_EEEENS_9allocatorIS6_EEE4dataB9nqe210106Ev, symObjAddr: 0x7B60, symBinAddr: 0x100008910, symSize: 0x20 }
  - { offset: 0xBBD63, size: 0x8, addend: 0x0, symName: __ZNSt3__19allocatorINS_10unique_ptrIN5Tiled5LayerENS_14default_deleteIS3_EEEEE10deallocateB9nqe210106EPS6_m, symObjAddr: 0x7BA0, symBinAddr: 0x100008950, symSize: 0x30 }
  - { offset: 0xBBDA5, size: 0x8, addend: 0x0, symName: __ZN5QListI14QSharedPointerIN5Tiled7TilesetEEED2Ev, symObjAddr: 0x7C20, symBinAddr: 0x1000089D0, symSize: 0x20 }
  - { offset: 0xBBDD1, size: 0x8, addend: 0x0, symName: __ZN17QArrayDataPointerI14QSharedPointerIN5Tiled7TilesetEEED1Ev, symObjAddr: 0x7C40, symBinAddr: 0x1000089F0, symSize: 0x20 }
  - { offset: 0xBBDFB, size: 0x8, addend: 0x0, symName: __ZN17QArrayDataPointerI14QSharedPointerIN5Tiled7TilesetEEED2Ev, symObjAddr: 0x7C60, symBinAddr: 0x100008A10, symSize: 0x50 }
  - { offset: 0xBBE25, size: 0x8, addend: 0x0, symName: __ZN17QArrayDataPointerI14QSharedPointerIN5Tiled7TilesetEEE5derefEv, symObjAddr: 0x7CB0, symBinAddr: 0x100008A60, symSize: 0x40 }
  - { offset: 0xBBE4B, size: 0x8, addend: 0x0, symName: __ZN17QArrayDataPointerI14QSharedPointerIN5Tiled7TilesetEEEptEv, symObjAddr: 0x7CF0, symBinAddr: 0x100008AA0, symSize: 0x10 }
  - { offset: 0xBBE71, size: 0x8, addend: 0x0, symName: __ZN9QtPrivate16QGenericArrayOpsI14QSharedPointerIN5Tiled7TilesetEEE10destroyAllEv, symObjAddr: 0x7D00, symBinAddr: 0x100008AB0, symSize: 0x90 }
  - { offset: 0xBBE97, size: 0x8, addend: 0x0, symName: __ZN15QTypedArrayDataI14QSharedPointerIN5Tiled7TilesetEEE10deallocateEP10QArrayData, symObjAddr: 0x7D90, symBinAddr: 0x100008B40, symSize: 0x30 }
  - { offset: 0xBBEBA, size: 0x8, addend: 0x0, symName: __ZN17QArrayDataPointerI14QSharedPointerIN5Tiled7TilesetEEE5beginEv, symObjAddr: 0x7DF0, symBinAddr: 0x100008BA0, symSize: 0x20 }
  - { offset: 0xBBEE0, size: 0x8, addend: 0x0, symName: __ZN17QArrayDataPointerI14QSharedPointerIN5Tiled7TilesetEEE3endEv, symObjAddr: 0x7E10, symBinAddr: 0x100008BC0, symSize: 0x30 }
  - { offset: 0xBBF06, size: 0x8, addend: 0x0, symName: __ZN14QSharedPointerIN5Tiled7TilesetEED1Ev, symObjAddr: 0x7EA0, symBinAddr: 0x100008C50, symSize: 0x20 }
  - { offset: 0xBBF30, size: 0x8, addend: 0x0, symName: __ZN14QSharedPointerIN5Tiled7TilesetEED2Ev, symObjAddr: 0x7EC0, symBinAddr: 0x100008C70, symSize: 0x20 }
  - { offset: 0xBBF5A, size: 0x8, addend: 0x0, symName: __ZN14QSharedPointerIN5Tiled7TilesetEE5derefEv, symObjAddr: 0x7EE0, symBinAddr: 0x100008C90, symSize: 0x20 }
  - { offset: 0xBBF80, size: 0x8, addend: 0x0, symName: __ZN14QSharedPointerIN5Tiled7TilesetEE5derefEPN15QtSharedPointer20ExternalRefCountDataE, symObjAddr: 0x7F00, symBinAddr: 0x100008CB0, symSize: 0x70 }
  - { offset: 0xBBFA4, size: 0x8, addend: 0x0, symName: __ZN15QtSharedPointer20ExternalRefCountData7destroyEv, symObjAddr: 0x7F70, symBinAddr: 0x100008D20, symSize: 0x20 }
  - { offset: 0xBBFCA, size: 0x8, addend: 0x0, symName: __ZN15QtSharedPointer20ExternalRefCountDataD1Ev, symObjAddr: 0x7F90, symBinAddr: 0x100008D40, symSize: 0x20 }
  - { offset: 0xBBFF4, size: 0x8, addend: 0x0, symName: __ZN15QtSharedPointer20ExternalRefCountDatadlEPv, symObjAddr: 0x7FB0, symBinAddr: 0x100008D60, symSize: 0x20 }
  - { offset: 0xBC017, size: 0x8, addend: 0x0, symName: __ZN15QtSharedPointer20ExternalRefCountDataD2Ev, symObjAddr: 0x7FD0, symBinAddr: 0x100008D80, symSize: 0x70 }
  - { offset: 0xBC041, size: 0x8, addend: 0x0, symName: __ZN17QArrayDataPointerI14QSharedPointerIN5Tiled7TilesetEEE4dataEv, symObjAddr: 0x8040, symBinAddr: 0x100008DF0, symSize: 0x20 }
  - { offset: 0xBC067, size: 0x8, addend: 0x0, symName: __ZN16test_AutoMappingC2Ev, symObjAddr: 0x8060, symBinAddr: 0x100008E10, symSize: 0x40 }
  - { offset: 0xBC093, size: 0x8, addend: 0x0, symName: __ZN16test_AutoMappingD2Ev, symObjAddr: 0x80A0, symBinAddr: 0x100008E50, symSize: 0x20 }
  - { offset: 0xBC0BF, size: 0x8, addend: 0x0, symName: __ZN9QtPrivate17MetaObjectForTypeI16test_AutoMappingvE18metaObjectFunctionEPKNS_18QMetaTypeInterfaceE, symObjAddr: 0x80C0, symBinAddr: 0x100008E70, symSize: 0x20 }
  - { offset: 0xBC113, size: 0x8, addend: 0x0, symName: __ZZN9QtPrivate16QMetaTypeForTypeI16test_AutoMappingE13getDefaultCtrEvENUlPKNS_18QMetaTypeInterfaceEPvE_8__invokeES5_S6_, symObjAddr: 0x80E0, symBinAddr: 0x100008E90, symSize: 0x30 }
  - { offset: 0xBC178, size: 0x8, addend: 0x0, symName: __ZZN9QtPrivate16QMetaTypeForTypeI16test_AutoMappingE7getDtorEvENUlPKNS_18QMetaTypeInterfaceEPvE_8__invokeES5_S6_, symObjAddr: 0x8110, symBinAddr: 0x100008EC0, symSize: 0x30 }
  - { offset: 0xBC1B4, size: 0x8, addend: 0x0, symName: __ZZN9QtPrivate16QMetaTypeForTypeI16test_AutoMappingE13getDefaultCtrEvENKUlPKNS_18QMetaTypeInterfaceEPvE_clES5_S6_, symObjAddr: 0x8140, symBinAddr: 0x100008EF0, symSize: 0x40 }
  - { offset: 0xBC203, size: 0x8, addend: 0x0, symName: __ZZN9QtPrivate16QMetaTypeForTypeI16test_AutoMappingE7getDtorEvENKUlPKNS_18QMetaTypeInterfaceEPvE_clES5_S6_, symObjAddr: 0x8180, symBinAddr: 0x100008F30, symSize: 0x30 }
  - { offset: 0xBC248, size: 0x8, addend: 0x0, symName: __ZN9QMetaTypeC2Ev, symObjAddr: 0x81B0, symBinAddr: 0x100008F60, symSize: 0x20 }
  - { offset: 0xBC272, size: 0x8, addend: 0x0, symName: __ZN17QArrayDataPointerIDsED2Ev, symObjAddr: 0x81D0, symBinAddr: 0x100008F80, symSize: 0x40 }
  - { offset: 0xBC29C, size: 0x8, addend: 0x0, symName: __ZN17QArrayDataPointerIDsE5derefEv, symObjAddr: 0x8210, symBinAddr: 0x100008FC0, symSize: 0x40 }
  - { offset: 0xBC2C2, size: 0x8, addend: 0x0, symName: __ZN17QArrayDataPointerIDsEptEv, symObjAddr: 0x8250, symBinAddr: 0x100009000, symSize: 0x10 }
  - { offset: 0xBC2E8, size: 0x8, addend: 0x0, symName: __ZN9QtPrivate12QPodArrayOpsIDsE10destroyAllEv, symObjAddr: 0x8260, symBinAddr: 0x100009010, symSize: 0x70 }
  - { offset: 0xBC30E, size: 0x8, addend: 0x0, symName: __ZN15QTypedArrayDataIDsE10deallocateEP10QArrayData, symObjAddr: 0x82D0, symBinAddr: 0x100009080, symSize: 0x30 }
  - { offset: 0xBC331, size: 0x8, addend: 0x0, symName: __ZN17QArrayDataPointerIDsEC1EP15QTypedArrayDataIDsEPDsx, symObjAddr: 0x8300, symBinAddr: 0x1000090B0, symSize: 0x40 }
  - { offset: 0xBC385, size: 0x8, addend: 0x0, symName: __ZN17QArrayDataPointerIDsEC2EP15QTypedArrayDataIDsEPDsx, symObjAddr: 0x8340, symBinAddr: 0x1000090F0, symSize: 0x40 }
  - { offset: 0xBC3D9, size: 0x8, addend: 0x0, symName: __ZNSt3__110unique_ptrIN5Tiled3MapENS_14default_deleteIS2_EEED2B9nqe210106Ev, symObjAddr: 0x8380, symBinAddr: 0x100009130, symSize: 0x20 }
  - { offset: 0xBC403, size: 0x8, addend: 0x0, symName: __ZNSt3__110unique_ptrIN5Tiled3MapENS_14default_deleteIS2_EEE5resetB9nqe210106EPS2_, symObjAddr: 0x83A0, symBinAddr: 0x100009150, symSize: 0x40 }
  - { offset: 0xBC447, size: 0x8, addend: 0x0, symName: __ZNKSt3__114default_deleteIN5Tiled3MapEEclB9nqe210106EPS2_, symObjAddr: 0x83E0, symBinAddr: 0x100009190, symSize: 0x30 }
  - { offset: 0xBC47B, size: 0x8, addend: 0x0, symName: __ZNSt3__110unique_ptrIN5Tiled3MapENS_14default_deleteIS2_EEEC2B9nqe210106EOS5_, symObjAddr: 0x8410, symBinAddr: 0x1000091C0, symSize: 0x40 }
  - { offset: 0xBC4B3, size: 0x8, addend: 0x0, symName: __ZNSt3__110unique_ptrIN5Tiled3MapENS_14default_deleteIS2_EEE7releaseB9nqe210106Ev, symObjAddr: 0x8450, symBinAddr: 0x100009200, symSize: 0x20 }
  - { offset: 0xBC4E8, size: 0x8, addend: 0x0, symName: __ZNSt3__110unique_ptrIN5Tiled3MapENS_14default_deleteIS2_EEE11get_deleterB9nqe210106Ev, symObjAddr: 0x8470, symBinAddr: 0x100009220, symSize: 0x10 }
  - { offset: 0xBC50E, size: 0x8, addend: 0x0, symName: __ZNSt3__112__hash_tableINS_17__hash_value_typeIPN5Tiled9TileLayerENS_10unique_ptrIS3_NS_14default_deleteIS3_EEEEEENS_22__unordered_map_hasherIS4_NS_4pairIKS4_S8_EENS_4hashIS4_EENS_8equal_toIS4_EELb1EEENS_21__unordered_map_equalIS4_SD_SH_SF_Lb1EEENS_9allocatorISD_EEE5beginEv, symObjAddr: 0x8480, symBinAddr: 0x100009230, symSize: 0x30 }
  - { offset: 0xBC536, size: 0x8, addend: 0x0, symName: __ZNSt3__119__hash_map_iteratorINS_15__hash_iteratorIPNS_11__hash_nodeINS_17__hash_value_typeIPN5Tiled9TileLayerENS_10unique_ptrIS5_NS_14default_deleteIS5_EEEEEEPvEEEEEC1B9nqe210106ESF_, symObjAddr: 0x84B0, symBinAddr: 0x100009260, symSize: 0x30 }
  - { offset: 0xBC56F, size: 0x8, addend: 0x0, symName: __ZNSt3__115__hash_iteratorIPNS_11__hash_nodeINS_17__hash_value_typeIPN5Tiled9TileLayerENS_10unique_ptrIS4_NS_14default_deleteIS4_EEEEEEPvEEEC1B9nqe210106EPNS_16__hash_node_baseISD_EE, symObjAddr: 0x84E0, symBinAddr: 0x100009290, symSize: 0x30 }
  - { offset: 0xBC5A8, size: 0x8, addend: 0x0, symName: __ZNSt3__115__hash_iteratorIPNS_11__hash_nodeINS_17__hash_value_typeIPN5Tiled9TileLayerENS_10unique_ptrIS4_NS_14default_deleteIS4_EEEEEEPvEEEC2B9nqe210106EPNS_16__hash_node_baseISD_EE, symObjAddr: 0x8510, symBinAddr: 0x1000092C0, symSize: 0x20 }
  - { offset: 0xBC5E1, size: 0x8, addend: 0x0, symName: __ZNSt3__119__hash_map_iteratorINS_15__hash_iteratorIPNS_11__hash_nodeINS_17__hash_value_typeIPN5Tiled9TileLayerENS_10unique_ptrIS5_NS_14default_deleteIS5_EEEEEEPvEEEEEC2B9nqe210106ESF_, symObjAddr: 0x8530, symBinAddr: 0x1000092E0, symSize: 0x20 }
  - { offset: 0xBC61A, size: 0x8, addend: 0x0, symName: __ZNSt3__112__hash_tableINS_17__hash_value_typeIPN5Tiled9TileLayerENS_10unique_ptrIS3_NS_14default_deleteIS3_EEEEEENS_22__unordered_map_hasherIS4_NS_4pairIKS4_S8_EENS_4hashIS4_EENS_8equal_toIS4_EELb1EEENS_21__unordered_map_equalIS4_SD_SH_SF_Lb1EEENS_9allocatorISD_EEE3endEv, symObjAddr: 0x8550, symBinAddr: 0x100009300, symSize: 0x30 }
  - { offset: 0xBC642, size: 0x8, addend: 0x0, symName: __ZNSt3__115__hash_iteratorIPNS_11__hash_nodeINS_17__hash_value_typeIPN5Tiled9TileLayerENS_10unique_ptrIS4_NS_14default_deleteIS4_EEEEEEPvEEEppB9nqe210106Ev, symObjAddr: 0x85E0, symBinAddr: 0x100009390, symSize: 0x20 }
  - { offset: 0xBC668, size: 0x8, addend: 0x0, symName: __ZNKSt3__115__hash_iteratorIPNS_11__hash_nodeINS_17__hash_value_typeIPN5Tiled9TileLayerENS_10unique_ptrIS4_NS_14default_deleteIS4_EEEEEEPvEEEdeB9nqe210106Ev, symObjAddr: 0x8600, symBinAddr: 0x1000093B0, symSize: 0x30 }
  - { offset: 0xBC68E, size: 0x8, addend: 0x0, symName: __ZNSt3__16vectorINS_10unique_ptrIN5Tiled5LayerENS_14default_deleteIS3_EEEENS_9allocatorIS6_EEE11__make_iterB9nqe210106EPS6_, symObjAddr: 0x8630, symBinAddr: 0x1000093E0, symSize: 0x30 }
  - { offset: 0xBC6C3, size: 0x8, addend: 0x0, symName: __ZNSt3__16vectorINS_10unique_ptrIN5Tiled5LayerENS_14default_deleteIS3_EEEENS_9allocatorIS6_EEE26__add_alignment_assumptionB9nqe210106IPS6_Li0EEESB_T_, symObjAddr: 0x8660, symBinAddr: 0x100009410, symSize: 0x10 }
  - { offset: 0xBC6F6, size: 0x8, addend: 0x0, symName: __ZNSt3__111__wrap_iterIPNS_10unique_ptrIN5Tiled5LayerENS_14default_deleteIS3_EEEEEC1B9nqe210106ES7_, symObjAddr: 0x8670, symBinAddr: 0x100009420, symSize: 0x30 }
  - { offset: 0xBC72E, size: 0x8, addend: 0x0, symName: __ZNSt3__111__wrap_iterIPNS_10unique_ptrIN5Tiled5LayerENS_14default_deleteIS3_EEEEEC2B9nqe210106ES7_, symObjAddr: 0x86A0, symBinAddr: 0x100009450, symSize: 0x20 }
  - { offset: 0xBC766, size: 0x8, addend: 0x0, symName: __ZNSt3__110unique_ptrIN5Tiled5LayerENS_14default_deleteIS2_EEEC2B9nqe210106EOS5_, symObjAddr: 0x86C0, symBinAddr: 0x100009470, symSize: 0x40 }
  - { offset: 0xBC79E, size: 0x8, addend: 0x0, symName: __ZNSt3__110unique_ptrIN5Tiled5LayerENS_14default_deleteIS2_EEE11get_deleterB9nqe210106Ev, symObjAddr: 0x8700, symBinAddr: 0x1000094B0, symSize: 0x10 }
  - { offset: 0xBC7C4, size: 0x8, addend: 0x0, symName: __ZNSt3__110unique_ptrIN5Tiled5LayerENS_14default_deleteIS2_EEED2B9nqe210106Ev, symObjAddr: 0x8710, symBinAddr: 0x1000094C0, symSize: 0x20 }
  - { offset: 0xBC7EE, size: 0x8, addend: 0x0, symName: __ZNSt3__110unique_ptrIN5Tiled5LayerENS_14default_deleteIS2_EEE5resetB9nqe210106EPS2_, symObjAddr: 0x8730, symBinAddr: 0x1000094E0, symSize: 0x40 }
  - { offset: 0xBC832, size: 0x8, addend: 0x0, symName: __ZNKSt3__114default_deleteIN5Tiled5LayerEEclB9nqe210106EPS2_, symObjAddr: 0x8770, symBinAddr: 0x100009520, symSize: 0x30 }
  - { offset: 0xBC866, size: 0x8, addend: 0x0, symName: __ZNK10QByteArray9constDataEv, symObjAddr: 0x8850, symBinAddr: 0x100009600, symSize: 0x20 }
  - { offset: 0xBC88C, size: 0x8, addend: 0x0, symName: __ZN10QByteArrayD1Ev, symObjAddr: 0x8870, symBinAddr: 0x100009620, symSize: 0x20 }
  - { offset: 0xBC8B8, size: 0x8, addend: 0x0, symName: __ZNK10QByteArray4dataEv, symObjAddr: 0x8890, symBinAddr: 0x100009640, symSize: 0x50 }
  - { offset: 0xBC8E0, size: 0x8, addend: 0x0, symName: __ZNK17QArrayDataPointerIcE4dataEv, symObjAddr: 0x88E0, symBinAddr: 0x100009690, symSize: 0x20 }
  - { offset: 0xBC906, size: 0x8, addend: 0x0, symName: __ZN10QByteArrayD2Ev, symObjAddr: 0x8900, symBinAddr: 0x1000096B0, symSize: 0x20 }
  - { offset: 0xBC932, size: 0x8, addend: 0x0, symName: __ZN17QArrayDataPointerIcED1Ev, symObjAddr: 0x8920, symBinAddr: 0x1000096D0, symSize: 0x20 }
  - { offset: 0xBC95C, size: 0x8, addend: 0x0, symName: __ZN17QArrayDataPointerIcED2Ev, symObjAddr: 0x8940, symBinAddr: 0x1000096F0, symSize: 0x40 }
  - { offset: 0xBC986, size: 0x8, addend: 0x0, symName: __ZN17QArrayDataPointerIcE5derefEv, symObjAddr: 0x8980, symBinAddr: 0x100009730, symSize: 0x40 }
  - { offset: 0xBC9AC, size: 0x8, addend: 0x0, symName: __ZN17QArrayDataPointerIcEptEv, symObjAddr: 0x89C0, symBinAddr: 0x100009770, symSize: 0x10 }
  - { offset: 0xBC9D2, size: 0x8, addend: 0x0, symName: __ZN9QtPrivate12QPodArrayOpsIcE10destroyAllEv, symObjAddr: 0x89D0, symBinAddr: 0x100009780, symSize: 0x70 }
  - { offset: 0xBC9F8, size: 0x8, addend: 0x0, symName: __ZN15QTypedArrayDataIcE10deallocateEP10QArrayData, symObjAddr: 0x8A40, symBinAddr: 0x1000097F0, symSize: 0x30 }
  - { offset: 0xBCA1B, size: 0x8, addend: 0x0, symName: __ZN10QByteArraypLEPKc, symObjAddr: 0x8E00, symBinAddr: 0x100009BB0, symSize: 0x30 }
  - { offset: 0xBCA50, size: 0x8, addend: 0x0, symName: __ZN10QByteArraypLERKS_, symObjAddr: 0x8E30, symBinAddr: 0x100009BE0, symSize: 0x30 }
  - { offset: 0xBCA85, size: 0x8, addend: 0x0, symName: __ZNK5QRect5widthEv, symObjAddr: 0x8E60, symBinAddr: 0x100009C10, symSize: 0x60 }
  - { offset: 0xBCAAD, size: 0x8, addend: 0x0, symName: __ZN10QByteArraypLEc, symObjAddr: 0x8EC0, symBinAddr: 0x100009C70, symSize: 0x30 }
  - { offset: 0xBCAE2, size: 0x8, addend: 0x0, symName: __ZNK5QRect6heightEv, symObjAddr: 0x8EF0, symBinAddr: 0x100009CA0, symSize: 0x60 }
  - { offset: 0xBCB0A, size: 0x8, addend: 0x0, symName: __ZNK5QRect1xEv, symObjAddr: 0x8F50, symBinAddr: 0x100009D00, symSize: 0x20 }
  - { offset: 0xBCB31, size: 0x8, addend: 0x0, symName: __ZNK5QRect1yEv, symObjAddr: 0x8F70, symBinAddr: 0x100009D20, symSize: 0x20 }
  - { offset: 0xBCB58, size: 0x8, addend: 0x0, symName: __ZN10QByteArray6appendEPKc, symObjAddr: 0x8F90, symBinAddr: 0x100009D40, symSize: 0x30 }
  - { offset: 0xBCB8D, size: 0x8, addend: 0x0, symName: __ZN10QByteArray6appendEPKcx, symObjAddr: 0x8FC0, symBinAddr: 0x100009D70, symSize: 0x70 }
  - { offset: 0xBCBD1, size: 0x8, addend: 0x0, symName: __ZN10QByteArray6appendE14QByteArrayView, symObjAddr: 0x9030, symBinAddr: 0x100009DE0, symSize: 0x50 }
  - { offset: 0xBCC05, size: 0x8, addend: 0x0, symName: __Z7qstrlenPKc, symObjAddr: 0x9080, symBinAddr: 0x100009E30, symSize: 0x40 }
  - { offset: 0xBCC32, size: 0x8, addend: 0x0, symName: __ZN14QByteArrayViewC1IcLb1EEEPKT_x, symObjAddr: 0x90C0, symBinAddr: 0x100009E70, symSize: 0x30 }
  - { offset: 0xBCC87, size: 0x8, addend: 0x0, symName: __ZNK10QByteArray4sizeEv, symObjAddr: 0x90F0, symBinAddr: 0x100009EA0, symSize: 0x50 }
  - { offset: 0xBCCEB, size: 0x8, addend: 0x0, symName: __ZZNK10QByteArray4sizeEvENKUlvE_clEv, symObjAddr: 0x9140, symBinAddr: 0x100009EF0, symSize: 0x50 }
  - { offset: 0xBCD15, size: 0x8, addend: 0x0, symName: __ZN14QByteArrayViewC2IcLb1EEEPKT_x, symObjAddr: 0x9190, symBinAddr: 0x100009F40, symSize: 0x90 }
  - { offset: 0xBCD6A, size: 0x8, addend: 0x0, symName: __ZN14QByteArrayView10castHelperEPKc, symObjAddr: 0x9220, symBinAddr: 0x100009FD0, symSize: 0x10 }
  - { offset: 0xBCD8D, size: 0x8, addend: 0x0, symName: __ZNK5Tiled4CelleqERKS0_, symObjAddr: 0x9230, symBinAddr: 0x100009FE0, symSize: 0x70 }
  - { offset: 0xBCDC1, size: 0x8, addend: 0x0, symName: __ZNK5Tiled4Cell5flagsEv, symObjAddr: 0x92C0, symBinAddr: 0x10000A070, symSize: 0x20 }
...
