---
triple:          'x86_64-apple-darwin'
binary-path:     '/Users/dz0400621/Documents/project/tiled/debug/yy.b2a801fc/libyy.dylib'
relocations:
  - { offset: 0x3F, size: 0x8, addend: 0x0, symName: _qt_version_tag_6_11_use, symObjAddr: 0x5560, symBinAddr: 0x5A000, symSize: 0x0 }
  - { offset: 0x31F6, size: 0x8, addend: 0x0, symName: __ZN9QtPrivateL19lengthHelperPointerIcEExPKT_, symObjAddr: 0x2C40, symBinAddr: 0x6B60, symSize: 0x50 }
  - { offset: 0x3239, size: 0x8, addend: 0x0, symName: __ZN9QtPrivate20q_relocate_overlap_nIN2Yy10JsonWriter5ScopeExEEvPT_T0_S5_, symObjAddr: 0x4310, symBinAddr: 0x8230, symSize: 0x50 }
  - { offset: 0x328F, size: 0x8, addend: 0x0, symName: __ZN9QtPrivateL19q_points_into_rangeI17QArrayDataPointerIN2Yy10JsonWriter5ScopeEEPKS4_EEbRKT0_RKT_, symObjAddr: 0x4360, symBinAddr: 0x8280, symSize: 0xA0 }
  - { offset: 0x32DB, size: 0x8, addend: 0x0, symName: __ZN9QtPrivateL19q_points_into_rangeIN2Yy10JsonWriter5ScopeENSt3__14lessIvEEEEbPKT_S9_S9_T0_, symObjAddr: 0x4400, symBinAddr: 0x8320, symSize: 0x50 }
  - { offset: 0xDE08, size: 0x8, addend: 0x0, symName: __ZNSt3__117__cxx_atomic_loadB9nqe210106IiEET_PKNS_22__cxx_atomic_base_implIS1_EENS_12memory_orderE, symObjAddr: 0x2680, symBinAddr: 0x65A0, symSize: 0x50 }
  - { offset: 0xDE56, size: 0x8, addend: 0x0, symName: __ZNSt3__122__cxx_atomic_fetch_subB9nqe210106IiEET_PNS_22__cxx_atomic_base_implIS1_EES1_NS_12memory_orderE, symObjAddr: 0x2550, symBinAddr: 0x6470, symSize: 0xC0 }
  - { offset: 0xDEA7, size: 0x8, addend: 0x0, symName: __ZNSt3__17destroyB9nqe210106IP7QStringEEvT_S3_, symObjAddr: 0x2EA0, symBinAddr: 0x6DC0, symSize: 0x30 }
  - { offset: 0xDEE6, size: 0x8, addend: 0x0, symName: __ZNSt3__19__destroyB9nqe210106IP7QStringEET_S3_S3_, symObjAddr: 0x2F20, symBinAddr: 0x6E40, symSize: 0x40 }
  - { offset: 0xDF29, size: 0x8, addend: 0x0, symName: __ZNSt3__112__destroy_atB9nqe210106I7QStringLi0EEEvPT_, symObjAddr: 0x2F60, symBinAddr: 0x6E80, symSize: 0x20 }
  - { offset: 0xDF60, size: 0x8, addend: 0x0, symName: __ZNSt3__18exchangeB9nqe210106IP15QTypedArrayDataIDsEDnEET_RS4_OT0_, symObjAddr: 0x3540, symBinAddr: 0x7460, symSize: 0x30 }
  - { offset: 0xDFBA, size: 0x8, addend: 0x0, symName: __ZNSt3__18exchangeB9nqe210106IPDsDnEET_RS2_OT0_, symObjAddr: 0x3570, symBinAddr: 0x7490, symSize: 0x30 }
  - { offset: 0xE014, size: 0x8, addend: 0x0, symName: __ZNSt3__18exchangeB9nqe210106IxiEET_RS1_OT0_, symObjAddr: 0x35A0, symBinAddr: 0x74C0, symSize: 0x30 }
  - { offset: 0xE06E, size: 0x8, addend: 0x0, symName: __ZNSt3__14dataB9nqe210106I17QArrayDataPointerIN2Yy10JsonWriter5ScopeEEEEDTcldtfp_4dataEERKT_, symObjAddr: 0x4450, symBinAddr: 0x8370, symSize: 0x20 }
  - { offset: 0xE0A3, size: 0x8, addend: 0x0, symName: __ZNSt3__18distanceB9nqe210106IPKN2Yy10JsonWriter5ScopeEEENS_15iterator_traitsIT_E15difference_typeES7_S7_, symObjAddr: 0x4470, symBinAddr: 0x8390, symSize: 0x30 }
  - { offset: 0xE0E6, size: 0x8, addend: 0x0, symName: __ZNSt3__15beginB9nqe210106I17QArrayDataPointerIN2Yy10JsonWriter5ScopeEEEEDTcldtfp_5beginEERKT_, symObjAddr: 0x44A0, symBinAddr: 0x83C0, symSize: 0x20 }
  - { offset: 0xE11B, size: 0x8, addend: 0x0, symName: __ZNSt3__13endB9nqe210106I17QArrayDataPointerIN2Yy10JsonWriter5ScopeEEEEDTcldtfp_3endEERKT_, symObjAddr: 0x44C0, symBinAddr: 0x83E0, symSize: 0x20 }
  - { offset: 0xE192, size: 0x8, addend: 0x0, symName: __ZNSt3__110__distanceB9nqe210106IPKN2Yy10JsonWriter5ScopeEEENS_15iterator_traitsIT_E15difference_typeES7_S7_NS_26random_access_iterator_tagE, symObjAddr: 0x4530, symBinAddr: 0x8450, symSize: 0x20 }
  - { offset: 0xE1DF, size: 0x8, addend: 0x0, symName: __ZNSt3__13getB9nqe210106ILm0EP15QTypedArrayDataIN2Yy10JsonWriter5ScopeEEPS4_EEONS_13tuple_elementIXT_ENS_4pairIT0_T1_EEE4typeEOSC_, symObjAddr: 0x4BC0, symBinAddr: 0x8AE0, symSize: 0x20 }
  - { offset: 0xE229, size: 0x8, addend: 0x0, symName: __ZNSt3__13getB9nqe210106ILm1EP15QTypedArrayDataIN2Yy10JsonWriter5ScopeEEPS4_EEONS_13tuple_elementIXT_ENS_4pairIT0_T1_EEE4typeEOSC_, symObjAddr: 0x4BE0, symBinAddr: 0x8B00, symSize: 0x20 }
  - { offset: 0xE2ED, size: 0x8, addend: 0x0, symName: __ZNSt3__14swapB9nqe210106IxEENS_9enable_ifIXaasr21is_move_constructibleIT_EE5valuesr18is_move_assignableIS2_EE5valueEvE4typeERS2_S5_, symObjAddr: 0x4F40, symBinAddr: 0x8E60, symSize: 0x40 }
  - { offset: 0x3B520, size: 0x8, addend: 0x0, symName: __ZN2Yy10JsonWriterC2EP9QIODevice, symObjAddr: 0x0, symBinAddr: 0x3F20, symSize: 0x60 }
  - { offset: 0x3B55A, size: 0x8, addend: 0x0, symName: __ZN6QStackIN2Yy10JsonWriter5ScopeEEC1Ev, symObjAddr: 0x60, symBinAddr: 0x3F80, symSize: 0x20 }
  - { offset: 0x3B586, size: 0x8, addend: 0x0, symName: __ZN2Yy10JsonWriterC1EP9QIODevice, symObjAddr: 0x80, symBinAddr: 0x3FA0, symSize: 0x30 }
  - { offset: 0x3B5C0, size: 0x8, addend: 0x0, symName: __ZN2Yy10JsonWriter16writeEndDocumentEv, symObjAddr: 0xB0, symBinAddr: 0x3FD0, symSize: 0x60 }
  - { offset: 0x3B5E8, size: 0x8, addend: 0x0, symName: __ZNK5QListIN2Yy10JsonWriter5ScopeEE7isEmptyEv, symObjAddr: 0x110, symBinAddr: 0x4030, symSize: 0x30 }
  - { offset: 0x3B60E, size: 0x8, addend: 0x0, symName: __ZN2Yy10JsonWriter5writeEc, symObjAddr: 0x140, symBinAddr: 0x4060, symSize: 0x30 }
  - { offset: 0x3B643, size: 0x8, addend: 0x0, symName: __ZN2Yy10JsonWriter15writeStartScopeENS0_5ScopeE, symObjAddr: 0x170, symBinAddr: 0x4090, symSize: 0x70 }
  - { offset: 0x3B679, size: 0x8, addend: 0x0, symName: __ZN2Yy10JsonWriter15prepareNewValueEv, symObjAddr: 0x1E0, symBinAddr: 0x4100, symSize: 0x40 }
  - { offset: 0x3B6A1, size: 0x8, addend: 0x0, symName: __ZN6QStackIN2Yy10JsonWriter5ScopeEE4pushERKS2_, symObjAddr: 0x220, symBinAddr: 0x4140, symSize: 0x30 }
  - { offset: 0x3B6D5, size: 0x8, addend: 0x0, symName: __ZN2Yy10JsonWriter15writeStartScopeENS0_5ScopeEPKc, symObjAddr: 0x250, symBinAddr: 0x4170, symSize: 0x70 }
  - { offset: 0x3B719, size: 0x8, addend: 0x0, symName: __ZN2Yy10JsonWriter8writeKeyEPKc, symObjAddr: 0x2C0, symBinAddr: 0x41E0, symSize: 0x80 }
  - { offset: 0x3B751, size: 0x8, addend: 0x0, symName: __ZN2Yy10JsonWriter13writeEndScopeENS0_5ScopeEb, symObjAddr: 0x340, symBinAddr: 0x4260, symSize: 0xE0 }
  - { offset: 0x3B795, size: 0x8, addend: 0x0, symName: __ZN5QListIN2Yy10JsonWriter5ScopeEE4lastEv, symObjAddr: 0x420, symBinAddr: 0x4340, symSize: 0x70 }
  - { offset: 0x3B7BB, size: 0x8, addend: 0x0, symName: __ZN6QStackIN2Yy10JsonWriter5ScopeEE3popEv, symObjAddr: 0x490, symBinAddr: 0x43B0, symSize: 0x20 }
  - { offset: 0x3B7E1, size: 0x8, addend: 0x0, symName: __ZNK5QListIN2Yy10JsonWriter5ScopeEE4sizeEv, symObjAddr: 0x4B0, symBinAddr: 0x43D0, symSize: 0x50 }
  - { offset: 0x3B83C, size: 0x8, addend: 0x0, symName: __ZN2Yy10JsonWriter12writeNewlineEb, symObjAddr: 0x500, symBinAddr: 0x4420, symSize: 0x80 }
  - { offset: 0x3B874, size: 0x8, addend: 0x0, symName: __ZN2Yy10JsonWriter10writeValueEd, symObjAddr: 0x580, symBinAddr: 0x44A0, symSize: 0xE0 }
  - { offset: 0x3B8AA, size: 0x8, addend: 0x0, symName: __ZN2Yy10JsonWriter18writeUnquotedValueERK10QByteArray, symObjAddr: 0x660, symBinAddr: 0x4580, symSize: 0x40 }
  - { offset: 0x3B8E0, size: 0x8, addend: 0x0, symName: __ZN10QByteArrayD1Ev, symObjAddr: 0x6A0, symBinAddr: 0x45C0, symSize: 0x20 }
  - { offset: 0x3B90C, size: 0x8, addend: 0x0, symName: __ZN2Yy10JsonWriter10writeValueERK10QByteArray, symObjAddr: 0x6C0, symBinAddr: 0x45E0, symSize: 0x90 }
  - { offset: 0x3B942, size: 0x8, addend: 0x0, symName: __ZN2Yy10JsonWriter5writeERK10QByteArray, symObjAddr: 0x750, symBinAddr: 0x4670, symSize: 0x50 }
  - { offset: 0x3B977, size: 0x8, addend: 0x0, symName: __ZN2Yy10JsonWriter10writeValueERK10QJsonValue, symObjAddr: 0x7A0, symBinAddr: 0x46C0, symSize: 0x7B0 }
  - { offset: 0x3BADF, size: 0x8, addend: 0x0, symName: __ZN2Yy10JsonWriter10writeValueERK7QString, symObjAddr: 0xF50, symBinAddr: 0x4E70, symSize: 0xA0 }
  - { offset: 0x3BB14, size: 0x8, addend: 0x0, symName: __ZN7QStringD1Ev, symObjAddr: 0xFF0, symBinAddr: 0x4F10, symSize: 0x20 }
  - { offset: 0x3BB40, size: 0x8, addend: 0x0, symName: __ZN2Yy10JsonWriter15writeStartArrayEv, symObjAddr: 0x1010, symBinAddr: 0x4F30, symSize: 0x20 }
  - { offset: 0x3BB66, size: 0x8, addend: 0x0, symName: __ZNK10QJsonArray5beginEv, symObjAddr: 0x1030, symBinAddr: 0x4F50, symSize: 0x30 }
  - { offset: 0x3BB8C, size: 0x8, addend: 0x0, symName: __ZNK10QJsonArray3endEv, symObjAddr: 0x1060, symBinAddr: 0x4F80, symSize: 0x40 }
  - { offset: 0x3BBB1, size: 0x8, addend: 0x0, symName: __ZneRKN10QJsonArray14const_iteratorES2_, symObjAddr: 0x10A0, symBinAddr: 0x4FC0, symSize: 0x30 }
  - { offset: 0x3BBEC, size: 0x8, addend: 0x0, symName: __ZNK10QJsonArray14const_iteratordeEv, symObjAddr: 0x10D0, symBinAddr: 0x4FF0, symSize: 0x20 }
  - { offset: 0x3BC12, size: 0x8, addend: 0x0, symName: __ZNK18QJsonValueConstRef8isObjectEv, symObjAddr: 0x10F0, symBinAddr: 0x5010, symSize: 0x30 }
  - { offset: 0x3BC38, size: 0x8, addend: 0x0, symName: __ZN2Yy10JsonWriter14prepareNewLineEb, symObjAddr: 0x1120, symBinAddr: 0x5040, symSize: 0x60 }
  - { offset: 0x3BC6E, size: 0x8, addend: 0x0, symName: __ZNK18QJsonValueConstRefcv10QJsonValueEv, symObjAddr: 0x1180, symBinAddr: 0x50A0, symSize: 0x50 }
  - { offset: 0x3BC94, size: 0x8, addend: 0x0, symName: __ZN10QJsonArray14const_iteratorppEv, symObjAddr: 0x11D0, symBinAddr: 0x50F0, symSize: 0x40 }
  - { offset: 0x3BCBA, size: 0x8, addend: 0x0, symName: __ZN2Yy10JsonWriter13writeEndArrayEb, symObjAddr: 0x1210, symBinAddr: 0x5130, symSize: 0x30 }
  - { offset: 0x3BCEE, size: 0x8, addend: 0x0, symName: __ZN19QListSpecialMethodsI7QStringE4sortEN2Qt15CaseSensitivityE, symObjAddr: 0x1240, symBinAddr: 0x5160, symSize: 0x30 }
  - { offset: 0x3BD22, size: 0x8, addend: 0x0, symName: __ZN2Yy10JsonWriter16writeStartObjectEv, symObjAddr: 0x1270, symBinAddr: 0x5190, symSize: 0x20 }
  - { offset: 0x3BD48, size: 0x8, addend: 0x0, symName: __ZNK5QListI7QStringE5beginEv, symObjAddr: 0x1290, symBinAddr: 0x51B0, symSize: 0x40 }
  - { offset: 0x3BD6E, size: 0x8, addend: 0x0, symName: __ZNK5QListI7QStringE3endEv, symObjAddr: 0x12D0, symBinAddr: 0x51F0, symSize: 0x40 }
  - { offset: 0x3BD94, size: 0x8, addend: 0x0, symName: __ZNK5QListI7QStringE14const_iteratorneES2_, symObjAddr: 0x1310, symBinAddr: 0x5230, symSize: 0x20 }
  - { offset: 0x3BDC8, size: 0x8, addend: 0x0, symName: __ZNK5QListI7QStringE14const_iteratordeEv, symObjAddr: 0x1330, symBinAddr: 0x5250, symSize: 0x20 }
  - { offset: 0x3BDED, size: 0x8, addend: 0x0, symName: __ZeqRK7QStringRK13QLatin1String, symObjAddr: 0x1350, symBinAddr: 0x5270, symSize: 0x50 }
  - { offset: 0x3BE42, size: 0x8, addend: 0x0, symName: __ZN13QLatin1StringC1EPKc, symObjAddr: 0x13A0, symBinAddr: 0x52C0, symSize: 0x30 }
  - { offset: 0x3BE7A, size: 0x8, addend: 0x0, symName: __ZN2Yy10JsonWriter11writeMemberEPKcRK10QJsonValue, symObjAddr: 0x13D0, symBinAddr: 0x52F0, symSize: 0x40 }
  - { offset: 0x3BEBE, size: 0x8, addend: 0x0, symName: __ZNKR7QString8toLatin1Ev, symObjAddr: 0x1410, symBinAddr: 0x5330, symSize: 0x30 }
  - { offset: 0x3BEE4, size: 0x8, addend: 0x0, symName: __ZNK10QByteArray9constDataEv, symObjAddr: 0x1440, symBinAddr: 0x5360, symSize: 0x20 }
  - { offset: 0x3BF0A, size: 0x8, addend: 0x0, symName: __ZN5QListI7QStringE14const_iteratorppEv, symObjAddr: 0x1460, symBinAddr: 0x5380, symSize: 0x20 }
  - { offset: 0x3BF30, size: 0x8, addend: 0x0, symName: __ZN2Yy10JsonWriter14writeEndObjectEv, symObjAddr: 0x1480, symBinAddr: 0x53A0, symSize: 0x30 }
  - { offset: 0x3BF56, size: 0x8, addend: 0x0, symName: __ZN5QListI7QStringED1Ev, symObjAddr: 0x14B0, symBinAddr: 0x53D0, symSize: 0x20 }
  - { offset: 0x3BF82, size: 0x8, addend: 0x0, symName: __ZN2Yy10JsonWriter11writeMemberEPKcS2_, symObjAddr: 0x14D0, symBinAddr: 0x53F0, symSize: 0x60 }
  - { offset: 0x3BFC6, size: 0x8, addend: 0x0, symName: __ZN2Yy10JsonWriter5writeEPKc, symObjAddr: 0x1530, symBinAddr: 0x5450, symSize: 0x40 }
  - { offset: 0x3BFFB, size: 0x8, addend: 0x0, symName: __ZN2Yy10JsonWriter11writeMemberEPKcRK10QByteArray, symObjAddr: 0x1570, symBinAddr: 0x5490, symSize: 0x60 }
  - { offset: 0x3C03F, size: 0x8, addend: 0x0, symName: __ZN2Yy10JsonWriter19writeUnquotedMemberEPKcRK10QByteArray, symObjAddr: 0x15D0, symBinAddr: 0x54F0, symSize: 0x50 }
  - { offset: 0x3C088, size: 0x8, addend: 0x0, symName: __ZN2Yy10JsonWriter5quoteERK7QString, symObjAddr: 0x1620, symBinAddr: 0x5540, symSize: 0x990 }
  - { offset: 0x3C250, size: 0x8, addend: 0x0, symName: __ZN7QStringC1Ev, symObjAddr: 0x1FB0, symBinAddr: 0x5ED0, symSize: 0x20 }
  - { offset: 0x3C27C, size: 0x8, addend: 0x0, symName: __ZN7QString7reserveEx, symObjAddr: 0x1FD0, symBinAddr: 0x5EF0, symSize: 0xB0 }
  - { offset: 0x3C2B3, size: 0x8, addend: 0x0, symName: __ZNK7QString6lengthEv, symObjAddr: 0x2080, symBinAddr: 0x5FA0, symSize: 0x20 }
  - { offset: 0x3C2D9, size: 0x8, addend: 0x0, symName: __ZN11QLatin1CharC1Ec, symObjAddr: 0x20A0, symBinAddr: 0x5FC0, symSize: 0x30 }
  - { offset: 0x3C311, size: 0x8, addend: 0x0, symName: __ZN5QCharC1I11QLatin1CharLb1EEET_, symObjAddr: 0x20D0, symBinAddr: 0x5FF0, symSize: 0x30 }
  - { offset: 0x3C358, size: 0x8, addend: 0x0, symName: __ZNK7QString5beginEv, symObjAddr: 0x2100, symBinAddr: 0x6020, symSize: 0x20 }
  - { offset: 0x3C380, size: 0x8, addend: 0x0, symName: __ZNK7QString3endEv, symObjAddr: 0x2120, symBinAddr: 0x6040, symSize: 0x30 }
  - { offset: 0x3C3A8, size: 0x8, addend: 0x0, symName: __ZNK5QChar7unicodeEv, symObjAddr: 0x2150, symBinAddr: 0x6070, symSize: 0x20 }
  - { offset: 0x3C3CE, size: 0x8, addend: 0x0, symName: __ZN7QStringC1EO17QArrayDataPointerIDsE, symObjAddr: 0x2170, symBinAddr: 0x6090, symSize: 0x30 }
  - { offset: 0x3C407, size: 0x8, addend: 0x0, symName: __ZN17QArrayDataPointerIDsED1Ev, symObjAddr: 0x21A0, symBinAddr: 0x60C0, symSize: 0x20 }
  - { offset: 0x3C431, size: 0x8, addend: 0x0, symName: __ZN2Yy10JsonWriter11writeIndentEv, symObjAddr: 0x21C0, symBinAddr: 0x60E0, symSize: 0x50 }
  - { offset: 0x3C479, size: 0x8, addend: 0x0, symName: __ZN2Yy10JsonWriter5writeEPKcx, symObjAddr: 0x2210, symBinAddr: 0x6130, symSize: 0x40 }
  - { offset: 0x3C4C0, size: 0x8, addend: 0x0, symName: __ZN6QStackIN2Yy10JsonWriter5ScopeEEC2Ev, symObjAddr: 0x2250, symBinAddr: 0x6170, symSize: 0x20 }
  - { offset: 0x3C4EC, size: 0x8, addend: 0x0, symName: __ZN5QListIN2Yy10JsonWriter5ScopeEEC2Ev, symObjAddr: 0x2270, symBinAddr: 0x6190, symSize: 0x20 }
  - { offset: 0x3C516, size: 0x8, addend: 0x0, symName: __ZN17QArrayDataPointerIN2Yy10JsonWriter5ScopeEEC1Ev, symObjAddr: 0x2290, symBinAddr: 0x61B0, symSize: 0x20 }
  - { offset: 0x3C540, size: 0x8, addend: 0x0, symName: __ZN17QArrayDataPointerIN2Yy10JsonWriter5ScopeEEC2Ev, symObjAddr: 0x22B0, symBinAddr: 0x61D0, symSize: 0x30 }
  - { offset: 0x3C579, size: 0x8, addend: 0x0, symName: __ZZNK5QListIN2Yy10JsonWriter5ScopeEE4sizeEvENKUlvE_clEv, symObjAddr: 0x22E0, symBinAddr: 0x6200, symSize: 0x50 }
  - { offset: 0x3C5A3, size: 0x8, addend: 0x0, symName: __ZN10QByteArrayD2Ev, symObjAddr: 0x2340, symBinAddr: 0x6260, symSize: 0x20 }
  - { offset: 0x3C5CF, size: 0x8, addend: 0x0, symName: __ZN17QArrayDataPointerIcED1Ev, symObjAddr: 0x2360, symBinAddr: 0x6280, symSize: 0x20 }
  - { offset: 0x3C5F9, size: 0x8, addend: 0x0, symName: __ZN17QArrayDataPointerIcED2Ev, symObjAddr: 0x2380, symBinAddr: 0x62A0, symSize: 0x40 }
  - { offset: 0x3C623, size: 0x8, addend: 0x0, symName: __ZN17QArrayDataPointerIcE5derefEv, symObjAddr: 0x23C0, symBinAddr: 0x62E0, symSize: 0x40 }
  - { offset: 0x3C649, size: 0x8, addend: 0x0, symName: __ZN17QArrayDataPointerIcEptEv, symObjAddr: 0x2400, symBinAddr: 0x6320, symSize: 0x10 }
  - { offset: 0x3C66F, size: 0x8, addend: 0x0, symName: __ZN9QtPrivate12QPodArrayOpsIcE10destroyAllEv, symObjAddr: 0x2410, symBinAddr: 0x6330, symSize: 0x70 }
  - { offset: 0x3C695, size: 0x8, addend: 0x0, symName: __ZN15QTypedArrayDataIcE10deallocateEP10QArrayData, symObjAddr: 0x2480, symBinAddr: 0x63A0, symSize: 0x30 }
  - { offset: 0x3C6B8, size: 0x8, addend: 0x0, symName: __ZN10QArrayData5derefEv, symObjAddr: 0x24B0, symBinAddr: 0x63D0, symSize: 0x20 }
  - { offset: 0x3C6DE, size: 0x8, addend: 0x0, symName: __ZN19QBasicAtomicIntegerIiE5derefEv, symObjAddr: 0x24D0, symBinAddr: 0x63F0, symSize: 0x20 }
  - { offset: 0x3C704, size: 0x8, addend: 0x0, symName: __ZN10QAtomicOpsIiE5derefIiEEbRNSt3__16atomicIT_EE, symObjAddr: 0x24F0, symBinAddr: 0x6410, symSize: 0x30 }
  - { offset: 0x3C731, size: 0x8, addend: 0x0, symName: __ZNSt3__113__atomic_baseIiLb1EE9fetch_subB9nqe210106EiNS_12memory_orderE, symObjAddr: 0x2520, symBinAddr: 0x6440, symSize: 0x30 }
  - { offset: 0x3C773, size: 0x8, addend: 0x0, symName: __ZNK19QBasicAtomicIntegerIiE11loadRelaxedEv, symObjAddr: 0x2610, symBinAddr: 0x6530, symSize: 0x20 }
  - { offset: 0x3C799, size: 0x8, addend: 0x0, symName: __ZN10QAtomicOpsIiE11loadRelaxedIiEET_RKNSt3__16atomicIS2_EE, symObjAddr: 0x2630, symBinAddr: 0x6550, symSize: 0x20 }
  - { offset: 0x3C7C5, size: 0x8, addend: 0x0, symName: __ZNKSt3__113__atomic_baseIiLb0EE4loadB9nqe210106ENS_12memory_orderE, symObjAddr: 0x2650, symBinAddr: 0x6570, symSize: 0x30 }
  - { offset: 0x3C7F9, size: 0x8, addend: 0x0, symName: __ZNK10QByteArray6lengthEv, symObjAddr: 0x26D0, symBinAddr: 0x65F0, symSize: 0x20 }
  - { offset: 0x3C81F, size: 0x8, addend: 0x0, symName: __ZNK10QByteArray4sizeEv, symObjAddr: 0x26F0, symBinAddr: 0x6610, symSize: 0x50 }
  - { offset: 0x3C884, size: 0x8, addend: 0x0, symName: __ZZNK10QByteArray4sizeEvENKUlvE_clEv, symObjAddr: 0x2740, symBinAddr: 0x6660, symSize: 0x50 }
  - { offset: 0x3C8AE, size: 0x8, addend: 0x0, symName: __ZNO7QString6toUtf8Ev, symObjAddr: 0x2790, symBinAddr: 0x66B0, symSize: 0x30 }
  - { offset: 0x3C8D4, size: 0x8, addend: 0x0, symName: __ZN7QStringD2Ev, symObjAddr: 0x27C0, symBinAddr: 0x66E0, symSize: 0x20 }
  - { offset: 0x3C900, size: 0x8, addend: 0x0, symName: __ZN10QJsonArray14const_iteratorC1EPKS_x, symObjAddr: 0x27E0, symBinAddr: 0x6700, symSize: 0x30 }
  - { offset: 0x3C946, size: 0x8, addend: 0x0, symName: __ZN10QJsonArray14const_iteratorC2EPKS_x, symObjAddr: 0x2810, symBinAddr: 0x6730, symSize: 0x30 }
  - { offset: 0x3C98C, size: 0x8, addend: 0x0, symName: __ZN18QJsonValueConstRefC1EP10QJsonArrayx, symObjAddr: 0x2840, symBinAddr: 0x6760, symSize: 0x30 }
  - { offset: 0x3C9D2, size: 0x8, addend: 0x0, symName: __ZN18QJsonValueConstRefC2EP10QJsonArrayx, symObjAddr: 0x2870, symBinAddr: 0x6790, symSize: 0x50 }
  - { offset: 0x3CA17, size: 0x8, addend: 0x0, symName: __Z13comparesEqualRKN10QJsonArray14const_iteratorES2_, symObjAddr: 0x28C0, symBinAddr: 0x67E0, symSize: 0x30 }
  - { offset: 0x3CA52, size: 0x8, addend: 0x0, symName: __ZN10QJsonArray14const_iterator20comparesEqual_helperERKS0_S2_, symObjAddr: 0x28F0, symBinAddr: 0x6810, symSize: 0x50 }
  - { offset: 0x3CA83, size: 0x8, addend: 0x0, symName: __ZNK18QJsonValueConstRef4typeEv, symObjAddr: 0x2940, symBinAddr: 0x6860, symSize: 0x40 }
  - { offset: 0x3CAA9, size: 0x8, addend: 0x0, symName: __ZN23QListSpecialMethodsBaseI7QStringE4selfEv, symObjAddr: 0x2980, symBinAddr: 0x68A0, symSize: 0x10 }
  - { offset: 0x3CACE, size: 0x8, addend: 0x0, symName: __Z13comparesEqualRK7QString13QLatin1String, symObjAddr: 0x2990, symBinAddr: 0x68B0, symSize: 0x80 }
  - { offset: 0x3CB0C, size: 0x8, addend: 0x0, symName: __ZNK7QString4sizeEv, symObjAddr: 0x2A10, symBinAddr: 0x6930, symSize: 0x50 }
  - { offset: 0x3CB67, size: 0x8, addend: 0x0, symName: __ZNK13QLatin1String4sizeEv, symObjAddr: 0x2A60, symBinAddr: 0x6980, symSize: 0x20 }
  - { offset: 0x3CB8D, size: 0x8, addend: 0x0, symName: __ZN11QStringViewC1I7QStringLb1EEERKT_, symObjAddr: 0x2A80, symBinAddr: 0x69A0, symSize: 0x50 }
  - { offset: 0x3CBDE, size: 0x8, addend: 0x0, symName: __ZZNK7QString4sizeEvENKUlvE_clEv, symObjAddr: 0x2AD0, symBinAddr: 0x69F0, symSize: 0x50 }
  - { offset: 0x3CC08, size: 0x8, addend: 0x0, symName: __ZN11QStringViewC1I5QCharLb1EEEPKT_x, symObjAddr: 0x2B20, symBinAddr: 0x6A40, symSize: 0x30 }
  - { offset: 0x3CC5D, size: 0x8, addend: 0x0, symName: __ZN11QStringViewC2I5QCharLb1EEEPKT_x, symObjAddr: 0x2B50, symBinAddr: 0x6A70, symSize: 0x90 }
  - { offset: 0x3CCB2, size: 0x8, addend: 0x0, symName: __ZN11QStringView10castHelperI5QCharEEPKDsPKT_, symObjAddr: 0x2BE0, symBinAddr: 0x6B00, symSize: 0x10 }
  - { offset: 0x3CCDE, size: 0x8, addend: 0x0, symName: __ZN13QLatin1StringC2EPKc, symObjAddr: 0x2BF0, symBinAddr: 0x6B10, symSize: 0x50 }
  - { offset: 0x3CD16, size: 0x8, addend: 0x0, symName: __ZNK10QByteArray4dataEv, symObjAddr: 0x2C90, symBinAddr: 0x6BB0, symSize: 0x50 }
  - { offset: 0x3CD3E, size: 0x8, addend: 0x0, symName: __ZNK17QArrayDataPointerIcE4dataEv, symObjAddr: 0x2CE0, symBinAddr: 0x6C00, symSize: 0x20 }
  - { offset: 0x3CD64, size: 0x8, addend: 0x0, symName: __ZN5QListI7QStringED2Ev, symObjAddr: 0x2D00, symBinAddr: 0x6C20, symSize: 0x20 }
  - { offset: 0x3CD90, size: 0x8, addend: 0x0, symName: __ZN17QArrayDataPointerI7QStringED1Ev, symObjAddr: 0x2D20, symBinAddr: 0x6C40, symSize: 0x20 }
  - { offset: 0x3CDBA, size: 0x8, addend: 0x0, symName: __ZN17QArrayDataPointerI7QStringED2Ev, symObjAddr: 0x2D40, symBinAddr: 0x6C60, symSize: 0x50 }
  - { offset: 0x3CDE4, size: 0x8, addend: 0x0, symName: __ZN17QArrayDataPointerI7QStringE5derefEv, symObjAddr: 0x2D90, symBinAddr: 0x6CB0, symSize: 0x40 }
  - { offset: 0x3CE0A, size: 0x8, addend: 0x0, symName: __ZN17QArrayDataPointerI7QStringEptEv, symObjAddr: 0x2DD0, symBinAddr: 0x6CF0, symSize: 0x10 }
  - { offset: 0x3CE30, size: 0x8, addend: 0x0, symName: __ZN9QtPrivate16QGenericArrayOpsI7QStringE10destroyAllEv, symObjAddr: 0x2DE0, symBinAddr: 0x6D00, symSize: 0x90 }
  - { offset: 0x3CE56, size: 0x8, addend: 0x0, symName: __ZN15QTypedArrayDataI7QStringE10deallocateEP10QArrayData, symObjAddr: 0x2E70, symBinAddr: 0x6D90, symSize: 0x30 }
  - { offset: 0x3CE79, size: 0x8, addend: 0x0, symName: __ZN17QArrayDataPointerI7QStringE5beginEv, symObjAddr: 0x2ED0, symBinAddr: 0x6DF0, symSize: 0x20 }
  - { offset: 0x3CE9F, size: 0x8, addend: 0x0, symName: __ZN17QArrayDataPointerI7QStringE3endEv, symObjAddr: 0x2EF0, symBinAddr: 0x6E10, symSize: 0x30 }
  - { offset: 0x3CEC5, size: 0x8, addend: 0x0, symName: __ZN17QArrayDataPointerI7QStringE4dataEv, symObjAddr: 0x2F80, symBinAddr: 0x6EA0, symSize: 0x20 }
  - { offset: 0x3CEEA, size: 0x8, addend: 0x0, symName: __Z7qstrlenPKc, symObjAddr: 0x2FA0, symBinAddr: 0x6EC0, symSize: 0x40 }
  - { offset: 0x3CF17, size: 0x8, addend: 0x0, symName: __ZN7QStringC2Ev, symObjAddr: 0x2FE0, symBinAddr: 0x6F00, symSize: 0x20 }
  - { offset: 0x3CF43, size: 0x8, addend: 0x0, symName: __ZN17QArrayDataPointerIDsEC1Ev, symObjAddr: 0x3000, symBinAddr: 0x6F20, symSize: 0x20 }
  - { offset: 0x3CF6D, size: 0x8, addend: 0x0, symName: __ZN17QArrayDataPointerIDsEC2Ev, symObjAddr: 0x3020, symBinAddr: 0x6F40, symSize: 0x30 }
  - { offset: 0x3CF97, size: 0x8, addend: 0x0, symName: __ZNK17QArrayDataPointerIDsE11needsDetachEv, symObjAddr: 0x3050, symBinAddr: 0x6F70, symSize: 0x40 }
  - { offset: 0x3CFBD, size: 0x8, addend: 0x0, symName: __ZNK7QString8capacityEv, symObjAddr: 0x3090, symBinAddr: 0x6FB0, symSize: 0x20 }
  - { offset: 0x3CFE5, size: 0x8, addend: 0x0, symName: __ZNK17QArrayDataPointerIDsE16freeSpaceAtBeginEv, symObjAddr: 0x30B0, symBinAddr: 0x6FD0, symSize: 0x60 }
  - { offset: 0x3D00A, size: 0x8, addend: 0x0, symName: __Z4qMaxIxERKT_S2_S2_, symObjAddr: 0x3110, symBinAddr: 0x7030, symSize: 0x40 }
  - { offset: 0x3D04E, size: 0x8, addend: 0x0, symName: __ZNK17QArrayDataPointerIDsE22constAllocatedCapacityEv, symObjAddr: 0x3150, symBinAddr: 0x7070, symSize: 0x40 }
  - { offset: 0x3D074, size: 0x8, addend: 0x0, symName: __ZN17QArrayDataPointerIDsE7setFlagE6QFlagsIN10QArrayData11ArrayOptionEE, symObjAddr: 0x3190, symBinAddr: 0x70B0, symSize: 0x60 }
  - { offset: 0x3D0A9, size: 0x8, addend: 0x0, symName: __ZN6QFlagsIN10QArrayData11ArrayOptionEEC1ES1_, symObjAddr: 0x31F0, symBinAddr: 0x7110, symSize: 0x30 }
  - { offset: 0x3D0E1, size: 0x8, addend: 0x0, symName: __ZN10QArrayData11needsDetachEv, symObjAddr: 0x3220, symBinAddr: 0x7140, symSize: 0x30 }
  - { offset: 0x3D107, size: 0x8, addend: 0x0, symName: __ZN15QTypedArrayDataIDsE9dataStartEP10QArrayDatax, symObjAddr: 0x3250, symBinAddr: 0x7170, symSize: 0x80 }
  - { offset: 0x3D146, size: 0x8, addend: 0x0, symName: __ZNK10QArrayData22constAllocatedCapacityEv, symObjAddr: 0x32D0, symBinAddr: 0x71F0, symSize: 0x20 }
  - { offset: 0x3D16C, size: 0x8, addend: 0x0, symName: __ZN6QFlagsIN10QArrayData11ArrayOptionEEoRES2_, symObjAddr: 0x32F0, symBinAddr: 0x7210, symSize: 0x20 }
  - { offset: 0x3D1A0, size: 0x8, addend: 0x0, symName: __ZN6QFlagsIN10QArrayData11ArrayOptionEEC2ES1_, symObjAddr: 0x3310, symBinAddr: 0x7230, symSize: 0x30 }
  - { offset: 0x3D1D8, size: 0x8, addend: 0x0, symName: __ZN9QtPrivate19QFlagsStorageHelperIN10QArrayData11ArrayOptionELi4EECI2NS_13QFlagsStorageIS2_EEENSt3__110in_place_tEj, symObjAddr: 0x3340, symBinAddr: 0x7260, symSize: 0x30 }
  - { offset: 0x3D216, size: 0x8, addend: 0x0, symName: __ZN9QtPrivate13QFlagsStorageIN10QArrayData11ArrayOptionEEC2ENSt3__110in_place_tEj, symObjAddr: 0x3370, symBinAddr: 0x7290, symSize: 0x20 }
  - { offset: 0x3D258, size: 0x8, addend: 0x0, symName: __ZN11QLatin1CharC2Ec, symObjAddr: 0x3390, symBinAddr: 0x72B0, symSize: 0x20 }
  - { offset: 0x3D290, size: 0x8, addend: 0x0, symName: __ZN5QCharC2I11QLatin1CharLb1EEET_, symObjAddr: 0x33B0, symBinAddr: 0x72D0, symSize: 0x40 }
  - { offset: 0x3D2D7, size: 0x8, addend: 0x0, symName: __ZNK11QLatin1CharcvDsEv, symObjAddr: 0x33F0, symBinAddr: 0x7310, symSize: 0x20 }
  - { offset: 0x3D2FD, size: 0x8, addend: 0x0, symName: __ZNK11QLatin1Char7unicodeEv, symObjAddr: 0x3410, symBinAddr: 0x7330, symSize: 0x20 }
  - { offset: 0x3D323, size: 0x8, addend: 0x0, symName: __ZNK17QArrayDataPointerIDsE4dataEv, symObjAddr: 0x3430, symBinAddr: 0x7350, symSize: 0x20 }
  - { offset: 0x3D349, size: 0x8, addend: 0x0, symName: __ZN7QStringC2EO17QArrayDataPointerIDsE, symObjAddr: 0x3450, symBinAddr: 0x7370, symSize: 0x30 }
  - { offset: 0x3D382, size: 0x8, addend: 0x0, symName: __ZN17QArrayDataPointerIDsEC1EOS0_, symObjAddr: 0x3480, symBinAddr: 0x73A0, symSize: 0x30 }
  - { offset: 0x3D3BA, size: 0x8, addend: 0x0, symName: __ZN17QArrayDataPointerIDsEC2EOS0_, symObjAddr: 0x34B0, symBinAddr: 0x73D0, symSize: 0x90 }
  - { offset: 0x3D3F2, size: 0x8, addend: 0x0, symName: __ZN17QArrayDataPointerIDsED2Ev, symObjAddr: 0x35D0, symBinAddr: 0x74F0, symSize: 0x40 }
  - { offset: 0x3D41C, size: 0x8, addend: 0x0, symName: __ZN17QArrayDataPointerIDsE5derefEv, symObjAddr: 0x3610, symBinAddr: 0x7530, symSize: 0x40 }
  - { offset: 0x3D442, size: 0x8, addend: 0x0, symName: __ZN17QArrayDataPointerIDsEptEv, symObjAddr: 0x3650, symBinAddr: 0x7570, symSize: 0x10 }
  - { offset: 0x3D468, size: 0x8, addend: 0x0, symName: __ZN9QtPrivate12QPodArrayOpsIDsE10destroyAllEv, symObjAddr: 0x3660, symBinAddr: 0x7580, symSize: 0x70 }
  - { offset: 0x3D48E, size: 0x8, addend: 0x0, symName: __ZN15QTypedArrayDataIDsE10deallocateEP10QArrayData, symObjAddr: 0x36D0, symBinAddr: 0x75F0, symSize: 0x30 }
  - { offset: 0x3D4B1, size: 0x8, addend: 0x0, symName: __ZN5QListIN2Yy10JsonWriter5ScopeEE6appendES2_, symObjAddr: 0x3700, symBinAddr: 0x7620, symSize: 0x30 }
  - { offset: 0x3D4E6, size: 0x8, addend: 0x0, symName: __ZN5QListIN2Yy10JsonWriter5ScopeEE11emplaceBackIJRS2_EEES5_DpOT_, symObjAddr: 0x3730, symBinAddr: 0x7650, symSize: 0x70 }
  - { offset: 0x3D526, size: 0x8, addend: 0x0, symName: __ZN17QArrayDataPointerIN2Yy10JsonWriter5ScopeEEptEv, symObjAddr: 0x37A0, symBinAddr: 0x76C0, symSize: 0x10 }
  - { offset: 0x3D54C, size: 0x8, addend: 0x0, symName: __ZN9QtPrivate12QPodArrayOpsIN2Yy10JsonWriter5ScopeEE7emplaceIJRS3_EEEvxDpOT_, symObjAddr: 0x37B0, symBinAddr: 0x76D0, symSize: 0x130 }
  - { offset: 0x3D5D1, size: 0x8, addend: 0x0, symName: __ZN5QListIN2Yy10JsonWriter5ScopeEE3endEv, symObjAddr: 0x38E0, symBinAddr: 0x7800, symSize: 0x40 }
  - { offset: 0x3D5F7, size: 0x8, addend: 0x0, symName: __ZNK5QListIN2Yy10JsonWriter5ScopeEE8iteratormiEx, symObjAddr: 0x3920, symBinAddr: 0x7840, symSize: 0x40 }
  - { offset: 0x3D62B, size: 0x8, addend: 0x0, symName: __ZNK5QListIN2Yy10JsonWriter5ScopeEE8iteratordeEv, symObjAddr: 0x3960, symBinAddr: 0x7880, symSize: 0x20 }
  - { offset: 0x3D651, size: 0x8, addend: 0x0, symName: __ZNK17QArrayDataPointerIN2Yy10JsonWriter5ScopeEE11needsDetachEv, symObjAddr: 0x3980, symBinAddr: 0x78A0, symSize: 0x40 }
  - { offset: 0x3D677, size: 0x8, addend: 0x0, symName: __ZNK17QArrayDataPointerIN2Yy10JsonWriter5ScopeEE14freeSpaceAtEndEv, symObjAddr: 0x39C0, symBinAddr: 0x78E0, symSize: 0x60 }
  - { offset: 0x3D69D, size: 0x8, addend: 0x0, symName: __ZN17QArrayDataPointerIN2Yy10JsonWriter5ScopeEE3endEv, symObjAddr: 0x3A20, symBinAddr: 0x7940, symSize: 0x30 }
  - { offset: 0x3D6C3, size: 0x8, addend: 0x0, symName: __ZNK17QArrayDataPointerIN2Yy10JsonWriter5ScopeEE16freeSpaceAtBeginEv, symObjAddr: 0x3A50, symBinAddr: 0x7970, symSize: 0x60 }
  - { offset: 0x3D6E9, size: 0x8, addend: 0x0, symName: __ZN17QArrayDataPointerIN2Yy10JsonWriter5ScopeEE5beginEv, symObjAddr: 0x3AB0, symBinAddr: 0x79D0, symSize: 0x20 }
  - { offset: 0x3D70F, size: 0x8, addend: 0x0, symName: __ZN17QArrayDataPointerIN2Yy10JsonWriter5ScopeEE13detachAndGrowEN10QArrayData14GrowthPositionExPPKS2_PS3_, symObjAddr: 0x3AD0, symBinAddr: 0x79F0, symSize: 0x100 }
  - { offset: 0x3D789, size: 0x8, addend: 0x0, symName: __ZN9QtPrivate12QPodArrayOpsIN2Yy10JsonWriter5ScopeEE10createHoleEN10QArrayData14GrowthPositionExx, symObjAddr: 0x3BD0, symBinAddr: 0x7AF0, symSize: 0x150 }
  - { offset: 0x3D7E7, size: 0x8, addend: 0x0, symName: __ZN17QArrayDataPointerIN2Yy10JsonWriter5ScopeEE4dataEv, symObjAddr: 0x3D20, symBinAddr: 0x7C40, symSize: 0x20 }
  - { offset: 0x3D80D, size: 0x8, addend: 0x0, symName: __ZN15QTypedArrayDataIN2Yy10JsonWriter5ScopeEE9dataStartEP10QArrayDatax, symObjAddr: 0x3D40, symBinAddr: 0x7C60, symSize: 0x80 }
  - { offset: 0x3D84C, size: 0x8, addend: 0x0, symName: __ZN17QArrayDataPointerIN2Yy10JsonWriter5ScopeEE20tryReadjustFreeSpaceEN10QArrayData14GrowthPositionExPPKS2_, symObjAddr: 0x3DC0, symBinAddr: 0x7CE0, symSize: 0x1E0 }
  - { offset: 0x3D8E0, size: 0x8, addend: 0x0, symName: __ZN17QArrayDataPointerIN2Yy10JsonWriter5ScopeEE17reallocateAndGrowEN10QArrayData14GrowthPositionExPS3_, symObjAddr: 0x3FA0, symBinAddr: 0x7EC0, symSize: 0x260 }
  - { offset: 0x3D95C, size: 0x8, addend: 0x0, symName: __ZNK17QArrayDataPointerIN2Yy10JsonWriter5ScopeEE22constAllocatedCapacityEv, symObjAddr: 0x4200, symBinAddr: 0x8120, symSize: 0x40 }
  - { offset: 0x3D981, size: 0x8, addend: 0x0, symName: __Z4qMaxIixEN11QTypeTraits6detail8PromotedIT_T0_NSt3__19enable_ifIXaaaaaaaaaaaaaasr3stdE15is_arithmetic_vIS3_Esr3stdE15is_arithmetic_vIS4_Eeqsr3stdE19is_floating_point_vIS3_Esr3stdE19is_floating_point_vIS4_Eeqsr3stdE11is_signed_vIS3_Esr3stdE11is_signed_vIS4_Entsr3stdE9is_same_vIS3_bEntsr3stdE9is_same_vIS4_bEntsr3stdE9is_same_vIS3_cEntsr3stdE9is_same_vIS4_cEEvE4typeEE4typeERKS3_RKS4_, symObjAddr: 0x4240, symBinAddr: 0x8160, symSize: 0x50 }
  - { offset: 0x3D9F5, size: 0x8, addend: 0x0, symName: __ZN17QArrayDataPointerIN2Yy10JsonWriter5ScopeEE8relocateExPPKS2_, symObjAddr: 0x4290, symBinAddr: 0x81B0, symSize: 0x80 }
  - { offset: 0x3DA58, size: 0x8, addend: 0x0, symName: __ZNKSt3__14lessIvEclB9nqe210106IRPKN2Yy10JsonWriter5ScopeES8_EEDTltclsr3stdE7forwardIT_Efp_Eclsr3stdE7forwardIT0_Efp0_EEOS9_OSA_, symObjAddr: 0x44E0, symBinAddr: 0x8400, symSize: 0x30 }
  - { offset: 0x3DAAE, size: 0x8, addend: 0x0, symName: __ZNK17QArrayDataPointerIN2Yy10JsonWriter5ScopeEE4dataEv, symObjAddr: 0x4510, symBinAddr: 0x8430, symSize: 0x20 }
  - { offset: 0x3DAD4, size: 0x8, addend: 0x0, symName: __ZNK17QArrayDataPointerIN2Yy10JsonWriter5ScopeEE5beginEv, symObjAddr: 0x4550, symBinAddr: 0x8470, symSize: 0x20 }
  - { offset: 0x3DAFA, size: 0x8, addend: 0x0, symName: __ZNK17QArrayDataPointerIN2Yy10JsonWriter5ScopeEE3endEv, symObjAddr: 0x4570, symBinAddr: 0x8490, symSize: 0x30 }
  - { offset: 0x3DB20, size: 0x8, addend: 0x0, symName: __ZN9QtPrivate12QPodArrayOpsIN2Yy10JsonWriter5ScopeEE10reallocateExN10QArrayData16AllocationOptionE, symObjAddr: 0x45A0, symBinAddr: 0x84C0, symSize: 0x80 }
  - { offset: 0x3DB74, size: 0x8, addend: 0x0, symName: __ZN17QArrayDataPointerIN2Yy10JsonWriter5ScopeEE12allocateGrowERKS3_xN10QArrayData14GrowthPositionE, symObjAddr: 0x4620, symBinAddr: 0x8540, symSize: 0x230 }
  - { offset: 0x3DC13, size: 0x8, addend: 0x0, symName: __ZN9QtPrivate12QPodArrayOpsIN2Yy10JsonWriter5ScopeEE10copyAppendEPKS3_S6_, symObjAddr: 0x4850, symBinAddr: 0x8770, symSize: 0x140 }
  - { offset: 0x3DC55, size: 0x8, addend: 0x0, symName: __ZN9QtPrivate12QPodArrayOpsIN2Yy10JsonWriter5ScopeEE10moveAppendEPS3_S5_, symObjAddr: 0x4990, symBinAddr: 0x88B0, symSize: 0x30 }
  - { offset: 0x3DC97, size: 0x8, addend: 0x0, symName: __ZN17QArrayDataPointerIN2Yy10JsonWriter5ScopeEE4swapERS3_, symObjAddr: 0x49C0, symBinAddr: 0x88E0, symSize: 0x60 }
  - { offset: 0x3DCCB, size: 0x8, addend: 0x0, symName: __ZN17QArrayDataPointerIN2Yy10JsonWriter5ScopeEED1Ev, symObjAddr: 0x4A20, symBinAddr: 0x8940, symSize: 0x20 }
  - { offset: 0x3DCF5, size: 0x8, addend: 0x0, symName: __ZN15QTypedArrayDataIN2Yy10JsonWriter5ScopeEE19reallocateUnalignedEPS3_PS2_xN10QArrayData16AllocationOptionE, symObjAddr: 0x4A40, symBinAddr: 0x8960, symSize: 0x70 }
  - { offset: 0x3DD5A, size: 0x8, addend: 0x0, symName: __ZNSt3__14pairIP15QTypedArrayDataIN2Yy10JsonWriter5ScopeEEPS4_EC1B9nqe210106IS6_S7_Li0EEEOT_OT0_, symObjAddr: 0x4AB0, symBinAddr: 0x89D0, symSize: 0x30 }
  - { offset: 0x3DDB8, size: 0x8, addend: 0x0, symName: __ZNSt3__14pairIP15QTypedArrayDataIN2Yy10JsonWriter5ScopeEEPS4_EC2B9nqe210106IS6_S7_Li0EEEOT_OT0_, symObjAddr: 0x4AE0, symBinAddr: 0x8A00, symSize: 0x30 }
  - { offset: 0x3DE16, size: 0x8, addend: 0x0, symName: __ZNK17QArrayDataPointerIN2Yy10JsonWriter5ScopeEE14detachCapacityEx, symObjAddr: 0x4B10, symBinAddr: 0x8A30, symSize: 0x50 }
  - { offset: 0x3DE4B, size: 0x8, addend: 0x0, symName: __ZN15QTypedArrayDataIN2Yy10JsonWriter5ScopeEE8allocateExN10QArrayData16AllocationOptionE, symObjAddr: 0x4B60, symBinAddr: 0x8A80, symSize: 0x60 }
  - { offset: 0x3DE98, size: 0x8, addend: 0x0, symName: __ZN17QArrayDataPointerIN2Yy10JsonWriter5ScopeEEC1EP15QTypedArrayDataIS2_EPS2_x, symObjAddr: 0x4C00, symBinAddr: 0x8B20, symSize: 0x40 }
  - { offset: 0x3DEEC, size: 0x8, addend: 0x0, symName: __ZNK17QArrayDataPointerIN2Yy10JsonWriter5ScopeEE5flagsEv, symObjAddr: 0x4C40, symBinAddr: 0x8B60, symSize: 0x40 }
  - { offset: 0x3DF12, size: 0x8, addend: 0x0, symName: __ZNK10QArrayData14detachCapacityEx, symObjAddr: 0x4C80, symBinAddr: 0x8BA0, symSize: 0x90 }
  - { offset: 0x3DF46, size: 0x8, addend: 0x0, symName: __ZNK6QFlagsIN10QArrayData11ArrayOptionEEanES1_, symObjAddr: 0x4D10, symBinAddr: 0x8C30, symSize: 0x40 }
  - { offset: 0x3DF7A, size: 0x8, addend: 0x0, symName: __ZNK6QFlagsIN10QArrayData11ArrayOptionEEcvjEv, symObjAddr: 0x4D50, symBinAddr: 0x8C70, symSize: 0x10 }
  - { offset: 0x3DFA0, size: 0x8, addend: 0x0, symName: __ZN6QFlagsIN10QArrayData11ArrayOptionEECI1N9QtPrivate13QFlagsStorageIS1_EEENSt3__110in_place_tEj, symObjAddr: 0x4D60, symBinAddr: 0x8C80, symSize: 0x30 }
  - { offset: 0x3DFDE, size: 0x8, addend: 0x0, symName: __ZN6QFlagsIN10QArrayData11ArrayOptionEECI2N9QtPrivate13QFlagsStorageIS1_EEENSt3__110in_place_tEj, symObjAddr: 0x4D90, symBinAddr: 0x8CB0, symSize: 0x30 }
  - { offset: 0x3E01C, size: 0x8, addend: 0x0, symName: __ZNSt3__110__get_pairILm0EE3getB9nqe210106IP15QTypedArrayDataIN2Yy10JsonWriter5ScopeEEPS6_EEOT_ONS_4pairISA_T0_EE, symObjAddr: 0x4DC0, symBinAddr: 0x8CE0, symSize: 0x10 }
  - { offset: 0x3E052, size: 0x8, addend: 0x0, symName: __ZNSt3__110__get_pairILm1EE3getB9nqe210106IP15QTypedArrayDataIN2Yy10JsonWriter5ScopeEEPS6_EEOT0_ONS_4pairIT_SA_EE, symObjAddr: 0x4DD0, symBinAddr: 0x8CF0, symSize: 0x20 }
  - { offset: 0x3E088, size: 0x8, addend: 0x0, symName: __ZN17QArrayDataPointerIN2Yy10JsonWriter5ScopeEEC2EP15QTypedArrayDataIS2_EPS2_x, symObjAddr: 0x4DF0, symBinAddr: 0x8D10, symSize: 0x40 }
  - { offset: 0x3E0DC, size: 0x8, addend: 0x0, symName: __ZNK17QArrayDataPointerIN2Yy10JsonWriter5ScopeEE9isMutableEv, symObjAddr: 0x4E30, symBinAddr: 0x8D50, symSize: 0x20 }
  - { offset: 0x3E102, size: 0x8, addend: 0x0, symName: __ZNK17QArrayDataPointerIN2Yy10JsonWriter5ScopeEE8isSharedEv, symObjAddr: 0x4E50, symBinAddr: 0x8D70, symSize: 0x40 }
  - { offset: 0x3E128, size: 0x8, addend: 0x0, symName: __ZNK10QArrayData8isSharedEv, symObjAddr: 0x4E90, symBinAddr: 0x8DB0, symSize: 0x30 }
  - { offset: 0x3E14D, size: 0x8, addend: 0x0, symName: __Z11qt_ptr_swapI15QTypedArrayDataIN2Yy10JsonWriter5ScopeEEEvRPT_S7_, symObjAddr: 0x4EC0, symBinAddr: 0x8DE0, symSize: 0x40 }
  - { offset: 0x3E19A, size: 0x8, addend: 0x0, symName: __Z11qt_ptr_swapIN2Yy10JsonWriter5ScopeEEvRPT_S5_, symObjAddr: 0x4F00, symBinAddr: 0x8E20, symSize: 0x40 }
  - { offset: 0x3E1E8, size: 0x8, addend: 0x0, symName: __ZN17QArrayDataPointerIN2Yy10JsonWriter5ScopeEED2Ev, symObjAddr: 0x4F80, symBinAddr: 0x8EA0, symSize: 0x40 }
  - { offset: 0x3E212, size: 0x8, addend: 0x0, symName: __ZN17QArrayDataPointerIN2Yy10JsonWriter5ScopeEE5derefEv, symObjAddr: 0x4FC0, symBinAddr: 0x8EE0, symSize: 0x40 }
  - { offset: 0x3E238, size: 0x8, addend: 0x0, symName: __ZN9QtPrivate12QPodArrayOpsIN2Yy10JsonWriter5ScopeEE10destroyAllEv, symObjAddr: 0x5000, symBinAddr: 0x8F20, symSize: 0x70 }
  - { offset: 0x3E25E, size: 0x8, addend: 0x0, symName: __ZN15QTypedArrayDataIN2Yy10JsonWriter5ScopeEE10deallocateEP10QArrayData, symObjAddr: 0x5070, symBinAddr: 0x8F90, symSize: 0x30 }
  - { offset: 0x3E281, size: 0x8, addend: 0x0, symName: __ZN5QListIN2Yy10JsonWriter5ScopeEE6detachEv, symObjAddr: 0x50A0, symBinAddr: 0x8FC0, symSize: 0x20 }
  - { offset: 0x3E2A7, size: 0x8, addend: 0x0, symName: __ZN5QListIN2Yy10JsonWriter5ScopeEE8iteratorC1EPS2_, symObjAddr: 0x50C0, symBinAddr: 0x8FE0, symSize: 0x30 }
  - { offset: 0x3E2DF, size: 0x8, addend: 0x0, symName: __ZN17QArrayDataPointerIN2Yy10JsonWriter5ScopeEE6detachEPS3_, symObjAddr: 0x50F0, symBinAddr: 0x9010, symSize: 0x40 }
  - { offset: 0x3E313, size: 0x8, addend: 0x0, symName: __ZN5QListIN2Yy10JsonWriter5ScopeEE8iteratorC2EPS2_, symObjAddr: 0x5130, symBinAddr: 0x9050, symSize: 0x20 }
  - { offset: 0x3E34B, size: 0x8, addend: 0x0, symName: __ZN5QListIN2Yy10JsonWriter5ScopeEE8takeLastEv, symObjAddr: 0x5150, symBinAddr: 0x9070, symSize: 0x60 }
  - { offset: 0x3E381, size: 0x8, addend: 0x0, symName: __ZN9QtPrivate12QPodArrayOpsIN2Yy10JsonWriter5ScopeEE9eraseLastEv, symObjAddr: 0x51B0, symBinAddr: 0x90D0, symSize: 0x80 }
  - { offset: 0x3E3A7, size: 0x8, addend: 0x0, symName: __ZNK17QArrayDataPointerI7QStringEptEv, symObjAddr: 0x5230, symBinAddr: 0x9150, symSize: 0x10 }
  - { offset: 0x3E3CD, size: 0x8, addend: 0x0, symName: __ZNK17QArrayDataPointerI7QStringE10constBeginEv, symObjAddr: 0x5240, symBinAddr: 0x9160, symSize: 0x20 }
  - { offset: 0x3E3F3, size: 0x8, addend: 0x0, symName: __ZN5QListI7QStringE14const_iteratorC1EPKS0_, symObjAddr: 0x5260, symBinAddr: 0x9180, symSize: 0x30 }
  - { offset: 0x3E42B, size: 0x8, addend: 0x0, symName: __ZNK17QArrayDataPointerI7QStringE4dataEv, symObjAddr: 0x5290, symBinAddr: 0x91B0, symSize: 0x20 }
  - { offset: 0x3E451, size: 0x8, addend: 0x0, symName: __ZN5QListI7QStringE14const_iteratorC2EPKS0_, symObjAddr: 0x52B0, symBinAddr: 0x91D0, symSize: 0x20 }
  - { offset: 0x3E489, size: 0x8, addend: 0x0, symName: __ZNK17QArrayDataPointerI7QStringE8constEndEv, symObjAddr: 0x52D0, symBinAddr: 0x91F0, symSize: 0x30 }
  - { offset: 0x3E4AF, size: 0x8, addend: 0x0, symName: __ZN17QArrayDataPointerIDsEC1EP15QTypedArrayDataIDsEPDsx, symObjAddr: 0x5300, symBinAddr: 0x9220, symSize: 0x40 }
  - { offset: 0x3E503, size: 0x8, addend: 0x0, symName: __ZN17QArrayDataPointerIDsEC2EP15QTypedArrayDataIDsEPDsx, symObjAddr: 0x5340, symBinAddr: 0x9260, symSize: 0x31 }
  - { offset: 0x41229, size: 0x8, addend: 0x0, symName: __ZN9QtPrivate16QCheckedIntegerseqERKNS0_11QCheckedIntIiNS0_13SafeCheckImplIiEENS0_18AssertReportPolicyEEES7_, symObjAddr: 0x1F040, symBinAddr: 0x27580, symSize: 0x40 }
  - { offset: 0x4127D, size: 0x8, addend: 0x0, symName: __ZN9QtPrivate16QCheckedIntegers13comparesEqualENS0_11QCheckedIntIiNS0_13SafeCheckImplIiEENS0_18AssertReportPolicyEEES5_, symObjAddr: 0x1F080, symBinAddr: 0x275C0, symSize: 0x20 }
  - { offset: 0x412BA, size: 0x8, addend: 0x0, symName: __ZN9QtPrivate16QCheckedIntegersplIiLb1EEENS0_11QCheckedIntIiNS0_13SafeCheckImplIiEENS0_18AssertReportPolicyEEES6_T_, symObjAddr: 0x221A0, symBinAddr: 0x2A6E0, symSize: 0x40 }
  - { offset: 0x41303, size: 0x8, addend: 0x0, symName: __ZN9QtPrivate16QCheckedIntegersplENS0_11QCheckedIntIiNS0_13SafeCheckImplIiEENS0_18AssertReportPolicyEEES5_, symObjAddr: 0x22240, symBinAddr: 0x2A780, symSize: 0x60 }
  - { offset: 0x41359, size: 0x8, addend: 0x0, symName: __ZN9QtPrivate16QCheckedIntegersmiENS0_11QCheckedIntIiNS0_13SafeCheckImplIiEENS0_18AssertReportPolicyEEES5_, symObjAddr: 0x25E10, symBinAddr: 0x2E350, symSize: 0x60 }
  - { offset: 0x45391, size: 0x8, addend: 0x0, symName: __ZN9QtPrivate16qStringLikeToArgE14QAnyStringView, symObjAddr: 0xE010, symBinAddr: 0x17020, symSize: 0x40 }
  - { offset: 0x453BF, size: 0x8, addend: 0x0, symName: __ZN9QtPrivate21lengthHelperContainerI11QStringViewEExRKT_, symObjAddr: 0xE0C0, symBinAddr: 0x170D0, symSize: 0x20 }
  - { offset: 0x453F4, size: 0x8, addend: 0x0, symName: __ZN9QtPrivateL19lengthHelperPointerIcEExPKT_, symObjAddr: 0xE590, symBinAddr: 0x17400, symSize: 0x50 }
  - { offset: 0x455A5, size: 0x8, addend: 0x0, symName: __ZN9QtPrivate20q_relocate_overlap_nI14QSharedPointerIN5Tiled7TilesetEExEEvPT_T0_S6_, symObjAddr: 0x1A420, symBinAddr: 0x22A40, symSize: 0x50 }
  - { offset: 0x455FB, size: 0x8, addend: 0x0, symName: __ZN9QtPrivateL19q_points_into_rangeI17QArrayDataPointerI14QSharedPointerIN5Tiled7TilesetEEEPKS5_EEbRKT0_RKT_, symObjAddr: 0x1A470, symBinAddr: 0x22A90, symSize: 0xA0 }
  - { offset: 0x45647, size: 0x8, addend: 0x0, symName: __ZN9QtPrivateL19q_points_into_rangeI14QSharedPointerIN5Tiled7TilesetEENSt3__14lessIvEEEEbPKT_SA_SA_T0_, symObjAddr: 0x1A510, symBinAddr: 0x22B30, symSize: 0x50 }
  - { offset: 0x456DC, size: 0x8, addend: 0x0, symName: __ZN9QtPrivate14qSaturateRoundIdLb1EEEiT_, symObjAddr: 0x1F720, symBinAddr: 0x27C60, symSize: 0x80 }
  - { offset: 0x4574E, size: 0x8, addend: 0x0, symName: __ZN9QtPrivate10QRoundImpl6qRoundEd, symObjAddr: 0x1F7A0, symBinAddr: 0x27CE0, symSize: 0x30 }
  - { offset: 0x457B1, size: 0x8, addend: 0x0, symName: __ZN9QtPrivate33qvariant_cast_qmetatype_convertedIdEET_RK8QVariant9QMetaType, symObjAddr: 0x26020, symBinAddr: 0x2E560, symSize: 0x60 }
  - { offset: 0x45808, size: 0x8, addend: 0x0, symName: __ZN9QtPrivateL30checkTypeIsSuitableForMetaTypeIdEEbv, symObjAddr: 0x26080, symBinAddr: 0x2E5C0, symSize: 0x10 }
  - { offset: 0x45830, size: 0x8, addend: 0x0, symName: __ZN9QtPrivate25qMetaTypeInterfaceForTypeIdEEPKNS_18QMetaTypeInterfaceEv, symObjAddr: 0x26090, symBinAddr: 0x2E5D0, symSize: 0x10 }
  - { offset: 0x45858, size: 0x8, addend: 0x0, symName: __ZN9QtPrivate33qvariant_cast_qmetatype_convertedI7QStringEET_RK8QVariant9QMetaType, symObjAddr: 0x26540, symBinAddr: 0x2EA80, symSize: 0xB0 }
  - { offset: 0x458B0, size: 0x8, addend: 0x0, symName: __ZN9QtPrivateL30checkTypeIsSuitableForMetaTypeI7QStringEEbv, symObjAddr: 0x265F0, symBinAddr: 0x2EB30, symSize: 0x10 }
  - { offset: 0x458D8, size: 0x8, addend: 0x0, symName: __ZN9QtPrivate25qMetaTypeInterfaceForTypeI7QStringEEPKNS_18QMetaTypeInterfaceEv, symObjAddr: 0x26600, symBinAddr: 0x2EB40, symSize: 0x10 }
  - { offset: 0x45900, size: 0x8, addend: 0x0, symName: __ZN9QtPrivate20q_relocate_overlap_nI7QStringxEEvPT_T0_S3_, symObjAddr: 0x29550, symBinAddr: 0x319F0, symSize: 0x50 }
  - { offset: 0x45956, size: 0x8, addend: 0x0, symName: __ZN9QtPrivateL19q_points_into_rangeI17QArrayDataPointerI7QStringEPKS2_EEbRKT0_RKT_, symObjAddr: 0x295A0, symBinAddr: 0x31A40, symSize: 0xA0 }
  - { offset: 0x459A2, size: 0x8, addend: 0x0, symName: __ZN9QtPrivateL19q_points_into_rangeI7QStringNSt3__14lessIvEEEEbPKT_S7_S7_T0_, symObjAddr: 0x29640, symBinAddr: 0x31AE0, symSize: 0x50 }
  - { offset: 0x45A0A, size: 0x8, addend: 0x0, symName: __ZN9QtPrivate29qCheckedFPConversionToIntegerIidLb1ELb1EEET_T0_, symObjAddr: 0x35740, symBinAddr: 0x3D870, symSize: 0xC0 }
  - { offset: 0x45A86, size: 0x8, addend: 0x0, symName: __ZN9QtPrivate33qvariant_cast_qmetatype_convertedIbEET_RK8QVariant9QMetaType, symObjAddr: 0x3AB90, symBinAddr: 0x42CC0, symSize: 0x60 }
  - { offset: 0x45ADD, size: 0x8, addend: 0x0, symName: __ZN9QtPrivateL30checkTypeIsSuitableForMetaTypeIbEEbv, symObjAddr: 0x3ABF0, symBinAddr: 0x42D20, symSize: 0x10 }
  - { offset: 0x45B05, size: 0x8, addend: 0x0, symName: __ZN9QtPrivate25qMetaTypeInterfaceForTypeIbEEPKNS_18QMetaTypeInterfaceEv, symObjAddr: 0x3AC00, symBinAddr: 0x42D30, symSize: 0x10 }
  - { offset: 0x45B2D, size: 0x8, addend: 0x0, symName: __ZN9QtPrivate33qvariant_cast_qmetatype_convertedI6QColorEET_RK8QVariant9QMetaType, symObjAddr: 0x3B220, symBinAddr: 0x43350, symSize: 0x60 }
  - { offset: 0x45B84, size: 0x8, addend: 0x0, symName: __ZN9QtPrivateL30checkTypeIsSuitableForMetaTypeI6QColorEEbv, symObjAddr: 0x3B280, symBinAddr: 0x433B0, symSize: 0x10 }
  - { offset: 0x45BAC, size: 0x8, addend: 0x0, symName: __ZN9QtPrivate25qMetaTypeInterfaceForTypeI6QColorEEPKNS_18QMetaTypeInterfaceEv, symObjAddr: 0x3B290, symBinAddr: 0x433C0, symSize: 0x10 }
  - { offset: 0x45C96, size: 0x8, addend: 0x0, symName: __ZN9QtPrivate33qvariant_cast_qmetatype_convertedIiEET_RK8QVariant9QMetaType, symObjAddr: 0x3B690, symBinAddr: 0x437C0, symSize: 0x60 }
  - { offset: 0x45CED, size: 0x8, addend: 0x0, symName: __ZN9QtPrivateL30checkTypeIsSuitableForMetaTypeIiEEbv, symObjAddr: 0x3B6F0, symBinAddr: 0x43820, symSize: 0x10 }
  - { offset: 0x45D15, size: 0x8, addend: 0x0, symName: __ZN9QtPrivate25qMetaTypeInterfaceForTypeIiEEPKNS_18QMetaTypeInterfaceEv, symObjAddr: 0x3B700, symBinAddr: 0x43830, symSize: 0x10 }
  - { offset: 0x45D3E, size: 0x8, addend: 0x0, symName: __ZN9QtPrivateL30checkTypeIsSuitableForMetaTypeIN5Tiled9ObjectRefEEEbv, symObjAddr: 0x3FB20, symBinAddr: 0x47BF0, symSize: 0x10 }
  - { offset: 0x45D66, size: 0x8, addend: 0x0, symName: __ZN9QtPrivate25qMetaTypeInterfaceForTypeIN5Tiled9ObjectRefEEEPKNS_18QMetaTypeInterfaceEv, symObjAddr: 0x3FB30, symBinAddr: 0x47C00, symSize: 0x10 }
  - { offset: 0x45EE8, size: 0x8, addend: 0x0, symName: __ZN9QtPrivate33qvariant_cast_qmetatype_convertedIN5Tiled9ObjectRefEEET_RK8QVariant9QMetaType, symObjAddr: 0x40340, symBinAddr: 0x483A0, symSize: 0x60 }
  - { offset: 0x46046, size: 0x8, addend: 0x0, symName: __ZTVN2Yy10GMResourceE, symObjAddr: 0x4E218, symBinAddr: 0x595F0, symSize: 0x0 }
  - { offset: 0x46E9E, size: 0x8, addend: 0x0, symName: __ZN2YyL12sanitizeNameE7QString, symObjAddr: 0x16B40, symBinAddr: 0x1F3F0, symSize: 0x1D0 }
  - { offset: 0x46EC8, size: 0x8, addend: 0x0, symName: __ZZN2YyL12sanitizeNameE7QStringE6regexp, symObjAddr: 0x3029E0, symBinAddr: 0x5A1E0, symSize: 0x0 }
  - { offset: 0x4739A, size: 0x8, addend: 0x0, symName: __ZN2YyL7idValueERK7QStringS2_, symObjAddr: 0x620, symBinAddr: 0x98C0, symSize: 0x390 }
  - { offset: 0x47400, size: 0x8, addend: 0x0, symName: __ZN2YyL15resourceTypeStrENS_12ResourceTypeE, symObjAddr: 0x10C0, symBinAddr: 0xA2F0, symSize: 0x120 }
  - { offset: 0x4742C, size: 0x8, addend: 0x0, symName: __ZN2YyL20resourceTypeTagValueENS_12ResourceTypeE, symObjAddr: 0x11E0, symBinAddr: 0xA410, symSize: 0x120 }
  - { offset: 0x47458, size: 0x8, addend: 0x0, symName: __ZN2YyL12colorToAbgrFERK6QColor, symObjAddr: 0x29E0, symBinAddr: 0xBBF0, symSize: 0x30 }
  - { offset: 0x475F8, size: 0x8, addend: 0x0, symName: __ZN2YyL11colorToAbgrERK6QColor, symObjAddr: 0xEFA0, symBinAddr: 0x17980, symSize: 0x60 }
  - { offset: 0x47632, size: 0x8, addend: 0x0, symName: __ZN2YyL19determineResourceIdERK7QString, symObjAddr: 0x26640, symBinAddr: 0x2EB80, symSize: 0x2E0 }
  - { offset: 0x5359D, size: 0x8, addend: 0x0, symName: __ZNSt3__110__function10__not_nullB9nqe210106IN5Tiled10JumpToTileEEEbRKT_, symObjAddr: 0x216D0, symBinAddr: 0x29C10, symSize: 0x10 }
  - { offset: 0x535CE, size: 0x8, addend: 0x0, symName: '__ZNSt3__110__function10__not_nullB9nqe210106IZL21createAssetsFromTilesRNS_6vectorIN2Yy10GMRGraphicENS_9allocatorIS4_EEEEPKN5Tiled9TileLayerERNS3_7ContextEE3$_0EEbRKT_', symObjAddr: 0x224F0, symBinAddr: 0x2AA30, symSize: 0x10 }
  - { offset: 0x535FF, size: 0x8, addend: 0x0, symName: __ZNSt3__110__function10__not_nullB9nqe210106IN5Tiled12JumpToObjectEEEbRKT_, symObjAddr: 0x34230, symBinAddr: 0x3C360, symSize: 0x10 }
  - { offset: 0x6696B, size: 0x8, addend: 0x0, symName: '__ZNSt3__111__introsortINS_17_ClassicAlgPolicyERZL16processTileLayerPKN5Tiled9TileLayerERN2Yy7ContextEE3$_0N5QListI14QSharedPointerINS2_7TilesetEEE8iteratorELb0EEEvT1_SH_T0_NS_15iterator_traitsISH_E15difference_typeEb', symObjAddr: 0x1B560, symBinAddr: 0x23AF0, symSize: 0x7B0 }
  - { offset: 0x66AD6, size: 0x8, addend: 0x0, symName: '__ZNSt3__126__insertion_sort_unguardedB9nqe210106INS_17_ClassicAlgPolicyERZL16processTileLayerPKN5Tiled9TileLayerERN2Yy7ContextEE3$_0N5QListI14QSharedPointerINS2_7TilesetEEE8iteratorEEEvT1_SH_T0_', symObjAddr: 0x1C450, symBinAddr: 0x249E0, symSize: 0x1B0 }
  - { offset: 0x66BB9, size: 0x8, addend: 0x0, symName: '__ZNSt3__111__sift_downB9nqe210106INS_17_ClassicAlgPolicyERZL16processTileLayerPKN5Tiled9TileLayerERN2Yy7ContextEE3$_0N5QListI14QSharedPointerINS2_7TilesetEEE8iteratorEEEvT1_OT0_NS_15iterator_traitsISH_E15difference_typeESH_', symObjAddr: 0x1DF10, symBinAddr: 0x26450, symSize: 0x320 }
  - { offset: 0x66C67, size: 0x8, addend: 0x0, symName: '__ZNSt3__117__floyd_sift_downB9nqe210106INS_17_ClassicAlgPolicyERZL16processTileLayerPKN5Tiled9TileLayerERN2Yy7ContextEE3$_0N5QListI14QSharedPointerINS2_7TilesetEEE8iteratorEEET1_SH_OT0_NS_15iterator_traitsISH_E15difference_typeE', symObjAddr: 0x1E460, symBinAddr: 0x269A0, symSize: 0x120 }
  - { offset: 0x66D00, size: 0x8, addend: 0x0, symName: '__ZNSt3__131__partition_with_equals_on_leftB9nqe210106INS_17_ClassicAlgPolicyEN5QListI14QSharedPointerIN5Tiled7TilesetEEE8iteratorERZL16processTileLayerPKNS4_9TileLayerERN2Yy7ContextEE3$_0EET0_SH_SH_T1_', symObjAddr: 0x1C720, symBinAddr: 0x24CB0, symSize: 0x390 }
  - { offset: 0x66DC1, size: 0x8, addend: 0x0, symName: '__ZNSt3__118__bitset_partitionB9nqe210106INS_17_ClassicAlgPolicyEN5QListI14QSharedPointerIN5Tiled7TilesetEEE8iteratorERZL16processTileLayerPKNS4_9TileLayerERN2Yy7ContextEE3$_0EENS_4pairIT0_bEESI_SI_T1_', symObjAddr: 0x1CAB0, symBinAddr: 0x25040, symSize: 0x4E0 }
  - { offset: 0x66EC7, size: 0x8, addend: 0x0, symName: __ZNSt3__124__swap_bitmap_pos_withinB9nqe210106INS_17_ClassicAlgPolicyEN5QListI14QSharedPointerIN5Tiled7TilesetEEE8iteratorEEEvRT0_SA_RySB_, symObjAddr: 0x1EBF0, symBinAddr: 0x27130, symSize: 0x190 }
  - { offset: 0x66F9D, size: 0x8, addend: 0x0, symName: '__ZNSt3__132__partition_with_equals_on_rightB9nqe210106INS_17_ClassicAlgPolicyEN5QListI14QSharedPointerIN5Tiled7TilesetEEE8iteratorERZL16processTileLayerPKNS4_9TileLayerERN2Yy7ContextEE3$_0EENS_4pairIT0_bEESI_SI_T1_', symObjAddr: 0x1CF90, symBinAddr: 0x25520, symSize: 0x370 }
  - { offset: 0x67070, size: 0x8, addend: 0x0, symName: '__ZNSt3__127__insertion_sort_incompleteB9nqe210106INS_17_ClassicAlgPolicyERZL16processTileLayerPKN5Tiled9TileLayerERN2Yy7ContextEE3$_0N5QListI14QSharedPointerINS2_7TilesetEEE8iteratorEEEbT1_SH_T0_', symObjAddr: 0x1D300, symBinAddr: 0x25890, symSize: 0x4F0 }
  - { offset: 0x679C9, size: 0x8, addend: 0x0, symName: '__ZNSt3__118__stable_sort_implB9nqe210106INS_17_ClassicAlgPolicyEN5QListIPN5Tiled9MapObjectEE8iteratorEZL18processObjectGroupPKNS3_11ObjectGroupERN2Yy7ContextEE3$_0EEvT0_SF_RT1_', symObjAddr: 0x2EAE0, symBinAddr: 0x36D00, symSize: 0x140 }
  - { offset: 0x67A69, size: 0x8, addend: 0x0, symName: __ZNSt3__134__allocate_unique_temporary_bufferB9nqe210106IPN5Tiled9MapObjectEEENS_10unique_ptrIT_NS_26__temporary_buffer_deleterIS5_EEEEl, symObjAddr: 0x2EC90, symBinAddr: 0x36EB0, symSize: 0xC0 }
  - { offset: 0x67B22, size: 0x8, addend: 0x0, symName: '__ZNSt3__113__stable_sortINS_17_ClassicAlgPolicyERZL18processObjectGroupPKN5Tiled11ObjectGroupERN2Yy7ContextEE3$_0N5QListIPNS2_9MapObjectEE8iteratorEEEvT1_SG_T0_NS_15iterator_traitsISG_E15difference_typeEPNSJ_10value_typeEl', symObjAddr: 0x2EE00, symBinAddr: 0x37020, symSize: 0x310 }
  - { offset: 0x67C2B, size: 0x8, addend: 0x0, symName: '__ZNSt3__124__buffered_inplace_mergeB9nqe210106INS_17_ClassicAlgPolicyERZL18processObjectGroupPKN5Tiled11ObjectGroupERN2Yy7ContextEE3$_0N5QListIPNS2_9MapObjectEE8iteratorEEEvT1_SG_SG_OT0_NS_15iterator_traitsISG_E15difference_typeESL_PNSK_10value_typeE', symObjAddr: 0x307E0, symBinAddr: 0x38A00, symSize: 0x2D0 }
  - { offset: 0x68012, size: 0x8, addend: 0x0, symName: __ZNSt3__17advanceB9nqe210106IN5QListIPN5Tiled9MapObjectEE8iteratorExxLi0EEEvRT_T0_, symObjAddr: 0x31FC0, symBinAddr: 0x3A1E0, symSize: 0x30 }
  - { offset: 0x68754, size: 0x8, addend: 0x0, symName: __ZNSt3__17advanceB9nqe210106INS_21__tree_const_iteratorINS_12__value_typeI7QString8QVariantEEPNS_11__tree_nodeIS5_PvEElEEllLi0EEEvRT_T0_, symObjAddr: 0x388E0, symBinAddr: 0x40A10, symSize: 0x30 }
  - { offset: 0x6AC3E, size: 0x8, addend: 0x0, symName: __ZNSt3__118__stable_sort_implB9nqe210106INS_17_ClassicAlgPolicyENS_11__wrap_iterIPN2Yy16InstanceCreationEEENS_6__lessIvvEEEEvT0_S9_RT1_, symObjAddr: 0x469C0, symBinAddr: 0x4E6E0, symSize: 0x130 }
  - { offset: 0x6ACDD, size: 0x8, addend: 0x0, symName: __ZNSt3__134__allocate_unique_temporary_bufferB9nqe210106IN2Yy16InstanceCreationEEENS_10unique_ptrIT_NS_26__temporary_buffer_deleterIS4_EEEEl, symObjAddr: 0x46B80, symBinAddr: 0x4E8A0, symSize: 0xC0 }
  - { offset: 0x6AD95, size: 0x8, addend: 0x0, symName: __ZNSt3__113__stable_sortINS_17_ClassicAlgPolicyERNS_6__lessIvvEENS_11__wrap_iterIPN2Yy16InstanceCreationEEEEEvT1_SA_T0_NS_15iterator_traitsISA_E15difference_typeEPNSD_10value_typeEl, symObjAddr: 0x46CF0, symBinAddr: 0x4EA10, symSize: 0x320 }
  - { offset: 0x6AE9D, size: 0x8, addend: 0x0, symName: __ZNSt3__124__buffered_inplace_mergeB9nqe210106INS_17_ClassicAlgPolicyERNS_6__lessIvvEENS_11__wrap_iterIPN2Yy16InstanceCreationEEEEEvT1_SA_SA_OT0_NS_15iterator_traitsISA_E15difference_typeESF_PNSE_10value_typeE, symObjAddr: 0x48740, symBinAddr: 0x50460, symSize: 0x2C0 }
  - { offset: 0x6B0DD, size: 0x8, addend: 0x0, symName: __ZNSt3__17advanceB9nqe210106INS_11__wrap_iterIPN2Yy16InstanceCreationEEEllLi0EEEvRT_T0_, symObjAddr: 0x49E40, symBinAddr: 0x51B60, symSize: 0x30 }
  - { offset: 0x6B748, size: 0x8, addend: 0x0, symName: __ZNSt3__1neB9nqe210106IPKN2Yy20GMOverriddenPropertyEEEbRKNS_11__wrap_iterIT_EES9_, symObjAddr: 0x4910, symBinAddr: 0xDB20, symSize: 0x30 }
  - { offset: 0x6B78B, size: 0x8, addend: 0x0, symName: __ZNSt3__1neB9nqe210106IPKNS_10unique_ptrIN2Yy8GMRLayerENS_14default_deleteIS3_EEEEEEbRKNS_11__wrap_iterIT_EESD_, symObjAddr: 0x6070, symBinAddr: 0xF280, symSize: 0x30 }
  - { offset: 0x6B7CE, size: 0x8, addend: 0x0, symName: __ZNSt3__1neB9nqe210106IPKN2Yy10GMRGraphicEEEbRKNS_11__wrap_iterIT_EES9_, symObjAddr: 0x6CF0, symBinAddr: 0xFF00, symSize: 0x30 }
  - { offset: 0x6B811, size: 0x8, addend: 0x0, symName: __ZNSt3__1neB9nqe210106IPKN2Yy11GMRInstanceEEEbRKNS_11__wrap_iterIT_EES9_, symObjAddr: 0x7020, symBinAddr: 0x10230, symSize: 0x30 }
  - { offset: 0x6B854, size: 0x8, addend: 0x0, symName: __ZNSt3__1neB9nqe210106IPKN2Yy7GMRViewEEEbRKNS_11__wrap_iterIT_EES9_, symObjAddr: 0x9C40, symBinAddr: 0x12E50, symSize: 0x30 }
  - { offset: 0x6B897, size: 0x8, addend: 0x0, symName: __ZNSt3__1neB9nqe210106IPKN2Yy16InstanceCreationEEEbRKNS_11__wrap_iterIT_EES9_, symObjAddr: 0x9D30, symBinAddr: 0x12F40, symSize: 0x30 }
  - { offset: 0x6BAE7, size: 0x8, addend: 0x0, symName: __ZNSt3__111make_uniqueB9nqe210106IN2Yy18GMRBackgroundLayerEJELi0EEENS_10unique_ptrIT_NS_14default_deleteIS4_EEEEDpOT0_, symObjAddr: 0xCA90, symBinAddr: 0x15C80, symSize: 0x70 }
  - { offset: 0x6BB1C, size: 0x8, addend: 0x0, symName: __ZNSt3__111stable_sortB9nqe210106INS_11__wrap_iterIPN2Yy16InstanceCreationEEEEEvT_S6_, symObjAddr: 0xD0C0, symBinAddr: 0x162B0, symSize: 0x40 }
  - { offset: 0x6BB5E, size: 0x8, addend: 0x0, symName: __ZNSt3__14dataB9nqe210106I11QStringViewEEDTcldtfp_4dataEERT_, symObjAddr: 0xE0A0, symBinAddr: 0x170B0, symSize: 0x20 }
  - { offset: 0x6BB93, size: 0x8, addend: 0x0, symName: __ZNSt3__14sizeB9nqe210106I11QStringViewEEDTcldtfp_4sizeEERKT_, symObjAddr: 0xE130, symBinAddr: 0x17140, symSize: 0x20 }
  - { offset: 0x6BBC8, size: 0x8, addend: 0x0, symName: __ZNSt3__18exchangeB9nqe210106IP15QTypedArrayDataIcEDnEET_RS4_OT0_, symObjAddr: 0xE9D0, symBinAddr: 0x17760, symSize: 0x30 }
  - { offset: 0x6BC22, size: 0x8, addend: 0x0, symName: __ZNSt3__18exchangeB9nqe210106IPcDnEET_RS2_OT0_, symObjAddr: 0xEA00, symBinAddr: 0x17790, symSize: 0x30 }
  - { offset: 0x6BC7C, size: 0x8, addend: 0x0, symName: __ZNSt3__1eqB9nqe210106IPKN2Yy20GMOverriddenPropertyEEEbRKNS_11__wrap_iterIT_EES9_, symObjAddr: 0xF180, symBinAddr: 0x17B60, symSize: 0x40 }
  - { offset: 0x6BCBF, size: 0x8, addend: 0x0, symName: __ZNSt3__1eqB9nqe210106IPKNS_10unique_ptrIN2Yy8GMRLayerENS_14default_deleteIS3_EEEEEEbRKNS_11__wrap_iterIT_EESD_, symObjAddr: 0xF2A0, symBinAddr: 0x17C80, symSize: 0x40 }
  - { offset: 0x6BD02, size: 0x8, addend: 0x0, symName: __ZNSt3__1eqB9nqe210106IPKN2Yy10GMRGraphicEEEbRKNS_11__wrap_iterIT_EES9_, symObjAddr: 0xF420, symBinAddr: 0x17E00, symSize: 0x40 }
  - { offset: 0x6BD45, size: 0x8, addend: 0x0, symName: __ZNSt3__1eqB9nqe210106IPKN2Yy11GMRInstanceEEEbRKNS_11__wrap_iterIT_EES9_, symObjAddr: 0xF480, symBinAddr: 0x17E60, symSize: 0x40 }
  - { offset: 0x6BD88, size: 0x8, addend: 0x0, symName: __ZNSt3__1eqB9nqe210106IPKN2Yy7GMRViewEEEbRKNS_11__wrap_iterIT_EES9_, symObjAddr: 0xF4E0, symBinAddr: 0x17EC0, symSize: 0x40 }
  - { offset: 0x6BDCB, size: 0x8, addend: 0x0, symName: __ZNSt3__1eqB9nqe210106IPKN2Yy16InstanceCreationEEEbRKNS_11__wrap_iterIT_EES9_, symObjAddr: 0xF540, symBinAddr: 0x17F20, symSize: 0x40 }
  - { offset: 0x6BE0E, size: 0x8, addend: 0x0, symName: __ZNSt3__112__to_addressB9nqe210106IN2Yy16InstanceCreationEEEPT_S4_, symObjAddr: 0x108C0, symBinAddr: 0x19170, symSize: 0x10 }
  - { offset: 0x6BE43, size: 0x8, addend: 0x0, symName: __ZNSt3__131__annotate_contiguous_containerB9nqe210106INS_9allocatorIN2Yy16InstanceCreationEEEEEvPKvS6_S6_S6_, symObjAddr: 0x109B0, symBinAddr: 0x19260, symSize: 0x20 }
  - { offset: 0x6BE9E, size: 0x8, addend: 0x0, symName: __ZNSt3__119__libcpp_deallocateB9nqe210106IN2Yy16InstanceCreationEEEvPNS_15__type_identityIT_E4typeENS_15__element_countEm, symObjAddr: 0x10A00, symBinAddr: 0x192B0, symSize: 0x50 }
  - { offset: 0x6BEF9, size: 0x8, addend: 0x0, symName: __ZNSt3__124__is_overaligned_for_newB9nqe210106Em, symObjAddr: 0x10A50, symBinAddr: 0x19300, symSize: 0x20 }
  - { offset: 0x6BF25, size: 0x8, addend: 0x0, symName: __ZNSt3__112__to_addressB9nqe210106INS_10unique_ptrIN2Yy8GMRLayerENS_14default_deleteIS3_EEEEEEPT_S8_, symObjAddr: 0x10DC0, symBinAddr: 0x19670, symSize: 0x10 }
  - { offset: 0x6BF5A, size: 0x8, addend: 0x0, symName: __ZNSt3__131__annotate_contiguous_containerB9nqe210106INS_9allocatorINS_10unique_ptrIN2Yy8GMRLayerENS_14default_deleteIS4_EEEEEEEEvPKvSA_SA_SA_, symObjAddr: 0x10E70, symBinAddr: 0x19720, symSize: 0x20 }
  - { offset: 0x6BFB5, size: 0x8, addend: 0x0, symName: __ZNSt3__119__libcpp_deallocateB9nqe210106INS_10unique_ptrIN2Yy8GMRLayerENS_14default_deleteIS3_EEEEEEvPNS_15__type_identityIT_E4typeENS_15__element_countEm, symObjAddr: 0x10EC0, symBinAddr: 0x19770, symSize: 0x50 }
  - { offset: 0x6C010, size: 0x8, addend: 0x0, symName: __ZNSt3__112__to_addressB9nqe210106IN2Yy7GMRViewEEEPT_S4_, symObjAddr: 0x11290, symBinAddr: 0x19B40, symSize: 0x10 }
  - { offset: 0x6C045, size: 0x8, addend: 0x0, symName: __ZNSt3__131__annotate_contiguous_containerB9nqe210106INS_9allocatorIN2Yy7GMRViewEEEEEvPKvS6_S6_S6_, symObjAddr: 0x11380, symBinAddr: 0x19C30, symSize: 0x20 }
  - { offset: 0x6C0A0, size: 0x8, addend: 0x0, symName: __ZNSt3__119__libcpp_deallocateB9nqe210106IN2Yy7GMRViewEEEvPNS_15__type_identityIT_E4typeENS_15__element_countEm, symObjAddr: 0x113D0, symBinAddr: 0x19C80, symSize: 0x50 }
  - { offset: 0x6C0FB, size: 0x8, addend: 0x0, symName: __ZNSt3__112__to_addressB9nqe210106IN2Yy6GMPathEEEPT_S4_, symObjAddr: 0x118E0, symBinAddr: 0x1A190, symSize: 0x10 }
  - { offset: 0x6C130, size: 0x8, addend: 0x0, symName: __ZNSt3__131__annotate_contiguous_containerB9nqe210106INS_9allocatorIN2Yy6GMPathEEEEEvPKvS6_S6_S6_, symObjAddr: 0x11990, symBinAddr: 0x1A240, symSize: 0x20 }
  - { offset: 0x6C18B, size: 0x8, addend: 0x0, symName: __ZNSt3__119__libcpp_deallocateB9nqe210106IN2Yy6GMPathEEEvPNS_15__type_identityIT_E4typeENS_15__element_countEm, symObjAddr: 0x119E0, symBinAddr: 0x1A290, symSize: 0x50 }
  - { offset: 0x6C1E6, size: 0x8, addend: 0x0, symName: __ZNSt3__1neB9nqe210106IN5QListIPN5Tiled5LayerEE14const_iteratorES6_EEbRKNS_16reverse_iteratorIT_EERKNS7_IT0_EE, symObjAddr: 0x11A70, symBinAddr: 0x1A320, symSize: 0x40 }
  - { offset: 0x6C232, size: 0x8, addend: 0x0, symName: __ZNSt3__111make_uniqueB9nqe210106IN2Yy8GMRLayerEJELi0EEENS_10unique_ptrIT_NS_14default_deleteIS4_EEEEDpOT0_, symObjAddr: 0x16840, symBinAddr: 0x1F0F0, symSize: 0x70 }
  - { offset: 0x6C266, size: 0x8, addend: 0x0, symName: __ZNSt3__1neB9nqe210106IPNS_10unique_ptrIN2Yy8GMRLayerENS_14default_deleteIS3_EEEEEEbRKNS_11__wrap_iterIT_EESC_, symObjAddr: 0x16DF0, symBinAddr: 0x1F6A0, symSize: 0x30 }
  - { offset: 0x6C2AA, size: 0x8, addend: 0x0, symName: '__ZNSt3__14sortB9nqe210106IN5QListI14QSharedPointerIN5Tiled7TilesetEEE8iteratorEZL16processTileLayerPKNS3_9TileLayerERN2Yy7ContextEE3$_0EEvT_SF_T0_', symObjAddr: 0x17270, symBinAddr: 0x1FB20, symSize: 0x40 }
  - { offset: 0x6C304, size: 0x8, addend: 0x0, symName: __ZNSt3__111make_uniqueB9nqe210106IN2Yy12GMRTileLayerEJELi0EEENS_10unique_ptrIT_NS_14default_deleteIS4_EEEEDpOT0_, symObjAddr: 0x174F0, symBinAddr: 0x1FDA0, symSize: 0x70 }
  - { offset: 0x6C338, size: 0x8, addend: 0x0, symName: __ZNSt3__111make_uniqueB9nqe210106IN2Yy13GMRAssetLayerEJELi0EEENS_10unique_ptrIT_NS_14default_deleteIS4_EEEEDpOT0_, symObjAddr: 0x17EE0, symBinAddr: 0x20790, symSize: 0x70 }
  - { offset: 0x6C36C, size: 0x8, addend: 0x0, symName: __ZNSt3__122__cxx_atomic_fetch_addB9nqe210106IiEET_PNS_22__cxx_atomic_base_implIS1_EES1_NS_12memory_orderE, symObjAddr: 0x190B0, symBinAddr: 0x21750, symSize: 0xB0 }
  - { offset: 0x6C3BD, size: 0x8, addend: 0x0, symName: __ZNSt3__17destroyB9nqe210106IP14QSharedPointerIN5Tiled7TilesetEEEEvT_S6_, symObjAddr: 0x19330, symBinAddr: 0x219D0, symSize: 0x30 }
  - { offset: 0x6C3FC, size: 0x8, addend: 0x0, symName: __ZNSt3__19__destroyB9nqe210106IP14QSharedPointerIN5Tiled7TilesetEEEET_S6_S6_, symObjAddr: 0x19360, symBinAddr: 0x21A00, symSize: 0x40 }
  - { offset: 0x6C43F, size: 0x8, addend: 0x0, symName: __ZNSt3__112__destroy_atB9nqe210106I14QSharedPointerIN5Tiled7TilesetEELi0EEEvPT_, symObjAddr: 0x193A0, symBinAddr: 0x21A40, symSize: 0x20 }
  - { offset: 0x6C476, size: 0x8, addend: 0x0, symName: __ZNSt3__14dataB9nqe210106I17QArrayDataPointerI14QSharedPointerIN5Tiled7TilesetEEEEEDTcldtfp_4dataEERKT_, symObjAddr: 0x1A560, symBinAddr: 0x22B80, symSize: 0x20 }
  - { offset: 0x6C4AB, size: 0x8, addend: 0x0, symName: __ZNSt3__18distanceB9nqe210106IPK14QSharedPointerIN5Tiled7TilesetEEEENS_15iterator_traitsIT_E15difference_typeES8_S8_, symObjAddr: 0x1A580, symBinAddr: 0x22BA0, symSize: 0x30 }
  - { offset: 0x6C4EE, size: 0x8, addend: 0x0, symName: __ZNSt3__15beginB9nqe210106I17QArrayDataPointerI14QSharedPointerIN5Tiled7TilesetEEEEEDTcldtfp_5beginEERKT_, symObjAddr: 0x1A5B0, symBinAddr: 0x22BD0, symSize: 0x20 }
  - { offset: 0x6C523, size: 0x8, addend: 0x0, symName: __ZNSt3__13endB9nqe210106I17QArrayDataPointerI14QSharedPointerIN5Tiled7TilesetEEEEEDTcldtfp_3endEERKT_, symObjAddr: 0x1A5D0, symBinAddr: 0x22BF0, symSize: 0x20 }
  - { offset: 0x6C5CC, size: 0x8, addend: 0x0, symName: __ZNSt3__110__distanceB9nqe210106IPK14QSharedPointerIN5Tiled7TilesetEEEENS_15iterator_traitsIT_E15difference_typeES8_S8_NS_26random_access_iterator_tagE, symObjAddr: 0x1A640, symBinAddr: 0x22C60, symSize: 0x20 }
  - { offset: 0x6C619, size: 0x8, addend: 0x0, symName: __ZNSt3__13getB9nqe210106ILm0EP15QTypedArrayDataI14QSharedPointerIN5Tiled7TilesetEEEPS5_EEONS_13tuple_elementIXT_ENS_4pairIT0_T1_EEE4typeEOSD_, symObjAddr: 0x1AB70, symBinAddr: 0x23190, symSize: 0x20 }
  - { offset: 0x6C663, size: 0x8, addend: 0x0, symName: __ZNSt3__13getB9nqe210106ILm1EP15QTypedArrayDataI14QSharedPointerIN5Tiled7TilesetEEEPS5_EEONS_13tuple_elementIXT_ENS_4pairIT0_T1_EEE4typeEOSD_, symObjAddr: 0x1AB90, symBinAddr: 0x231B0, symSize: 0x20 }
  - { offset: 0x6C7C8, size: 0x8, addend: 0x0, symName: '__ZNSt3__111__sort_implB9nqe210106INS_17_ClassicAlgPolicyEN5QListI14QSharedPointerIN5Tiled7TilesetEEE8iteratorEZL16processTileLayerPKNS4_9TileLayerERN2Yy7ContextEE3$_0EEvT0_SG_RT1_', symObjAddr: 0x1B340, symBinAddr: 0x238D0, symSize: 0xB0 }
  - { offset: 0x6C82B, size: 0x8, addend: 0x0, symName: __ZNSt3__123__debug_randomize_rangeB9nqe210106INS_17_ClassicAlgPolicyEN5QListI14QSharedPointerIN5Tiled7TilesetEEE8iteratorES8_EEvT0_T1_, symObjAddr: 0x1B3F0, symBinAddr: 0x23980, symSize: 0x10 }
  - { offset: 0x6C87D, size: 0x8, addend: 0x0, symName: '__ZNSt3__115__sort_dispatchB9nqe210106INS_17_ClassicAlgPolicyEN5QListI14QSharedPointerIN5Tiled7TilesetEEE8iteratorEZL16processTileLayerPKNS4_9TileLayerERN2Yy7ContextEE3$_0EEvT0_SG_RT1_', symObjAddr: 0x1B400, symBinAddr: 0x23990, symSize: 0x90 }
  - { offset: 0x6C8FC, size: 0x8, addend: 0x0, symName: __ZNSt3__113__unwrap_iterB9nqe210106IN5QListI14QSharedPointerIN5Tiled7TilesetEEE8iteratorENS_18__unwrap_iter_implIS7_Lb0EEELi0EEEDTclsrT0_8__unwrapclsr3stdE7declvalIT_EEEESB_, symObjAddr: 0x1B490, symBinAddr: 0x23A20, symSize: 0x30 }
  - { offset: 0x6C941, size: 0x8, addend: 0x0, symName: '__ZNSt3__135__check_strict_weak_ordering_sortedB9nqe210106IN5QListI14QSharedPointerIN5Tiled7TilesetEEE8iteratorEZL16processTileLayerPKNS3_9TileLayerERN2Yy7ContextEE3$_0EEvT_SF_RT0_', symObjAddr: 0x1B4C0, symBinAddr: 0x23A50, symSize: 0x20 }
  - { offset: 0x6C997, size: 0x8, addend: 0x0, symName: __ZNSt3__110__bit_log2B9nqe210106IyEET_S1_, symObjAddr: 0x1B500, symBinAddr: 0x23A90, symSize: 0x30 }
  - { offset: 0x6C9CC, size: 0x8, addend: 0x0, symName: __ZNSt3__118__to_unsigned_likeB9nqe210106IxEEu15__make_unsignedIT_ES1_, symObjAddr: 0x1B530, symBinAddr: 0x23AC0, symSize: 0x10 }
  - { offset: 0x6CA01, size: 0x8, addend: 0x0, symName: __ZNSt3__113__countl_zeroB9nqe210106IyEEiT_, symObjAddr: 0x1BD10, symBinAddr: 0x242A0, symSize: 0x30 }
  - { offset: 0x6CE83, size: 0x8, addend: 0x0, symName: '__ZNSt3__17__sort3B9nqe210106INS_17_ClassicAlgPolicyERZL16processTileLayerPKN5Tiled9TileLayerERN2Yy7ContextEE3$_0N5QListI14QSharedPointerINS2_7TilesetEEE8iteratorELi0EEEbT1_SH_SH_T0_', symObjAddr: 0x1BDF0, symBinAddr: 0x24380, symSize: 0x190 }
  - { offset: 0x6CEFB, size: 0x8, addend: 0x0, symName: '__ZNSt3__17__sort4B9nqe210106INS_17_ClassicAlgPolicyERZL16processTileLayerPKN5Tiled9TileLayerERN2Yy7ContextEE3$_0N5QListI14QSharedPointerINS2_7TilesetEEE8iteratorELi0EEEvT1_SH_SH_SH_T0_', symObjAddr: 0x1BFC0, symBinAddr: 0x24550, symSize: 0x120 }
  - { offset: 0x6CF7D, size: 0x8, addend: 0x0, symName: '__ZNSt3__17__sort5B9nqe210106INS_17_ClassicAlgPolicyERZL16processTileLayerPKN5Tiled9TileLayerERN2Yy7ContextEE3$_0N5QListI14QSharedPointerINS2_7TilesetEEE8iteratorELi0EEEvT1_SH_SH_SH_SH_T0_', symObjAddr: 0x1C0E0, symBinAddr: 0x24670, symSize: 0x190 }
  - { offset: 0x6D00D, size: 0x8, addend: 0x0, symName: '__ZNSt3__116__insertion_sortB9nqe210106INS_17_ClassicAlgPolicyERZL16processTileLayerPKN5Tiled9TileLayerERN2Yy7ContextEE3$_0N5QListI14QSharedPointerINS2_7TilesetEEE8iteratorEEEvT1_SH_T0_', symObjAddr: 0x1C270, symBinAddr: 0x24800, symSize: 0x1E0 }
  - { offset: 0x6D0C1, size: 0x8, addend: 0x0, symName: '__ZNSt3__114__partial_sortB9nqe210106INS_17_ClassicAlgPolicyERZL16processTileLayerPKN5Tiled9TileLayerERN2Yy7ContextEE3$_0N5QListI14QSharedPointerINS2_7TilesetEEE8iteratorESG_EET1_SH_SH_T2_RT0_', symObjAddr: 0x1C600, symBinAddr: 0x24B90, symSize: 0xE0 }
  - { offset: 0x6D149, size: 0x8, addend: 0x0, symName: __ZNSt3__19iter_swapB9nqe210106IN5QListI14QSharedPointerIN5Tiled7TilesetEEE8iteratorES7_EEvT_T0_, symObjAddr: 0x1DA90, symBinAddr: 0x25FD0, symSize: 0x40 }
  - { offset: 0x6D191, size: 0x8, addend: 0x0, symName: '__ZNSt3__119__partial_sort_implB9nqe210106INS_17_ClassicAlgPolicyERZL16processTileLayerPKN5Tiled9TileLayerERN2Yy7ContextEE3$_0N5QListI14QSharedPointerINS2_7TilesetEEE8iteratorESG_EET1_SH_SH_T2_OT0_', symObjAddr: 0x1DCE0, symBinAddr: 0x26220, symSize: 0x180 }
  - { offset: 0x6D229, size: 0x8, addend: 0x0, symName: '__ZNSt3__111__make_heapB9nqe210106INS_17_ClassicAlgPolicyERZL16processTileLayerPKN5Tiled9TileLayerERN2Yy7ContextEE3$_0N5QListI14QSharedPointerINS2_7TilesetEEE8iteratorEEEvT1_SH_OT0_', symObjAddr: 0x1DE60, symBinAddr: 0x263A0, symSize: 0xB0 }
  - { offset: 0x6D2CD, size: 0x8, addend: 0x0, symName: '__ZNSt3__111__sort_heapB9nqe210106INS_17_ClassicAlgPolicyERZL16processTileLayerPKN5Tiled9TileLayerERN2Yy7ContextEE3$_0N5QListI14QSharedPointerINS2_7TilesetEEE8iteratorEEEvT1_SH_OT0_', symObjAddr: 0x1E230, symBinAddr: 0x26770, symSize: 0xB0 }
  - { offset: 0x6D371, size: 0x8, addend: 0x0, symName: '__ZNSt3__110__pop_heapB9nqe210106INS_17_ClassicAlgPolicyEZL16processTileLayerPKN5Tiled9TileLayerERN2Yy7ContextEE3$_0N5QListI14QSharedPointerINS2_7TilesetEEE8iteratorEEEvT1_SG_RT0_NS_15iterator_traitsISG_E15difference_typeE', symObjAddr: 0x1E2E0, symBinAddr: 0x26820, symSize: 0x180 }
  - { offset: 0x6D41B, size: 0x8, addend: 0x0, symName: '__ZNSt3__19__sift_upB9nqe210106INS_17_ClassicAlgPolicyERZL16processTileLayerPKN5Tiled9TileLayerERN2Yy7ContextEE3$_0N5QListI14QSharedPointerINS2_7TilesetEEE8iteratorEEEvT1_SH_OT0_NS_15iterator_traitsISH_E15difference_typeE', symObjAddr: 0x1E580, symBinAddr: 0x26AC0, symSize: 0x1A0 }
  - { offset: 0x6D4BE, size: 0x8, addend: 0x0, symName: '__ZNSt3__122__populate_left_bitsetB9nqe210106IRZL16processTileLayerPKN5Tiled9TileLayerERN2Yy7ContextEE3$_0N5QListI14QSharedPointerINS1_7TilesetEEE8iteratorESD_EEvT0_T_RT1_Ry', symObjAddr: 0x1E780, symBinAddr: 0x26CC0, symSize: 0x90 }
  - { offset: 0x6D57F, size: 0x8, addend: 0x0, symName: '__ZNSt3__123__populate_right_bitsetB9nqe210106IRZL16processTileLayerPKN5Tiled9TileLayerERN2Yy7ContextEE3$_0N5QListI14QSharedPointerINS1_7TilesetEEE8iteratorESD_EEvT0_T_RT1_Ry', symObjAddr: 0x1E810, symBinAddr: 0x26D50, symSize: 0x90 }
  - { offset: 0x6D640, size: 0x8, addend: 0x0, symName: __ZNSt3__117__swap_bitmap_posB9nqe210106INS_17_ClassicAlgPolicyEN5QListI14QSharedPointerIN5Tiled7TilesetEEE8iteratorEEEvT0_S9_RySA_, symObjAddr: 0x1E8A0, symBinAddr: 0x26DE0, symSize: 0xD0 }
  - { offset: 0x6D6E5, size: 0x8, addend: 0x0, symName: '__ZNSt3__133__bitset_partition_partial_blocksB9nqe210106INS_17_ClassicAlgPolicyERZL16processTileLayerPKN5Tiled9TileLayerERN2Yy7ContextEE3$_0N5QListI14QSharedPointerINS2_7TilesetEEE8iteratorESE_EEvRT1_SI_T0_RT2_RySM_', symObjAddr: 0x1E9A0, symBinAddr: 0x26EE0, symSize: 0x250 }
  - { offset: 0x6D87C, size: 0x8, addend: 0x0, symName: __ZNSt3__19make_pairB9nqe210106IRN5QListI14QSharedPointerIN5Tiled7TilesetEEE8iteratorERbEENS_4pairINS_18__unwrap_referenceIu7__decayIT_EE4typeENSB_Iu7__decayIT0_EE4typeEEEOSC_OSG_, symObjAddr: 0x1ED80, symBinAddr: 0x272C0, symSize: 0x30 }
  - { offset: 0x6D8CB, size: 0x8, addend: 0x0, symName: __ZNSt3__113__countr_zeroB9nqe210106IyEEiT_, symObjAddr: 0x1EDB0, symBinAddr: 0x272F0, symSize: 0x20 }
  - { offset: 0x6D900, size: 0x8, addend: 0x0, symName: __ZNSt3__113__libcpp_blsrB9nqe210106Ey, symObjAddr: 0x1EDD0, symBinAddr: 0x27310, symSize: 0x20 }
  - { offset: 0x6DA52, size: 0x8, addend: 0x0, symName: __ZNSt3__112__to_addressB9nqe210106IjEEPT_S2_, symObjAddr: 0x206E0, symBinAddr: 0x28C20, symSize: 0x10 }
  - { offset: 0x6DA87, size: 0x8, addend: 0x0, symName: __ZNSt3__131__annotate_contiguous_containerB9nqe210106INS_9allocatorIjEEEEvPKvS4_S4_S4_, symObjAddr: 0x20870, symBinAddr: 0x28DB0, symSize: 0x20 }
  - { offset: 0x6DAE2, size: 0x8, addend: 0x0, symName: __ZNSt3__13maxB9nqe210106ImEERKT_S3_S3_, symObjAddr: 0x20BE0, symBinAddr: 0x29120, symSize: 0x30 }
  - { offset: 0x6DB25, size: 0x8, addend: 0x0, symName: __ZNSt3__13minB9nqe210106ImEERKT_S3_S3_, symObjAddr: 0x20C10, symBinAddr: 0x29150, symSize: 0x30 }
  - { offset: 0x6DD52, size: 0x8, addend: 0x0, symName: __ZNSt3__13minB9nqe210106ImNS_6__lessIvvEEEERKT_S5_S5_T0_, symObjAddr: 0x20C70, symBinAddr: 0x291B0, symSize: 0x50 }
  - { offset: 0x6DDAD, size: 0x8, addend: 0x0, symName: __ZNSt3__120__throw_length_errorB9nqe210106EPKc, symObjAddr: 0x20D20, symBinAddr: 0x29260, symSize: 0x60 }
  - { offset: 0x6DDD5, size: 0x8, addend: 0x0, symName: __ZNSt3__13maxB9nqe210106ImNS_6__lessIvvEEEERKT_S5_S5_T0_, symObjAddr: 0x20DF0, symBinAddr: 0x29330, symSize: 0x50 }
  - { offset: 0x6DE2F, size: 0x8, addend: 0x0, symName: __ZNSt3__119__allocate_at_leastB9nqe210106INS_9allocatorIjEEEENS_19__allocation_resultINS_16allocator_traitsIT_E7pointerEEERS5_m, symObjAddr: 0x20EF0, symBinAddr: 0x29430, symSize: 0x40 }
  - { offset: 0x6DE72, size: 0x8, addend: 0x0, symName: __ZNSt3__117__libcpp_allocateB9nqe210106IjEEPT_NS_15__element_countEm, symObjAddr: 0x20FC0, symBinAddr: 0x29500, symSize: 0x60 }
  - { offset: 0x6DEC4, size: 0x8, addend: 0x0, symName: __ZNSt3__134__uninitialized_allocator_relocateB9nqe210106INS_9allocatorIjEEPjEEvRT_T0_S6_S6_, symObjAddr: 0x210A0, symBinAddr: 0x295E0, symSize: 0x60 }
  - { offset: 0x6DF2D, size: 0x8, addend: 0x0, symName: __ZNSt3__14swapB9nqe210106IPjEENS_9enable_ifIXaasr21is_move_constructibleIT_EE5valuesr18is_move_assignableIS3_EE5valueEvE4typeERS3_S6_, symObjAddr: 0x21100, symBinAddr: 0x29640, symSize: 0x40 }
  - { offset: 0x6DF7E, size: 0x8, addend: 0x0, symName: __ZNSt3__119__libcpp_deallocateB9nqe210106IjEEvPNS_15__type_identityIT_E4typeENS_15__element_countEm, symObjAddr: 0x21390, symBinAddr: 0x298D0, symSize: 0x50 }
  - { offset: 0x6DFDA, size: 0x8, addend: 0x0, symName: __ZNSt3__110__invoke_rB9nqe210106IvJRN5Tiled10JumpToTileEEEET_DpOT0_, symObjAddr: 0x21B10, symBinAddr: 0x2A050, symSize: 0x20 }
  - { offset: 0x6E098, size: 0x8, addend: 0x0, symName: __ZNSt3__18__invokeB9nqe210106IJRN5Tiled10JumpToTileEEEENS_20__invoke_result_implIvJDpT_EE4typeEDpOS5_, symObjAddr: 0x21B50, symBinAddr: 0x2A090, symSize: 0x20 }
  - { offset: 0x6E0CC, size: 0x8, addend: 0x0, symName: __ZNSt3__125__throw_bad_function_callB9nqe210106Ev, symObjAddr: 0x21C10, symBinAddr: 0x2A150, symSize: 0x50 }
  - { offset: 0x6E0E6, size: 0x8, addend: 0x0, symName: '__ZNSt3__110__invoke_rB9nqe210106IvJRZL21createAssetsFromTilesRNS_6vectorIN2Yy10GMRGraphicENS_9allocatorIS3_EEEEPKN5Tiled9TileLayerERNS2_7ContextEE3$_06QPointRK7QPointFEEET_DpOT0_', symObjAddr: 0x22830, symBinAddr: 0x2AD70, symSize: 0x30 }
  - { offset: 0x6E14A, size: 0x8, addend: 0x0, symName: '__ZNSt3__18__invokeB9nqe210106IJRZL21createAssetsFromTilesRNS_6vectorIN2Yy10GMRGraphicENS_9allocatorIS3_EEEEPKN5Tiled9TileLayerERNS2_7ContextEE3$_06QPointRK7QPointFEEENS_20__invoke_result_implIvJDpT_EE4typeEDpOSL_', symObjAddr: 0x22890, symBinAddr: 0x2ADD0, symSize: 0x40 }
  - { offset: 0x6E1A3, size: 0x8, addend: 0x0, symName: __ZNSt3__1neB9nqe210106ERKNS_20__map_const_iteratorINS_21__tree_const_iteratorINS_12__value_typeIiPN5Tiled4TileEEEPNS_11__tree_nodeIS6_PvEElEEEESE_, symObjAddr: 0x24260, symBinAddr: 0x2C7A0, symSize: 0x30 }
  - { offset: 0x6E1E0, size: 0x8, addend: 0x0, symName: __ZNSt3__1neB9nqe210106ERKNS_21__tree_const_iteratorINS_12__value_typeIiPN5Tiled4TileEEEPNS_11__tree_nodeIS5_PvEElEESC_, symObjAddr: 0x244E0, symBinAddr: 0x2CA20, symSize: 0x30 }
  - { offset: 0x6E250, size: 0x8, addend: 0x0, symName: __ZNSt3__1eqB9nqe210106ERKNS_21__tree_const_iteratorINS_12__value_typeIiPN5Tiled4TileEEEPNS_11__tree_nodeIS5_PvEElEESC_, symObjAddr: 0x24670, symBinAddr: 0x2CBB0, symSize: 0x30 }
  - { offset: 0x6E2C0, size: 0x8, addend: 0x0, symName: __ZNSt3__112__to_addressB9nqe210106IN2Yy10GMRGraphicEEEPT_S4_, symObjAddr: 0x248E0, symBinAddr: 0x2CE20, symSize: 0x10 }
  - { offset: 0x6E2F5, size: 0x8, addend: 0x0, symName: __ZNSt3__131__annotate_contiguous_containerB9nqe210106INS_9allocatorIN2Yy10GMRGraphicEEEEEvPKvS6_S6_S6_, symObjAddr: 0x24AB0, symBinAddr: 0x2CFF0, symSize: 0x20 }
  - { offset: 0x6E350, size: 0x8, addend: 0x0, symName: __ZNSt3__119__allocate_at_leastB9nqe210106INS_9allocatorIN2Yy10GMRGraphicEEEEENS_19__allocation_resultINS_16allocator_traitsIT_E7pointerEEERS7_m, symObjAddr: 0x25040, symBinAddr: 0x2D580, symSize: 0x40 }
  - { offset: 0x6E393, size: 0x8, addend: 0x0, symName: __ZNSt3__117__libcpp_allocateB9nqe210106IN2Yy10GMRGraphicEEEPT_NS_15__element_countEm, symObjAddr: 0x250D0, symBinAddr: 0x2D610, symSize: 0x60 }
  - { offset: 0x6E3E5, size: 0x8, addend: 0x0, symName: __ZNSt3__134__uninitialized_allocator_relocateB9nqe210106INS_9allocatorIN2Yy10GMRGraphicEEEPS3_EEvRT_T0_S8_S8_, symObjAddr: 0x251B0, symBinAddr: 0x2D6F0, symSize: 0x100 }
  - { offset: 0x6E487, size: 0x8, addend: 0x0, symName: __ZNSt3__14swapB9nqe210106IPN2Yy10GMRGraphicEEENS_9enable_ifIXaasr21is_move_constructibleIT_EE5valuesr18is_move_assignableIS5_EE5valueEvE4typeERS5_S8_, symObjAddr: 0x252B0, symBinAddr: 0x2D7F0, symSize: 0x40 }
  - { offset: 0x6E4D8, size: 0x8, addend: 0x0, symName: __ZNSt3__122__make_exception_guardB9nqe210106INS_29_AllocatorDestroyRangeReverseINS_9allocatorIN2Yy10GMRGraphicEEEPS4_EEEENS_28__exception_guard_exceptionsIT_EES9_, symObjAddr: 0x25370, symBinAddr: 0x2D8B0, symSize: 0x60 }
  - { offset: 0x6E50D, size: 0x8, addend: 0x0, symName: __ZNSt3__119__allocator_destroyB9nqe210106INS_9allocatorIN2Yy10GMRGraphicEEEPS3_S5_EEvRT_T0_T1_, symObjAddr: 0x25460, symBinAddr: 0x2D9A0, symSize: 0x50 }
  - { offset: 0x6E56C, size: 0x8, addend: 0x0, symName: __ZNSt3__119__allocator_destroyB9nqe210106INS_9allocatorIN2Yy10GMRGraphicEEENS_16reverse_iteratorIPS3_EES7_EEvRT_T0_T1_, symObjAddr: 0x259A0, symBinAddr: 0x2DEE0, symSize: 0x60 }
  - { offset: 0x6E5CB, size: 0x8, addend: 0x0, symName: __ZNSt3__1neB9nqe210106IPN2Yy10GMRGraphicES3_EEbRKNS_16reverse_iteratorIT_EERKNS4_IT0_EE, symObjAddr: 0x25A30, symBinAddr: 0x2DF70, symSize: 0x40 }
  - { offset: 0x6E617, size: 0x8, addend: 0x0, symName: __ZNSt3__119__libcpp_deallocateB9nqe210106IN2Yy10GMRGraphicEEEvPNS_15__type_identityIT_E4typeENS_15__element_countEm, symObjAddr: 0x25CC0, symBinAddr: 0x2E200, symSize: 0x50 }
  - { offset: 0x6E672, size: 0x8, addend: 0x0, symName: __ZNSt3__14dataB9nqe210106I17QArrayDataPointerI7QStringEEEDTcldtfp_4dataEERKT_, symObjAddr: 0x29690, symBinAddr: 0x31B30, symSize: 0x20 }
  - { offset: 0x6E6A7, size: 0x8, addend: 0x0, symName: __ZNSt3__18distanceB9nqe210106IPK7QStringEENS_15iterator_traitsIT_E15difference_typeES5_S5_, symObjAddr: 0x296B0, symBinAddr: 0x31B50, symSize: 0x30 }
  - { offset: 0x6E6EA, size: 0x8, addend: 0x0, symName: __ZNSt3__15beginB9nqe210106I17QArrayDataPointerI7QStringEEEDTcldtfp_5beginEERKT_, symObjAddr: 0x296E0, symBinAddr: 0x31B80, symSize: 0x20 }
  - { offset: 0x6E71F, size: 0x8, addend: 0x0, symName: __ZNSt3__13endB9nqe210106I17QArrayDataPointerI7QStringEEEDTcldtfp_3endEERKT_, symObjAddr: 0x29700, symBinAddr: 0x31BA0, symSize: 0x20 }
  - { offset: 0x6E754, size: 0x8, addend: 0x0, symName: __ZNSt3__110__distanceB9nqe210106IPK7QStringEENS_15iterator_traitsIT_E15difference_typeES5_S5_NS_26random_access_iterator_tagE, symObjAddr: 0x29770, symBinAddr: 0x31BF0, symSize: 0x30 }
  - { offset: 0x6E7A1, size: 0x8, addend: 0x0, symName: __ZNSt3__13getB9nqe210106ILm0EP15QTypedArrayDataI7QStringEPS2_EEONS_13tuple_elementIXT_ENS_4pairIT0_T1_EEE4typeEOSA_, symObjAddr: 0x29F20, symBinAddr: 0x323A0, symSize: 0x20 }
  - { offset: 0x6E7EB, size: 0x8, addend: 0x0, symName: __ZNSt3__13getB9nqe210106ILm1EP15QTypedArrayDataI7QStringEPS2_EEONS_13tuple_elementIXT_ENS_4pairIT0_T1_EEE4typeEOSA_, symObjAddr: 0x29F40, symBinAddr: 0x323C0, symSize: 0x20 }
  - { offset: 0x6E835, size: 0x8, addend: 0x0, symName: __ZNSt3__14swapB9nqe210106IiEENS_9enable_ifIXaasr21is_move_constructibleIT_EE5valuesr18is_move_assignableIS2_EE5valueEvE4typeERS2_S5_, symObjAddr: 0x2A670, symBinAddr: 0x32910, symSize: 0x30 }
  - { offset: 0x6E887, size: 0x8, addend: 0x0, symName: '__ZNSt3__111stable_sortB9nqe210106IN5QListIPN5Tiled9MapObjectEE8iteratorEZL18processObjectGroupPKNS2_11ObjectGroupERN2Yy7ContextEE3$_0EEvT_SE_T0_', symObjAddr: 0x2CBD0, symBinAddr: 0x34E70, symSize: 0x40 }
  - { offset: 0x6E8E1, size: 0x8, addend: 0x0, symName: __ZNSt3__111make_uniqueB9nqe210106IN2Yy16GMRInstanceLayerEJELi0EEENS_10unique_ptrIT_NS_14default_deleteIS4_EEEEDpOT0_, symObjAddr: 0x2E600, symBinAddr: 0x36820, symSize: 0x70 }
  - { offset: 0x6E915, size: 0x8, addend: 0x0, symName: __ZNSt3__1neB9nqe210106IPN2Yy6GMPathEEEbRKNS_11__wrap_iterIT_EES8_, symObjAddr: 0x2E790, symBinAddr: 0x369B0, symSize: 0x30 }
  - { offset: 0x6E958, size: 0x8, addend: 0x0, symName: __ZNSt3__111make_uniqueB9nqe210106IN2Yy12GMRPathLayerEJELi0EEENS_10unique_ptrIT_NS_14default_deleteIS4_EEEEDpOT0_, symObjAddr: 0x2E7E0, symBinAddr: 0x36A00, symSize: 0x70 }
  - { offset: 0x6EC97, size: 0x8, addend: 0x0, symName: '__ZNSt3__135__check_strict_weak_ordering_sortedB9nqe210106IN5QListIPN5Tiled9MapObjectEE8iteratorEZL18processObjectGroupPKNS2_11ObjectGroupERN2Yy7ContextEE3$_0EEvT_SE_RT0_', symObjAddr: 0x2F110, symBinAddr: 0x37330, symSize: 0x20 }
  - { offset: 0x6ED0B, size: 0x8, addend: 0x0, symName: __ZNSt3__127__libcpp_deallocate_unsizedB9nqe210106IPN5Tiled9MapObjectEEEvPNS_15__type_identityIT_E4typeEm, symObjAddr: 0x2F320, symBinAddr: 0x37540, symSize: 0x40 }
  - { offset: 0x6ED4B, size: 0x8, addend: 0x0, symName: '__ZNSt3__116__insertion_sortB9nqe210106INS_17_ClassicAlgPolicyERZL18processObjectGroupPKN5Tiled11ObjectGroupERN2Yy7ContextEE3$_0N5QListIPNS2_9MapObjectEE8iteratorEEEvT1_SG_T0_', symObjAddr: 0x2F440, symBinAddr: 0x37660, symSize: 0x1A0 }
  - { offset: 0x6F1A2, size: 0x8, addend: 0x0, symName: '__ZNSt3__118__stable_sort_moveINS_17_ClassicAlgPolicyERZL18processObjectGroupPKN5Tiled11ObjectGroupERN2Yy7ContextEE3$_0N5QListIPNS2_9MapObjectEE8iteratorEEEvT1_SG_T0_NS_15iterator_traitsISG_E15difference_typeEPNSJ_10value_typeE', symObjAddr: 0x2F680, symBinAddr: 0x378A0, symSize: 0x370 }
  - { offset: 0x6F25F, size: 0x8, addend: 0x0, symName: '__ZNSt3__119__merge_move_assignB9nqe210106INS_17_ClassicAlgPolicyERZL18processObjectGroupPKN5Tiled11ObjectGroupERN2Yy7ContextEE3$_0PPNS2_9MapObjectESD_N5QListISC_E8iteratorEEEvT1_SH_T2_SI_T3_T0_', symObjAddr: 0x2FA20, symBinAddr: 0x37C40, symSize: 0x150 }
  - { offset: 0x6F2FB, size: 0x8, addend: 0x0, symName: '__ZNSt3__115__inplace_mergeINS_17_ClassicAlgPolicyERZL18processObjectGroupPKN5Tiled11ObjectGroupERN2Yy7ContextEE3$_0N5QListIPNS2_9MapObjectEE8iteratorEEEvT1_SG_SG_OT0_NS_15iterator_traitsISG_E15difference_typeESL_PNSK_10value_typeEl', symObjAddr: 0x2FB90, symBinAddr: 0x37DB0, symSize: 0x410 }
  - { offset: 0x6F414, size: 0x8, addend: 0x0, symName: __ZNSt3__19iter_swapB9nqe210106IN5QListIPN5Tiled9MapObjectEE8iteratorES6_EEvT_T0_, symObjAddr: 0x2FFA0, symBinAddr: 0x381C0, symSize: 0x40 }
  - { offset: 0x6F45C, size: 0x8, addend: 0x0, symName: __ZNSt3__14swapB9nqe210106IPN5Tiled9MapObjectEEENS_9enable_ifIXaasr21is_move_constructibleIT_EE5valuesr18is_move_assignableIS5_EE5valueEvE4typeERS5_S8_, symObjAddr: 0x2FFE0, symBinAddr: 0x38200, symSize: 0x40 }
  - { offset: 0x6F4AD, size: 0x8, addend: 0x0, symName: __ZNSt3__114__construct_atB9nqe210106IPN5Tiled9MapObjectEJS3_EPS3_EEPT_S6_DpOT0_, symObjAddr: 0x30150, symBinAddr: 0x38370, symSize: 0x20 }
  - { offset: 0x6F501, size: 0x8, addend: 0x0, symName: '__ZNSt3__121__insertion_sort_moveB9nqe210106INS_17_ClassicAlgPolicyERZL18processObjectGroupPKN5Tiled11ObjectGroupERN2Yy7ContextEE3$_0N5QListIPNS2_9MapObjectEE8iteratorEEEvT1_SG_PNS_15iterator_traitsISG_E10value_typeET0_', symObjAddr: 0x301B0, symBinAddr: 0x383D0, symSize: 0x280 }
  - { offset: 0x6F5D1, size: 0x8, addend: 0x0, symName: '__ZNSt3__122__merge_move_constructB9nqe210106INS_17_ClassicAlgPolicyERZL18processObjectGroupPKN5Tiled11ObjectGroupERN2Yy7ContextEE3$_0N5QListIPNS2_9MapObjectEE8iteratorESF_EEvT1_SG_T2_SH_PNS_15iterator_traitsISG_E10value_typeET0_', symObjAddr: 0x30430, symBinAddr: 0x38650, symSize: 0x2B0 }
  - { offset: 0x6F680, size: 0x8, addend: 0x0, symName: '__ZNSt3__113__upper_boundB9nqe210106INS_17_ClassicAlgPolicyERZL18processObjectGroupPKN5Tiled11ObjectGroupERN2Yy7ContextEE3$_0N5QListIPNS2_9MapObjectEE8iteratorESF_SD_NS_10__identityEEET1_SH_T2_RKT3_OT0_OT4_', symObjAddr: 0x30B00, symBinAddr: 0x38D20, symSize: 0xF0 }
  - { offset: 0x6F755, size: 0x8, addend: 0x0, symName: '__ZNSt3__111lower_boundB9nqe210106IN5QListIPN5Tiled9MapObjectEE8iteratorES4_ZL18processObjectGroupPKNS2_11ObjectGroupERN2Yy7ContextEE3$_0EET_SE_SE_RKT0_T1_', symObjAddr: 0x30C30, symBinAddr: 0x38E50, symSize: 0x60 }
  - { offset: 0x6F7D4, size: 0x8, addend: 0x0, symName: __ZNSt3__18__rotateB9nqe210106INS_17_ClassicAlgPolicyEN5QListIPN5Tiled9MapObjectEE8iteratorES7_EENS_4pairIT0_S9_EES9_S9_T1_, symObjAddr: 0x30C90, symBinAddr: 0x38EB0, symSize: 0xF0 }
  - { offset: 0x6F855, size: 0x8, addend: 0x0, symName: '__ZNSt3__120__half_inplace_mergeB9nqe210106INS_17_ClassicAlgPolicyERZL18processObjectGroupPKN5Tiled11ObjectGroupERN2Yy7ContextEE3$_0PPNS2_9MapObjectESD_N5QListISC_E8iteratorESG_SG_EEvT1_T2_T3_T4_T5_OT0_', symObjAddr: 0x30D80, symBinAddr: 0x38FA0, symSize: 0x110 }
  - { offset: 0x6F903, size: 0x8, addend: 0x0, symName: '__ZNSt3__120__half_inplace_mergeB9nqe210106INS_17_ClassicAlgPolicyENS_8__invertIRZL18processObjectGroupPKN5Tiled11ObjectGroupERN2Yy7ContextEE3$_0EENS_16reverse_iteratorIPPNS3_9MapObjectEEESH_NSD_IN5QListISF_E8iteratorEEESL_SL_EEvT1_T2_T3_T4_T5_OT0_', symObjAddr: 0x30E90, symBinAddr: 0x390B0, symSize: 0x1A0 }
  - { offset: 0x6F9B0, size: 0x8, addend: 0x0, symName: __ZNSt3__16__moveB9nqe210106INS_17_ClassicAlgPolicyEPPN5Tiled9MapObjectES5_N5QListIS4_E8iteratorEEENS_4pairIT0_T2_EESA_T1_SB_, symObjAddr: 0x310C0, symBinAddr: 0x392E0, symSize: 0x50 }
  - { offset: 0x6FA1C, size: 0x8, addend: 0x0, symName: __ZNSt3__124__copy_move_unwrap_itersB9nqe210106INS_11__move_implINS_17_ClassicAlgPolicyEEEPPN5Tiled9MapObjectES7_N5QListIS6_E8iteratorELi0EEENS_4pairIT0_T2_EESC_T1_SD_, symObjAddr: 0x31110, symBinAddr: 0x39330, symSize: 0xE0 }
  - { offset: 0x6FAAB, size: 0x8, addend: 0x0, symName: __ZNSt3__114__unwrap_rangeB9nqe210106IPPN5Tiled9MapObjectES4_EENS_4pairIT0_S6_EET_S8_, symObjAddr: 0x311F0, symBinAddr: 0x39410, symSize: 0x50 }
  - { offset: 0x6FD23, size: 0x8, addend: 0x0, symName: __ZNSt3__113__unwrap_iterB9nqe210106IN5QListIPN5Tiled9MapObjectEE8iteratorENS_18__unwrap_iter_implIS6_Lb0EEELi0EEEDTclsrT0_8__unwrapclsr3stdE7declvalIT_EEEESA_, symObjAddr: 0x312C0, symBinAddr: 0x394E0, symSize: 0x30 }
  - { offset: 0x6FD67, size: 0x8, addend: 0x0, symName: __ZNSt3__19make_pairB9nqe210106IPPN5Tiled9MapObjectEN5QListIS3_E8iteratorEEENS_4pairINS_18__unwrap_referenceIu7__decayIT_EE4typeENS9_Iu7__decayIT0_EE4typeEEEOSA_OSE_, symObjAddr: 0x312F0, symBinAddr: 0x39510, symSize: 0x30 }
  - { offset: 0x6FDB6, size: 0x8, addend: 0x0, symName: __ZNSt3__114__rewrap_rangeB9nqe210106IPPN5Tiled9MapObjectES4_EET_S5_T0_, symObjAddr: 0x31320, symBinAddr: 0x39540, symSize: 0x30 }
  - { offset: 0x6FE02, size: 0x8, addend: 0x0, symName: __ZNSt3__113__rewrap_iterB9nqe210106IN5QListIPN5Tiled9MapObjectEE8iteratorES6_NS_18__unwrap_iter_implIS6_Lb0EEEEET_S9_T0_, symObjAddr: 0x31350, symBinAddr: 0x39570, symSize: 0x50 }
  - { offset: 0x6FE57, size: 0x8, addend: 0x0, symName: __ZNSt3__19make_pairB9nqe210106IPPN5Tiled9MapObjectES4_EENS_4pairINS_18__unwrap_referenceIu7__decayIT_EE4typeENS6_Iu7__decayIT0_EE4typeEEEOS7_OSB_, symObjAddr: 0x313A0, symBinAddr: 0x395C0, symSize: 0x30 }
  - { offset: 0x6FEA6, size: 0x8, addend: 0x0, symName: __ZNSt3__113__unwrap_iterB9nqe210106IPPN5Tiled9MapObjectENS_18__unwrap_iter_implIS4_Lb1EEELi0EEEDTclsrT0_8__unwrapclsr3stdE7declvalIT_EEEES8_, symObjAddr: 0x313D0, symBinAddr: 0x395F0, symSize: 0x20 }
  - { offset: 0x70010, size: 0x8, addend: 0x0, symName: __ZNSt3__112__to_addressB9nqe210106IPN5Tiled9MapObjectEEEPT_S5_, symObjAddr: 0x31470, symBinAddr: 0x39690, symSize: 0x10 }
  - { offset: 0x7008D, size: 0x8, addend: 0x0, symName: __ZNSt3__113__rewrap_iterB9nqe210106IPPN5Tiled9MapObjectES4_NS_18__unwrap_iter_implIS4_Lb1EEEEET_S7_T0_, symObjAddr: 0x31500, symBinAddr: 0x39720, symSize: 0x40 }
  - { offset: 0x700E2, size: 0x8, addend: 0x0, symName: __ZNSt3__1neB9nqe210106IPPN5Tiled9MapObjectES4_EEbRKNS_16reverse_iteratorIT_EERKNS5_IT0_EE, symObjAddr: 0x315B0, symBinAddr: 0x397D0, symSize: 0x40 }
  - { offset: 0x7012E, size: 0x8, addend: 0x0, symName: __ZNSt3__1eqB9nqe210106IN5QListIPN5Tiled9MapObjectEE8iteratorES6_EEbRKNS_16reverse_iteratorIT_EERKNS7_IT0_EE, symObjAddr: 0x315F0, symBinAddr: 0x39810, symSize: 0x40 }
  - { offset: 0x7017A, size: 0x8, addend: 0x0, symName: __ZNSt3__16__moveB9nqe210106INS_17_ClassicAlgPolicyENS_16reverse_iteratorIPPN5Tiled9MapObjectEEES7_NS2_IN5QListIS5_E8iteratorEEEEENS_4pairIT0_T2_EESD_T1_SE_, symObjAddr: 0x31630, symBinAddr: 0x39850, symSize: 0x90 }
  - { offset: 0x701E6, size: 0x8, addend: 0x0, symName: __ZNSt3__124__copy_move_unwrap_itersB9nqe210106INS_11__move_implINS_17_ClassicAlgPolicyEEENS_16reverse_iteratorIPPN5Tiled9MapObjectEEES9_NS4_IN5QListIS7_E8iteratorEEELi0EEENS_4pairIT0_T2_EESF_T1_SG_, symObjAddr: 0x31830, symBinAddr: 0x39A50, symSize: 0x210 }
  - { offset: 0x70275, size: 0x8, addend: 0x0, symName: __ZNSt3__114__unwrap_rangeB9nqe210106INS_16reverse_iteratorIPPN5Tiled9MapObjectEEES6_EENS_4pairIT0_S8_EET_SA_, symObjAddr: 0x31A40, symBinAddr: 0x39C60, symSize: 0x90 }
  - { offset: 0x7039F, size: 0x8, addend: 0x0, symName: __ZNSt3__113__unwrap_iterB9nqe210106INS_16reverse_iteratorIN5QListIPN5Tiled9MapObjectEE8iteratorEEENS_18__unwrap_iter_implIS8_Lb0EEELi0EEEDTclsrT0_8__unwrapclsr3stdE7declvalIT_EEEESC_, symObjAddr: 0x31B60, symBinAddr: 0x39D80, symSize: 0x40 }
  - { offset: 0x703E3, size: 0x8, addend: 0x0, symName: __ZNSt3__19make_pairB9nqe210106INS_16reverse_iteratorIPPN5Tiled9MapObjectEEENS1_IN5QListIS4_E8iteratorEEEEENS_4pairINS_18__unwrap_referenceIu7__decayIT_EE4typeENSC_Iu7__decayIT0_EE4typeEEEOSD_OSH_, symObjAddr: 0x31BA0, symBinAddr: 0x39DC0, symSize: 0x30 }
  - { offset: 0x70432, size: 0x8, addend: 0x0, symName: __ZNSt3__114__rewrap_rangeB9nqe210106INS_16reverse_iteratorIPPN5Tiled9MapObjectEEES6_EET_S7_T0_, symObjAddr: 0x31BD0, symBinAddr: 0x39DF0, symSize: 0x60 }
  - { offset: 0x7047E, size: 0x8, addend: 0x0, symName: __ZNSt3__113__rewrap_iterB9nqe210106INS_16reverse_iteratorIN5QListIPN5Tiled9MapObjectEE8iteratorEEES8_NS_18__unwrap_iter_implIS8_Lb0EEEEET_SB_T0_, symObjAddr: 0x31C30, symBinAddr: 0x39E50, symSize: 0x70 }
  - { offset: 0x704D3, size: 0x8, addend: 0x0, symName: __ZNSt3__19make_pairB9nqe210106INS_16reverse_iteratorIPPN5Tiled9MapObjectEEES6_EENS_4pairINS_18__unwrap_referenceIu7__decayIT_EE4typeENS8_Iu7__decayIT0_EE4typeEEEOS9_OSD_, symObjAddr: 0x31CA0, symBinAddr: 0x39EC0, symSize: 0x30 }
  - { offset: 0x70522, size: 0x8, addend: 0x0, symName: __ZNSt3__113__unwrap_iterB9nqe210106INS_16reverse_iteratorIPPN5Tiled9MapObjectEEENS_18__unwrap_iter_implIS6_Lb0EEELi0EEEDTclsrT0_8__unwrapclsr3stdE7declvalIT_EEEESA_, symObjAddr: 0x31CD0, symBinAddr: 0x39EF0, symSize: 0x40 }
  - { offset: 0x706D4, size: 0x8, addend: 0x0, symName: __ZNSt3__113__rewrap_iterB9nqe210106INS_16reverse_iteratorIPPN5Tiled9MapObjectEEES6_NS_18__unwrap_iter_implIS6_Lb0EEEEET_S9_T0_, symObjAddr: 0x31E30, symBinAddr: 0x3A050, symSize: 0x70 }
  - { offset: 0x70729, size: 0x8, addend: 0x0, symName: __ZNSt3__121__convert_to_integralB9nqe210106Ex, symObjAddr: 0x31FF0, symBinAddr: 0x3A210, symSize: 0x10 }
  - { offset: 0x70755, size: 0x8, addend: 0x0, symName: __ZNSt3__19__advanceB9nqe210106IN5QListIPN5Tiled9MapObjectEE8iteratorEEEvRT_NS_15iterator_traitsIS7_E15difference_typeENS_26random_access_iterator_tagE, symObjAddr: 0x32000, symBinAddr: 0x3A220, symSize: 0x30 }
  - { offset: 0x7079E, size: 0x8, addend: 0x0, symName: __ZNSt3__115__half_positiveB9nqe210106IxLi0EEET_S1_, symObjAddr: 0x32050, symBinAddr: 0x3A270, symSize: 0x20 }
  - { offset: 0x707D9, size: 0x8, addend: 0x0, symName: '__ZNSt3__18__invokeB9nqe210106IJRZL18processObjectGroupPKN5Tiled11ObjectGroupERN2Yy7ContextEE3$_0RKPNS1_9MapObjectERSB_EEENS_20__invoke_result_implIvJDpT_EE4typeEDpOSG_', symObjAddr: 0x320B0, symBinAddr: 0x3A2D0, symSize: 0x40 }
  - { offset: 0x70836, size: 0x8, addend: 0x0, symName: __ZNSt3__18__invokeB9nqe210106IJRNS_10__identityERPN5Tiled9MapObjectEEEENS_20__invoke_result_implIvJDpT_EE4typeEDpOS8_, symObjAddr: 0x320F0, symBinAddr: 0x3A310, symSize: 0x30 }
  - { offset: 0x70880, size: 0x8, addend: 0x0, symName: __ZNSt3__14nextB9nqe210106IN5QListIPN5Tiled9MapObjectEE8iteratorELi0EEET_S7_NS_15iterator_traitsIS7_E15difference_typeE, symObjAddr: 0x32120, symBinAddr: 0x3A340, symSize: 0x30 }
  - { offset: 0x70919, size: 0x8, addend: 0x0, symName: __ZNSt3__18distanceB9nqe210106IN5QListIPN5Tiled9MapObjectEE8iteratorEEENS_15iterator_traitsIT_E15difference_typeES8_S8_, symObjAddr: 0x32170, symBinAddr: 0x3A390, symSize: 0x40 }
  - { offset: 0x7095C, size: 0x8, addend: 0x0, symName: __ZNSt3__110__distanceB9nqe210106IN5QListIPN5Tiled9MapObjectEE8iteratorEEENS_15iterator_traitsIT_E15difference_typeES8_S8_NS_26random_access_iterator_tagE, symObjAddr: 0x321B0, symBinAddr: 0x3A3D0, symSize: 0x30 }
  - { offset: 0x709A9, size: 0x8, addend: 0x0, symName: '__ZNSt3__113__lower_boundB9nqe210106INS_17_ClassicAlgPolicyEN5QListIPN5Tiled9MapObjectEE8iteratorES7_S5_NS_10__identityEZL18processObjectGroupPKNS3_11ObjectGroupERN2Yy7ContextEE3$_0EET0_SG_T1_RKT2_RT4_RT3_', symObjAddr: 0x321E0, symBinAddr: 0x3A400, symSize: 0x70 }
  - { offset: 0x70A51, size: 0x8, addend: 0x0, symName: '__ZNSt3__123__lower_bound_bisectingB9nqe210106INS_17_ClassicAlgPolicyEN5QListIPN5Tiled9MapObjectEE8iteratorES5_NS_10__identityEZL18processObjectGroupPKNS3_11ObjectGroupERN2Yy7ContextEE3$_0EET0_SG_RKT1_NS_15iterator_traitsISG_E15difference_typeERT3_RT2_', symObjAddr: 0x32250, symBinAddr: 0x3A470, symSize: 0xD0 }
  - { offset: 0x70B0D, size: 0x8, addend: 0x0, symName: '__ZNSt3__18__invokeB9nqe210106IJRZL18processObjectGroupPKN5Tiled11ObjectGroupERN2Yy7ContextEE3$_0RPNS1_9MapObjectERKSB_EEENS_20__invoke_result_implIvJDpT_EE4typeEDpOSG_', symObjAddr: 0x32320, symBinAddr: 0x3A540, symSize: 0x40 }
  - { offset: 0x70C7B, size: 0x8, addend: 0x0, symName: __ZNSt3__113__rotate_implB9nqe210106INS_17_ClassicAlgPolicyEN5QListIPN5Tiled9MapObjectEE8iteratorEEET0_S8_S8_S8_NS_26random_access_iterator_tagE, symObjAddr: 0x323E0, symBinAddr: 0x3A600, symSize: 0x100 }
  - { offset: 0x70CDF, size: 0x8, addend: 0x0, symName: __ZNSt3__113__rotate_leftB9nqe210106INS_17_ClassicAlgPolicyEN5QListIPN5Tiled9MapObjectEE8iteratorEEET0_S8_S8_, symObjAddr: 0x32540, symBinAddr: 0x3A760, symSize: 0x90 }
  - { offset: 0x70D52, size: 0x8, addend: 0x0, symName: __ZNSt3__114__rotate_rightB9nqe210106INS_17_ClassicAlgPolicyEN5QListIPN5Tiled9MapObjectEE8iteratorEEET0_S8_S8_, symObjAddr: 0x325D0, symBinAddr: 0x3A7F0, symSize: 0x90 }
  - { offset: 0x70DD3, size: 0x8, addend: 0x0, symName: __ZNSt3__112__rotate_gcdB9nqe210106INS_17_ClassicAlgPolicyEN5QListIPN5Tiled9MapObjectEE8iteratorEEET0_S8_S8_S8_, symObjAddr: 0x32660, symBinAddr: 0x3A880, symSize: 0x260 }
  - { offset: 0x70EDE, size: 0x8, addend: 0x0, symName: __ZNSt3__16__moveB9nqe210106INS_17_ClassicAlgPolicyEN5QListIPN5Tiled9MapObjectEE8iteratorES7_S7_EENS_4pairIT0_T2_EES9_T1_SA_, symObjAddr: 0x328C0, symBinAddr: 0x3AAE0, symSize: 0x60 }
  - { offset: 0x70F4A, size: 0x8, addend: 0x0, symName: __ZNSt3__124__copy_move_unwrap_itersB9nqe210106INS_11__move_implINS_17_ClassicAlgPolicyEEEN5QListIPN5Tiled9MapObjectEE8iteratorES9_S9_Li0EEENS_4pairIT0_T2_EESB_T1_SC_, symObjAddr: 0x32920, symBinAddr: 0x3AB40, symSize: 0x110 }
  - { offset: 0x70FD9, size: 0x8, addend: 0x0, symName: __ZNSt3__114__unwrap_rangeB9nqe210106IN5QListIPN5Tiled9MapObjectEE8iteratorES6_EENS_4pairIT0_S8_EET_SA_, symObjAddr: 0x32A30, symBinAddr: 0x3AC50, symSize: 0x60 }
  - { offset: 0x71025, size: 0x8, addend: 0x0, symName: __ZNSt3__19make_pairB9nqe210106IN5QListIPN5Tiled9MapObjectEE8iteratorES6_EENS_4pairINS_18__unwrap_referenceIu7__decayIT_EE4typeENS8_Iu7__decayIT0_EE4typeEEEOS9_OSD_, symObjAddr: 0x32B20, symBinAddr: 0x3AD40, symSize: 0x30 }
  - { offset: 0x71074, size: 0x8, addend: 0x0, symName: __ZNSt3__114__rewrap_rangeB9nqe210106IN5QListIPN5Tiled9MapObjectEE8iteratorES6_EET_S7_T0_, symObjAddr: 0x32B50, symBinAddr: 0x3AD70, symSize: 0x40 }
  - { offset: 0x710C0, size: 0x8, addend: 0x0, symName: __ZNSt3__115__move_backwardB9nqe210106INS_17_ClassicAlgPolicyEN5QListIPN5Tiled9MapObjectEE8iteratorES7_S7_EENS_4pairIT0_T2_EES9_T1_SA_, symObjAddr: 0x32BD0, symBinAddr: 0x3ADF0, symSize: 0x60 }
  - { offset: 0x7112C, size: 0x8, addend: 0x0, symName: __ZNSt3__14prevB9nqe210106IN5QListIPN5Tiled9MapObjectEE8iteratorELi0EEET_S7_NS_15iterator_traitsIS7_E15difference_typeE, symObjAddr: 0x32C30, symBinAddr: 0x3AE50, symSize: 0x40 }
  - { offset: 0x71175, size: 0x8, addend: 0x0, symName: __ZNSt3__124__copy_move_unwrap_itersB9nqe210106INS_20__move_backward_implINS_17_ClassicAlgPolicyEEEN5QListIPN5Tiled9MapObjectEE8iteratorES9_S9_Li0EEENS_4pairIT0_T2_EESB_T1_SC_, symObjAddr: 0x32C70, symBinAddr: 0x3AE90, symSize: 0x110 }
  - { offset: 0x71256, size: 0x8, addend: 0x0, symName: __ZNSt3__113__swap_rangesB9nqe210106INS_17_ClassicAlgPolicyEN5QListIPN5Tiled9MapObjectEE8iteratorES7_S7_S7_EENS_4pairIT0_T2_EES9_T1_SA_T3_, symObjAddr: 0x32E40, symBinAddr: 0x3B060, symSize: 0xA0 }
  - { offset: 0x712D9, size: 0x8, addend: 0x0, symName: __ZNSt3__110__algo_gcdB9nqe210106IxEET_S1_S1_, symObjAddr: 0x32EE0, symBinAddr: 0x3B100, symSize: 0x40 }
  - { offset: 0x71331, size: 0x8, addend: 0x0, symName: __ZNSt3__13getB9nqe210106ILm0EP15QTypedArrayDataIPN5Tiled9MapObjectEEPS4_EEONS_13tuple_elementIXT_ENS_4pairIT0_T1_EEE4typeEOSC_, symObjAddr: 0x33990, symBinAddr: 0x3BBB0, symSize: 0x20 }
  - { offset: 0x7137B, size: 0x8, addend: 0x0, symName: __ZNSt3__13getB9nqe210106ILm1EP15QTypedArrayDataIPN5Tiled9MapObjectEEPS4_EEONS_13tuple_elementIXT_ENS_4pairIT0_T1_EEE4typeEOSC_, symObjAddr: 0x339B0, symBinAddr: 0x3BBD0, symSize: 0x20 }
  - { offset: 0x713C6, size: 0x8, addend: 0x0, symName: __ZNSt3__110__invoke_rB9nqe210106IvJRN5Tiled12JumpToObjectEEEET_DpOT0_, symObjAddr: 0x34620, symBinAddr: 0x3C750, symSize: 0x20 }
  - { offset: 0x71401, size: 0x8, addend: 0x0, symName: __ZNSt3__18__invokeB9nqe210106IJRN5Tiled12JumpToObjectEEEENS_20__invoke_result_implIvJDpT_EE4typeEDpOS5_, symObjAddr: 0x34660, symBinAddr: 0x3C790, symSize: 0x20 }
  - { offset: 0x71434, size: 0x8, addend: 0x0, symName: __ZNSt3__119__allocate_at_leastB9nqe210106INS_9allocatorIN2Yy7GMRViewEEEEENS_19__allocation_resultINS_16allocator_traitsIT_E7pointerEEERS7_m, symObjAddr: 0x34E80, symBinAddr: 0x3CFB0, symSize: 0x40 }
  - { offset: 0x71477, size: 0x8, addend: 0x0, symName: __ZNSt3__117__libcpp_allocateB9nqe210106IN2Yy7GMRViewEEEPT_NS_15__element_countEm, symObjAddr: 0x34F10, symBinAddr: 0x3D040, symSize: 0x60 }
  - { offset: 0x714C9, size: 0x8, addend: 0x0, symName: __ZNSt3__134__uninitialized_allocator_relocateB9nqe210106INS_9allocatorIN2Yy7GMRViewEEEPS3_EEvRT_T0_S8_S8_, symObjAddr: 0x34F70, symBinAddr: 0x3D0A0, symSize: 0x100 }
  - { offset: 0x7156B, size: 0x8, addend: 0x0, symName: __ZNSt3__14swapB9nqe210106IPN2Yy7GMRViewEEENS_9enable_ifIXaasr21is_move_constructibleIT_EE5valuesr18is_move_assignableIS5_EE5valueEvE4typeERS5_S8_, symObjAddr: 0x35070, symBinAddr: 0x3D1A0, symSize: 0x40 }
  - { offset: 0x715BC, size: 0x8, addend: 0x0, symName: __ZNSt3__122__make_exception_guardB9nqe210106INS_29_AllocatorDestroyRangeReverseINS_9allocatorIN2Yy7GMRViewEEEPS4_EEEENS_28__exception_guard_exceptionsIT_EES9_, symObjAddr: 0x35130, symBinAddr: 0x3D260, symSize: 0x60 }
  - { offset: 0x715F1, size: 0x8, addend: 0x0, symName: __ZNSt3__119__allocator_destroyB9nqe210106INS_9allocatorIN2Yy7GMRViewEEEPS3_S5_EEvRT_T0_T1_, symObjAddr: 0x35220, symBinAddr: 0x3D350, symSize: 0x40 }
  - { offset: 0x71650, size: 0x8, addend: 0x0, symName: __ZNSt3__119__allocator_destroyB9nqe210106INS_9allocatorIN2Yy7GMRViewEEENS_16reverse_iteratorIPS3_EES7_EEvRT_T0_T1_, symObjAddr: 0x35480, symBinAddr: 0x3D5B0, symSize: 0x60 }
  - { offset: 0x716AF, size: 0x8, addend: 0x0, symName: __ZNSt3__1neB9nqe210106IPN2Yy7GMRViewES3_EEbRKNS_16reverse_iteratorIT_EERKNS4_IT0_EE, symObjAddr: 0x35510, symBinAddr: 0x3D640, symSize: 0x40 }
  - { offset: 0x71700, size: 0x8, addend: 0x0, symName: __ZNSt3__16__math5isnanB9nqe210106EUa9enable_ifIXLb1EEEd, symObjAddr: 0x35800, symBinAddr: 0x3D930, symSize: 0x20 }
  - { offset: 0x7179D, size: 0x8, addend: 0x0, symName: __ZNSt3__112__to_addressB9nqe210106IN2Yy11GMRInstanceEEEPT_S4_, symObjAddr: 0x35A10, symBinAddr: 0x3DB40, symSize: 0x10 }
  - { offset: 0x717D2, size: 0x8, addend: 0x0, symName: __ZNSt3__131__annotate_contiguous_containerB9nqe210106INS_9allocatorIN2Yy11GMRInstanceEEEEEvPKvS6_S6_S6_, symObjAddr: 0x35BE0, symBinAddr: 0x3DD10, symSize: 0x20 }
  - { offset: 0x7182D, size: 0x8, addend: 0x0, symName: __ZNSt3__119__allocate_at_leastB9nqe210106INS_9allocatorIN2Yy11GMRInstanceEEEEENS_19__allocation_resultINS_16allocator_traitsIT_E7pointerEEERS7_m, symObjAddr: 0x36250, symBinAddr: 0x3E380, symSize: 0x40 }
  - { offset: 0x71870, size: 0x8, addend: 0x0, symName: __ZNSt3__117__libcpp_allocateB9nqe210106IN2Yy11GMRInstanceEEEPT_NS_15__element_countEm, symObjAddr: 0x362E0, symBinAddr: 0x3E410, symSize: 0x60 }
  - { offset: 0x718C2, size: 0x8, addend: 0x0, symName: __ZNSt3__134__uninitialized_allocator_relocateB9nqe210106INS_9allocatorIN2Yy11GMRInstanceEEEPS3_EEvRT_T0_S8_S8_, symObjAddr: 0x363C0, symBinAddr: 0x3E4F0, symSize: 0x100 }
  - { offset: 0x71964, size: 0x8, addend: 0x0, symName: __ZNSt3__14swapB9nqe210106IPN2Yy11GMRInstanceEEENS_9enable_ifIXaasr21is_move_constructibleIT_EE5valuesr18is_move_assignableIS5_EE5valueEvE4typeERS5_S8_, symObjAddr: 0x364C0, symBinAddr: 0x3E5F0, symSize: 0x40 }
  - { offset: 0x719B5, size: 0x8, addend: 0x0, symName: __ZNSt3__122__make_exception_guardB9nqe210106INS_29_AllocatorDestroyRangeReverseINS_9allocatorIN2Yy11GMRInstanceEEEPS4_EEEENS_28__exception_guard_exceptionsIT_EES9_, symObjAddr: 0x36580, symBinAddr: 0x3E6B0, symSize: 0x60 }
  - { offset: 0x719EA, size: 0x8, addend: 0x0, symName: __ZNSt3__119__allocator_destroyB9nqe210106INS_9allocatorIN2Yy11GMRInstanceEEEPS3_S5_EEvRT_T0_T1_, symObjAddr: 0x36670, symBinAddr: 0x3E7A0, symSize: 0x50 }
  - { offset: 0x71A49, size: 0x8, addend: 0x0, symName: __ZNSt3__119__allocator_destroyB9nqe210106INS_9allocatorIN2Yy11GMRInstanceEEENS_16reverse_iteratorIPS3_EES7_EEvRT_T0_T1_, symObjAddr: 0x36A80, symBinAddr: 0x3EBB0, symSize: 0x60 }
  - { offset: 0x71AA8, size: 0x8, addend: 0x0, symName: __ZNSt3__1neB9nqe210106IPN2Yy11GMRInstanceES3_EEbRKNS_16reverse_iteratorIT_EERKNS4_IT0_EE, symObjAddr: 0x36B10, symBinAddr: 0x3EC40, symSize: 0x40 }
  - { offset: 0x71AF4, size: 0x8, addend: 0x0, symName: __ZNSt3__119__libcpp_deallocateB9nqe210106IN2Yy11GMRInstanceEEEvPNS_15__type_identityIT_E4typeENS_15__element_countEm, symObjAddr: 0x36DA0, symBinAddr: 0x3EED0, symSize: 0x50 }
  - { offset: 0x71B4F, size: 0x8, addend: 0x0, symName: __ZNSt3__1neB9nqe210106ERKNS_20__map_const_iteratorINS_21__tree_const_iteratorINS_12__value_typeI7QString8QVariantEEPNS_11__tree_nodeIS5_PvEElEEEESD_, symObjAddr: 0x37390, symBinAddr: 0x3F4C0, symSize: 0x30 }
  - { offset: 0x71B8C, size: 0x8, addend: 0x0, symName: __ZNSt3__1neB9nqe210106ERKNS_21__tree_const_iteratorINS_12__value_typeI7QString8QVariantEEPNS_11__tree_nodeIS4_PvEElEESB_, symObjAddr: 0x37C30, symBinAddr: 0x3FD60, symSize: 0x30 }
  - { offset: 0x71BC9, size: 0x8, addend: 0x0, symName: __ZNSt3__1eqB9nqe210106ERKNS_21__tree_const_iteratorINS_12__value_typeI7QString8QVariantEEPNS_11__tree_nodeIS4_PvEElEESB_, symObjAddr: 0x37C60, symBinAddr: 0x3FD90, symSize: 0x30 }
  - { offset: 0x71C42, size: 0x8, addend: 0x0, symName: __ZNSt3__14nextB9nqe210106INS_21__tree_const_iteratorINS_12__value_typeI7QString8QVariantEEPNS_11__tree_nodeIS5_PvEElEELi0EEET_SB_NS_15iterator_traitsISB_E15difference_typeE, symObjAddr: 0x38700, symBinAddr: 0x40830, symSize: 0x30 }
  - { offset: 0x71C8B, size: 0x8, addend: 0x0, symName: __ZNSt3__116__tree_prev_iterB9nqe210106IPNS_16__tree_node_baseIPvEEPNS_15__tree_end_nodeIS4_EEEET_T0_, symObjAddr: 0x387A0, symBinAddr: 0x408D0, symSize: 0x90 }
  - { offset: 0x71CD7, size: 0x8, addend: 0x0, symName: __ZNSt3__110__tree_maxB9nqe210106IPNS_16__tree_node_baseIPvEEEET_S5_, symObjAddr: 0x38830, symBinAddr: 0x40960, symSize: 0x30 }
  - { offset: 0x71D0C, size: 0x8, addend: 0x0, symName: __ZNSt3__120__tree_is_left_childB9nqe210106IPNS_16__tree_node_baseIPvEEEEbT_, symObjAddr: 0x38860, symBinAddr: 0x40990, symSize: 0x20 }
  - { offset: 0x71D41, size: 0x8, addend: 0x0, symName: __ZNSt3__121__convert_to_integralB9nqe210106El, symObjAddr: 0x38910, symBinAddr: 0x40A40, symSize: 0x10 }
  - { offset: 0x71D6D, size: 0x8, addend: 0x0, symName: __ZNSt3__19__advanceB9nqe210106INS_21__tree_const_iteratorINS_12__value_typeI7QString8QVariantEEPNS_11__tree_nodeIS5_PvEElEEEEvRT_NS_15iterator_traitsISB_E15difference_typeENS_26bidirectional_iterator_tagE, symObjAddr: 0x38920, symBinAddr: 0x40A50, symSize: 0x70 }
  - { offset: 0x71DB6, size: 0x8, addend: 0x0, symName: __ZNSt3__116__tree_next_iterB9nqe210106IPNS_15__tree_end_nodeIPNS_16__tree_node_baseIPvEEEES5_EET_T0_, symObjAddr: 0x389C0, symBinAddr: 0x40AF0, symSize: 0x70 }
  - { offset: 0x71DF4, size: 0x8, addend: 0x0, symName: __ZNSt3__110__tree_minB9nqe210106IPNS_16__tree_node_baseIPvEEEET_S5_, symObjAddr: 0x38A30, symBinAddr: 0x40B60, symSize: 0x30 }
  - { offset: 0x71E47, size: 0x8, addend: 0x0, symName: __ZNSt3__117__libcpp_allocateB9nqe210106INS_11__tree_nodeINS_12__value_typeI7QString8QVariantEEPvEEEEPT_NS_15__element_countEm, symObjAddr: 0x38C00, symBinAddr: 0x40D30, symSize: 0x60 }
  - { offset: 0x71E99, size: 0x8, addend: 0x0, symName: __ZNSt3__127__tree_balance_after_insertB9nqe210106IPNS_16__tree_node_baseIPvEEEEvT_S5_, symObjAddr: 0x38E20, symBinAddr: 0x40F50, symSize: 0x210 }
  - { offset: 0x71F19, size: 0x8, addend: 0x0, symName: __ZNSt3__118__tree_left_rotateB9nqe210106IPNS_16__tree_node_baseIPvEEEEvT_, symObjAddr: 0x39050, symBinAddr: 0x41180, symSize: 0xC0 }
  - { offset: 0x71F58, size: 0x8, addend: 0x0, symName: __ZNSt3__119__tree_right_rotateB9nqe210106IPNS_16__tree_node_baseIPvEEEEvT_, symObjAddr: 0x39110, symBinAddr: 0x41240, symSize: 0xB0 }
  - { offset: 0x71F97, size: 0x8, addend: 0x0, symName: __ZNSt3__112__destroy_atB9nqe210106INS_4pairIK7QString8QVariantEELi0EEEvPT_, symObjAddr: 0x39300, symBinAddr: 0x41430, symSize: 0x20 }
  - { offset: 0x71FCE, size: 0x8, addend: 0x0, symName: __ZNSt3__119__libcpp_deallocateB9nqe210106INS_11__tree_nodeINS_12__value_typeI7QString8QVariantEEPvEEEEvPNS_15__type_identityIT_E4typeENS_15__element_countEm, symObjAddr: 0x393A0, symBinAddr: 0x414D0, symSize: 0x50 }
  - { offset: 0x72029, size: 0x8, addend: 0x0, symName: __ZNSt3__1eqB9nqe210106ERKNS_15__tree_iteratorINS_12__value_typeI7QString8QVariantEEPNS_11__tree_nodeIS4_PvEElEESB_, symObjAddr: 0x39C80, symBinAddr: 0x41DB0, symSize: 0x30 }
  - { offset: 0x72066, size: 0x8, addend: 0x0, symName: __ZNSt3__1neB9nqe210106ERKNS_15__tree_iteratorINS_12__value_typeI7QString8QVariantEEPNS_11__tree_nodeIS4_PvEElEESB_, symObjAddr: 0x39DE0, symBinAddr: 0x41F10, symSize: 0x30 }
  - { offset: 0x720A4, size: 0x8, addend: 0x0, symName: __ZNSt3__113__tree_removeB9nqe210106IPNS_16__tree_node_baseIPvEEEEvT_S5_, symObjAddr: 0x3A0B0, symBinAddr: 0x421E0, symSize: 0x530 }
  - { offset: 0x72126, size: 0x8, addend: 0x0, symName: __ZNSt3__111__tree_nextB9nqe210106IPNS_16__tree_node_baseIPvEEEET_S5_, symObjAddr: 0x3A5E0, symBinAddr: 0x42710, symSize: 0x70 }
  - { offset: 0x72197, size: 0x8, addend: 0x0, symName: __ZNSt3__119__allocate_at_leastB9nqe210106INS_9allocatorIN2Yy16InstanceCreationEEEEENS_19__allocation_resultINS_16allocator_traitsIT_E7pointerEEERS7_m, symObjAddr: 0x3DB20, symBinAddr: 0x45C50, symSize: 0x40 }
  - { offset: 0x721DA, size: 0x8, addend: 0x0, symName: __ZNSt3__117__libcpp_allocateB9nqe210106IN2Yy16InstanceCreationEEEPT_NS_15__element_countEm, symObjAddr: 0x3DBB0, symBinAddr: 0x45CE0, symSize: 0x60 }
  - { offset: 0x7222C, size: 0x8, addend: 0x0, symName: __ZNSt3__134__uninitialized_allocator_relocateB9nqe210106INS_9allocatorIN2Yy16InstanceCreationEEEPS3_EEvRT_T0_S8_S8_, symObjAddr: 0x3DC10, symBinAddr: 0x45D40, symSize: 0x100 }
  - { offset: 0x722CE, size: 0x8, addend: 0x0, symName: __ZNSt3__14swapB9nqe210106IPN2Yy16InstanceCreationEEENS_9enable_ifIXaasr21is_move_constructibleIT_EE5valuesr18is_move_assignableIS5_EE5valueEvE4typeERS5_S8_, symObjAddr: 0x3DD10, symBinAddr: 0x45E40, symSize: 0x40 }
  - { offset: 0x7231F, size: 0x8, addend: 0x0, symName: __ZNSt3__122__make_exception_guardB9nqe210106INS_29_AllocatorDestroyRangeReverseINS_9allocatorIN2Yy16InstanceCreationEEEPS4_EEEENS_28__exception_guard_exceptionsIT_EES9_, symObjAddr: 0x3DDC0, symBinAddr: 0x45EF0, symSize: 0x60 }
  - { offset: 0x72354, size: 0x8, addend: 0x0, symName: __ZNSt3__119__allocator_destroyB9nqe210106INS_9allocatorIN2Yy16InstanceCreationEEEPS3_S5_EEvRT_T0_T1_, symObjAddr: 0x3DEB0, symBinAddr: 0x45FE0, symSize: 0x40 }
  - { offset: 0x723B3, size: 0x8, addend: 0x0, symName: __ZNSt3__119__allocator_destroyB9nqe210106INS_9allocatorIN2Yy16InstanceCreationEEENS_16reverse_iteratorIPS3_EES7_EEvRT_T0_T1_, symObjAddr: 0x3E100, symBinAddr: 0x46230, symSize: 0x60 }
  - { offset: 0x72412, size: 0x8, addend: 0x0, symName: __ZNSt3__1neB9nqe210106IPN2Yy16InstanceCreationES3_EEbRKNS_16reverse_iteratorIT_EERKNS4_IT0_EE, symObjAddr: 0x3E190, symBinAddr: 0x462C0, symSize: 0x40 }
  - { offset: 0x7245E, size: 0x8, addend: 0x0, symName: __ZNSt3__112__to_addressB9nqe210106IN2Yy20GMOverriddenPropertyEEEPT_S4_, symObjAddr: 0x3E770, symBinAddr: 0x468A0, symSize: 0x10 }
  - { offset: 0x72493, size: 0x8, addend: 0x0, symName: __ZNSt3__131__annotate_contiguous_containerB9nqe210106INS_9allocatorIN2Yy20GMOverriddenPropertyEEEEEvPKvS6_S6_S6_, symObjAddr: 0x3E950, symBinAddr: 0x46A80, symSize: 0x20 }
  - { offset: 0x724EE, size: 0x8, addend: 0x0, symName: __ZNSt3__119__allocate_at_leastB9nqe210106INS_9allocatorIN2Yy20GMOverriddenPropertyEEEEENS_19__allocation_resultINS_16allocator_traitsIT_E7pointerEEERS7_m, symObjAddr: 0x3EE70, symBinAddr: 0x46FA0, symSize: 0x40 }
  - { offset: 0x72531, size: 0x8, addend: 0x0, symName: __ZNSt3__117__libcpp_allocateB9nqe210106IN2Yy20GMOverriddenPropertyEEEPT_NS_15__element_countEm, symObjAddr: 0x3EF00, symBinAddr: 0x47030, symSize: 0x60 }
  - { offset: 0x72583, size: 0x8, addend: 0x0, symName: __ZNSt3__134__uninitialized_allocator_relocateB9nqe210106INS_9allocatorIN2Yy20GMOverriddenPropertyEEEPS3_EEvRT_T0_S8_S8_, symObjAddr: 0x3EFE0, symBinAddr: 0x47110, symSize: 0x100 }
  - { offset: 0x72625, size: 0x8, addend: 0x0, symName: __ZNSt3__14swapB9nqe210106IPN2Yy20GMOverriddenPropertyEEENS_9enable_ifIXaasr21is_move_constructibleIT_EE5valuesr18is_move_assignableIS5_EE5valueEvE4typeERS5_S8_, symObjAddr: 0x3F0E0, symBinAddr: 0x47210, symSize: 0x40 }
  - { offset: 0x72676, size: 0x8, addend: 0x0, symName: __ZNSt3__122__make_exception_guardB9nqe210106INS_29_AllocatorDestroyRangeReverseINS_9allocatorIN2Yy20GMOverriddenPropertyEEEPS4_EEEENS_28__exception_guard_exceptionsIT_EES9_, symObjAddr: 0x3F1A0, symBinAddr: 0x472D0, symSize: 0x60 }
  - { offset: 0x726AB, size: 0x8, addend: 0x0, symName: __ZNSt3__119__allocator_destroyB9nqe210106INS_9allocatorIN2Yy20GMOverriddenPropertyEEEPS3_S5_EEvRT_T0_T1_, symObjAddr: 0x3F290, symBinAddr: 0x473C0, symSize: 0x50 }
  - { offset: 0x7270A, size: 0x8, addend: 0x0, symName: __ZNSt3__119__allocator_destroyB9nqe210106INS_9allocatorIN2Yy20GMOverriddenPropertyEEENS_16reverse_iteratorIPS3_EES7_EEvRT_T0_T1_, symObjAddr: 0x3F580, symBinAddr: 0x476B0, symSize: 0x60 }
  - { offset: 0x72769, size: 0x8, addend: 0x0, symName: __ZNSt3__1neB9nqe210106IPN2Yy20GMOverriddenPropertyES3_EEbRKNS_16reverse_iteratorIT_EERKNS4_IT0_EE, symObjAddr: 0x3F610, symBinAddr: 0x47740, symSize: 0x40 }
  - { offset: 0x727B5, size: 0x8, addend: 0x0, symName: __ZNSt3__119__libcpp_deallocateB9nqe210106IN2Yy20GMOverriddenPropertyEEEvPNS_15__type_identityIT_E4typeENS_15__element_countEm, symObjAddr: 0x3F8A0, symBinAddr: 0x479D0, symSize: 0x50 }
  - { offset: 0x72810, size: 0x8, addend: 0x0, symName: __ZNSt3__118__cxx_atomic_storeB9nqe210106IiEEvPNS_22__cxx_atomic_base_implIT_EES2_NS_12memory_orderE, symObjAddr: 0x40250, symBinAddr: 0x482B0, symSize: 0x60 }
  - { offset: 0x7285D, size: 0x8, addend: 0x0, symName: __ZNSt3__119__allocate_at_leastB9nqe210106INS_9allocatorIN2Yy6GMPathEEEEENS_19__allocation_resultINS_16allocator_traitsIT_E7pointerEEERS7_m, symObjAddr: 0x40CB0, symBinAddr: 0x48C70, symSize: 0x40 }
  - { offset: 0x728A0, size: 0x8, addend: 0x0, symName: __ZNSt3__117__libcpp_allocateB9nqe210106IN2Yy6GMPathEEEPT_NS_15__element_countEm, symObjAddr: 0x40D40, symBinAddr: 0x48D00, symSize: 0x60 }
  - { offset: 0x728F2, size: 0x8, addend: 0x0, symName: __ZNSt3__134__uninitialized_allocator_relocateB9nqe210106INS_9allocatorIN2Yy6GMPathEEEPS3_EEvRT_T0_S8_S8_, symObjAddr: 0x40DA0, symBinAddr: 0x48D60, symSize: 0x100 }
  - { offset: 0x72994, size: 0x8, addend: 0x0, symName: __ZNSt3__14swapB9nqe210106IPN2Yy6GMPathEEENS_9enable_ifIXaasr21is_move_constructibleIT_EE5valuesr18is_move_assignableIS5_EE5valueEvE4typeERS5_S8_, symObjAddr: 0x40EA0, symBinAddr: 0x48E60, symSize: 0x40 }
  - { offset: 0x729E5, size: 0x8, addend: 0x0, symName: __ZNSt3__122__make_exception_guardB9nqe210106INS_29_AllocatorDestroyRangeReverseINS_9allocatorIN2Yy6GMPathEEEPS4_EEEENS_28__exception_guard_exceptionsIT_EES9_, symObjAddr: 0x40F50, symBinAddr: 0x48F10, symSize: 0x60 }
  - { offset: 0x72A1A, size: 0x8, addend: 0x0, symName: __ZNSt3__119__allocator_destroyB9nqe210106INS_9allocatorIN2Yy6GMPathEEEPS3_S5_EEvRT_T0_T1_, symObjAddr: 0x41040, symBinAddr: 0x49000, symSize: 0x40 }
  - { offset: 0x72A79, size: 0x8, addend: 0x0, symName: __ZNSt3__18exchangeB9nqe210106IP15QTypedArrayDataI7QPointFEDnEET_RS5_OT0_, symObjAddr: 0x41330, symBinAddr: 0x492F0, symSize: 0x30 }
  - { offset: 0x72AD3, size: 0x8, addend: 0x0, symName: __ZNSt3__18exchangeB9nqe210106IP7QPointFDnEET_RS3_OT0_, symObjAddr: 0x41360, symBinAddr: 0x49320, symSize: 0x30 }
  - { offset: 0x72B2D, size: 0x8, addend: 0x0, symName: __ZNSt3__119__allocator_destroyB9nqe210106INS_9allocatorIN2Yy6GMPathEEENS_16reverse_iteratorIPS3_EES7_EEvRT_T0_T1_, symObjAddr: 0x41430, symBinAddr: 0x493F0, symSize: 0x60 }
  - { offset: 0x72B8C, size: 0x8, addend: 0x0, symName: __ZNSt3__1neB9nqe210106IPN2Yy6GMPathES3_EEbRKNS_16reverse_iteratorIT_EERKNS4_IT0_EE, symObjAddr: 0x414C0, symBinAddr: 0x49480, symSize: 0x40 }
  - { offset: 0x72BD8, size: 0x8, addend: 0x0, symName: __ZNSt3__1eqB9nqe210106IPN2Yy6GMPathEEEbRKNS_11__wrap_iterIT_EES8_, symObjAddr: 0x42230, symBinAddr: 0x4A1F0, symSize: 0x40 }
  - { offset: 0x72C1B, size: 0x8, addend: 0x0, symName: __ZNSt3__1eqB9nqe210106IPNS_10unique_ptrIN2Yy8GMRLayerENS_14default_deleteIS3_EEEEEEbRKNS_11__wrap_iterIT_EESC_, symObjAddr: 0x42A40, symBinAddr: 0x4AA00, symSize: 0x40 }
  - { offset: 0x72C5E, size: 0x8, addend: 0x0, symName: __ZNSt3__1neB9nqe210106IPKPN2Yy8GMRLayerEEEbRKNS_11__wrap_iterIT_EESA_, symObjAddr: 0x42C60, symBinAddr: 0x4AC20, symSize: 0x30 }
  - { offset: 0x72CA1, size: 0x8, addend: 0x0, symName: __ZNSt3__18distanceB9nqe210106INS_11__wrap_iterIPKPN2Yy8GMRLayerEEEEENS_15iterator_traitsIT_E15difference_typeES9_S9_, symObjAddr: 0x42CB0, symBinAddr: 0x4AC70, symSize: 0x40 }
  - { offset: 0x72CE4, size: 0x8, addend: 0x0, symName: __ZNSt3__1eqB9nqe210106IPKPN2Yy8GMRLayerEEEbRKNS_11__wrap_iterIT_EESA_, symObjAddr: 0x42CF0, symBinAddr: 0x4ACB0, symSize: 0x40 }
  - { offset: 0x72D27, size: 0x8, addend: 0x0, symName: __ZNSt3__112__to_addressB9nqe210106IPN2Yy8GMRLayerEEEPT_S5_, symObjAddr: 0x430E0, symBinAddr: 0x4B0A0, symSize: 0x10 }
  - { offset: 0x72D5C, size: 0x8, addend: 0x0, symName: __ZNSt3__131__annotate_contiguous_containerB9nqe210106INS_9allocatorIPN2Yy8GMRLayerEEEEEvPKvS7_S7_S7_, symObjAddr: 0x43290, symBinAddr: 0x4B250, symSize: 0x20 }
  - { offset: 0x72DB7, size: 0x8, addend: 0x0, symName: __ZNSt3__119__allocate_at_leastB9nqe210106INS_9allocatorIPN2Yy8GMRLayerEEEEENS_19__allocation_resultINS_16allocator_traitsIT_E7pointerEEERS8_m, symObjAddr: 0x436F0, symBinAddr: 0x4B6B0, symSize: 0x40 }
  - { offset: 0x72DFA, size: 0x8, addend: 0x0, symName: __ZNSt3__117__libcpp_allocateB9nqe210106IPN2Yy8GMRLayerEEEPT_NS_15__element_countEm, symObjAddr: 0x43780, symBinAddr: 0x4B740, symSize: 0x60 }
  - { offset: 0x72E4C, size: 0x8, addend: 0x0, symName: __ZNSt3__134__uninitialized_allocator_relocateB9nqe210106INS_9allocatorIPN2Yy8GMRLayerEEEPS4_EEvRT_T0_S9_S9_, symObjAddr: 0x43860, symBinAddr: 0x4B820, symSize: 0x60 }
  - { offset: 0x72EB5, size: 0x8, addend: 0x0, symName: __ZNSt3__14swapB9nqe210106IPPN2Yy8GMRLayerEEENS_9enable_ifIXaasr21is_move_constructibleIT_EE5valuesr18is_move_assignableIS6_EE5valueEvE4typeERS6_S9_, symObjAddr: 0x438C0, symBinAddr: 0x4B880, symSize: 0x40 }
  - { offset: 0x72F06, size: 0x8, addend: 0x0, symName: __ZNSt3__119__libcpp_deallocateB9nqe210106IPN2Yy8GMRLayerEEEvPNS_15__type_identityIT_E4typeENS_15__element_countEm, symObjAddr: 0x43B50, symBinAddr: 0x4BB10, symSize: 0x50 }
  - { offset: 0x72F61, size: 0x8, addend: 0x0, symName: '__ZNSt3__17find_ifB9nqe210106INS_11__wrap_iterIPKPN2Yy8GMRLayerEEEZZL15autoAssignDepthRKNS_6vectorINS_10unique_ptrIS3_NS_14default_deleteIS3_EEEENS_9allocatorISC_EEEEENK3$_0clES7_EUlS4_E_EET_SK_SK_T0_', symObjAddr: 0x43CB0, symBinAddr: 0x4BC70, symSize: 0x60 }
  - { offset: 0x72FBB, size: 0x8, addend: 0x0, symName: __ZNSt3__110__distanceB9nqe210106INS_11__wrap_iterIPKPN2Yy8GMRLayerEEEEENS_15iterator_traitsIT_E15difference_typeES9_S9_NS_26random_access_iterator_tagE, symObjAddr: 0x43D30, symBinAddr: 0x4BCF0, symSize: 0x30 }
  - { offset: 0x73008, size: 0x8, addend: 0x0, symName: __ZNSt3__1miB9nqe210106IPKPN2Yy8GMRLayerES5_EEDTmicldtfp_4baseEcldtfp0_4baseEERKNS_11__wrap_iterIT_EERKNS7_IT0_EE, symObjAddr: 0x43D60, symBinAddr: 0x4BD20, symSize: 0x40 }
  - { offset: 0x73054, size: 0x8, addend: 0x0, symName: __ZNSt3__18exchangeB9nqe210106IP15QTypedArrayDataI7QStringEDnEET_RS5_OT0_, symObjAddr: 0x442C0, symBinAddr: 0x4C280, symSize: 0x30 }
  - { offset: 0x730AE, size: 0x8, addend: 0x0, symName: __ZNSt3__18exchangeB9nqe210106IP7QStringDnEET_RS3_OT0_, symObjAddr: 0x442F0, symBinAddr: 0x4C2B0, symSize: 0x30 }
  - { offset: 0x73109, size: 0x8, addend: 0x0, symName: __ZNSt3__120__throw_out_of_rangeB9nqe210106EPKc, symObjAddr: 0x452D0, symBinAddr: 0x4CFF0, symSize: 0x60 }
  - { offset: 0x73131, size: 0x8, addend: 0x0, symName: __ZNSt3__119__allocate_at_leastB9nqe210106INS_9allocatorINS_10unique_ptrIN2Yy8GMRLayerENS_14default_deleteIS4_EEEEEEEENS_19__allocation_resultINS_16allocator_traitsIT_E7pointerEEERSB_m, symObjAddr: 0x45E50, symBinAddr: 0x4DB70, symSize: 0x40 }
  - { offset: 0x73174, size: 0x8, addend: 0x0, symName: __ZNSt3__117__libcpp_allocateB9nqe210106INS_10unique_ptrIN2Yy8GMRLayerENS_14default_deleteIS3_EEEEEEPT_NS_15__element_countEm, symObjAddr: 0x45EE0, symBinAddr: 0x4DC00, symSize: 0x60 }
  - { offset: 0x731C6, size: 0x8, addend: 0x0, symName: __ZNSt3__134__uninitialized_allocator_relocateB9nqe210106INS_9allocatorINS_10unique_ptrIN2Yy8GMRLayerENS_14default_deleteIS4_EEEEEEPS7_EEvRT_T0_SC_SC_, symObjAddr: 0x45F40, symBinAddr: 0x4DC60, symSize: 0x60 }
  - { offset: 0x7322F, size: 0x8, addend: 0x0, symName: __ZNSt3__14swapB9nqe210106IPNS_10unique_ptrIN2Yy8GMRLayerENS_14default_deleteIS3_EEEEEENS_9enable_ifIXaasr21is_move_constructibleIT_EE5valuesr18is_move_assignableIS9_EE5valueEvE4typeERS9_SC_, symObjAddr: 0x45FA0, symBinAddr: 0x4DCC0, symSize: 0x40 }
  - { offset: 0x73281, size: 0x8, addend: 0x0, symName: __ZNSt3__111stable_sortB9nqe210106INS_11__wrap_iterIPN2Yy16InstanceCreationEEENS_6__lessIvvEEEEvT_S8_T0_, symObjAddr: 0x46980, symBinAddr: 0x4E6A0, symSize: 0x40 }
  - { offset: 0x732DB, size: 0x8, addend: 0x0, symName: __ZNSt3__1miB9nqe210106IPN2Yy16InstanceCreationES3_EEDTmicldtfp_4baseEcldtfp0_4baseEERKNS_11__wrap_iterIT_EERKNS5_IT0_EE, symObjAddr: 0x46AF0, symBinAddr: 0x4E810, symSize: 0x40 }
  - { offset: 0x73614, size: 0x8, addend: 0x0, symName: __ZNSt3__135__check_strict_weak_ordering_sortedB9nqe210106INS_11__wrap_iterIPN2Yy16InstanceCreationEEENS_6__lessIvvEEEEvT_S8_RT0_, symObjAddr: 0x47010, symBinAddr: 0x4ED30, symSize: 0x20 }
  - { offset: 0x73688, size: 0x8, addend: 0x0, symName: __ZNSt3__127__libcpp_deallocate_unsizedB9nqe210106IN2Yy16InstanceCreationEEEvPNS_15__type_identityIT_E4typeEm, symObjAddr: 0x47240, symBinAddr: 0x4EF60, symSize: 0x40 }
  - { offset: 0x736C7, size: 0x8, addend: 0x0, symName: __ZNSt3__116__insertion_sortB9nqe210106INS_17_ClassicAlgPolicyERNS_6__lessIvvEENS_11__wrap_iterIPN2Yy16InstanceCreationEEEEEvT1_SA_T0_, symObjAddr: 0x47350, symBinAddr: 0x4F070, symSize: 0x1B0 }
  - { offset: 0x7393C, size: 0x8, addend: 0x0, symName: __ZNSt3__118__stable_sort_moveINS_17_ClassicAlgPolicyERNS_6__lessIvvEENS_11__wrap_iterIPN2Yy16InstanceCreationEEEEEvT1_SA_T0_NS_15iterator_traitsISA_E15difference_typeEPNSD_10value_typeE, symObjAddr: 0x47570, symBinAddr: 0x4F290, symSize: 0x360 }
  - { offset: 0x739F8, size: 0x8, addend: 0x0, symName: __ZNSt3__119__merge_move_assignB9nqe210106INS_17_ClassicAlgPolicyERNS_6__lessIvvEEPN2Yy16InstanceCreationES7_NS_11__wrap_iterIS7_EEEEvT1_SA_T2_SB_T3_T0_, symObjAddr: 0x47900, symBinAddr: 0x4F620, symSize: 0x160 }
  - { offset: 0x73A93, size: 0x8, addend: 0x0, symName: __ZNSt3__115__inplace_mergeINS_17_ClassicAlgPolicyERNS_6__lessIvvEENS_11__wrap_iterIPN2Yy16InstanceCreationEEEEEvT1_SA_SA_OT0_NS_15iterator_traitsISA_E15difference_typeESF_PNSE_10value_typeEl, symObjAddr: 0x47A80, symBinAddr: 0x4F7A0, symSize: 0x410 }
  - { offset: 0x73BAC, size: 0x8, addend: 0x0, symName: __ZNSt3__19iter_swapB9nqe210106INS_11__wrap_iterIPN2Yy16InstanceCreationEEES5_EEvT_T0_, symObjAddr: 0x47EC0, symBinAddr: 0x4FBE0, symSize: 0x40 }
  - { offset: 0x73BF4, size: 0x8, addend: 0x0, symName: __ZNSt3__14swapB9nqe210106IN2Yy16InstanceCreationEEENS_9enable_ifIXaasr21is_move_constructibleIT_EE5valuesr18is_move_assignableIS4_EE5valueEvE4typeERS4_S7_, symObjAddr: 0x47F00, symBinAddr: 0x4FC20, symSize: 0x50 }
  - { offset: 0x73C45, size: 0x8, addend: 0x0, symName: __ZNSt3__1eqB9nqe210106IPN2Yy16InstanceCreationEEEbRKNS_11__wrap_iterIT_EES8_, symObjAddr: 0x47F90, symBinAddr: 0x4FCB0, symSize: 0x40 }
  - { offset: 0x73C88, size: 0x8, addend: 0x0, symName: __ZNSt3__1neB9nqe210106IPN2Yy16InstanceCreationEEEbRKNS_11__wrap_iterIT_EES8_, symObjAddr: 0x47FF0, symBinAddr: 0x4FD10, symSize: 0x30 }
  - { offset: 0x73CCB, size: 0x8, addend: 0x0, symName: __ZNSt3__114__construct_atB9nqe210106IN2Yy16InstanceCreationEJS2_EPS2_EEPT_S5_DpOT0_, symObjAddr: 0x480A0, symBinAddr: 0x4FDC0, symSize: 0x30 }
  - { offset: 0x73D1E, size: 0x8, addend: 0x0, symName: __ZNSt3__121__insertion_sort_moveB9nqe210106INS_17_ClassicAlgPolicyERNS_6__lessIvvEENS_11__wrap_iterIPN2Yy16InstanceCreationEEEEEvT1_SA_PNS_15iterator_traitsISA_E10value_typeET0_, symObjAddr: 0x48110, symBinAddr: 0x4FE30, symSize: 0x250 }
  - { offset: 0x73DEC, size: 0x8, addend: 0x0, symName: __ZNSt3__122__merge_move_constructB9nqe210106INS_17_ClassicAlgPolicyERNS_6__lessIvvEENS_11__wrap_iterIPN2Yy16InstanceCreationEEES9_EEvT1_SA_T2_SB_PNS_15iterator_traitsISA_E10value_typeET0_, symObjAddr: 0x48360, symBinAddr: 0x50080, symSize: 0x270 }
  - { offset: 0x73E9B, size: 0x8, addend: 0x0, symName: __ZNSt3__113__upper_boundB9nqe210106INS_17_ClassicAlgPolicyERNS_6__lessIvvEENS_11__wrap_iterIPN2Yy16InstanceCreationEEES9_S7_NS_10__identityEEET1_SB_T2_RKT3_OT0_OT4_, symObjAddr: 0x48A50, symBinAddr: 0x50770, symSize: 0xF0 }
  - { offset: 0x73F70, size: 0x8, addend: 0x0, symName: __ZNSt3__111lower_boundB9nqe210106INS_11__wrap_iterIPN2Yy16InstanceCreationEEES3_NS_6__lessIvvEEEET_S8_S8_RKT0_T1_, symObjAddr: 0x48B80, symBinAddr: 0x508A0, symSize: 0x60 }
  - { offset: 0x73FEF, size: 0x8, addend: 0x0, symName: __ZNSt3__18__rotateB9nqe210106INS_17_ClassicAlgPolicyENS_11__wrap_iterIPN2Yy16InstanceCreationEEES6_EENS_4pairIT0_S8_EES8_S8_T1_, symObjAddr: 0x48BE0, symBinAddr: 0x50900, symSize: 0xD0 }
  - { offset: 0x7406F, size: 0x8, addend: 0x0, symName: __ZNSt3__120__half_inplace_mergeB9nqe210106INS_17_ClassicAlgPolicyERNS_6__lessIvvEEPN2Yy16InstanceCreationES7_NS_11__wrap_iterIS7_EES9_S9_EEvT1_T2_T3_T4_T5_OT0_, symObjAddr: 0x48CB0, symBinAddr: 0x509D0, symSize: 0x100 }
  - { offset: 0x7411C, size: 0x8, addend: 0x0, symName: __ZNSt3__120__half_inplace_mergeB9nqe210106INS_17_ClassicAlgPolicyENS_8__invertIRNS_6__lessIvvEEEENS_16reverse_iteratorIPN2Yy16InstanceCreationEEESB_NS7_INS_11__wrap_iterISA_EEEESE_SE_EEvT1_T2_T3_T4_T5_OT0_, symObjAddr: 0x48DB0, symBinAddr: 0x50AD0, symSize: 0x1A0 }
  - { offset: 0x741C9, size: 0x8, addend: 0x0, symName: __ZNSt3__16__moveB9nqe210106INS_17_ClassicAlgPolicyEPN2Yy16InstanceCreationES4_NS_11__wrap_iterIS4_EEEENS_4pairIT0_T2_EES8_T1_S9_, symObjAddr: 0x48FB0, symBinAddr: 0x50CD0, symSize: 0x50 }
  - { offset: 0x74235, size: 0x8, addend: 0x0, symName: __ZNSt3__124__copy_move_unwrap_itersB9nqe210106INS_11__move_implINS_17_ClassicAlgPolicyEEEPN2Yy16InstanceCreationES6_NS_11__wrap_iterIS6_EELi0EEENS_4pairIT0_T2_EESA_T1_SB_, symObjAddr: 0x49000, symBinAddr: 0x50D20, symSize: 0xC0 }
  - { offset: 0x742C4, size: 0x8, addend: 0x0, symName: __ZNSt3__114__unwrap_rangeB9nqe210106IPN2Yy16InstanceCreationES3_EENS_4pairIT0_S5_EET_S7_, symObjAddr: 0x490C0, symBinAddr: 0x50DE0, symSize: 0x50 }
  - { offset: 0x743EE, size: 0x8, addend: 0x0, symName: __ZNSt3__113__unwrap_iterB9nqe210106INS_11__wrap_iterIPN2Yy16InstanceCreationEEENS_18__unwrap_iter_implIS5_Lb1EEELi0EEEDTclsrT0_8__unwrapclsr3stdE7declvalIT_EEEES9_, symObjAddr: 0x49190, symBinAddr: 0x50EB0, symSize: 0x30 }
  - { offset: 0x74432, size: 0x8, addend: 0x0, symName: __ZNSt3__19make_pairB9nqe210106IPN2Yy16InstanceCreationENS_11__wrap_iterIS3_EEEENS_4pairINS_18__unwrap_referenceIu7__decayIT_EE4typeENS7_Iu7__decayIT0_EE4typeEEEOS8_OSC_, symObjAddr: 0x491C0, symBinAddr: 0x50EE0, symSize: 0x30 }
  - { offset: 0x74481, size: 0x8, addend: 0x0, symName: __ZNSt3__114__rewrap_rangeB9nqe210106IPN2Yy16InstanceCreationES3_EET_S4_T0_, symObjAddr: 0x491F0, symBinAddr: 0x50F10, symSize: 0x30 }
  - { offset: 0x744CD, size: 0x8, addend: 0x0, symName: __ZNSt3__113__rewrap_iterB9nqe210106INS_11__wrap_iterIPN2Yy16InstanceCreationEEES4_NS_18__unwrap_iter_implIS5_Lb1EEEEET_S8_T0_, symObjAddr: 0x49220, symBinAddr: 0x50F40, symSize: 0x50 }
  - { offset: 0x74522, size: 0x8, addend: 0x0, symName: __ZNSt3__19make_pairB9nqe210106IPN2Yy16InstanceCreationES3_EENS_4pairINS_18__unwrap_referenceIu7__decayIT_EE4typeENS5_Iu7__decayIT0_EE4typeEEEOS6_OSA_, symObjAddr: 0x49270, symBinAddr: 0x50F90, symSize: 0x30 }
  - { offset: 0x74571, size: 0x8, addend: 0x0, symName: __ZNSt3__113__unwrap_iterB9nqe210106IPN2Yy16InstanceCreationENS_18__unwrap_iter_implIS3_Lb1EEELi0EEEDTclsrT0_8__unwrapclsr3stdE7declvalIT_EEEES7_, symObjAddr: 0x492A0, symBinAddr: 0x50FC0, symSize: 0x20 }
  - { offset: 0x746C1, size: 0x8, addend: 0x0, symName: __ZNSt3__112__to_addressB9nqe210106INS_11__wrap_iterIPN2Yy16InstanceCreationEEELi0EEEu7__decayIDTclsr19__to_address_helperIT_EE6__callclsr3stdE7declvalIRKS6_EEEEES8_, symObjAddr: 0x49360, symBinAddr: 0x51080, symSize: 0x20 }
  - { offset: 0x74803, size: 0x8, addend: 0x0, symName: __ZNSt3__113__rewrap_iterB9nqe210106IPN2Yy16InstanceCreationES3_NS_18__unwrap_iter_implIS3_Lb1EEEEET_S6_T0_, symObjAddr: 0x49440, symBinAddr: 0x51160, symSize: 0x40 }
  - { offset: 0x74858, size: 0x8, addend: 0x0, symName: __ZNSt3__1eqB9nqe210106INS_11__wrap_iterIPN2Yy16InstanceCreationEEES5_EEbRKNS_16reverse_iteratorIT_EERKNS6_IT0_EE, symObjAddr: 0x49520, symBinAddr: 0x51240, symSize: 0x40 }
  - { offset: 0x748A4, size: 0x8, addend: 0x0, symName: __ZNSt3__16__moveB9nqe210106INS_17_ClassicAlgPolicyENS_16reverse_iteratorIPN2Yy16InstanceCreationEEES6_NS2_INS_11__wrap_iterIS5_EEEEEENS_4pairIT0_T2_EESB_T1_SC_, symObjAddr: 0x49560, symBinAddr: 0x51280, symSize: 0x90 }
  - { offset: 0x74910, size: 0x8, addend: 0x0, symName: __ZNSt3__124__copy_move_unwrap_itersB9nqe210106INS_11__move_implINS_17_ClassicAlgPolicyEEENS_16reverse_iteratorIPN2Yy16InstanceCreationEEES8_NS4_INS_11__wrap_iterIS7_EEEELi0EEENS_4pairIT0_T2_EESD_T1_SE_, symObjAddr: 0x496E0, symBinAddr: 0x51400, symSize: 0x210 }
  - { offset: 0x7499F, size: 0x8, addend: 0x0, symName: __ZNSt3__114__unwrap_rangeB9nqe210106INS_16reverse_iteratorIPN2Yy16InstanceCreationEEES5_EENS_4pairIT0_S7_EET_S9_, symObjAddr: 0x498F0, symBinAddr: 0x51610, symSize: 0x90 }
  - { offset: 0x74AC9, size: 0x8, addend: 0x0, symName: __ZNSt3__113__unwrap_iterB9nqe210106INS_16reverse_iteratorINS_11__wrap_iterIPN2Yy16InstanceCreationEEEEENS_18__unwrap_iter_implIS7_Lb0EEELi0EEEDTclsrT0_8__unwrapclsr3stdE7declvalIT_EEEESB_, symObjAddr: 0x49A10, symBinAddr: 0x51730, symSize: 0x40 }
  - { offset: 0x74B0D, size: 0x8, addend: 0x0, symName: __ZNSt3__19make_pairB9nqe210106INS_16reverse_iteratorIPN2Yy16InstanceCreationEEENS1_INS_11__wrap_iterIS4_EEEEEENS_4pairINS_18__unwrap_referenceIu7__decayIT_EE4typeENSA_Iu7__decayIT0_EE4typeEEEOSB_OSF_, symObjAddr: 0x49A50, symBinAddr: 0x51770, symSize: 0x30 }
  - { offset: 0x74B5C, size: 0x8, addend: 0x0, symName: __ZNSt3__114__rewrap_rangeB9nqe210106INS_16reverse_iteratorIPN2Yy16InstanceCreationEEES5_EET_S6_T0_, symObjAddr: 0x49A80, symBinAddr: 0x517A0, symSize: 0x60 }
  - { offset: 0x74BA8, size: 0x8, addend: 0x0, symName: __ZNSt3__113__rewrap_iterB9nqe210106INS_16reverse_iteratorINS_11__wrap_iterIPN2Yy16InstanceCreationEEEEES7_NS_18__unwrap_iter_implIS7_Lb0EEEEET_SA_T0_, symObjAddr: 0x49AE0, symBinAddr: 0x51800, symSize: 0x70 }
  - { offset: 0x74BFD, size: 0x8, addend: 0x0, symName: __ZNSt3__19make_pairB9nqe210106INS_16reverse_iteratorIPN2Yy16InstanceCreationEEES5_EENS_4pairINS_18__unwrap_referenceIu7__decayIT_EE4typeENS7_Iu7__decayIT0_EE4typeEEEOS8_OSC_, symObjAddr: 0x49B50, symBinAddr: 0x51870, symSize: 0x30 }
  - { offset: 0x74C4C, size: 0x8, addend: 0x0, symName: __ZNSt3__113__unwrap_iterB9nqe210106INS_16reverse_iteratorIPN2Yy16InstanceCreationEEENS_18__unwrap_iter_implIS5_Lb0EEELi0EEEDTclsrT0_8__unwrapclsr3stdE7declvalIT_EEEES9_, symObjAddr: 0x49B80, symBinAddr: 0x518A0, symSize: 0x40 }
  - { offset: 0x74DFE, size: 0x8, addend: 0x0, symName: __ZNSt3__113__rewrap_iterB9nqe210106INS_16reverse_iteratorIPN2Yy16InstanceCreationEEES5_NS_18__unwrap_iter_implIS5_Lb0EEEEET_S8_T0_, symObjAddr: 0x49CE0, symBinAddr: 0x51A00, symSize: 0x70 }
  - { offset: 0x74E53, size: 0x8, addend: 0x0, symName: __ZNSt3__19__advanceB9nqe210106INS_11__wrap_iterIPN2Yy16InstanceCreationEEEEEvRT_NS_15iterator_traitsIS6_E15difference_typeENS_26random_access_iterator_tagE, symObjAddr: 0x49E70, symBinAddr: 0x51B90, symSize: 0x30 }
  - { offset: 0x74E9C, size: 0x8, addend: 0x0, symName: __ZNSt3__115__half_positiveB9nqe210106IlLi0EEET_S1_, symObjAddr: 0x49EA0, symBinAddr: 0x51BC0, symSize: 0x20 }
  - { offset: 0x74ED7, size: 0x8, addend: 0x0, symName: __ZNSt3__18__invokeB9nqe210106IJRNS_6__lessIvvEERKN2Yy16InstanceCreationERS5_EEENS_20__invoke_result_implIvJDpT_EE4typeEDpOSA_, symObjAddr: 0x49F00, symBinAddr: 0x51C20, symSize: 0x30 }
  - { offset: 0x74F34, size: 0x8, addend: 0x0, symName: __ZNSt3__18__invokeB9nqe210106IJRNS_10__identityERN2Yy16InstanceCreationEEEENS_20__invoke_result_implIvJDpT_EE4typeEDpOS7_, symObjAddr: 0x49F30, symBinAddr: 0x51C50, symSize: 0x30 }
  - { offset: 0x74F7E, size: 0x8, addend: 0x0, symName: __ZNSt3__14nextB9nqe210106INS_11__wrap_iterIPN2Yy16InstanceCreationEEELi0EEET_S6_NS_15iterator_traitsIS6_E15difference_typeE, symObjAddr: 0x49F60, symBinAddr: 0x51C80, symSize: 0x30 }
  - { offset: 0x74FC7, size: 0x8, addend: 0x0, symName: __ZNSt3__18distanceB9nqe210106INS_11__wrap_iterIPN2Yy16InstanceCreationEEEEENS_15iterator_traitsIT_E15difference_typeES7_S7_, symObjAddr: 0x49FB0, symBinAddr: 0x51CD0, symSize: 0x40 }
  - { offset: 0x7500A, size: 0x8, addend: 0x0, symName: __ZNSt3__110__distanceB9nqe210106INS_11__wrap_iterIPN2Yy16InstanceCreationEEEEENS_15iterator_traitsIT_E15difference_typeES7_S7_NS_26random_access_iterator_tagE, symObjAddr: 0x49FF0, symBinAddr: 0x51D10, symSize: 0x30 }
  - { offset: 0x75057, size: 0x8, addend: 0x0, symName: __ZNSt3__113__lower_boundB9nqe210106INS_17_ClassicAlgPolicyENS_11__wrap_iterIPN2Yy16InstanceCreationEEES6_S4_NS_10__identityENS_6__lessIvvEEEET0_SA_T1_RKT2_RT4_RT3_, symObjAddr: 0x4A020, symBinAddr: 0x51D40, symSize: 0x70 }
  - { offset: 0x750FF, size: 0x8, addend: 0x0, symName: __ZNSt3__123__lower_bound_bisectingB9nqe210106INS_17_ClassicAlgPolicyENS_11__wrap_iterIPN2Yy16InstanceCreationEEES4_NS_10__identityENS_6__lessIvvEEEET0_SA_RKT1_NS_15iterator_traitsISA_E15difference_typeERT3_RT2_, symObjAddr: 0x4A090, symBinAddr: 0x51DB0, symSize: 0xD0 }
  - { offset: 0x751BB, size: 0x8, addend: 0x0, symName: __ZNSt3__18__invokeB9nqe210106IJRNS_6__lessIvvEERN2Yy16InstanceCreationERKS5_EEENS_20__invoke_result_implIvJDpT_EE4typeEDpOSA_, symObjAddr: 0x4A160, symBinAddr: 0x51E80, symSize: 0x30 }
  - { offset: 0x75329, size: 0x8, addend: 0x0, symName: __ZNSt3__113__rotate_implB9nqe210106INS_17_ClassicAlgPolicyENS_11__wrap_iterIPN2Yy16InstanceCreationEEEEET0_S7_S7_S7_NS_26random_access_iterator_tagE, symObjAddr: 0x4A210, symBinAddr: 0x51F30, symSize: 0x50 }
  - { offset: 0x7538D, size: 0x8, addend: 0x0, symName: __ZNSt3__116__rotate_forwardB9nqe210106INS_17_ClassicAlgPolicyENS_11__wrap_iterIPN2Yy16InstanceCreationEEEEET0_S7_S7_S7_, symObjAddr: 0x4A2C0, symBinAddr: 0x51FE0, symSize: 0x10A }
  - { offset: 0x77C61, size: 0x8, addend: 0x0, symName: __ZSt28__throw_bad_array_new_lengthB9nqe210106v, symObjAddr: 0x20F80, symBinAddr: 0x294C0, symSize: 0x40 }
  - { offset: 0x7951B, size: 0x8, addend: 0x0, symName: __ZN2Qt15strong_ordering10equivalentE, symObjAddr: 0x4E8BD, symBinAddr: 0x5774D, symSize: 0x0 }
  - { offset: 0x7952F, size: 0x8, addend: 0x0, symName: __ZN2Qt15strong_ordering4lessE, symObjAddr: 0x4E8BE, symBinAddr: 0x5774E, symSize: 0x0 }
  - { offset: 0x79543, size: 0x8, addend: 0x0, symName: __ZN2Qt15strong_ordering7greaterE, symObjAddr: 0x4E8BF, symBinAddr: 0x5774F, symSize: 0x0 }
  - { offset: 0x7955E, size: 0x8, addend: 0x0, symName: __ZN2Qt13DisambiguatedE, symObjAddr: 0x4EBA2, symBinAddr: 0x57A32, symSize: 0x0 }
  - { offset: 0x796ED, size: 0x8, addend: 0x0, symName: __ZN2Qt5is_ltENS_15strong_orderingE, symObjAddr: 0x1D850, symBinAddr: 0x25DE0, symSize: 0x50 }
  - { offset: 0x7971B, size: 0x8, addend: 0x0, symName: __ZN2QtltENS_15strong_orderingEN9QtPrivate25CompareAgainstLiteralZeroE, symObjAddr: 0x1D8F0, symBinAddr: 0x25E80, symSize: 0x20 }
  - { offset: 0x79755, size: 0x8, addend: 0x0, symName: __ZN2Qt15compareThreeWayIiiLb1ELb1EEENS_15strong_orderingET_T0_, symObjAddr: 0x1DA50, symBinAddr: 0x25F90, symSize: 0x40 }
  - { offset: 0x797B1, size: 0x8, addend: 0x0, symName: __ZN2Qt11qt_ptr_swapERNS_23totally_ordered_wrapperIPN5Tiled7TilesetEEES5_, symObjAddr: 0x1DBB0, symBinAddr: 0x260F0, symSize: 0x30 }
  - { offset: 0x797EB, size: 0x8, addend: 0x0, symName: __ZN2Qt11qt_ptr_swapERNS_23totally_ordered_wrapperIP8QMapDataINSt3__13mapI7QString8QVariantNS2_4lessIS4_EENS2_9allocatorINS2_4pairIKS4_S5_EEEEEEEEESH_, symObjAddr: 0x399B0, symBinAddr: 0x41AE0, symSize: 0x30 }
  - { offset: 0x8A179, size: 0x8, addend: 0x0, symName: __ZN12QHashPrivate13calculateHashI6QPointEEmRKT_m, symObjAddr: 0x1FC80, symBinAddr: 0x281C0, symSize: 0x30 }
  - { offset: 0x8A1C1, size: 0x8, addend: 0x0, symName: __ZN12QHashPrivate12GrowthPolicy13bucketForHashEmm, symObjAddr: 0x1FD90, symBinAddr: 0x282D0, symSize: 0x20 }
  - { offset: 0x8A1FE, size: 0x8, addend: 0x0, symName: __ZN12QHashPrivate12GrowthPolicy18bucketsForCapacityEm, symObjAddr: 0x27990, symBinAddr: 0x2FED0, symSize: 0x70 }
  - { offset: 0x8A24D, size: 0x8, addend: 0x0, symName: __ZN12QHashPrivate13calculateHashI7QStringEEmRKT_m, symObjAddr: 0x26C80, symBinAddr: 0x2F1C0, symSize: 0x30 }
  - { offset: 0x8A290, size: 0x8, addend: 0x0, symName: __ZN12QHashPrivate13calculateHashIPKN5Tiled9MapObjectEEEmRKT_m, symObjAddr: 0x3BC50, symBinAddr: 0x43D80, symSize: 0x30 }
  - { offset: 0x8A2D3, size: 0x8, addend: 0x0, symName: __ZN12QHashPrivate4hashEmm, symObjAddr: 0x3C270, symBinAddr: 0x443A0, symSize: 0x80 }
  - { offset: 0x90D07, size: 0x8, addend: 0x0, symName: __ZTVN2Yy10GMRGraphicE, symObjAddr: 0x4E250, symBinAddr: 0x59628, symSize: 0x0 }
  - { offset: 0x91E2D, size: 0x8, addend: 0x0, symName: __ZTVN2Yy20GMOverriddenPropertyE, symObjAddr: 0x4E290, symBinAddr: 0x59668, symSize: 0x0 }
  - { offset: 0x91E51, size: 0x8, addend: 0x0, symName: __ZTVN2Yy11GMRInstanceE, symObjAddr: 0x4E2D0, symBinAddr: 0x596A8, symSize: 0x0 }
  - { offset: 0x91F4C, size: 0x8, addend: 0x0, symName: __ZTVN2Yy6GMPathE, symObjAddr: 0x4E310, symBinAddr: 0x596E8, symSize: 0x0 }
  - { offset: 0x93AF3, size: 0x8, addend: 0x0, symName: __ZTVN2Yy8GMRLayerE, symObjAddr: 0x4E350, symBinAddr: 0x59728, symSize: 0x0 }
  - { offset: 0x93C3E, size: 0x8, addend: 0x0, symName: __ZTVN2Yy12GMRTileLayerE, symObjAddr: 0x4E390, symBinAddr: 0x59768, symSize: 0x0 }
  - { offset: 0x93D02, size: 0x8, addend: 0x0, symName: __ZTVN2Yy13GMRAssetLayerE, symObjAddr: 0x4E3D0, symBinAddr: 0x597A8, symSize: 0x0 }
  - { offset: 0x93DFD, size: 0x8, addend: 0x0, symName: __ZTVN2Yy16GMRInstanceLayerE, symObjAddr: 0x4E410, symBinAddr: 0x597E8, symSize: 0x0 }
  - { offset: 0x93EF8, size: 0x8, addend: 0x0, symName: __ZTVN2Yy12GMRPathLayerE, symObjAddr: 0x4E450, symBinAddr: 0x59828, symSize: 0x0 }
  - { offset: 0x93F1C, size: 0x8, addend: 0x0, symName: __ZTVN2Yy18GMRBackgroundLayerE, symObjAddr: 0x4E490, symBinAddr: 0x59868, symSize: 0x0 }
  - { offset: 0x93F40, size: 0x8, addend: 0x0, symName: __ZTVN2Yy6GMRoomE, symObjAddr: 0x4E4D0, symBinAddr: 0x598A8, symSize: 0x0 }
  - { offset: 0x9412F, size: 0x8, addend: 0x0, symName: __ZN5Tiled11ActivatableINS_10JumpToTileEE9activatedE, symObjAddr: 0x4EBB0, symBinAddr: 0x5A010, symSize: 0x0 }
  - { offset: 0x9A068, size: 0x8, addend: 0x0, symName: __ZN5Tiled7WARNINGERK7QStringNSt3__18functionIFvvEEEPKv, symObjAddr: 0x1F510, symBinAddr: 0x27A50, symSize: 0x120 }
  - { offset: 0x9A0B0, size: 0x8, addend: 0x0, symName: __ZN5Tiled6REPORTERKNS_5IssueE, symObjAddr: 0x213E0, symBinAddr: 0x29920, symSize: 0x30 }
  - { offset: 0x9A0D8, size: 0x8, addend: 0x0, symName: __ZN5Tiled5ERRORE13QLatin1StringNSt3__18functionIFvvEEEPKv, symObjAddr: 0x2CDD0, symBinAddr: 0x34FF0, symSize: 0x120 }
  - { offset: 0x9A120, size: 0x8, addend: 0x0, symName: __ZN5Tiled5ERRORERK7QStringNSt3__18functionIFvvEEEPKv, symObjAddr: 0x33F30, symBinAddr: 0x3C060, symSize: 0x120 }
  - { offset: 0x9A169, size: 0x8, addend: 0x0, symName: __ZN5Tiled15objectRefTypeIdEv, symObjAddr: 0x3F910, symBinAddr: 0x47A40, symSize: 0x10 }
  - { offset: 0xBDA3C, size: 0x8, addend: 0x0, symName: __ZN5Tiled11ActivatableINS_12JumpToObjectEE9activatedE, symObjAddr: 0x4EBF0, symBinAddr: 0x5A050, symSize: 0x0 }
  - { offset: 0xBDAF4, size: 0x8, addend: 0x0, symName: __ZTVNSt3__110__function6__funcIN5Tiled10JumpToTileEFvvEEE, symObjAddr: 0x4E510, symBinAddr: 0x598E8, symSize: 0x0 }
  - { offset: 0xBDB3B, size: 0x8, addend: 0x0, symName: __ZTVNSt3__110__function6__baseIFvvEEE, symObjAddr: 0x4E590, symBinAddr: 0x59968, symSize: 0x0 }
  - { offset: 0xBDB50, size: 0x8, addend: 0x0, symName: __ZTVNSt3__117bad_function_callE, symObjAddr: 0x4E600, symBinAddr: 0x599D8, symSize: 0x0 }
  - { offset: 0xBDB92, size: 0x8, addend: 0x0, symName: '__ZTVNSt3__110__function6__funcIZL21createAssetsFromTilesRNS_6vectorIN2Yy10GMRGraphicENS_9allocatorIS4_EEEEPKN5Tiled9TileLayerERNS3_7ContextEE3$_0Fv6QPointRK7QPointFEEE', symObjAddr: 0x4E650, symBinAddr: 0x59A28, symSize: 0x0 }
  - { offset: 0xBDBA0, size: 0x8, addend: 0x0, symName: __ZL21createAssetsFromTilesRNSt3__16vectorIN2Yy10GMRGraphicENS_9allocatorIS2_EEEEPKN5Tiled9TileLayerERNS1_7ContextE, symObjAddr: 0x17BA0, symBinAddr: 0x20450, symSize: 0x320 }
  - { offset: 0xC01AC, size: 0x8, addend: 0x0, symName: __ZTVNSt3__110__function6__baseIFv6QPointRK7QPointFEEE, symObjAddr: 0x4E6D0, symBinAddr: 0x59AA8, symSize: 0x0 }
  - { offset: 0xC01F1, size: 0x8, addend: 0x0, symName: __ZTVNSt3__110__function6__funcIN5Tiled12JumpToObjectEFvvEEE, symObjAddr: 0x4E738, symBinAddr: 0x59B10, symSize: 0x0 }
  - { offset: 0xC0219, size: 0x8, addend: 0x0, symName: __ZN9QtPrivate25QMetaTypeInterfaceWrapperI6QColorE8metaTypeE, symObjAddr: 0x4EC28, symBinAddr: 0x5A088, symSize: 0x0 }
  - { offset: 0xC022D, size: 0x8, addend: 0x0, symName: __ZN12QMetaTypeId2I6QColorE11nameAsArrayE, symObjAddr: 0x4EB88, symBinAddr: 0x57A18, symSize: 0x0 }
  - { offset: 0xC02BB, size: 0x8, addend: 0x0, symName: __ZN9QtPrivate25QMetaTypeInterfaceWrapperIN5Tiled9ObjectRefEE8metaTypeE, symObjAddr: 0x4EC98, symBinAddr: 0x5A0F8, symSize: 0x0 }
  - { offset: 0xC02E3, size: 0x8, addend: 0x0, symName: __ZN9QtPrivate16QMetaTypeForTypeIN5Tiled9ObjectRefEE4nameE, symObjAddr: 0x4EB8F, symBinAddr: 0x57A1F, symSize: 0x0 }
  - { offset: 0xC0356, size: 0x8, addend: 0x0, symName: __ZN18QMetaTypeIdQObjectIN5Tiled9ObjectRefELi512EE14qt_metatype_idEv, symObjAddr: 0x3FCB0, symBinAddr: 0x47D80, symSize: 0xB0 }
  - { offset: 0xC0377, size: 0x8, addend: 0x0, symName: __ZZN18QMetaTypeIdQObjectIN5Tiled9ObjectRefELi512EE14qt_metatype_idEvE11metatype_id, symObjAddr: 0x4ED08, symBinAddr: 0x5A168, symSize: 0x0 }
  - { offset: 0xC4C2D, size: 0x8, addend: 0x0, symName: __ZL18processObjectGroupPKN5Tiled11ObjectGroupERN2Yy7ContextE, symObjAddr: 0x12400, symBinAddr: 0x1ACB0, symSize: 0x3C30 }
  - { offset: 0xC5352, size: 0x8, addend: 0x0, symName: __ZN4QMapI7QString8QVariantE4takeERKS0_, symObjAddr: 0x36DF0, symBinAddr: 0x3EF20, symSize: 0x3E0 }
  - { offset: 0xC5BDC, size: 0x8, addend: 0x0, symName: __ZNK2Yy7GMRView6toJsonEv, symObjAddr: 0x0, symBinAddr: 0x92A0, symSize: 0x560 }
  - { offset: 0xC5C44, size: 0x8, addend: 0x0, symName: __ZNSt3__14pairI7QString10QJsonValueEC1B9nqe210106IRA8_KcRKbLi0EEEOT_OT0_, symObjAddr: 0x560, symBinAddr: 0x9800, symSize: 0x30 }
  - { offset: 0xC5CB8, size: 0x8, addend: 0x0, symName: __ZNSt3__14pairI7QString10QJsonValueEC1B9nqe210106IRA6_KcRKiLi0EEEOT_OT0_, symObjAddr: 0x590, symBinAddr: 0x9830, symSize: 0x30 }
  - { offset: 0xC5D16, size: 0x8, addend: 0x0, symName: __ZNSt3__14pairI7QString10QJsonValueEC1B9nqe210106IRA8_KcRKiLi0EEEOT_OT0_, symObjAddr: 0x5C0, symBinAddr: 0x9860, symSize: 0x30 }
  - { offset: 0xC5D7E, size: 0x8, addend: 0x0, symName: __ZNSt3__14pairI7QString10QJsonValueEC1B9nqe210106IRA7_KcRKiLi0EEEOT_OT0_, symObjAddr: 0x5F0, symBinAddr: 0x9890, symSize: 0x30 }
  - { offset: 0xC5DF7, size: 0x8, addend: 0x0, symName: __ZNSt3__14pairI7QString10QJsonValueEC1B9nqe210106IRA9_KcS2_Li0EEEOT_OT0_, symObjAddr: 0x9E0, symBinAddr: 0x9C50, symSize: 0x30 }
  - { offset: 0xC5E55, size: 0x8, addend: 0x0, symName: __ZNSt3__14pairI7QString10QJsonValueED1Ev, symObjAddr: 0xA10, symBinAddr: 0x9C80, symSize: 0x20 }
  - { offset: 0xC5E81, size: 0x8, addend: 0x0, symName: __ZNK2Yy10GMResource6toJsonEv, symObjAddr: 0xA70, symBinAddr: 0x9CA0, symSize: 0x650 }
  - { offset: 0xC5EC5, size: 0x8, addend: 0x0, symName: __ZN10QJsonValueC1EPKc, symObjAddr: 0x1300, symBinAddr: 0xA530, symSize: 0x80 }
  - { offset: 0xC5EFC, size: 0x8, addend: 0x0, symName: __ZplO10QByteArrayPKc, symObjAddr: 0x1380, symBinAddr: 0xA5B0, symSize: 0x50 }
  - { offset: 0xC5F3A, size: 0x8, addend: 0x0, symName: __ZN7QStringC1ERK10QByteArray, symObjAddr: 0x13D0, symBinAddr: 0xA600, symSize: 0x50 }
  - { offset: 0xC5F73, size: 0x8, addend: 0x0, symName: __ZN7QStringC1EPKc, symObjAddr: 0x1440, symBinAddr: 0xA650, symSize: 0x60 }
  - { offset: 0xC5FAC, size: 0x8, addend: 0x0, symName: __ZNK5QListI7QStringE7isEmptyEv, symObjAddr: 0x14A0, symBinAddr: 0xA6B0, symSize: 0x30 }
  - { offset: 0xC5FD2, size: 0x8, addend: 0x0, symName: __ZNK2Yy10GMRGraphic6toJsonEv, symObjAddr: 0x14D0, symBinAddr: 0xA6E0, symSize: 0x1510 }
  - { offset: 0xC6038, size: 0x8, addend: 0x0, symName: __ZNK7QString7isEmptyEv, symObjAddr: 0x2A10, symBinAddr: 0xBC20, symSize: 0x30 }
  - { offset: 0xC6074, size: 0x8, addend: 0x0, symName: __ZNSt3__14pairI7QString10QJsonValueEC1B9nqe210106IRA5_KcRKS1_Li0EEEOT_OT0_, symObjAddr: 0x2A40, symBinAddr: 0xBC50, symSize: 0x30 }
  - { offset: 0xC60D2, size: 0x8, addend: 0x0, symName: __ZNK2Yy20GMOverriddenProperty6toJsonEv, symObjAddr: 0x2A70, symBinAddr: 0xBC80, symSize: 0x7C0 }
  - { offset: 0xC61F6, size: 0x8, addend: 0x0, symName: __ZNK7QString3argIJS_RKS_EEENSt3__19enable_ifIXaagesZT_Li2Esr3stdE13conjunction_vIDpNS3_11conjunctionIJNS3_8negationIN9QtPrivate21treat_as_integral_argIu11__remove_cvIT_EEEEENS3_14is_convertibleIS9_14QAnyStringViewEEEEEEES_E4typeEDpOS9_, symObjAddr: 0x3230, symBinAddr: 0xC440, symSize: 0x1B0 }
  - { offset: 0xC62BE, size: 0x8, addend: 0x0, symName: __ZNSt3__14pairI7QString10QJsonValueEC1B9nqe210106IRA5_KcS1_Li0EEEOT_OT0_, symObjAddr: 0x33E0, symBinAddr: 0xC5F0, symSize: 0x30 }
  - { offset: 0xC631C, size: 0x8, addend: 0x0, symName: __ZNK2Yy11GMRInstance6toJsonEv, symObjAddr: 0x3410, symBinAddr: 0xC620, symSize: 0x1480 }
  - { offset: 0xC63DC, size: 0x8, addend: 0x0, symName: __ZNKSt3__16vectorIN2Yy20GMOverriddenPropertyENS_9allocatorIS2_EEE5beginB9nqe210106Ev, symObjAddr: 0x4890, symBinAddr: 0xDAA0, symSize: 0x40 }
  - { offset: 0xC6402, size: 0x8, addend: 0x0, symName: __ZNKSt3__16vectorIN2Yy20GMOverriddenPropertyENS_9allocatorIS2_EEE3endB9nqe210106Ev, symObjAddr: 0x48D0, symBinAddr: 0xDAE0, symSize: 0x40 }
  - { offset: 0xC6428, size: 0x8, addend: 0x0, symName: __ZNKSt3__111__wrap_iterIPKN2Yy20GMOverriddenPropertyEEdeB9nqe210106Ev, symObjAddr: 0x4940, symBinAddr: 0xDB50, symSize: 0x20 }
  - { offset: 0xC644E, size: 0x8, addend: 0x0, symName: __ZNSt3__111__wrap_iterIPKN2Yy20GMOverriddenPropertyEEppB9nqe210106Ev, symObjAddr: 0x4960, symBinAddr: 0xDB70, symSize: 0x20 }
  - { offset: 0xC6474, size: 0x8, addend: 0x0, symName: __ZNK2Yy6GMPath6toJsonEv, symObjAddr: 0x4980, symBinAddr: 0xDB90, symSize: 0x7D0 }
  - { offset: 0xC6509, size: 0x8, addend: 0x0, symName: __ZNK5QListI7QPointFE5beginEv, symObjAddr: 0x5150, symBinAddr: 0xE360, symSize: 0x40 }
  - { offset: 0xC652F, size: 0x8, addend: 0x0, symName: __ZNK5QListI7QPointFE3endEv, symObjAddr: 0x5190, symBinAddr: 0xE3A0, symSize: 0x40 }
  - { offset: 0xC6555, size: 0x8, addend: 0x0, symName: __ZNK5QListI7QPointFE14const_iteratorneES2_, symObjAddr: 0x51D0, symBinAddr: 0xE3E0, symSize: 0x20 }
  - { offset: 0xC6589, size: 0x8, addend: 0x0, symName: __ZNK5QListI7QPointFE14const_iteratordeEv, symObjAddr: 0x51F0, symBinAddr: 0xE400, symSize: 0x20 }
  - { offset: 0xC65B4, size: 0x8, addend: 0x0, symName: __ZNSt3__14pairI7QString10QJsonValueEC1B9nqe210106IRA6_KcdLi0EEEOT_OT0_, symObjAddr: 0x5210, symBinAddr: 0xE420, symSize: 0x30 }
  - { offset: 0xC6612, size: 0x8, addend: 0x0, symName: __ZNK7QPointF1xEv, symObjAddr: 0x5240, symBinAddr: 0xE450, symSize: 0x20 }
  - { offset: 0xC6650, size: 0x8, addend: 0x0, symName: __ZNSt3__14pairI7QString10QJsonValueEC1B9nqe210106IRA2_KcdLi0EEEOT_OT0_, symObjAddr: 0x5260, symBinAddr: 0xE470, symSize: 0x30 }
  - { offset: 0xC66AE, size: 0x8, addend: 0x0, symName: __ZNK7QPointF1yEv, symObjAddr: 0x5290, symBinAddr: 0xE4A0, symSize: 0x20 }
  - { offset: 0xC66D6, size: 0x8, addend: 0x0, symName: __ZN5QListI7QPointFE14const_iteratorppEv, symObjAddr: 0x52B0, symBinAddr: 0xE4C0, symSize: 0x20 }
  - { offset: 0xC66FC, size: 0x8, addend: 0x0, symName: __ZNK2Yy8GMRLayer6toJsonEv, symObjAddr: 0x52D0, symBinAddr: 0xE4E0, symSize: 0xD20 }
  - { offset: 0xC678F, size: 0x8, addend: 0x0, symName: __ZNKSt3__16vectorINS_10unique_ptrIN2Yy8GMRLayerENS_14default_deleteIS3_EEEENS_9allocatorIS6_EEE5beginB9nqe210106Ev, symObjAddr: 0x5FF0, symBinAddr: 0xF200, symSize: 0x40 }
  - { offset: 0xC67B5, size: 0x8, addend: 0x0, symName: __ZNKSt3__16vectorINS_10unique_ptrIN2Yy8GMRLayerENS_14default_deleteIS3_EEEENS_9allocatorIS6_EEE3endB9nqe210106Ev, symObjAddr: 0x6030, symBinAddr: 0xF240, symSize: 0x40 }
  - { offset: 0xC67DB, size: 0x8, addend: 0x0, symName: __ZNKSt3__111__wrap_iterIPKNS_10unique_ptrIN2Yy8GMRLayerENS_14default_deleteIS3_EEEEEdeB9nqe210106Ev, symObjAddr: 0x60A0, symBinAddr: 0xF2B0, symSize: 0x20 }
  - { offset: 0xC6801, size: 0x8, addend: 0x0, symName: __ZNKSt3__110unique_ptrIN2Yy8GMRLayerENS_14default_deleteIS2_EEEptB9nqe210106Ev, symObjAddr: 0x60C0, symBinAddr: 0xF2D0, symSize: 0x20 }
  - { offset: 0xC6827, size: 0x8, addend: 0x0, symName: __ZNSt3__111__wrap_iterIPKNS_10unique_ptrIN2Yy8GMRLayerENS_14default_deleteIS3_EEEEEppB9nqe210106Ev, symObjAddr: 0x60E0, symBinAddr: 0xF2F0, symSize: 0x20 }
  - { offset: 0xC6852, size: 0x8, addend: 0x0, symName: __ZNK2Yy12GMRTileLayer6toJsonEv, symObjAddr: 0x6100, symBinAddr: 0xF310, symSize: 0x830 }
  - { offset: 0xC68E1, size: 0x8, addend: 0x0, symName: __ZNKSt3__16vectorIjNS_9allocatorIjEEE4sizeB9nqe210106Ev, symObjAddr: 0x6930, symBinAddr: 0xFB40, symSize: 0x20 }
  - { offset: 0xC6907, size: 0x8, addend: 0x0, symName: __ZNKSt3__16vectorIjNS_9allocatorIjEEE2atB9nqe210106Em, symObjAddr: 0x6950, symBinAddr: 0xFB60, symSize: 0x50 }
  - { offset: 0xC6952, size: 0x8, addend: 0x0, symName: __ZNSt3__14pairI7QString10QJsonValueEC1B9nqe210106IRA15_KcRKiLi0EEEOT_OT0_, symObjAddr: 0x69A0, symBinAddr: 0xFBB0, symSize: 0x30 }
  - { offset: 0xC69C6, size: 0x8, addend: 0x0, symName: __ZNSt3__14pairI7QString10QJsonValueEC1B9nqe210106IRA16_KcRKiLi0EEEOT_OT0_, symObjAddr: 0x69D0, symBinAddr: 0xFBE0, symSize: 0x30 }
  - { offset: 0xC6A3A, size: 0x8, addend: 0x0, symName: __ZNSt3__14pairI7QString10QJsonValueEC1B9nqe210106IRA18_KcR10QJsonArrayLi0EEEOT_OT0_, symObjAddr: 0x6A00, symBinAddr: 0xFC10, symSize: 0x30 }
  - { offset: 0xC6A98, size: 0x8, addend: 0x0, symName: __ZNK2Yy13GMRAssetLayer6toJsonEv, symObjAddr: 0x6A30, symBinAddr: 0xFC40, symSize: 0x240 }
  - { offset: 0xC6B28, size: 0x8, addend: 0x0, symName: __ZNKSt3__16vectorIN2Yy10GMRGraphicENS_9allocatorIS2_EEE5beginB9nqe210106Ev, symObjAddr: 0x6C70, symBinAddr: 0xFE80, symSize: 0x40 }
  - { offset: 0xC6B4E, size: 0x8, addend: 0x0, symName: __ZNKSt3__16vectorIN2Yy10GMRGraphicENS_9allocatorIS2_EEE3endB9nqe210106Ev, symObjAddr: 0x6CB0, symBinAddr: 0xFEC0, symSize: 0x40 }
  - { offset: 0xC6B74, size: 0x8, addend: 0x0, symName: __ZNKSt3__111__wrap_iterIPKN2Yy10GMRGraphicEEdeB9nqe210106Ev, symObjAddr: 0x6D20, symBinAddr: 0xFF30, symSize: 0x20 }
  - { offset: 0xC6B9A, size: 0x8, addend: 0x0, symName: __ZNSt3__111__wrap_iterIPKN2Yy10GMRGraphicEEppB9nqe210106Ev, symObjAddr: 0x6D40, symBinAddr: 0xFF50, symSize: 0x20 }
  - { offset: 0xC6BC0, size: 0x8, addend: 0x0, symName: __ZNK2Yy16GMRInstanceLayer6toJsonEv, symObjAddr: 0x6D60, symBinAddr: 0xFF70, symSize: 0x240 }
  - { offset: 0xC6C50, size: 0x8, addend: 0x0, symName: __ZNKSt3__16vectorIN2Yy11GMRInstanceENS_9allocatorIS2_EEE5beginB9nqe210106Ev, symObjAddr: 0x6FA0, symBinAddr: 0x101B0, symSize: 0x40 }
  - { offset: 0xC6C76, size: 0x8, addend: 0x0, symName: __ZNKSt3__16vectorIN2Yy11GMRInstanceENS_9allocatorIS2_EEE3endB9nqe210106Ev, symObjAddr: 0x6FE0, symBinAddr: 0x101F0, symSize: 0x40 }
  - { offset: 0xC6C9C, size: 0x8, addend: 0x0, symName: __ZNKSt3__111__wrap_iterIPKN2Yy11GMRInstanceEEdeB9nqe210106Ev, symObjAddr: 0x7050, symBinAddr: 0x10260, symSize: 0x20 }
  - { offset: 0xC6CC2, size: 0x8, addend: 0x0, symName: __ZNSt3__111__wrap_iterIPKN2Yy11GMRInstanceEEppB9nqe210106Ev, symObjAddr: 0x7070, symBinAddr: 0x10280, symSize: 0x20 }
  - { offset: 0xC6CED, size: 0x8, addend: 0x0, symName: __ZNK2Yy12GMRPathLayer6toJsonEv, symObjAddr: 0x7090, symBinAddr: 0x102A0, symSize: 0x2E0 }
  - { offset: 0xC6D4F, size: 0x8, addend: 0x0, symName: __ZNK2Yy18GMRBackgroundLayer6toJsonEv, symObjAddr: 0x7370, symBinAddr: 0x10580, symSize: 0xB70 }
  - { offset: 0xC6DB6, size: 0x8, addend: 0x0, symName: __ZNK2Yy6GMRoom6toJsonEv, symObjAddr: 0x7EE0, symBinAddr: 0x110F0, symSize: 0x1CE0 }
  - { offset: 0xC6F2A, size: 0x8, addend: 0x0, symName: __ZNKSt3__16vectorIN2Yy7GMRViewENS_9allocatorIS2_EEE5beginB9nqe210106Ev, symObjAddr: 0x9BC0, symBinAddr: 0x12DD0, symSize: 0x40 }
  - { offset: 0xC6F50, size: 0x8, addend: 0x0, symName: __ZNKSt3__16vectorIN2Yy7GMRViewENS_9allocatorIS2_EEE3endB9nqe210106Ev, symObjAddr: 0x9C00, symBinAddr: 0x12E10, symSize: 0x40 }
  - { offset: 0xC6F76, size: 0x8, addend: 0x0, symName: __ZNKSt3__111__wrap_iterIPKN2Yy7GMRViewEEdeB9nqe210106Ev, symObjAddr: 0x9C70, symBinAddr: 0x12E80, symSize: 0x20 }
  - { offset: 0xC6F9C, size: 0x8, addend: 0x0, symName: __ZNSt3__111__wrap_iterIPKN2Yy7GMRViewEEppB9nqe210106Ev, symObjAddr: 0x9C90, symBinAddr: 0x12EA0, symSize: 0x20 }
  - { offset: 0xC6FC2, size: 0x8, addend: 0x0, symName: __ZNKSt3__16vectorIN2Yy16InstanceCreationENS_9allocatorIS2_EEE5beginB9nqe210106Ev, symObjAddr: 0x9CB0, symBinAddr: 0x12EC0, symSize: 0x40 }
  - { offset: 0xC6FE8, size: 0x8, addend: 0x0, symName: __ZNKSt3__16vectorIN2Yy16InstanceCreationENS_9allocatorIS2_EEE3endB9nqe210106Ev, symObjAddr: 0x9CF0, symBinAddr: 0x12F00, symSize: 0x40 }
  - { offset: 0xC700E, size: 0x8, addend: 0x0, symName: __ZNKSt3__111__wrap_iterIPKN2Yy16InstanceCreationEEdeB9nqe210106Ev, symObjAddr: 0x9D60, symBinAddr: 0x12F70, symSize: 0x20 }
  - { offset: 0xC7034, size: 0x8, addend: 0x0, symName: __ZNSt3__111__wrap_iterIPKN2Yy16InstanceCreationEEppB9nqe210106Ev, symObjAddr: 0x9D80, symBinAddr: 0x12F90, symSize: 0x20 }
  - { offset: 0xC7070, size: 0x8, addend: 0x0, symName: __ZNSt3__14pairI7QString10QJsonValueEC1B9nqe210106IRA20_KcRKbLi0EEEOT_OT0_, symObjAddr: 0x9DA0, symBinAddr: 0x12FB0, symSize: 0x30 }
  - { offset: 0xC70E4, size: 0x8, addend: 0x0, symName: __ZNSt3__14pairI7QString10QJsonValueEC1B9nqe210106IRA11_KcRKbLi0EEEOT_OT0_, symObjAddr: 0x9DD0, symBinAddr: 0x12FE0, symSize: 0x30 }
  - { offset: 0xC7158, size: 0x8, addend: 0x0, symName: __ZNSt3__14pairI7QString10QJsonValueEC1B9nqe210106IRA12_KcRKbLi0EEEOT_OT0_, symObjAddr: 0x9E00, symBinAddr: 0x13010, symSize: 0x30 }
  - { offset: 0xC71CC, size: 0x8, addend: 0x0, symName: __ZNSt3__14pairI7QString10QJsonValueEC1B9nqe210106IRA19_KcRKbLi0EEEOT_OT0_, symObjAddr: 0x9E30, symBinAddr: 0x13040, symSize: 0x30 }
  - { offset: 0xC7240, size: 0x8, addend: 0x0, symName: __ZNSt3__14pairI7QString10QJsonValueEC1B9nqe210106IRA23_KcRKbLi0EEEOT_OT0_, symObjAddr: 0x9E60, symBinAddr: 0x13070, symSize: 0x30 }
  - { offset: 0xC72B4, size: 0x8, addend: 0x0, symName: __ZNSt3__14pairI7QString10QJsonValueEC1B9nqe210106IRA13_KcRKbLi0EEEOT_OT0_, symObjAddr: 0x9E90, symBinAddr: 0x130A0, symSize: 0x30 }
  - { offset: 0xC732D, size: 0x8, addend: 0x0, symName: __ZNSt3__14pairI7QString10QJsonValueEC1B9nqe210106IRA21_KcRKdLi0EEEOT_OT0_, symObjAddr: 0x9EC0, symBinAddr: 0x130D0, symSize: 0x30 }
  - { offset: 0xC73A1, size: 0x8, addend: 0x0, symName: __ZNSt3__14pairI7QString10QJsonValueEC1B9nqe210106IRA24_KcRKdLi0EEEOT_OT0_, symObjAddr: 0x9EF0, symBinAddr: 0x13100, symSize: 0x30 }
  - { offset: 0xC73FF, size: 0x8, addend: 0x0, symName: __ZNK7QString3argIS_Lb1EEES_RKT_i5QChar, symObjAddr: 0x9F20, symBinAddr: 0x13130, symSize: 0x70 }
  - { offset: 0xC7461, size: 0x8, addend: 0x0, symName: __ZN5QCharC1IDsLb1EEET_, symObjAddr: 0x9F90, symBinAddr: 0x131A0, symSize: 0x30 }
  - { offset: 0xC74D5, size: 0x8, addend: 0x0, symName: __ZN2Yy8YyPluginC2Ev, symObjAddr: 0x9FC0, symBinAddr: 0x131D0, symSize: 0x40 }
  - { offset: 0xC7502, size: 0x8, addend: 0x0, symName: __ZN5Tiled17WritableMapFormatC2EP7QObject, symObjAddr: 0xA000, symBinAddr: 0x13210, symSize: 0x40 }
  - { offset: 0xC753A, size: 0x8, addend: 0x0, symName: __ZN2Yy8YyPluginC1Ev, symObjAddr: 0xA060, symBinAddr: 0x13250, symSize: 0x20 }
  - { offset: 0xC759E, size: 0x8, addend: 0x0, symName: __ZN2Yy8YyPlugin5writeEPKN5Tiled3MapERK7QString6QFlagsINS1_10FileFormat6OptionEE, symObjAddr: 0xA080, symBinAddr: 0x13270, symSize: 0x1930 }
  - { offset: 0xC7A21, size: 0x8, addend: 0x0, symName: __ZN5Tiled8SaveFile4openE6QFlagsIN13QIODeviceBase12OpenModeFlagEE, symObjAddr: 0xB9B0, symBinAddr: 0x14BA0, symSize: 0x40 }
  - { offset: 0xC7A55, size: 0x8, addend: 0x0, symName: __ZorN13QIODeviceBase12OpenModeFlagES0_, symObjAddr: 0xB9F0, symBinAddr: 0x14BE0, symSize: 0x40 }
  - { offset: 0xC7A90, size: 0x8, addend: 0x0, symName: __ZN7QStringaSEOS_, symObjAddr: 0xBA30, symBinAddr: 0x14C20, symSize: 0x30 }
  - { offset: 0xC7AC5, size: 0x8, addend: 0x0, symName: __ZN2Yy7ContextC1Ev, symObjAddr: 0xBA60, symBinAddr: 0x14C50, symSize: 0x20 }
  - { offset: 0xC7AF2, size: 0x8, addend: 0x0, symName: __ZNSt3__110unique_ptrIN5Tiled11MapRendererENS_14default_deleteIS2_EEEaSB9nqe210106EOS5_, symObjAddr: 0xBA80, symBinAddr: 0x14C70, symSize: 0x40 }
  - { offset: 0xC7B26, size: 0x8, addend: 0x0, symName: __ZNSt3__110unique_ptrIN5Tiled11MapRendererENS_14default_deleteIS2_EEED1B9nqe210106Ev, symObjAddr: 0xBAC0, symBinAddr: 0x14CB0, symSize: 0x20 }
  - { offset: 0xC7B50, size: 0x8, addend: 0x0, symName: __ZL12readPropertyI7QStringEvPKN5Tiled6ObjectERKS0_RT_, symObjAddr: 0xBAE0, symBinAddr: 0x14CD0, symSize: 0xF0 }
  - { offset: 0xC7BB2, size: 0x8, addend: 0x0, symName: __ZL12readPropertyIbEvPKN5Tiled6ObjectERK7QStringRT_, symObjAddr: 0xBBD0, symBinAddr: 0x14DC0, symSize: 0xE0 }
  - { offset: 0xC7C14, size: 0x8, addend: 0x0, symName: __ZL12readPropertyIdEvPKN5Tiled6ObjectERK7QStringRT_, symObjAddr: 0xBCB0, symBinAddr: 0x14EA0, symSize: 0xE0 }
  - { offset: 0xC7C76, size: 0x8, addend: 0x0, symName: __ZL13processLayersRNSt3__16vectorINS_10unique_ptrIN2Yy8GMRLayerENS_14default_deleteIS3_EEEENS_9allocatorIS6_EEEERK5QListIPN5Tiled5LayerEERNS2_7ContextE, symObjAddr: 0xBD90, symBinAddr: 0x14F80, symSize: 0xCA0 }
  - { offset: 0xC7DA7, size: 0x8, addend: 0x0, symName: __ZNK5Tiled3Map6layersEv, symObjAddr: 0xCA30, symBinAddr: 0x15C20, symSize: 0x20 }
  - { offset: 0xC7DCF, size: 0x8, addend: 0x0, symName: __ZNK5Tiled3Map15backgroundColorEv, symObjAddr: 0xCA50, symBinAddr: 0x15C40, symSize: 0x20 }
  - { offset: 0xC7DF7, size: 0x8, addend: 0x0, symName: __ZNK6QColor7isValidEv, symObjAddr: 0xCA70, symBinAddr: 0x15C60, symSize: 0x20 }
  - { offset: 0xC7E1F, size: 0x8, addend: 0x0, symName: __ZNKSt3__110unique_ptrIN2Yy18GMRBackgroundLayerENS_14default_deleteIS2_EEEptB9nqe210106Ev, symObjAddr: 0xCB00, symBinAddr: 0x15CF0, symSize: 0x20 }
  - { offset: 0xC7E45, size: 0x8, addend: 0x0, symName: __ZNSt3__16vectorINS_10unique_ptrIN2Yy8GMRLayerENS_14default_deleteIS3_EEEENS_9allocatorIS6_EEE9push_backB9nqe210106EOS6_, symObjAddr: 0xCB20, symBinAddr: 0x15D10, symSize: 0x30 }
  - { offset: 0xC7E7A, size: 0x8, addend: 0x0, symName: __ZNSt3__110unique_ptrIN2Yy8GMRLayerENS_14default_deleteIS2_EEEC1B9nqe210106INS1_18GMRBackgroundLayerENS3_IS7_EEvvEEONS0_IT_T0_EE, symObjAddr: 0xCB50, symBinAddr: 0x15D40, symSize: 0x30 }
  - { offset: 0xC7EC8, size: 0x8, addend: 0x0, symName: __ZNSt3__110unique_ptrIN2Yy8GMRLayerENS_14default_deleteIS2_EEED1B9nqe210106Ev, symObjAddr: 0xCB80, symBinAddr: 0x15D70, symSize: 0x20 }
  - { offset: 0xC7EF2, size: 0x8, addend: 0x0, symName: __ZNSt3__110unique_ptrIN2Yy18GMRBackgroundLayerENS_14default_deleteIS2_EEED1B9nqe210106Ev, symObjAddr: 0xCBA0, symBinAddr: 0x15D90, symSize: 0x20 }
  - { offset: 0xC7F21, size: 0x8, addend: 0x0, symName: __ZL15autoAssignDepthRKNSt3__16vectorINS_10unique_ptrIN2Yy8GMRLayerENS_14default_deleteIS3_EEEENS_9allocatorIS6_EEEE, symObjAddr: 0xCBC0, symBinAddr: 0x15DB0, symSize: 0x470 }
  - { offset: 0xC804E, size: 0x8, addend: 0x0, symName: __ZNKSt3__16vectorIN2Yy7GMRViewENS_9allocatorIS2_EEE5emptyB9nqe210106Ev, symObjAddr: 0xD030, symBinAddr: 0x16220, symSize: 0x20 }
  - { offset: 0xC8074, size: 0x8, addend: 0x0, symName: __ZNSt3__16vectorIN2Yy7GMRViewENS_9allocatorIS2_EEE6resizeEm, symObjAddr: 0xD050, symBinAddr: 0x16240, symSize: 0x70 }
  - { offset: 0xC80BB, size: 0x8, addend: 0x0, symName: __ZNSt3__16vectorIN2Yy16InstanceCreationENS_9allocatorIS2_EEE5beginB9nqe210106Ev, symObjAddr: 0xD100, symBinAddr: 0x162F0, symSize: 0x40 }
  - { offset: 0xC80E1, size: 0x8, addend: 0x0, symName: __ZNSt3__16vectorIN2Yy16InstanceCreationENS_9allocatorIS2_EEE3endB9nqe210106Ev, symObjAddr: 0xD140, symBinAddr: 0x16330, symSize: 0x40 }
  - { offset: 0xC8107, size: 0x8, addend: 0x0, symName: __ZNK5Tiled3Map9tileWidthEv, symObjAddr: 0xD180, symBinAddr: 0x16370, symSize: 0x20 }
  - { offset: 0xC812F, size: 0x8, addend: 0x0, symName: __ZNK5Tiled3Map5widthEv, symObjAddr: 0xD1A0, symBinAddr: 0x16390, symSize: 0x20 }
  - { offset: 0xC8157, size: 0x8, addend: 0x0, symName: __ZNK5Tiled3Map10tileHeightEv, symObjAddr: 0xD1C0, symBinAddr: 0x163B0, symSize: 0x20 }
  - { offset: 0xC817F, size: 0x8, addend: 0x0, symName: __ZNK5Tiled3Map6heightEv, symObjAddr: 0xD1E0, symBinAddr: 0x163D0, symSize: 0x20 }
  - { offset: 0xC81A7, size: 0x8, addend: 0x0, symName: __ZL8readTagsPKN5Tiled6ObjectE, symObjAddr: 0xD200, symBinAddr: 0x163F0, symSize: 0x140 }
  - { offset: 0xC81F7, size: 0x8, addend: 0x0, symName: __ZN5QListI7QStringEaSEOS1_, symObjAddr: 0xD340, symBinAddr: 0x16530, symSize: 0x30 }
  - { offset: 0xC8228, size: 0x8, addend: 0x0, symName: __ZNK5Tiled8SaveFile6deviceEv, symObjAddr: 0xD390, symBinAddr: 0x16560, symSize: 0x20 }
  - { offset: 0xC824F, size: 0x8, addend: 0x0, symName: __ZN2Yy10JsonWriter11setMinimizeEb, symObjAddr: 0xD3B0, symBinAddr: 0x16580, symSize: 0x20 }
  - { offset: 0xC8284, size: 0x8, addend: 0x0, symName: __ZNK6QFlagsIN5Tiled10FileFormat6OptionEE8testFlagES2_, symObjAddr: 0xD3D0, symBinAddr: 0x165A0, symSize: 0x40 }
  - { offset: 0xC82B8, size: 0x8, addend: 0x0, symName: __ZNK5Tiled8SaveFile11errorStringEv, symObjAddr: 0xD410, symBinAddr: 0x165E0, symSize: 0x40 }
  - { offset: 0xC82DF, size: 0x8, addend: 0x0, symName: __ZN2Yy10JsonWriterD1Ev, symObjAddr: 0xD450, symBinAddr: 0x16620, symSize: 0x20 }
  - { offset: 0xC830B, size: 0x8, addend: 0x0, symName: __ZN2Yy7ContextD1Ev, symObjAddr: 0xD470, symBinAddr: 0x16640, symSize: 0x20 }
  - { offset: 0xC8338, size: 0x8, addend: 0x0, symName: __ZN5Tiled8SaveFileD1Ev, symObjAddr: 0xD490, symBinAddr: 0x16660, symSize: 0x20 }
  - { offset: 0xC8364, size: 0x8, addend: 0x0, symName: __ZNK2Yy8YyPlugin11errorStringEv, symObjAddr: 0xD4B0, symBinAddr: 0x16680, symSize: 0x30 }
  - { offset: 0xC838D, size: 0x8, addend: 0x0, symName: __ZN7QStringC1ERKS_, symObjAddr: 0xD4E0, symBinAddr: 0x166B0, symSize: 0x30 }
  - { offset: 0xC83C8, size: 0x8, addend: 0x0, symName: __ZNK2Yy8YyPlugin10nameFilterEv, symObjAddr: 0xD510, symBinAddr: 0x166E0, symSize: 0x40 }
  - { offset: 0xC83F1, size: 0x8, addend: 0x0, symName: __ZN2Yy8YyPlugin2trEPKcS2_i, symObjAddr: 0xD550, symBinAddr: 0x16720, symSize: 0x40 }
  - { offset: 0xC8435, size: 0x8, addend: 0x0, symName: __ZNK2Yy8YyPlugin9shortNameEv, symObjAddr: 0xD590, symBinAddr: 0x16760, symSize: 0x90 }
  - { offset: 0xC8487, size: 0x8, addend: 0x0, symName: __ZN2Yy10GMResourceD1Ev, symObjAddr: 0xD620, symBinAddr: 0x167F0, symSize: 0x20 }
  - { offset: 0xC84B1, size: 0x8, addend: 0x0, symName: __ZN2Yy10GMResourceD0Ev, symObjAddr: 0xD640, symBinAddr: 0x16810, symSize: 0x30 }
  - { offset: 0xC84DB, size: 0x8, addend: 0x0, symName: __ZN2Yy10GMRGraphicD1Ev, symObjAddr: 0xD670, symBinAddr: 0x16840, symSize: 0x20 }
  - { offset: 0xC8507, size: 0x8, addend: 0x0, symName: __ZN2Yy10GMRGraphicD0Ev, symObjAddr: 0xD690, symBinAddr: 0x16860, symSize: 0x30 }
  - { offset: 0xC8533, size: 0x8, addend: 0x0, symName: __ZN2Yy20GMOverriddenPropertyD1Ev, symObjAddr: 0xD6C0, symBinAddr: 0x16890, symSize: 0x20 }
  - { offset: 0xC8560, size: 0x8, addend: 0x0, symName: __ZN2Yy20GMOverriddenPropertyD0Ev, symObjAddr: 0xD6E0, symBinAddr: 0x168B0, symSize: 0x30 }
  - { offset: 0xC858D, size: 0x8, addend: 0x0, symName: __ZN2Yy11GMRInstanceD1Ev, symObjAddr: 0xD710, symBinAddr: 0x168E0, symSize: 0x20 }
  - { offset: 0xC85BA, size: 0x8, addend: 0x0, symName: __ZN2Yy11GMRInstanceD0Ev, symObjAddr: 0xD730, symBinAddr: 0x16900, symSize: 0x30 }
  - { offset: 0xC85E7, size: 0x8, addend: 0x0, symName: __ZN2Yy6GMPathD1Ev, symObjAddr: 0xD760, symBinAddr: 0x16930, symSize: 0x20 }
  - { offset: 0xC8614, size: 0x8, addend: 0x0, symName: __ZN2Yy6GMPathD0Ev, symObjAddr: 0xD780, symBinAddr: 0x16950, symSize: 0x30 }
  - { offset: 0xC8641, size: 0x8, addend: 0x0, symName: __ZN2Yy8GMRLayerD1Ev, symObjAddr: 0xD7B0, symBinAddr: 0x16980, symSize: 0x20 }
  - { offset: 0xC866E, size: 0x8, addend: 0x0, symName: __ZN2Yy8GMRLayerD0Ev, symObjAddr: 0xD7D0, symBinAddr: 0x169A0, symSize: 0x30 }
  - { offset: 0xC869B, size: 0x8, addend: 0x0, symName: __ZN2Yy12GMRTileLayerD1Ev, symObjAddr: 0xD800, symBinAddr: 0x169D0, symSize: 0x20 }
  - { offset: 0xC86C8, size: 0x8, addend: 0x0, symName: __ZN2Yy12GMRTileLayerD0Ev, symObjAddr: 0xD820, symBinAddr: 0x169F0, symSize: 0x30 }
  - { offset: 0xC86F5, size: 0x8, addend: 0x0, symName: __ZN2Yy13GMRAssetLayerD1Ev, symObjAddr: 0xD850, symBinAddr: 0x16A20, symSize: 0x20 }
  - { offset: 0xC8722, size: 0x8, addend: 0x0, symName: __ZN2Yy13GMRAssetLayerD0Ev, symObjAddr: 0xD870, symBinAddr: 0x16A40, symSize: 0x30 }
  - { offset: 0xC874F, size: 0x8, addend: 0x0, symName: __ZN2Yy16GMRInstanceLayerD1Ev, symObjAddr: 0xD8A0, symBinAddr: 0x16A70, symSize: 0x20 }
  - { offset: 0xC877C, size: 0x8, addend: 0x0, symName: __ZN2Yy16GMRInstanceLayerD0Ev, symObjAddr: 0xD8C0, symBinAddr: 0x16A90, symSize: 0x30 }
  - { offset: 0xC87A9, size: 0x8, addend: 0x0, symName: __ZN2Yy12GMRPathLayerD1Ev, symObjAddr: 0xD8F0, symBinAddr: 0x16AC0, symSize: 0x20 }
  - { offset: 0xC87D6, size: 0x8, addend: 0x0, symName: __ZN2Yy12GMRPathLayerD0Ev, symObjAddr: 0xD910, symBinAddr: 0x16AE0, symSize: 0x30 }
  - { offset: 0xC8803, size: 0x8, addend: 0x0, symName: __ZN2Yy18GMRBackgroundLayerD1Ev, symObjAddr: 0xD940, symBinAddr: 0x16B10, symSize: 0x20 }
  - { offset: 0xC8830, size: 0x8, addend: 0x0, symName: __ZN2Yy18GMRBackgroundLayerD0Ev, symObjAddr: 0xD960, symBinAddr: 0x16B30, symSize: 0x30 }
  - { offset: 0xC885D, size: 0x8, addend: 0x0, symName: __ZN2Yy6GMRoomD1Ev, symObjAddr: 0xD990, symBinAddr: 0x16B60, symSize: 0x20 }
  - { offset: 0xC888A, size: 0x8, addend: 0x0, symName: __ZN2Yy6GMRoomD0Ev, symObjAddr: 0xD9B0, symBinAddr: 0x16B80, symSize: 0x30 }
  - { offset: 0xC88B7, size: 0x8, addend: 0x0, symName: ___cxx_global_var_init, symObjAddr: 0x4C8D0, symBinAddr: 0x520F0, symSize: 0x40 }
  - { offset: 0xC88CB, size: 0x8, addend: 0x0, symName: __ZNSt3__18functionIFvRKN5Tiled10JumpToTileEEEC1B9nqe210106Ev, symObjAddr: 0xD9E0, symBinAddr: 0x16BB0, symSize: 0x20 }
  - { offset: 0xC88F5, size: 0x8, addend: 0x0, symName: __ZNSt3__18functionIFvRKN5Tiled10JumpToTileEEED1Ev, symObjAddr: 0xDA00, symBinAddr: 0x16BD0, symSize: 0x20 }
  - { offset: 0xC891F, size: 0x8, addend: 0x0, symName: ___cxx_global_var_init.136, symObjAddr: 0x4C910, symBinAddr: 0x52130, symSize: 0x3C }
  - { offset: 0xC8933, size: 0x8, addend: 0x0, symName: __ZNSt3__18functionIFvRKN5Tiled12JumpToObjectEEEC1B9nqe210106Ev, symObjAddr: 0xDA20, symBinAddr: 0x16BF0, symSize: 0x20 }
  - { offset: 0xC895D, size: 0x8, addend: 0x0, symName: __ZNSt3__18functionIFvRKN5Tiled12JumpToObjectEEED1Ev, symObjAddr: 0xDA40, symBinAddr: 0x16C10, symSize: 0x20 }
  - { offset: 0xC8987, size: 0x8, addend: 0x0, symName: __ZNSt3__14pairI7QString10QJsonValueEC2B9nqe210106IRA8_KcRKbLi0EEEOT_OT0_, symObjAddr: 0xDA60, symBinAddr: 0x16C30, symSize: 0x70 }
  - { offset: 0xC89E5, size: 0x8, addend: 0x0, symName: __ZNSt3__14pairI7QString10QJsonValueEC2B9nqe210106IRA6_KcRKiLi0EEEOT_OT0_, symObjAddr: 0xDAD0, symBinAddr: 0x16CA0, symSize: 0x60 }
  - { offset: 0xC8A43, size: 0x8, addend: 0x0, symName: __ZNSt3__14pairI7QString10QJsonValueEC2B9nqe210106IRA8_KcRKiLi0EEEOT_OT0_, symObjAddr: 0xDB30, symBinAddr: 0x16D00, symSize: 0x60 }
  - { offset: 0xC8AA1, size: 0x8, addend: 0x0, symName: __ZNSt3__14pairI7QString10QJsonValueEC2B9nqe210106IRA7_KcRKiLi0EEEOT_OT0_, symObjAddr: 0xDB90, symBinAddr: 0x16D60, symSize: 0x60 }
  - { offset: 0xC8B3D, size: 0x8, addend: 0x0, symName: __ZNK7QString3argIJRKS_S2_EEENSt3__19enable_ifIXaagesZT_Li2Esr3stdE13conjunction_vIDpNS3_11conjunctionIJNS3_8negationIN9QtPrivate21treat_as_integral_argIu11__remove_cvIT_EEEEENS3_14is_convertibleIS9_14QAnyStringViewEEEEEEES_E4typeEDpOS9_, symObjAddr: 0xDBF0, symBinAddr: 0x16DC0, symSize: 0x1B0 }
  - { offset: 0xC8C04, size: 0x8, addend: 0x0, symName: __Z25qToStringViewIgnoringNullI7QStringLb1EE11QStringViewRKT_, symObjAddr: 0xDDA0, symBinAddr: 0x16F70, symSize: 0x50 }
  - { offset: 0xC8C42, size: 0x8, addend: 0x0, symName: __ZN14QAnyStringViewC1E11QStringView, symObjAddr: 0xDFB0, symBinAddr: 0x16FC0, symSize: 0x60 }
  - { offset: 0xC8C7A, size: 0x8, addend: 0x0, symName: __ZN14QAnyStringViewC1ERK7QString, symObjAddr: 0xE050, symBinAddr: 0x17060, symSize: 0x50 }
  - { offset: 0xC8CB6, size: 0x8, addend: 0x0, symName: __ZN14QAnyStringViewC1I5QCharLb1EEEPKT_x, symObjAddr: 0xE0E0, symBinAddr: 0x170F0, symSize: 0x30 }
  - { offset: 0xC8D0B, size: 0x8, addend: 0x0, symName: __ZNK11QStringView4dataEv, symObjAddr: 0xE110, symBinAddr: 0x17120, symSize: 0x20 }
  - { offset: 0xC8D31, size: 0x8, addend: 0x0, symName: __ZNK11QStringView4sizeEv, symObjAddr: 0xE150, symBinAddr: 0x17160, symSize: 0x20 }
  - { offset: 0xC8D57, size: 0x8, addend: 0x0, symName: __ZN14QAnyStringViewC2I5QCharLb1EEEPKT_x, symObjAddr: 0xE170, symBinAddr: 0x17180, symSize: 0x50 }
  - { offset: 0xC8DAC, size: 0x8, addend: 0x0, symName: __ZN14QAnyStringView10encodeTypeI5QCharEEmPKT_x, symObjAddr: 0xE1C0, symBinAddr: 0x171D0, symSize: 0xD0 }
  - { offset: 0xC8DE6, size: 0x8, addend: 0x0, symName: __ZN14QAnyStringView29isAsciiOnlyCharsAtCompileTimeIK5QCharEEbPT_x, symObjAddr: 0xE290, symBinAddr: 0x172A0, symSize: 0x20 }
  - { offset: 0xC8E20, size: 0x8, addend: 0x0, symName: __ZN9QtPrivate13QAnyStringArgC1E14QAnyStringView, symObjAddr: 0xE2B0, symBinAddr: 0x172C0, symSize: 0x30 }
  - { offset: 0xC8E59, size: 0x8, addend: 0x0, symName: __ZN9QtPrivate13QAnyStringArgC2E14QAnyStringView, symObjAddr: 0xE2E0, symBinAddr: 0x172F0, symSize: 0x30 }
  - { offset: 0xC8E92, size: 0x8, addend: 0x0, symName: __ZNSt3__14pairI7QString10QJsonValueEC2B9nqe210106IRA9_KcS2_Li0EEEOT_OT0_, symObjAddr: 0xE490, symBinAddr: 0x17320, symSize: 0x40 }
  - { offset: 0xC8EF0, size: 0x8, addend: 0x0, symName: __ZNSt3__14pairI7QString10QJsonValueED2Ev, symObjAddr: 0xE4D0, symBinAddr: 0x17360, symSize: 0x30 }
  - { offset: 0xC8F21, size: 0x8, addend: 0x0, symName: __ZN14QByteArrayViewC1IPKcLb1EEERKT_, symObjAddr: 0xE520, symBinAddr: 0x17390, symSize: 0x70 }
  - { offset: 0xC8F68, size: 0x8, addend: 0x0, symName: __ZN14QByteArrayViewC1IcLb1EEEPKT_x, symObjAddr: 0xE5E0, symBinAddr: 0x17450, symSize: 0x30 }
  - { offset: 0xC8FBD, size: 0x8, addend: 0x0, symName: __ZN14QByteArrayViewC2IcLb1EEEPKT_x, symObjAddr: 0xE610, symBinAddr: 0x17480, symSize: 0x90 }
  - { offset: 0xC9012, size: 0x8, addend: 0x0, symName: __ZN14QByteArrayView10castHelperEPKc, symObjAddr: 0xE6A0, symBinAddr: 0x17510, symSize: 0x10 }
  - { offset: 0xC9035, size: 0x8, addend: 0x0, symName: __ZN10QByteArraypLEPKc, symObjAddr: 0xE6B0, symBinAddr: 0x17520, symSize: 0x30 }
  - { offset: 0xC906A, size: 0x8, addend: 0x0, symName: __ZN10QByteArrayC1EOS_, symObjAddr: 0xE6E0, symBinAddr: 0x17550, symSize: 0x30 }
  - { offset: 0xC90A2, size: 0x8, addend: 0x0, symName: __ZN10QByteArray6appendEPKc, symObjAddr: 0xE710, symBinAddr: 0x17580, symSize: 0x30 }
  - { offset: 0xC90D7, size: 0x8, addend: 0x0, symName: __ZN10QByteArray6appendEPKcx, symObjAddr: 0xE740, symBinAddr: 0x175B0, symSize: 0x70 }
  - { offset: 0xC911B, size: 0x8, addend: 0x0, symName: __ZN10QByteArray6appendE14QByteArrayView, symObjAddr: 0xE7B0, symBinAddr: 0x17620, symSize: 0x50 }
  - { offset: 0xC9150, size: 0x8, addend: 0x0, symName: __ZN10QByteArrayC2EOS_, symObjAddr: 0xE8E0, symBinAddr: 0x17670, symSize: 0x30 }
  - { offset: 0xC9188, size: 0x8, addend: 0x0, symName: __ZN17QArrayDataPointerIcEC1EOS0_, symObjAddr: 0xE910, symBinAddr: 0x176A0, symSize: 0x30 }
  - { offset: 0xC91C0, size: 0x8, addend: 0x0, symName: __ZN17QArrayDataPointerIcEC2EOS0_, symObjAddr: 0xE940, symBinAddr: 0x176D0, symSize: 0x90 }
  - { offset: 0xC91F8, size: 0x8, addend: 0x0, symName: __ZN7QString8fromUtf8IvEES_RK10QByteArray, symObjAddr: 0xEA30, symBinAddr: 0x177C0, symSize: 0x50 }
  - { offset: 0xC921E, size: 0x8, addend: 0x0, symName: __ZN7QStringC1EOS_, symObjAddr: 0xEA80, symBinAddr: 0x17810, symSize: 0x30 }
  - { offset: 0xC9257, size: 0x8, addend: 0x0, symName: __ZN14QByteArrayViewC1I10QByteArrayLb1EEERKT_, symObjAddr: 0xEAB0, symBinAddr: 0x17840, symSize: 0x50 }
  - { offset: 0xC929E, size: 0x8, addend: 0x0, symName: __ZNK10QByteArray5beginEv, symObjAddr: 0xEB00, symBinAddr: 0x17890, symSize: 0x20 }
  - { offset: 0xC92C4, size: 0x8, addend: 0x0, symName: __ZN7QStringC2EOS_, symObjAddr: 0xEB40, symBinAddr: 0x178B0, symSize: 0x30 }
  - { offset: 0xC92FD, size: 0x8, addend: 0x0, symName: __ZNK5QListI7QStringE4sizeEv, symObjAddr: 0xEF00, symBinAddr: 0x178E0, symSize: 0x50 }
  - { offset: 0xC9367, size: 0x8, addend: 0x0, symName: __ZZNK5QListI7QStringE4sizeEvENKUlvE_clEv, symObjAddr: 0xEF50, symBinAddr: 0x17930, symSize: 0x50 }
  - { offset: 0xC9390, size: 0x8, addend: 0x0, symName: __Z5qRgbaiiii, symObjAddr: 0xF000, symBinAddr: 0x179E0, symSize: 0x50 }
  - { offset: 0xC93E6, size: 0x8, addend: 0x0, symName: __Z5qBluej, symObjAddr: 0xF050, symBinAddr: 0x17A30, symSize: 0x20 }
  - { offset: 0xC9412, size: 0x8, addend: 0x0, symName: __Z6qGreenj, symObjAddr: 0xF070, symBinAddr: 0x17A50, symSize: 0x20 }
  - { offset: 0xC943E, size: 0x8, addend: 0x0, symName: __Z4qRedj, symObjAddr: 0xF090, symBinAddr: 0x17A70, symSize: 0x20 }
  - { offset: 0xC946A, size: 0x8, addend: 0x0, symName: __Z6qAlphaj, symObjAddr: 0xF0B0, symBinAddr: 0x17A90, symSize: 0x10 }
  - { offset: 0xC9497, size: 0x8, addend: 0x0, symName: __ZNSt3__14pairI7QString10QJsonValueEC2B9nqe210106IRA5_KcRKS1_Li0EEEOT_OT0_, symObjAddr: 0xF0C0, symBinAddr: 0x17AA0, symSize: 0x60 }
  - { offset: 0xC94F5, size: 0x8, addend: 0x0, symName: __ZNSt3__14pairI7QString10QJsonValueEC2B9nqe210106IRA5_KcS1_Li0EEEOT_OT0_, symObjAddr: 0xF120, symBinAddr: 0x17B00, symSize: 0x60 }
  - { offset: 0xC9553, size: 0x8, addend: 0x0, symName: __ZNKSt3__111__wrap_iterIPKN2Yy20GMOverriddenPropertyEE4baseB9nqe210106Ev, symObjAddr: 0xF1C0, symBinAddr: 0x17BA0, symSize: 0x20 }
  - { offset: 0xC9579, size: 0x8, addend: 0x0, symName: __ZNSt3__14pairI7QString10QJsonValueEC2B9nqe210106IRA6_KcdLi0EEEOT_OT0_, symObjAddr: 0xF1E0, symBinAddr: 0x17BC0, symSize: 0x60 }
  - { offset: 0xC95D7, size: 0x8, addend: 0x0, symName: __ZNSt3__14pairI7QString10QJsonValueEC2B9nqe210106IRA2_KcdLi0EEEOT_OT0_, symObjAddr: 0xF240, symBinAddr: 0x17C20, symSize: 0x60 }
  - { offset: 0xC9635, size: 0x8, addend: 0x0, symName: __ZNKSt3__111__wrap_iterIPKNS_10unique_ptrIN2Yy8GMRLayerENS_14default_deleteIS3_EEEEE4baseB9nqe210106Ev, symObjAddr: 0xF2E0, symBinAddr: 0x17CC0, symSize: 0x20 }
  - { offset: 0xC965B, size: 0x8, addend: 0x0, symName: __ZNSt3__14pairI7QString10QJsonValueEC2B9nqe210106IRA15_KcRKiLi0EEEOT_OT0_, symObjAddr: 0xF300, symBinAddr: 0x17CE0, symSize: 0x60 }
  - { offset: 0xC96B9, size: 0x8, addend: 0x0, symName: __ZNSt3__14pairI7QString10QJsonValueEC2B9nqe210106IRA16_KcRKiLi0EEEOT_OT0_, symObjAddr: 0xF360, symBinAddr: 0x17D40, symSize: 0x60 }
  - { offset: 0xC9717, size: 0x8, addend: 0x0, symName: __ZNSt3__14pairI7QString10QJsonValueEC2B9nqe210106IRA18_KcR10QJsonArrayLi0EEEOT_OT0_, symObjAddr: 0xF3C0, symBinAddr: 0x17DA0, symSize: 0x60 }
  - { offset: 0xC9775, size: 0x8, addend: 0x0, symName: __ZNKSt3__111__wrap_iterIPKN2Yy10GMRGraphicEE4baseB9nqe210106Ev, symObjAddr: 0xF460, symBinAddr: 0x17E40, symSize: 0x20 }
  - { offset: 0xC979B, size: 0x8, addend: 0x0, symName: __ZNKSt3__111__wrap_iterIPKN2Yy11GMRInstanceEE4baseB9nqe210106Ev, symObjAddr: 0xF4C0, symBinAddr: 0x17EA0, symSize: 0x20 }
  - { offset: 0xC97C1, size: 0x8, addend: 0x0, symName: __ZNKSt3__111__wrap_iterIPKN2Yy7GMRViewEE4baseB9nqe210106Ev, symObjAddr: 0xF520, symBinAddr: 0x17F00, symSize: 0x20 }
  - { offset: 0xC97E7, size: 0x8, addend: 0x0, symName: __ZNKSt3__111__wrap_iterIPKN2Yy16InstanceCreationEE4baseB9nqe210106Ev, symObjAddr: 0xF580, symBinAddr: 0x17F60, symSize: 0x20 }
  - { offset: 0xC980D, size: 0x8, addend: 0x0, symName: __ZNSt3__14pairI7QString10QJsonValueEC2B9nqe210106IRA20_KcRKbLi0EEEOT_OT0_, symObjAddr: 0xF5A0, symBinAddr: 0x17F80, symSize: 0x70 }
  - { offset: 0xC986B, size: 0x8, addend: 0x0, symName: __ZNSt3__14pairI7QString10QJsonValueEC2B9nqe210106IRA11_KcRKbLi0EEEOT_OT0_, symObjAddr: 0xF610, symBinAddr: 0x17FF0, symSize: 0x70 }
  - { offset: 0xC98C9, size: 0x8, addend: 0x0, symName: __ZNSt3__14pairI7QString10QJsonValueEC2B9nqe210106IRA12_KcRKbLi0EEEOT_OT0_, symObjAddr: 0xF680, symBinAddr: 0x18060, symSize: 0x70 }
  - { offset: 0xC9927, size: 0x8, addend: 0x0, symName: __ZNSt3__14pairI7QString10QJsonValueEC2B9nqe210106IRA19_KcRKbLi0EEEOT_OT0_, symObjAddr: 0xF6F0, symBinAddr: 0x180D0, symSize: 0x70 }
  - { offset: 0xC9985, size: 0x8, addend: 0x0, symName: __ZNSt3__14pairI7QString10QJsonValueEC2B9nqe210106IRA23_KcRKbLi0EEEOT_OT0_, symObjAddr: 0xF760, symBinAddr: 0x18140, symSize: 0x70 }
  - { offset: 0xC99E3, size: 0x8, addend: 0x0, symName: __ZNSt3__14pairI7QString10QJsonValueEC2B9nqe210106IRA13_KcRKbLi0EEEOT_OT0_, symObjAddr: 0xF7D0, symBinAddr: 0x181B0, symSize: 0x70 }
  - { offset: 0xC9A41, size: 0x8, addend: 0x0, symName: __ZNSt3__14pairI7QString10QJsonValueEC2B9nqe210106IRA21_KcRKdLi0EEEOT_OT0_, symObjAddr: 0xF840, symBinAddr: 0x18220, symSize: 0x60 }
  - { offset: 0xC9A9F, size: 0x8, addend: 0x0, symName: __ZNSt3__14pairI7QString10QJsonValueEC2B9nqe210106IRA24_KcRKdLi0EEEOT_OT0_, symObjAddr: 0xF8A0, symBinAddr: 0x18280, symSize: 0x60 }
  - { offset: 0xC9AFD, size: 0x8, addend: 0x0, symName: __ZN5QCharC2IDsLb1EEET_, symObjAddr: 0xF900, symBinAddr: 0x182E0, symSize: 0x20 }
  - { offset: 0xC9B44, size: 0x8, addend: 0x0, symName: __ZN5Tiled9MapFormatC2EP7QObject, symObjAddr: 0xF920, symBinAddr: 0x18300, symSize: 0x40 }
  - { offset: 0xC9B7C, size: 0x8, addend: 0x0, symName: __ZNKSt3__110unique_ptrI11QFileDeviceNS_14default_deleteIS1_EEEptB9nqe210106Ev, symObjAddr: 0xF9D0, symBinAddr: 0x18340, symSize: 0x20 }
  - { offset: 0xC9BA2, size: 0x8, addend: 0x0, symName: __ZN6QFlagsIN13QIODeviceBase12OpenModeFlagEEC1ES1_, symObjAddr: 0xF9F0, symBinAddr: 0x18360, symSize: 0x30 }
  - { offset: 0xC9BDA, size: 0x8, addend: 0x0, symName: __ZNK6QFlagsIN13QIODeviceBase12OpenModeFlagEEorES1_, symObjAddr: 0xFA20, symBinAddr: 0x18390, symSize: 0x40 }
  - { offset: 0xC9C0E, size: 0x8, addend: 0x0, symName: __ZN6QFlagsIN13QIODeviceBase12OpenModeFlagEEC2ES1_, symObjAddr: 0xFA60, symBinAddr: 0x183D0, symSize: 0x30 }
  - { offset: 0xC9C46, size: 0x8, addend: 0x0, symName: __ZN9QtPrivate19QFlagsStorageHelperIN13QIODeviceBase12OpenModeFlagELi4EECI2NS_13QFlagsStorageIS2_EEENSt3__110in_place_tEj, symObjAddr: 0xFA90, symBinAddr: 0x18400, symSize: 0x30 }
  - { offset: 0xC9C84, size: 0x8, addend: 0x0, symName: __ZN9QtPrivate13QFlagsStorageIN13QIODeviceBase12OpenModeFlagEEC2ENSt3__110in_place_tEj, symObjAddr: 0xFAC0, symBinAddr: 0x18430, symSize: 0x20 }
  - { offset: 0xC9CC6, size: 0x8, addend: 0x0, symName: __ZN6QFlagsIN13QIODeviceBase12OpenModeFlagEECI1N9QtPrivate13QFlagsStorageIS1_EEENSt3__110in_place_tEj, symObjAddr: 0xFAE0, symBinAddr: 0x18450, symSize: 0x30 }
  - { offset: 0xC9D04, size: 0x8, addend: 0x0, symName: __ZN6QFlagsIN13QIODeviceBase12OpenModeFlagEECI2N9QtPrivate13QFlagsStorageIS1_EEENSt3__110in_place_tEj, symObjAddr: 0xFB10, symBinAddr: 0x18480, symSize: 0x30 }
  - { offset: 0xC9D42, size: 0x8, addend: 0x0, symName: __ZN7QString4swapERS_, symObjAddr: 0xFB40, symBinAddr: 0x184B0, symSize: 0x30 }
  - { offset: 0xC9D77, size: 0x8, addend: 0x0, symName: __ZN17QArrayDataPointerIDsE4swapERS0_, symObjAddr: 0xFB70, symBinAddr: 0x184E0, symSize: 0x60 }
  - { offset: 0xC9DAA, size: 0x8, addend: 0x0, symName: __Z11qt_ptr_swapI15QTypedArrayDataIDsEEvRPT_S4_, symObjAddr: 0xFBD0, symBinAddr: 0x18540, symSize: 0x40 }
  - { offset: 0xC9DF7, size: 0x8, addend: 0x0, symName: __Z11qt_ptr_swapIDsEvRPT_S2_, symObjAddr: 0xFC10, symBinAddr: 0x18580, symSize: 0x40 }
  - { offset: 0xC9E45, size: 0x8, addend: 0x0, symName: __ZN2Yy7ContextC2Ev, symObjAddr: 0xFC90, symBinAddr: 0x185C0, symSize: 0xF0 }
  - { offset: 0xC9E72, size: 0x8, addend: 0x0, symName: __ZN2Yy6GMRoomC1Ev, symObjAddr: 0xFD80, symBinAddr: 0x186B0, symSize: 0x20 }
  - { offset: 0xC9E9C, size: 0x8, addend: 0x0, symName: __ZNSt3__16vectorIN2Yy6GMPathENS_9allocatorIS2_EEEC1B9nqe210106Ev, symObjAddr: 0xFDA0, symBinAddr: 0x186D0, symSize: 0x20 }
  - { offset: 0xC9EC6, size: 0x8, addend: 0x0, symName: __ZNSt3__110unique_ptrIN5Tiled11MapRendererENS_14default_deleteIS2_EEEC1B9nqe210106ILb1EvEEv, symObjAddr: 0xFDC0, symBinAddr: 0x186F0, symSize: 0x20 }
  - { offset: 0xC9EFC, size: 0x8, addend: 0x0, symName: __ZN4QSetI7QStringEC1Ev, symObjAddr: 0xFDE0, symBinAddr: 0x18710, symSize: 0x20 }
  - { offset: 0xC9F26, size: 0x8, addend: 0x0, symName: __ZN5QHashIPKN5Tiled9MapObjectE7QStringEC1Ev, symObjAddr: 0xFE00, symBinAddr: 0x18730, symSize: 0x20 }
  - { offset: 0xC9F50, size: 0x8, addend: 0x0, symName: __ZN5QHashI7QStringS0_EC1Ev, symObjAddr: 0xFE20, symBinAddr: 0x18750, symSize: 0x20 }
  - { offset: 0xC9F7A, size: 0x8, addend: 0x0, symName: __ZNSt3__16vectorIN2Yy6GMPathENS_9allocatorIS2_EEED1B9nqe210106Ev, symObjAddr: 0xFE40, symBinAddr: 0x18770, symSize: 0x20 }
  - { offset: 0xC9FA4, size: 0x8, addend: 0x0, symName: __ZN2Yy6GMRoomC2Ev, symObjAddr: 0xFE60, symBinAddr: 0x18790, symSize: 0x190 }
  - { offset: 0xC9FFC, size: 0x8, addend: 0x0, symName: __ZN2Yy10GMResourceC2ENS_12ResourceTypeE, symObjAddr: 0xFFF0, symBinAddr: 0x18920, symSize: 0xC0 }
  - { offset: 0xCA05C, size: 0x8, addend: 0x0, symName: __ZNSt3__16vectorIN2Yy7GMRViewENS_9allocatorIS2_EEEC1B9nqe210106Ev, symObjAddr: 0x100B0, symBinAddr: 0x189E0, symSize: 0x20 }
  - { offset: 0xCA086, size: 0x8, addend: 0x0, symName: __ZNSt3__16vectorINS_10unique_ptrIN2Yy8GMRLayerENS_14default_deleteIS3_EEEENS_9allocatorIS6_EEEC1B9nqe210106Ev, symObjAddr: 0x100D0, symBinAddr: 0x18A00, symSize: 0x20 }
  - { offset: 0xCA0B0, size: 0x8, addend: 0x0, symName: __ZNSt3__16vectorIN2Yy16InstanceCreationENS_9allocatorIS2_EEEC1B9nqe210106Ev, symObjAddr: 0x100F0, symBinAddr: 0x18A20, symSize: 0x20 }
  - { offset: 0xCA0DF, size: 0x8, addend: 0x0, symName: __ZN2Yy6GMRoomUt_C1Ev, symObjAddr: 0x10110, symBinAddr: 0x18A40, symSize: 0x20 }
  - { offset: 0xCA111, size: 0x8, addend: 0x0, symName: __ZN2Yy6GMRoomUt0_C1Ev, symObjAddr: 0x10130, symBinAddr: 0x18A60, symSize: 0x20 }
  - { offset: 0xCA143, size: 0x8, addend: 0x0, symName: __ZN2Yy6GMRoomUt1_C1Ev, symObjAddr: 0x10150, symBinAddr: 0x18A80, symSize: 0x20 }
  - { offset: 0xCA170, size: 0x8, addend: 0x0, symName: __ZNSt3__16vectorIN2Yy16InstanceCreationENS_9allocatorIS2_EEED1B9nqe210106Ev, symObjAddr: 0x10170, symBinAddr: 0x18AA0, symSize: 0x20 }
  - { offset: 0xCA19A, size: 0x8, addend: 0x0, symName: __ZNSt3__16vectorINS_10unique_ptrIN2Yy8GMRLayerENS_14default_deleteIS3_EEEENS_9allocatorIS6_EEED1B9nqe210106Ev, symObjAddr: 0x10190, symBinAddr: 0x18AC0, symSize: 0x20 }
  - { offset: 0xCA1C4, size: 0x8, addend: 0x0, symName: __ZNSt3__16vectorIN2Yy7GMRViewENS_9allocatorIS2_EEED1B9nqe210106Ev, symObjAddr: 0x101B0, symBinAddr: 0x18AE0, symSize: 0x20 }
  - { offset: 0xCA1EE, size: 0x8, addend: 0x0, symName: __ZN2Yy10GMResourceD2Ev, symObjAddr: 0x101D0, symBinAddr: 0x18B00, symSize: 0x50 }
  - { offset: 0xCA218, size: 0x8, addend: 0x0, symName: __ZN5QListI7QStringEC1Ev, symObjAddr: 0x10220, symBinAddr: 0x18B50, symSize: 0x20 }
  - { offset: 0xCA242, size: 0x8, addend: 0x0, symName: __ZN5QListI7QStringEC2Ev, symObjAddr: 0x102C0, symBinAddr: 0x18B70, symSize: 0x20 }
  - { offset: 0xCA26C, size: 0x8, addend: 0x0, symName: __ZN17QArrayDataPointerI7QStringEC1Ev, symObjAddr: 0x102E0, symBinAddr: 0x18B90, symSize: 0x20 }
  - { offset: 0xCA296, size: 0x8, addend: 0x0, symName: __ZN17QArrayDataPointerI7QStringEC2Ev, symObjAddr: 0x10300, symBinAddr: 0x18BB0, symSize: 0x30 }
  - { offset: 0xCA2C0, size: 0x8, addend: 0x0, symName: __ZNSt3__16vectorIN2Yy7GMRViewENS_9allocatorIS2_EEEC2B9nqe210106Ev, symObjAddr: 0x10330, symBinAddr: 0x18BE0, symSize: 0x40 }
  - { offset: 0xCA2EA, size: 0x8, addend: 0x0, symName: __ZNSt3__19allocatorIN2Yy7GMRViewEEC1B9nqe210106Ev, symObjAddr: 0x10370, symBinAddr: 0x18C20, symSize: 0x20 }
  - { offset: 0xCA314, size: 0x8, addend: 0x0, symName: __ZNSt3__19allocatorIN2Yy7GMRViewEEC2B9nqe210106Ev, symObjAddr: 0x10390, symBinAddr: 0x18C40, symSize: 0x20 }
  - { offset: 0xCA33E, size: 0x8, addend: 0x0, symName: __ZNSt3__116__non_trivial_ifILb1ENS_9allocatorIN2Yy7GMRViewEEEEC2B9nqe210106Ev, symObjAddr: 0x103B0, symBinAddr: 0x18C60, symSize: 0x10 }
  - { offset: 0xCA368, size: 0x8, addend: 0x0, symName: __ZNSt3__16vectorINS_10unique_ptrIN2Yy8GMRLayerENS_14default_deleteIS3_EEEENS_9allocatorIS6_EEEC2B9nqe210106Ev, symObjAddr: 0x103C0, symBinAddr: 0x18C70, symSize: 0x40 }
  - { offset: 0xCA392, size: 0x8, addend: 0x0, symName: __ZNSt3__19allocatorINS_10unique_ptrIN2Yy8GMRLayerENS_14default_deleteIS3_EEEEEC1B9nqe210106Ev, symObjAddr: 0x10400, symBinAddr: 0x18CB0, symSize: 0x20 }
  - { offset: 0xCA3BC, size: 0x8, addend: 0x0, symName: __ZNSt3__19allocatorINS_10unique_ptrIN2Yy8GMRLayerENS_14default_deleteIS3_EEEEEC2B9nqe210106Ev, symObjAddr: 0x10420, symBinAddr: 0x18CD0, symSize: 0x20 }
  - { offset: 0xCA3E6, size: 0x8, addend: 0x0, symName: __ZNSt3__116__non_trivial_ifILb1ENS_9allocatorINS_10unique_ptrIN2Yy8GMRLayerENS_14default_deleteIS4_EEEEEEEC2B9nqe210106Ev, symObjAddr: 0x10440, symBinAddr: 0x18CF0, symSize: 0x10 }
  - { offset: 0xCA410, size: 0x8, addend: 0x0, symName: __ZNSt3__16vectorIN2Yy16InstanceCreationENS_9allocatorIS2_EEEC2B9nqe210106Ev, symObjAddr: 0x10450, symBinAddr: 0x18D00, symSize: 0x40 }
  - { offset: 0xCA43A, size: 0x8, addend: 0x0, symName: __ZNSt3__19allocatorIN2Yy16InstanceCreationEEC1B9nqe210106Ev, symObjAddr: 0x10490, symBinAddr: 0x18D40, symSize: 0x20 }
  - { offset: 0xCA464, size: 0x8, addend: 0x0, symName: __ZNSt3__19allocatorIN2Yy16InstanceCreationEEC2B9nqe210106Ev, symObjAddr: 0x104B0, symBinAddr: 0x18D60, symSize: 0x20 }
  - { offset: 0xCA48E, size: 0x8, addend: 0x0, symName: __ZNSt3__116__non_trivial_ifILb1ENS_9allocatorIN2Yy16InstanceCreationEEEEC2B9nqe210106Ev, symObjAddr: 0x104D0, symBinAddr: 0x18D80, symSize: 0x10 }
  - { offset: 0xCA4B8, size: 0x8, addend: 0x0, symName: __ZN2Yy6GMRoomUt_C2Ev, symObjAddr: 0x104E0, symBinAddr: 0x18D90, symSize: 0x30 }
  - { offset: 0xCA4E5, size: 0x8, addend: 0x0, symName: __ZN2Yy6GMRoomUt0_C2Ev, symObjAddr: 0x10510, symBinAddr: 0x18DC0, symSize: 0x20 }
  - { offset: 0xCA512, size: 0x8, addend: 0x0, symName: __ZN2Yy6GMRoomUt1_C2Ev, symObjAddr: 0x10530, symBinAddr: 0x18DE0, symSize: 0x40 }
  - { offset: 0xCA53F, size: 0x8, addend: 0x0, symName: __ZNSt3__16vectorIN2Yy16InstanceCreationENS_9allocatorIS2_EEED2B9nqe210106Ev, symObjAddr: 0x10570, symBinAddr: 0x18E20, symSize: 0x40 }
  - { offset: 0xCA569, size: 0x8, addend: 0x0, symName: __ZNSt3__16vectorIN2Yy16InstanceCreationENS_9allocatorIS2_EEE16__destroy_vectorC1B9nqe210106ERS5_, symObjAddr: 0x105B0, symBinAddr: 0x18E60, symSize: 0x30 }
  - { offset: 0xCA5A1, size: 0x8, addend: 0x0, symName: __ZNSt3__16vectorIN2Yy16InstanceCreationENS_9allocatorIS2_EEE16__destroy_vectorclB9nqe210106Ev, symObjAddr: 0x105E0, symBinAddr: 0x18E90, symSize: 0x70 }
  - { offset: 0xCA5C7, size: 0x8, addend: 0x0, symName: __ZNSt3__16vectorIN2Yy16InstanceCreationENS_9allocatorIS2_EEE16__destroy_vectorC2B9nqe210106ERS5_, symObjAddr: 0x10650, symBinAddr: 0x18F00, symSize: 0x20 }
  - { offset: 0xCA5FF, size: 0x8, addend: 0x0, symName: __ZNSt3__16vectorIN2Yy16InstanceCreationENS_9allocatorIS2_EEE5clearB9nqe210106Ev, symObjAddr: 0x10670, symBinAddr: 0x18F20, symSize: 0x40 }
  - { offset: 0xCA635, size: 0x8, addend: 0x0, symName: __ZNKSt3__16vectorIN2Yy16InstanceCreationENS_9allocatorIS2_EEE17__annotate_deleteB9nqe210106Ev, symObjAddr: 0x106B0, symBinAddr: 0x18F60, symSize: 0x80 }
  - { offset: 0xCA65B, size: 0x8, addend: 0x0, symName: __ZNSt3__116allocator_traitsINS_9allocatorIN2Yy16InstanceCreationEEEE10deallocateB9nqe210106ERS4_PS3_m, symObjAddr: 0x10730, symBinAddr: 0x18FE0, symSize: 0x30 }
  - { offset: 0xCA69D, size: 0x8, addend: 0x0, symName: __ZNKSt3__16vectorIN2Yy16InstanceCreationENS_9allocatorIS2_EEE8capacityB9nqe210106Ev, symObjAddr: 0x10760, symBinAddr: 0x19010, symSize: 0x20 }
  - { offset: 0xCA6C3, size: 0x8, addend: 0x0, symName: __ZNKSt3__16vectorIN2Yy16InstanceCreationENS_9allocatorIS2_EEE4sizeB9nqe210106Ev, symObjAddr: 0x10780, symBinAddr: 0x19030, symSize: 0x20 }
  - { offset: 0xCA6E9, size: 0x8, addend: 0x0, symName: __ZNSt3__16vectorIN2Yy16InstanceCreationENS_9allocatorIS2_EEE22__base_destruct_at_endB9nqe210106EPS2_, symObjAddr: 0x107A0, symBinAddr: 0x19050, symSize: 0x80 }
  - { offset: 0xCA72E, size: 0x8, addend: 0x0, symName: __ZNKSt3__16vectorIN2Yy16InstanceCreationENS_9allocatorIS2_EEE17__annotate_shrinkB9nqe210106Em, symObjAddr: 0x10820, symBinAddr: 0x190D0, symSize: 0x70 }
  - { offset: 0xCA763, size: 0x8, addend: 0x0, symName: __ZNSt3__116allocator_traitsINS_9allocatorIN2Yy16InstanceCreationEEEE7destroyB9nqe210106IS3_Li0EEEvRS4_PT_, symObjAddr: 0x10890, symBinAddr: 0x19140, symSize: 0x30 }
  - { offset: 0xCA7A5, size: 0x8, addend: 0x0, symName: __ZNSt3__19allocatorIN2Yy16InstanceCreationEE7destroyB9nqe210106EPS2_, symObjAddr: 0x108D0, symBinAddr: 0x19180, symSize: 0x20 }
  - { offset: 0xCA7DE, size: 0x8, addend: 0x0, symName: __ZN2Yy16InstanceCreationD1Ev, symObjAddr: 0x108F0, symBinAddr: 0x191A0, symSize: 0x20 }
  - { offset: 0xCA80B, size: 0x8, addend: 0x0, symName: __ZN2Yy16InstanceCreationD2Ev, symObjAddr: 0x10910, symBinAddr: 0x191C0, symSize: 0x20 }
  - { offset: 0xCA838, size: 0x8, addend: 0x0, symName: __ZNKSt3__16vectorIN2Yy16InstanceCreationENS_9allocatorIS2_EEE31__annotate_contiguous_containerB9nqe210106EPKvS7_, symObjAddr: 0x10930, symBinAddr: 0x191E0, symSize: 0x60 }
  - { offset: 0xCA87C, size: 0x8, addend: 0x0, symName: __ZNKSt3__16vectorIN2Yy16InstanceCreationENS_9allocatorIS2_EEE4dataB9nqe210106Ev, symObjAddr: 0x10990, symBinAddr: 0x19240, symSize: 0x20 }
  - { offset: 0xCA8A2, size: 0x8, addend: 0x0, symName: __ZNSt3__19allocatorIN2Yy16InstanceCreationEE10deallocateB9nqe210106EPS2_m, symObjAddr: 0x109D0, symBinAddr: 0x19280, symSize: 0x30 }
  - { offset: 0xCA8E4, size: 0x8, addend: 0x0, symName: __ZNSt3__16vectorINS_10unique_ptrIN2Yy8GMRLayerENS_14default_deleteIS3_EEEENS_9allocatorIS6_EEED2B9nqe210106Ev, symObjAddr: 0x10A70, symBinAddr: 0x19320, symSize: 0x40 }
  - { offset: 0xCA90E, size: 0x8, addend: 0x0, symName: __ZNSt3__16vectorINS_10unique_ptrIN2Yy8GMRLayerENS_14default_deleteIS3_EEEENS_9allocatorIS6_EEE16__destroy_vectorC1B9nqe210106ERS9_, symObjAddr: 0x10AB0, symBinAddr: 0x19360, symSize: 0x30 }
  - { offset: 0xCA946, size: 0x8, addend: 0x0, symName: __ZNSt3__16vectorINS_10unique_ptrIN2Yy8GMRLayerENS_14default_deleteIS3_EEEENS_9allocatorIS6_EEE16__destroy_vectorclB9nqe210106Ev, symObjAddr: 0x10AE0, symBinAddr: 0x19390, symSize: 0x70 }
  - { offset: 0xCA96C, size: 0x8, addend: 0x0, symName: __ZNSt3__16vectorINS_10unique_ptrIN2Yy8GMRLayerENS_14default_deleteIS3_EEEENS_9allocatorIS6_EEE16__destroy_vectorC2B9nqe210106ERS9_, symObjAddr: 0x10B50, symBinAddr: 0x19400, symSize: 0x20 }
  - { offset: 0xCA9A4, size: 0x8, addend: 0x0, symName: __ZNSt3__16vectorINS_10unique_ptrIN2Yy8GMRLayerENS_14default_deleteIS3_EEEENS_9allocatorIS6_EEE5clearB9nqe210106Ev, symObjAddr: 0x10B70, symBinAddr: 0x19420, symSize: 0x40 }
  - { offset: 0xCA9DA, size: 0x8, addend: 0x0, symName: __ZNKSt3__16vectorINS_10unique_ptrIN2Yy8GMRLayerENS_14default_deleteIS3_EEEENS_9allocatorIS6_EEE17__annotate_deleteB9nqe210106Ev, symObjAddr: 0x10BB0, symBinAddr: 0x19460, symSize: 0x80 }
  - { offset: 0xCAA00, size: 0x8, addend: 0x0, symName: __ZNSt3__116allocator_traitsINS_9allocatorINS_10unique_ptrIN2Yy8GMRLayerENS_14default_deleteIS4_EEEEEEE10deallocateB9nqe210106ERS8_PS7_m, symObjAddr: 0x10C30, symBinAddr: 0x194E0, symSize: 0x30 }
  - { offset: 0xCAA42, size: 0x8, addend: 0x0, symName: __ZNKSt3__16vectorINS_10unique_ptrIN2Yy8GMRLayerENS_14default_deleteIS3_EEEENS_9allocatorIS6_EEE8capacityB9nqe210106Ev, symObjAddr: 0x10C60, symBinAddr: 0x19510, symSize: 0x20 }
  - { offset: 0xCAA68, size: 0x8, addend: 0x0, symName: __ZNKSt3__16vectorINS_10unique_ptrIN2Yy8GMRLayerENS_14default_deleteIS3_EEEENS_9allocatorIS6_EEE4sizeB9nqe210106Ev, symObjAddr: 0x10C80, symBinAddr: 0x19530, symSize: 0x20 }
  - { offset: 0xCAA8E, size: 0x8, addend: 0x0, symName: __ZNSt3__16vectorINS_10unique_ptrIN2Yy8GMRLayerENS_14default_deleteIS3_EEEENS_9allocatorIS6_EEE22__base_destruct_at_endB9nqe210106EPS6_, symObjAddr: 0x10CA0, symBinAddr: 0x19550, symSize: 0x80 }
  - { offset: 0xCAAD3, size: 0x8, addend: 0x0, symName: __ZNKSt3__16vectorINS_10unique_ptrIN2Yy8GMRLayerENS_14default_deleteIS3_EEEENS_9allocatorIS6_EEE17__annotate_shrinkB9nqe210106Em, symObjAddr: 0x10D20, symBinAddr: 0x195D0, symSize: 0x70 }
  - { offset: 0xCAB08, size: 0x8, addend: 0x0, symName: __ZNSt3__116allocator_traitsINS_9allocatorINS_10unique_ptrIN2Yy8GMRLayerENS_14default_deleteIS4_EEEEEEE7destroyB9nqe210106IS7_Li0EEEvRS8_PT_, symObjAddr: 0x10D90, symBinAddr: 0x19640, symSize: 0x30 }
  - { offset: 0xCAB4A, size: 0x8, addend: 0x0, symName: __ZNSt3__19allocatorINS_10unique_ptrIN2Yy8GMRLayerENS_14default_deleteIS3_EEEEE7destroyB9nqe210106EPS6_, symObjAddr: 0x10DD0, symBinAddr: 0x19680, symSize: 0x20 }
  - { offset: 0xCAB7E, size: 0x8, addend: 0x0, symName: __ZNKSt3__16vectorINS_10unique_ptrIN2Yy8GMRLayerENS_14default_deleteIS3_EEEENS_9allocatorIS6_EEE31__annotate_contiguous_containerB9nqe210106EPKvSB_, symObjAddr: 0x10DF0, symBinAddr: 0x196A0, symSize: 0x60 }
  - { offset: 0xCABC2, size: 0x8, addend: 0x0, symName: __ZNKSt3__16vectorINS_10unique_ptrIN2Yy8GMRLayerENS_14default_deleteIS3_EEEENS_9allocatorIS6_EEE4dataB9nqe210106Ev, symObjAddr: 0x10E50, symBinAddr: 0x19700, symSize: 0x20 }
  - { offset: 0xCABE8, size: 0x8, addend: 0x0, symName: __ZNSt3__19allocatorINS_10unique_ptrIN2Yy8GMRLayerENS_14default_deleteIS3_EEEEE10deallocateB9nqe210106EPS6_m, symObjAddr: 0x10E90, symBinAddr: 0x19740, symSize: 0x30 }
  - { offset: 0xCAC2A, size: 0x8, addend: 0x0, symName: __ZNSt3__16vectorIN2Yy7GMRViewENS_9allocatorIS2_EEED2B9nqe210106Ev, symObjAddr: 0x10F10, symBinAddr: 0x197C0, symSize: 0x40 }
  - { offset: 0xCAC54, size: 0x8, addend: 0x0, symName: __ZNSt3__16vectorIN2Yy7GMRViewENS_9allocatorIS2_EEE16__destroy_vectorC1B9nqe210106ERS5_, symObjAddr: 0x10F50, symBinAddr: 0x19800, symSize: 0x30 }
  - { offset: 0xCAC8C, size: 0x8, addend: 0x0, symName: __ZNSt3__16vectorIN2Yy7GMRViewENS_9allocatorIS2_EEE16__destroy_vectorclB9nqe210106Ev, symObjAddr: 0x10F80, symBinAddr: 0x19830, symSize: 0x70 }
  - { offset: 0xCACB2, size: 0x8, addend: 0x0, symName: __ZNSt3__16vectorIN2Yy7GMRViewENS_9allocatorIS2_EEE16__destroy_vectorC2B9nqe210106ERS5_, symObjAddr: 0x10FF0, symBinAddr: 0x198A0, symSize: 0x20 }
  - { offset: 0xCACEA, size: 0x8, addend: 0x0, symName: __ZNSt3__16vectorIN2Yy7GMRViewENS_9allocatorIS2_EEE5clearB9nqe210106Ev, symObjAddr: 0x11010, symBinAddr: 0x198C0, symSize: 0x40 }
  - { offset: 0xCAD20, size: 0x8, addend: 0x0, symName: __ZNKSt3__16vectorIN2Yy7GMRViewENS_9allocatorIS2_EEE17__annotate_deleteB9nqe210106Ev, symObjAddr: 0x11050, symBinAddr: 0x19900, symSize: 0x80 }
  - { offset: 0xCAD46, size: 0x8, addend: 0x0, symName: __ZNSt3__116allocator_traitsINS_9allocatorIN2Yy7GMRViewEEEE10deallocateB9nqe210106ERS4_PS3_m, symObjAddr: 0x110D0, symBinAddr: 0x19980, symSize: 0x30 }
  - { offset: 0xCAD88, size: 0x8, addend: 0x0, symName: __ZNKSt3__16vectorIN2Yy7GMRViewENS_9allocatorIS2_EEE8capacityB9nqe210106Ev, symObjAddr: 0x11100, symBinAddr: 0x199B0, symSize: 0x30 }
  - { offset: 0xCADAE, size: 0x8, addend: 0x0, symName: __ZNKSt3__16vectorIN2Yy7GMRViewENS_9allocatorIS2_EEE4sizeB9nqe210106Ev, symObjAddr: 0x11130, symBinAddr: 0x199E0, symSize: 0x30 }
  - { offset: 0xCADD4, size: 0x8, addend: 0x0, symName: __ZNSt3__16vectorIN2Yy7GMRViewENS_9allocatorIS2_EEE22__base_destruct_at_endB9nqe210106EPS2_, symObjAddr: 0x11160, symBinAddr: 0x19A10, symSize: 0x80 }
  - { offset: 0xCAE19, size: 0x8, addend: 0x0, symName: __ZNKSt3__16vectorIN2Yy7GMRViewENS_9allocatorIS2_EEE17__annotate_shrinkB9nqe210106Em, symObjAddr: 0x111E0, symBinAddr: 0x19A90, symSize: 0x80 }
  - { offset: 0xCAE4E, size: 0x8, addend: 0x0, symName: __ZNSt3__116allocator_traitsINS_9allocatorIN2Yy7GMRViewEEEE7destroyB9nqe210106IS3_Li0EEEvRS4_PT_, symObjAddr: 0x11260, symBinAddr: 0x19B10, symSize: 0x30 }
  - { offset: 0xCAE90, size: 0x8, addend: 0x0, symName: __ZNSt3__19allocatorIN2Yy7GMRViewEE7destroyB9nqe210106EPS2_, symObjAddr: 0x112A0, symBinAddr: 0x19B50, symSize: 0x20 }
  - { offset: 0xCAEC9, size: 0x8, addend: 0x0, symName: __ZN2Yy7GMRViewD1Ev, symObjAddr: 0x112C0, symBinAddr: 0x19B70, symSize: 0x20 }
  - { offset: 0xCAEF5, size: 0x8, addend: 0x0, symName: __ZN2Yy7GMRViewD2Ev, symObjAddr: 0x112E0, symBinAddr: 0x19B90, symSize: 0x20 }
  - { offset: 0xCAF21, size: 0x8, addend: 0x0, symName: __ZNKSt3__16vectorIN2Yy7GMRViewENS_9allocatorIS2_EEE31__annotate_contiguous_containerB9nqe210106EPKvS7_, symObjAddr: 0x11300, symBinAddr: 0x19BB0, symSize: 0x60 }
  - { offset: 0xCAF65, size: 0x8, addend: 0x0, symName: __ZNKSt3__16vectorIN2Yy7GMRViewENS_9allocatorIS2_EEE4dataB9nqe210106Ev, symObjAddr: 0x11360, symBinAddr: 0x19C10, symSize: 0x20 }
  - { offset: 0xCAF8B, size: 0x8, addend: 0x0, symName: __ZNSt3__19allocatorIN2Yy7GMRViewEE10deallocateB9nqe210106EPS2_m, symObjAddr: 0x113A0, symBinAddr: 0x19C50, symSize: 0x30 }
  - { offset: 0xCAFCD, size: 0x8, addend: 0x0, symName: __ZNSt3__16vectorIN2Yy6GMPathENS_9allocatorIS2_EEEC2B9nqe210106Ev, symObjAddr: 0x11420, symBinAddr: 0x19CD0, symSize: 0x40 }
  - { offset: 0xCAFF7, size: 0x8, addend: 0x0, symName: __ZNSt3__19allocatorIN2Yy6GMPathEEC1B9nqe210106Ev, symObjAddr: 0x11460, symBinAddr: 0x19D10, symSize: 0x20 }
  - { offset: 0xCB021, size: 0x8, addend: 0x0, symName: __ZNSt3__19allocatorIN2Yy6GMPathEEC2B9nqe210106Ev, symObjAddr: 0x11480, symBinAddr: 0x19D30, symSize: 0x20 }
  - { offset: 0xCB04B, size: 0x8, addend: 0x0, symName: __ZNSt3__116__non_trivial_ifILb1ENS_9allocatorIN2Yy6GMPathEEEEC2B9nqe210106Ev, symObjAddr: 0x114A0, symBinAddr: 0x19D50, symSize: 0x10 }
  - { offset: 0xCB075, size: 0x8, addend: 0x0, symName: __ZNSt3__110unique_ptrIN5Tiled11MapRendererENS_14default_deleteIS2_EEEC2B9nqe210106ILb1EvEEv, symObjAddr: 0x114B0, symBinAddr: 0x19D60, symSize: 0x20 }
  - { offset: 0xCB0AB, size: 0x8, addend: 0x0, symName: __ZN4QSetI7QStringEC2Ev, symObjAddr: 0x114D0, symBinAddr: 0x19D80, symSize: 0x20 }
  - { offset: 0xCB0D5, size: 0x8, addend: 0x0, symName: __ZN5QHashI7QString15QHashDummyValueEC1Ev, symObjAddr: 0x114F0, symBinAddr: 0x19DA0, symSize: 0x20 }
  - { offset: 0xCB0FF, size: 0x8, addend: 0x0, symName: __ZN5QHashI7QString15QHashDummyValueEC2Ev, symObjAddr: 0x11510, symBinAddr: 0x19DC0, symSize: 0x20 }
  - { offset: 0xCB129, size: 0x8, addend: 0x0, symName: __ZN5QHashIPKN5Tiled9MapObjectE7QStringEC2Ev, symObjAddr: 0x11530, symBinAddr: 0x19DE0, symSize: 0x20 }
  - { offset: 0xCB153, size: 0x8, addend: 0x0, symName: __ZN5QHashI7QStringS0_EC2Ev, symObjAddr: 0x11550, symBinAddr: 0x19E00, symSize: 0x20 }
  - { offset: 0xCB17D, size: 0x8, addend: 0x0, symName: __ZNSt3__16vectorIN2Yy6GMPathENS_9allocatorIS2_EEED2B9nqe210106Ev, symObjAddr: 0x11570, symBinAddr: 0x19E20, symSize: 0x40 }
  - { offset: 0xCB1A7, size: 0x8, addend: 0x0, symName: __ZNSt3__16vectorIN2Yy6GMPathENS_9allocatorIS2_EEE16__destroy_vectorC1B9nqe210106ERS5_, symObjAddr: 0x115B0, symBinAddr: 0x19E60, symSize: 0x30 }
  - { offset: 0xCB1DF, size: 0x8, addend: 0x0, symName: __ZNSt3__16vectorIN2Yy6GMPathENS_9allocatorIS2_EEE16__destroy_vectorclB9nqe210106Ev, symObjAddr: 0x115E0, symBinAddr: 0x19E90, symSize: 0x70 }
  - { offset: 0xCB205, size: 0x8, addend: 0x0, symName: __ZNSt3__16vectorIN2Yy6GMPathENS_9allocatorIS2_EEE16__destroy_vectorC2B9nqe210106ERS5_, symObjAddr: 0x11650, symBinAddr: 0x19F00, symSize: 0x20 }
  - { offset: 0xCB23D, size: 0x8, addend: 0x0, symName: __ZNSt3__16vectorIN2Yy6GMPathENS_9allocatorIS2_EEE5clearB9nqe210106Ev, symObjAddr: 0x11670, symBinAddr: 0x19F20, symSize: 0x40 }
  - { offset: 0xCB273, size: 0x8, addend: 0x0, symName: __ZNKSt3__16vectorIN2Yy6GMPathENS_9allocatorIS2_EEE17__annotate_deleteB9nqe210106Ev, symObjAddr: 0x116B0, symBinAddr: 0x19F60, symSize: 0x80 }
  - { offset: 0xCB299, size: 0x8, addend: 0x0, symName: __ZNSt3__116allocator_traitsINS_9allocatorIN2Yy6GMPathEEEE10deallocateB9nqe210106ERS4_PS3_m, symObjAddr: 0x11730, symBinAddr: 0x19FE0, symSize: 0x30 }
  - { offset: 0xCB2DB, size: 0x8, addend: 0x0, symName: __ZNKSt3__16vectorIN2Yy6GMPathENS_9allocatorIS2_EEE8capacityB9nqe210106Ev, symObjAddr: 0x11760, symBinAddr: 0x1A010, symSize: 0x30 }
  - { offset: 0xCB301, size: 0x8, addend: 0x0, symName: __ZNKSt3__16vectorIN2Yy6GMPathENS_9allocatorIS2_EEE4sizeB9nqe210106Ev, symObjAddr: 0x11790, symBinAddr: 0x1A040, symSize: 0x30 }
  - { offset: 0xCB327, size: 0x8, addend: 0x0, symName: __ZNSt3__16vectorIN2Yy6GMPathENS_9allocatorIS2_EEE22__base_destruct_at_endB9nqe210106EPS2_, symObjAddr: 0x117C0, symBinAddr: 0x1A070, symSize: 0x80 }
  - { offset: 0xCB36C, size: 0x8, addend: 0x0, symName: __ZNKSt3__16vectorIN2Yy6GMPathENS_9allocatorIS2_EEE17__annotate_shrinkB9nqe210106Em, symObjAddr: 0x11840, symBinAddr: 0x1A0F0, symSize: 0x70 }
  - { offset: 0xCB3A1, size: 0x8, addend: 0x0, symName: __ZNSt3__116allocator_traitsINS_9allocatorIN2Yy6GMPathEEEE7destroyB9nqe210106IS3_Li0EEEvRS4_PT_, symObjAddr: 0x118B0, symBinAddr: 0x1A160, symSize: 0x30 }
  - { offset: 0xCB3E3, size: 0x8, addend: 0x0, symName: __ZNSt3__19allocatorIN2Yy6GMPathEE7destroyB9nqe210106EPS2_, symObjAddr: 0x118F0, symBinAddr: 0x1A1A0, symSize: 0x20 }
  - { offset: 0xCB417, size: 0x8, addend: 0x0, symName: __ZNKSt3__16vectorIN2Yy6GMPathENS_9allocatorIS2_EEE31__annotate_contiguous_containerB9nqe210106EPKvS7_, symObjAddr: 0x11910, symBinAddr: 0x1A1C0, symSize: 0x60 }
  - { offset: 0xCB45B, size: 0x8, addend: 0x0, symName: __ZNKSt3__16vectorIN2Yy6GMPathENS_9allocatorIS2_EEE4dataB9nqe210106Ev, symObjAddr: 0x11970, symBinAddr: 0x1A220, symSize: 0x20 }
  - { offset: 0xCB481, size: 0x8, addend: 0x0, symName: __ZNSt3__19allocatorIN2Yy6GMPathEE10deallocateB9nqe210106EPS2_m, symObjAddr: 0x119B0, symBinAddr: 0x1A260, symSize: 0x30 }
  - { offset: 0xCB4C3, size: 0x8, addend: 0x0, symName: __ZNK5QListIPN5Tiled5LayerEE6rbeginEv, symObjAddr: 0x11A30, symBinAddr: 0x1A2E0, symSize: 0x40 }
  - { offset: 0xCB4E9, size: 0x8, addend: 0x0, symName: __ZNK5QListIPN5Tiled5LayerEE4rendEv, symObjAddr: 0x11AB0, symBinAddr: 0x1A360, symSize: 0x40 }
  - { offset: 0xCB50F, size: 0x8, addend: 0x0, symName: __ZNKSt3__116reverse_iteratorIN5QListIPN5Tiled5LayerEE14const_iteratorEEdeB9nqe210106Ev, symObjAddr: 0x11AF0, symBinAddr: 0x1A3A0, symSize: 0x30 }
  - { offset: 0xCB543, size: 0x8, addend: 0x0, symName: __ZNSt3__110unique_ptrIN2Yy8GMRLayerENS_14default_deleteIS2_EEEC1B9nqe210106ILb1EvEEv, symObjAddr: 0x11B20, symBinAddr: 0x1A3D0, symSize: 0x20 }
  - { offset: 0xCB579, size: 0x8, addend: 0x0, symName: __ZNK5Tiled5Layer9layerTypeEv, symObjAddr: 0x11B40, symBinAddr: 0x1A3F0, symSize: 0x20 }
  - { offset: 0xCB5A4, size: 0x8, addend: 0x0, symName: __ZL16processTileLayerPKN5Tiled9TileLayerERN2Yy7ContextE, symObjAddr: 0x11B60, symBinAddr: 0x1A410, symSize: 0x860 }
  - { offset: 0xCB71F, size: 0x8, addend: 0x0, symName: __ZNSt3__110unique_ptrIN2Yy8GMRLayerENS_14default_deleteIS2_EEEaSB9nqe210106EOS5_, symObjAddr: 0x123C0, symBinAddr: 0x1AC70, symSize: 0x40 }
  - { offset: 0xCB762, size: 0x8, addend: 0x0, symName: __ZL17processImageLayerPKN5Tiled10ImageLayerERN2Yy7ContextE, symObjAddr: 0x16030, symBinAddr: 0x1E8E0, symSize: 0x810 }
  - { offset: 0xCB7FE, size: 0x8, addend: 0x0, symName: __ZNKSt3__110unique_ptrIN2Yy8GMRLayerENS_14default_deleteIS2_EEEcvbB9nqe210106Ev, symObjAddr: 0x168B0, symBinAddr: 0x1F160, symSize: 0x20 }
  - { offset: 0xCB824, size: 0x8, addend: 0x0, symName: __ZL16optionalPropertyIbET_PKN5Tiled6ObjectERK7QStringRKS0_, symObjAddr: 0x168D0, symBinAddr: 0x1F180, symSize: 0xF0 }
  - { offset: 0xCB88A, size: 0x8, addend: 0x0, symName: __ZNK5Tiled5Layer9isVisibleEv, symObjAddr: 0x169C0, symBinAddr: 0x1F270, symSize: 0x20 }
  - { offset: 0xCB8B0, size: 0x8, addend: 0x0, symName: __ZL16optionalPropertyIiET_PKN5Tiled6ObjectERK7QStringRKS0_, symObjAddr: 0x169E0, symBinAddr: 0x1F290, symSize: 0xF0 }
  - { offset: 0xCB916, size: 0x8, addend: 0x0, symName: __ZNK8QVariant7isValidEv, symObjAddr: 0x16AD0, symBinAddr: 0x1F380, symSize: 0x30 }
  - { offset: 0xCB93E, size: 0x8, addend: 0x0, symName: __ZNK5Tiled5Layer3mapEv, symObjAddr: 0x16B00, symBinAddr: 0x1F3B0, symSize: 0x20 }
  - { offset: 0xCB964, size: 0x8, addend: 0x0, symName: __ZNK5Tiled5Layer8isLockedEv, symObjAddr: 0x16B20, symBinAddr: 0x1F3D0, symSize: 0x20 }
  - { offset: 0xCB98F, size: 0x8, addend: 0x0, symName: __ZNK5Tiled5Layer4nameEv, symObjAddr: 0x16D10, symBinAddr: 0x1F5C0, symSize: 0x20 }
  - { offset: 0xCB9B5, size: 0x8, addend: 0x0, symName: __ZNK5Tiled5Layer12isGroupLayerEv, symObjAddr: 0x16D30, symBinAddr: 0x1F5E0, symSize: 0x20 }
  - { offset: 0xCB9DB, size: 0x8, addend: 0x0, symName: __ZNK5Tiled10GroupLayer6layersEv, symObjAddr: 0x16D50, symBinAddr: 0x1F600, symSize: 0x20 }
  - { offset: 0xCBA01, size: 0x8, addend: 0x0, symName: __ZNSt3__16vectorINS_10unique_ptrIN2Yy8GMRLayerENS_14default_deleteIS3_EEEENS_9allocatorIS6_EEE5beginB9nqe210106Ev, symObjAddr: 0x16D70, symBinAddr: 0x1F620, symSize: 0x40 }
  - { offset: 0xCBA27, size: 0x8, addend: 0x0, symName: __ZNSt3__16vectorINS_10unique_ptrIN2Yy8GMRLayerENS_14default_deleteIS3_EEEENS_9allocatorIS6_EEE3endB9nqe210106Ev, symObjAddr: 0x16DB0, symBinAddr: 0x1F660, symSize: 0x40 }
  - { offset: 0xCBA4D, size: 0x8, addend: 0x0, symName: __ZNKSt3__111__wrap_iterIPNS_10unique_ptrIN2Yy8GMRLayerENS_14default_deleteIS3_EEEEEdeB9nqe210106Ev, symObjAddr: 0x16E20, symBinAddr: 0x1F6D0, symSize: 0x20 }
  - { offset: 0xCBA73, size: 0x8, addend: 0x0, symName: __ZN5QListI7QStringEaSERKS1_, symObjAddr: 0x16E40, symBinAddr: 0x1F6F0, symSize: 0x30 }
  - { offset: 0xCBAA4, size: 0x8, addend: 0x0, symName: __ZNSt3__111__wrap_iterIPNS_10unique_ptrIN2Yy8GMRLayerENS_14default_deleteIS3_EEEEEppB9nqe210106Ev, symObjAddr: 0x16E70, symBinAddr: 0x1F720, symSize: 0x20 }
  - { offset: 0xCBACA, size: 0x8, addend: 0x0, symName: __ZNSt3__116reverse_iteratorIN5QListIPN5Tiled5LayerEE14const_iteratorEEppB9nqe210106Ev, symObjAddr: 0x16E90, symBinAddr: 0x1F740, symSize: 0x30 }
  - { offset: 0xCBAF0, size: 0x8, addend: 0x0, symName: __ZNK5QListIPN5Tiled5LayerEE3endEv, symObjAddr: 0x16EC0, symBinAddr: 0x1F770, symSize: 0x40 }
  - { offset: 0xCBB16, size: 0x8, addend: 0x0, symName: __ZNSt3__116reverse_iteratorIN5QListIPN5Tiled5LayerEE14const_iteratorEEC1B9nqe210106ES6_, symObjAddr: 0x16F00, symBinAddr: 0x1F7B0, symSize: 0x30 }
  - { offset: 0xCBB4E, size: 0x8, addend: 0x0, symName: __ZNK17QArrayDataPointerIPN5Tiled5LayerEEptEv, symObjAddr: 0x16F30, symBinAddr: 0x1F7E0, symSize: 0x10 }
  - { offset: 0xCBB74, size: 0x8, addend: 0x0, symName: __ZNK17QArrayDataPointerIPN5Tiled5LayerEE8constEndEv, symObjAddr: 0x16F40, symBinAddr: 0x1F7F0, symSize: 0x30 }
  - { offset: 0xCBB9A, size: 0x8, addend: 0x0, symName: __ZN5QListIPN5Tiled5LayerEE14const_iteratorC1EPKS2_, symObjAddr: 0x16F70, symBinAddr: 0x1F820, symSize: 0x30 }
  - { offset: 0xCBBD2, size: 0x8, addend: 0x0, symName: __ZNK17QArrayDataPointerIPN5Tiled5LayerEE4dataEv, symObjAddr: 0x16FA0, symBinAddr: 0x1F850, symSize: 0x20 }
  - { offset: 0xCBBF8, size: 0x8, addend: 0x0, symName: __ZN5QListIPN5Tiled5LayerEE14const_iteratorC2EPKS2_, symObjAddr: 0x16FC0, symBinAddr: 0x1F870, symSize: 0x20 }
  - { offset: 0xCBC30, size: 0x8, addend: 0x0, symName: __ZNSt3__116reverse_iteratorIN5QListIPN5Tiled5LayerEE14const_iteratorEEC2B9nqe210106ES6_, symObjAddr: 0x16FE0, symBinAddr: 0x1F890, symSize: 0x30 }
  - { offset: 0xCBC68, size: 0x8, addend: 0x0, symName: __ZNKSt3__116reverse_iteratorIN5QListIPN5Tiled5LayerEE14const_iteratorEE4baseB9nqe210106Ev, symObjAddr: 0x17010, symBinAddr: 0x1F8C0, symSize: 0x20 }
  - { offset: 0xCBC8E, size: 0x8, addend: 0x0, symName: __ZNK5QListIPN5Tiled5LayerEE14const_iteratorneES4_, symObjAddr: 0x17030, symBinAddr: 0x1F8E0, symSize: 0x20 }
  - { offset: 0xCBCC2, size: 0x8, addend: 0x0, symName: __ZNK5QListIPN5Tiled5LayerEE5beginEv, symObjAddr: 0x17050, symBinAddr: 0x1F900, symSize: 0x40 }
  - { offset: 0xCBCE8, size: 0x8, addend: 0x0, symName: __ZNK17QArrayDataPointerIPN5Tiled5LayerEE10constBeginEv, symObjAddr: 0x17090, symBinAddr: 0x1F940, symSize: 0x20 }
  - { offset: 0xCBD0E, size: 0x8, addend: 0x0, symName: __ZN5QListIPN5Tiled5LayerEE14const_iteratormmEv, symObjAddr: 0x170B0, symBinAddr: 0x1F960, symSize: 0x20 }
  - { offset: 0xCBD34, size: 0x8, addend: 0x0, symName: __ZNK5QListIPN5Tiled5LayerEE14const_iteratordeEv, symObjAddr: 0x170D0, symBinAddr: 0x1F980, symSize: 0x20 }
  - { offset: 0xCBD5A, size: 0x8, addend: 0x0, symName: __ZNSt3__110unique_ptrIN2Yy8GMRLayerENS_14default_deleteIS2_EEEC2B9nqe210106ILb1EvEEv, symObjAddr: 0x170F0, symBinAddr: 0x1F9A0, symSize: 0x20 }
  - { offset: 0xCBD90, size: 0x8, addend: 0x0, symName: __ZNSt3__16vectorIN2Yy10GMRGraphicENS_9allocatorIS2_EEEC1B9nqe210106Ev, symObjAddr: 0x17110, symBinAddr: 0x1F9C0, symSize: 0x20 }
  - { offset: 0xCBDBA, size: 0x8, addend: 0x0, symName: __ZNK5Tiled3Map11orientationEv, symObjAddr: 0x17130, symBinAddr: 0x1F9E0, symSize: 0x20 }
  - { offset: 0xCBDE2, size: 0x8, addend: 0x0, symName: __ZNK4QSetI14QSharedPointerIN5Tiled7TilesetEEE6valuesEv, symObjAddr: 0x17150, symBinAddr: 0x1FA00, symSize: 0x100 }
  - { offset: 0xCBE2B, size: 0x8, addend: 0x0, symName: __ZN4QSetI14QSharedPointerIN5Tiled7TilesetEEED1Ev, symObjAddr: 0x17250, symBinAddr: 0x1FB00, symSize: 0x20 }
  - { offset: 0xCBE57, size: 0x8, addend: 0x0, symName: __ZN5QListI14QSharedPointerIN5Tiled7TilesetEEE5beginEv, symObjAddr: 0x172B0, symBinAddr: 0x1FB60, symSize: 0x40 }
  - { offset: 0xCBE7D, size: 0x8, addend: 0x0, symName: __ZN5QListI14QSharedPointerIN5Tiled7TilesetEEE3endEv, symObjAddr: 0x172F0, symBinAddr: 0x1FBA0, symSize: 0x40 }
  - { offset: 0xCBEA3, size: 0x8, addend: 0x0, symName: __ZNK5QListI14QSharedPointerIN5Tiled7TilesetEEE5beginEv, symObjAddr: 0x17330, symBinAddr: 0x1FBE0, symSize: 0x40 }
  - { offset: 0xCBEC9, size: 0x8, addend: 0x0, symName: __ZNK5QListI14QSharedPointerIN5Tiled7TilesetEEE3endEv, symObjAddr: 0x17370, symBinAddr: 0x1FC20, symSize: 0x40 }
  - { offset: 0xCBEEF, size: 0x8, addend: 0x0, symName: __ZNK5QListI14QSharedPointerIN5Tiled7TilesetEEE14const_iteratorneES5_, symObjAddr: 0x173B0, symBinAddr: 0x1FC60, symSize: 0x20 }
  - { offset: 0xCBF23, size: 0x8, addend: 0x0, symName: __ZNK5QListI14QSharedPointerIN5Tiled7TilesetEEE14const_iteratordeEv, symObjAddr: 0x173D0, symBinAddr: 0x1FC80, symSize: 0x20 }
  - { offset: 0xCBF49, size: 0x8, addend: 0x0, symName: __ZNK14QSharedPointerIN5Tiled7TilesetEEptEv, symObjAddr: 0x173F0, symBinAddr: 0x1FCA0, symSize: 0x20 }
  - { offset: 0xCBF6F, size: 0x8, addend: 0x0, symName: __ZNK5Tiled7Tileset12isCollectionEv, symObjAddr: 0x17410, symBinAddr: 0x1FCC0, symSize: 0x50 }
  - { offset: 0xCBF96, size: 0x8, addend: 0x0, symName: __ZneRK5QSizeS1_, symObjAddr: 0x17460, symBinAddr: 0x1FD10, symSize: 0x30 }
  - { offset: 0xCBFD1, size: 0x8, addend: 0x0, symName: __ZNK5Tiled7Tileset8tileSizeEv, symObjAddr: 0x17490, symBinAddr: 0x1FD40, symSize: 0x30 }
  - { offset: 0xCBFF9, size: 0x8, addend: 0x0, symName: __ZNK5Tiled3Map8tileSizeEv, symObjAddr: 0x174C0, symBinAddr: 0x1FD70, symSize: 0x30 }
  - { offset: 0xCC021, size: 0x8, addend: 0x0, symName: __ZNK5Tiled7Tileset4nameEv, symObjAddr: 0x17560, symBinAddr: 0x1FE10, symSize: 0x20 }
  - { offset: 0xCC049, size: 0x8, addend: 0x0, symName: __ZNKSt3__110unique_ptrIN2Yy12GMRTileLayerENS_14default_deleteIS2_EEEptB9nqe210106Ev, symObjAddr: 0x17580, symBinAddr: 0x1FE30, symSize: 0x20 }
  - { offset: 0xCC074, size: 0x8, addend: 0x0, symName: __ZL13fillTileLayerRN2Yy12GMRTileLayerEPKN5Tiled9TileLayerEPKNS2_7TilesetE, symObjAddr: 0x175A0, symBinAddr: 0x1FE50, symSize: 0x530 }
  - { offset: 0xCC199, size: 0x8, addend: 0x0, symName: __ZNKSt3__110unique_ptrIN2Yy12GMRTileLayerENS_14default_deleteIS2_EEEdeB9nqe210106Ev, symObjAddr: 0x17AD0, symBinAddr: 0x20380, symSize: 0x20 }
  - { offset: 0xCC1BF, size: 0x8, addend: 0x0, symName: __ZNK14QSharedPointerIN5Tiled7TilesetEE4dataEv, symObjAddr: 0x17AF0, symBinAddr: 0x203A0, symSize: 0x20 }
  - { offset: 0xCC1E5, size: 0x8, addend: 0x0, symName: __ZNSt3__110unique_ptrIN2Yy8GMRLayerENS_14default_deleteIS2_EEEC1B9nqe210106INS1_12GMRTileLayerENS3_IS7_EEvvEEONS0_IT_T0_EE, symObjAddr: 0x17B10, symBinAddr: 0x203C0, symSize: 0x30 }
  - { offset: 0xCC233, size: 0x8, addend: 0x0, symName: __ZNSt3__110unique_ptrIN2Yy12GMRTileLayerENS_14default_deleteIS2_EEED1B9nqe210106Ev, symObjAddr: 0x17B40, symBinAddr: 0x203F0, symSize: 0x20 }
  - { offset: 0xCC25D, size: 0x8, addend: 0x0, symName: __ZN5QListI14QSharedPointerIN5Tiled7TilesetEEE14const_iteratorppEv, symObjAddr: 0x17B60, symBinAddr: 0x20410, symSize: 0x20 }
  - { offset: 0xCC283, size: 0x8, addend: 0x0, symName: __ZN5QListI14QSharedPointerIN5Tiled7TilesetEEED1Ev, symObjAddr: 0x17B80, symBinAddr: 0x20430, symSize: 0x20 }
  - { offset: 0xCC2AF, size: 0x8, addend: 0x0, symName: __ZNKSt3__16vectorIN2Yy10GMRGraphicENS_9allocatorIS2_EEE5emptyB9nqe210106Ev, symObjAddr: 0x17EC0, symBinAddr: 0x20770, symSize: 0x20 }
  - { offset: 0xCC2D5, size: 0x8, addend: 0x0, symName: __ZNKSt3__110unique_ptrIN2Yy13GMRAssetLayerENS_14default_deleteIS2_EEEptB9nqe210106Ev, symObjAddr: 0x17F50, symBinAddr: 0x20800, symSize: 0x20 }
  - { offset: 0xCC2FB, size: 0x8, addend: 0x0, symName: __ZNSt3__16vectorIN2Yy10GMRGraphicENS_9allocatorIS2_EEEaSB9nqe210106EOS5_, symObjAddr: 0x17F70, symBinAddr: 0x20820, symSize: 0x30 }
  - { offset: 0xCC330, size: 0x8, addend: 0x0, symName: __ZNSt3__110unique_ptrIN2Yy8GMRLayerENS_14default_deleteIS2_EEEC1B9nqe210106INS1_13GMRAssetLayerENS3_IS7_EEvvEEONS0_IT_T0_EE, symObjAddr: 0x17FA0, symBinAddr: 0x20850, symSize: 0x30 }
  - { offset: 0xCC37E, size: 0x8, addend: 0x0, symName: __ZNSt3__110unique_ptrIN2Yy13GMRAssetLayerENS_14default_deleteIS2_EEED1B9nqe210106Ev, symObjAddr: 0x17FD0, symBinAddr: 0x20880, symSize: 0x20 }
  - { offset: 0xCC3A8, size: 0x8, addend: 0x0, symName: __ZNSt3__16vectorINS_10unique_ptrIN2Yy8GMRLayerENS_14default_deleteIS3_EEEENS_9allocatorIS6_EEE5frontB9nqe210106Ev, symObjAddr: 0x17FF0, symBinAddr: 0x208A0, symSize: 0x20 }
  - { offset: 0xCC3CE, size: 0x8, addend: 0x0, symName: __ZNKSt3__16vectorINS_10unique_ptrIN2Yy8GMRLayerENS_14default_deleteIS3_EEEENS_9allocatorIS6_EEE5emptyB9nqe210106Ev, symObjAddr: 0x18010, symBinAddr: 0x208C0, symSize: 0x20 }
  - { offset: 0xCC3F4, size: 0x8, addend: 0x0, symName: __ZNSt3__110unique_ptrIN2Yy8GMRLayerENS_14default_deleteIS2_EEEaSB9nqe210106INS1_12GMRTileLayerENS3_IS7_EEvvEERS5_ONS0_IT_T0_EE, symObjAddr: 0x18030, symBinAddr: 0x208E0, symSize: 0x50 }
  - { offset: 0xCC43E, size: 0x8, addend: 0x0, symName: __ZNSt3__16vectorINS_10unique_ptrIN2Yy8GMRLayerENS_14default_deleteIS3_EEEENS_9allocatorIS6_EEEaSB9nqe210106EOS9_, symObjAddr: 0x18080, symBinAddr: 0x20930, symSize: 0x30 }
  - { offset: 0xCC473, size: 0x8, addend: 0x0, symName: __ZNSt3__16vectorIN2Yy10GMRGraphicENS_9allocatorIS2_EEED1B9nqe210106Ev, symObjAddr: 0x180B0, symBinAddr: 0x20960, symSize: 0x20 }
  - { offset: 0xCC49D, size: 0x8, addend: 0x0, symName: __ZNSt3__16vectorIN2Yy10GMRGraphicENS_9allocatorIS2_EEEC2B9nqe210106Ev, symObjAddr: 0x180D0, symBinAddr: 0x20980, symSize: 0x40 }
  - { offset: 0xCC4C7, size: 0x8, addend: 0x0, symName: __ZNSt3__19allocatorIN2Yy10GMRGraphicEEC1B9nqe210106Ev, symObjAddr: 0x18110, symBinAddr: 0x209C0, symSize: 0x20 }
  - { offset: 0xCC4F1, size: 0x8, addend: 0x0, symName: __ZNSt3__19allocatorIN2Yy10GMRGraphicEEC2B9nqe210106Ev, symObjAddr: 0x18130, symBinAddr: 0x209E0, symSize: 0x20 }
  - { offset: 0xCC51B, size: 0x8, addend: 0x0, symName: __ZNSt3__116__non_trivial_ifILb1ENS_9allocatorIN2Yy10GMRGraphicEEEEC2B9nqe210106Ev, symObjAddr: 0x18150, symBinAddr: 0x20A00, symSize: 0x10 }
  - { offset: 0xCC545, size: 0x8, addend: 0x0, symName: __ZN5QListI14QSharedPointerIN5Tiled7TilesetEEEC1Ev, symObjAddr: 0x18160, symBinAddr: 0x20A10, symSize: 0x20 }
  - { offset: 0xCC56F, size: 0x8, addend: 0x0, symName: __ZN5QListI14QSharedPointerIN5Tiled7TilesetEEE7reserveEx, symObjAddr: 0x18180, symBinAddr: 0x20A30, symSize: 0x1F0 }
  - { offset: 0xCC5C7, size: 0x8, addend: 0x0, symName: __ZNK4QSetI14QSharedPointerIN5Tiled7TilesetEEE4sizeEv, symObjAddr: 0x18370, symBinAddr: 0x20C20, symSize: 0x20 }
  - { offset: 0xCC5ED, size: 0x8, addend: 0x0, symName: __ZNK4QSetI14QSharedPointerIN5Tiled7TilesetEEE10constBeginEv, symObjAddr: 0x18390, symBinAddr: 0x20C40, symSize: 0x60 }
  - { offset: 0xCC613, size: 0x8, addend: 0x0, symName: __ZNK4QSetI14QSharedPointerIN5Tiled7TilesetEEE14const_iteratorneERKS5_, symObjAddr: 0x183F0, symBinAddr: 0x20CA0, symSize: 0x30 }
  - { offset: 0xCC647, size: 0x8, addend: 0x0, symName: __ZNK4QSetI14QSharedPointerIN5Tiled7TilesetEEE8constEndEv, symObjAddr: 0x18420, symBinAddr: 0x20CD0, symSize: 0x60 }
  - { offset: 0xCC66D, size: 0x8, addend: 0x0, symName: __ZN5QListI14QSharedPointerIN5Tiled7TilesetEEE6appendERKS3_, symObjAddr: 0x18480, symBinAddr: 0x20D30, symSize: 0x30 }
  - { offset: 0xCC6A2, size: 0x8, addend: 0x0, symName: __ZNK4QSetI14QSharedPointerIN5Tiled7TilesetEEE14const_iteratordeEv, symObjAddr: 0x184B0, symBinAddr: 0x20D60, symSize: 0x20 }
  - { offset: 0xCC6C8, size: 0x8, addend: 0x0, symName: __ZN4QSetI14QSharedPointerIN5Tiled7TilesetEEE14const_iteratorppEv, symObjAddr: 0x184D0, symBinAddr: 0x20D80, symSize: 0x30 }
  - { offset: 0xCC6EE, size: 0x8, addend: 0x0, symName: __ZN5QListI14QSharedPointerIN5Tiled7TilesetEEEC2Ev, symObjAddr: 0x18500, symBinAddr: 0x20DB0, symSize: 0x20 }
  - { offset: 0xCC718, size: 0x8, addend: 0x0, symName: __ZN17QArrayDataPointerI14QSharedPointerIN5Tiled7TilesetEEEC1Ev, symObjAddr: 0x18520, symBinAddr: 0x20DD0, symSize: 0x20 }
  - { offset: 0xCC742, size: 0x8, addend: 0x0, symName: __ZN17QArrayDataPointerI14QSharedPointerIN5Tiled7TilesetEEEC2Ev, symObjAddr: 0x18540, symBinAddr: 0x20DF0, symSize: 0x30 }
  - { offset: 0xCC76C, size: 0x8, addend: 0x0, symName: __ZNK5QListI14QSharedPointerIN5Tiled7TilesetEEE8capacityEv, symObjAddr: 0x18570, symBinAddr: 0x20E20, symSize: 0x30 }
  - { offset: 0xCC792, size: 0x8, addend: 0x0, symName: __ZNK17QArrayDataPointerI14QSharedPointerIN5Tiled7TilesetEEE16freeSpaceAtBeginEv, symObjAddr: 0x185A0, symBinAddr: 0x20E50, symSize: 0x60 }
  - { offset: 0xCC7B8, size: 0x8, addend: 0x0, symName: __ZN17QArrayDataPointerI14QSharedPointerIN5Tiled7TilesetEEEptEv, symObjAddr: 0x18600, symBinAddr: 0x20EB0, symSize: 0x10 }
  - { offset: 0xCC7DE, size: 0x8, addend: 0x0, symName: __ZNK17QArrayDataPointerI14QSharedPointerIN5Tiled7TilesetEEE5flagsEv, symObjAddr: 0x18610, symBinAddr: 0x20EC0, symSize: 0x40 }
  - { offset: 0xCC804, size: 0x8, addend: 0x0, symName: __ZNK17QArrayDataPointerI14QSharedPointerIN5Tiled7TilesetEEE8isSharedEv, symObjAddr: 0x186A0, symBinAddr: 0x20F00, symSize: 0x40 }
  - { offset: 0xCC82A, size: 0x8, addend: 0x0, symName: __ZN17QArrayDataPointerI14QSharedPointerIN5Tiled7TilesetEEE7setFlagE6QFlagsIN10QArrayData11ArrayOptionEE, symObjAddr: 0x186E0, symBinAddr: 0x20F40, symSize: 0x60 }
  - { offset: 0xCC85F, size: 0x8, addend: 0x0, symName: __ZNK5QListI14QSharedPointerIN5Tiled7TilesetEEE4sizeEv, symObjAddr: 0x187B0, symBinAddr: 0x20FA0, symSize: 0x50 }
  - { offset: 0xCC8BA, size: 0x8, addend: 0x0, symName: __ZN17QArrayDataPointerI14QSharedPointerIN5Tiled7TilesetEEEC1ExxN10QArrayData16AllocationOptionE, symObjAddr: 0x18800, symBinAddr: 0x20FF0, symSize: 0x50 }
  - { offset: 0xCC90E, size: 0x8, addend: 0x0, symName: __ZN17QArrayDataPointerI14QSharedPointerIN5Tiled7TilesetEEE4dataEv, symObjAddr: 0x18850, symBinAddr: 0x21040, symSize: 0x20 }
  - { offset: 0xCC934, size: 0x8, addend: 0x0, symName: __ZN9QtPrivate16QGenericArrayOpsI14QSharedPointerIN5Tiled7TilesetEEE10copyAppendEPKS4_S7_, symObjAddr: 0x18870, symBinAddr: 0x21060, symSize: 0x150 }
  - { offset: 0xCC988, size: 0x8, addend: 0x0, symName: __ZN17QArrayDataPointerI14QSharedPointerIN5Tiled7TilesetEEE5beginEv, symObjAddr: 0x189C0, symBinAddr: 0x211B0, symSize: 0x20 }
  - { offset: 0xCC9AE, size: 0x8, addend: 0x0, symName: __ZN17QArrayDataPointerI14QSharedPointerIN5Tiled7TilesetEEE3endEv, symObjAddr: 0x189E0, symBinAddr: 0x211D0, symSize: 0x30 }
  - { offset: 0xCC9D4, size: 0x8, addend: 0x0, symName: __ZN17QArrayDataPointerI14QSharedPointerIN5Tiled7TilesetEEE5d_ptrEv, symObjAddr: 0x18A10, symBinAddr: 0x21200, symSize: 0x20 }
  - { offset: 0xCC9FA, size: 0x8, addend: 0x0, symName: __ZN17QArrayDataPointerI14QSharedPointerIN5Tiled7TilesetEEE4swapERS4_, symObjAddr: 0x18A30, symBinAddr: 0x21220, symSize: 0x60 }
  - { offset: 0xCCA2E, size: 0x8, addend: 0x0, symName: __ZN17QArrayDataPointerI14QSharedPointerIN5Tiled7TilesetEEED1Ev, symObjAddr: 0x18A90, symBinAddr: 0x21280, symSize: 0x20 }
  - { offset: 0xCCA58, size: 0x8, addend: 0x0, symName: __ZNK17QArrayDataPointerI14QSharedPointerIN5Tiled7TilesetEEEptEv, symObjAddr: 0x18AB0, symBinAddr: 0x212A0, symSize: 0x10 }
  - { offset: 0xCCA7E, size: 0x8, addend: 0x0, symName: __ZNK17QArrayDataPointerI14QSharedPointerIN5Tiled7TilesetEEE22constAllocatedCapacityEv, symObjAddr: 0x18AC0, symBinAddr: 0x212B0, symSize: 0x40 }
  - { offset: 0xCCAA4, size: 0x8, addend: 0x0, symName: __ZN15QTypedArrayDataI14QSharedPointerIN5Tiled7TilesetEEE9dataStartEP10QArrayDatax, symObjAddr: 0x18B20, symBinAddr: 0x212F0, symSize: 0x80 }
  - { offset: 0xCCAF2, size: 0x8, addend: 0x0, symName: __ZZNK5QListI14QSharedPointerIN5Tiled7TilesetEEE4sizeEvENKUlvE_clEv, symObjAddr: 0x18CD0, symBinAddr: 0x21370, symSize: 0x50 }
  - { offset: 0xCCB1C, size: 0x8, addend: 0x0, symName: __ZN15QTypedArrayDataI14QSharedPointerIN5Tiled7TilesetEEE8allocateExN10QArrayData16AllocationOptionE, symObjAddr: 0x18D20, symBinAddr: 0x213C0, symSize: 0x60 }
  - { offset: 0xCCB69, size: 0x8, addend: 0x0, symName: __ZN17QArrayDataPointerI14QSharedPointerIN5Tiled7TilesetEEEC1ENSt3__14pairIP15QTypedArrayDataIS3_EPS3_EEx, symObjAddr: 0x18D80, symBinAddr: 0x21420, symSize: 0x40 }
  - { offset: 0xCCBB9, size: 0x8, addend: 0x0, symName: __ZNSt3__14pairIP15QTypedArrayDataI14QSharedPointerIN5Tiled7TilesetEEEPS5_EC1B9nqe210106IS7_S8_Li0EEEOT_OT0_, symObjAddr: 0x18DC0, symBinAddr: 0x21460, symSize: 0x30 }
  - { offset: 0xCCC17, size: 0x8, addend: 0x0, symName: __ZNSt3__14pairIP15QTypedArrayDataI14QSharedPointerIN5Tiled7TilesetEEEPS5_EC2B9nqe210106IS7_S8_Li0EEEOT_OT0_, symObjAddr: 0x18DF0, symBinAddr: 0x21490, symSize: 0x30 }
  - { offset: 0xCCC75, size: 0x8, addend: 0x0, symName: __ZN17QArrayDataPointerI14QSharedPointerIN5Tiled7TilesetEEEC2ENSt3__14pairIP15QTypedArrayDataIS3_EPS3_EEx, symObjAddr: 0x18E20, symBinAddr: 0x214C0, symSize: 0x40 }
  - { offset: 0xCCCBB, size: 0x8, addend: 0x0, symName: __ZNK17QArrayDataPointerI14QSharedPointerIN5Tiled7TilesetEEE9isMutableEv, symObjAddr: 0x18E60, symBinAddr: 0x21500, symSize: 0x20 }
  - { offset: 0xCCCE1, size: 0x8, addend: 0x0, symName: __ZNK17QArrayDataPointerI14QSharedPointerIN5Tiled7TilesetEEE14freeSpaceAtEndEv, symObjAddr: 0x18E80, symBinAddr: 0x21520, symSize: 0x60 }
  - { offset: 0xCCD07, size: 0x8, addend: 0x0, symName: __ZN14QSharedPointerIN5Tiled7TilesetEEC1ERKS2_, symObjAddr: 0x18EE0, symBinAddr: 0x21580, symSize: 0x30 }
  - { offset: 0xCCD40, size: 0x8, addend: 0x0, symName: __ZN14QSharedPointerIN5Tiled7TilesetEEC2ERKS2_, symObjAddr: 0x18F10, symBinAddr: 0x215B0, symSize: 0x60 }
  - { offset: 0xCCD79, size: 0x8, addend: 0x0, symName: __ZNK2Qt23totally_ordered_wrapperIPN5Tiled7TilesetEE3getEv, symObjAddr: 0x18F70, symBinAddr: 0x21610, symSize: 0x20 }
  - { offset: 0xCCD9F, size: 0x8, addend: 0x0, symName: __ZN2Qt23totally_ordered_wrapperIPN5Tiled7TilesetEEC1ES3_, symObjAddr: 0x18F90, symBinAddr: 0x21630, symSize: 0x30 }
  - { offset: 0xCCDD8, size: 0x8, addend: 0x0, symName: __ZNK14QSharedPointerIN5Tiled7TilesetEE3refEv, symObjAddr: 0x18FC0, symBinAddr: 0x21660, symSize: 0x40 }
  - { offset: 0xCCDFE, size: 0x8, addend: 0x0, symName: __ZN2Qt23totally_ordered_wrapperIPN5Tiled7TilesetEEC2ES3_, symObjAddr: 0x19000, symBinAddr: 0x216A0, symSize: 0x20 }
  - { offset: 0xCCE37, size: 0x8, addend: 0x0, symName: __ZN19QBasicAtomicIntegerIiE3refEv, symObjAddr: 0x19020, symBinAddr: 0x216C0, symSize: 0x30 }
  - { offset: 0xCCE5D, size: 0x8, addend: 0x0, symName: __ZN10QAtomicOpsIiE3refIiEEbRNSt3__16atomicIT_EE, symObjAddr: 0x19050, symBinAddr: 0x216F0, symSize: 0x30 }
  - { offset: 0xCCE89, size: 0x8, addend: 0x0, symName: __ZNSt3__113__atomic_baseIiLb1EE9fetch_addB9nqe210106EiNS_12memory_orderE, symObjAddr: 0x19080, symBinAddr: 0x21720, symSize: 0x30 }
  - { offset: 0xCCECA, size: 0x8, addend: 0x0, symName: __Z11qt_ptr_swapI15QTypedArrayDataI14QSharedPointerIN5Tiled7TilesetEEEEvRPT_S8_, symObjAddr: 0x19160, symBinAddr: 0x21800, symSize: 0x40 }
  - { offset: 0xCCF17, size: 0x8, addend: 0x0, symName: __Z11qt_ptr_swapI14QSharedPointerIN5Tiled7TilesetEEEvRPT_S6_, symObjAddr: 0x191A0, symBinAddr: 0x21840, symSize: 0x40 }
  - { offset: 0xCCF65, size: 0x8, addend: 0x0, symName: __ZN17QArrayDataPointerI14QSharedPointerIN5Tiled7TilesetEEED2Ev, symObjAddr: 0x191E0, symBinAddr: 0x21880, symSize: 0x50 }
  - { offset: 0xCCF8F, size: 0x8, addend: 0x0, symName: __ZN17QArrayDataPointerI14QSharedPointerIN5Tiled7TilesetEEE5derefEv, symObjAddr: 0x19230, symBinAddr: 0x218D0, symSize: 0x40 }
  - { offset: 0xCCFB5, size: 0x8, addend: 0x0, symName: __ZN9QtPrivate16QGenericArrayOpsI14QSharedPointerIN5Tiled7TilesetEEE10destroyAllEv, symObjAddr: 0x19270, symBinAddr: 0x21910, symSize: 0x90 }
  - { offset: 0xCCFDB, size: 0x8, addend: 0x0, symName: __ZN15QTypedArrayDataI14QSharedPointerIN5Tiled7TilesetEEE10deallocateEP10QArrayData, symObjAddr: 0x19300, symBinAddr: 0x219A0, symSize: 0x30 }
  - { offset: 0xCCFFE, size: 0x8, addend: 0x0, symName: __ZN14QSharedPointerIN5Tiled7TilesetEED1Ev, symObjAddr: 0x193C0, symBinAddr: 0x21A60, symSize: 0x20 }
  - { offset: 0xCD028, size: 0x8, addend: 0x0, symName: __ZN14QSharedPointerIN5Tiled7TilesetEED2Ev, symObjAddr: 0x193E0, symBinAddr: 0x21A80, symSize: 0x20 }
  - { offset: 0xCD052, size: 0x8, addend: 0x0, symName: __ZN14QSharedPointerIN5Tiled7TilesetEE5derefEv, symObjAddr: 0x19400, symBinAddr: 0x21AA0, symSize: 0x20 }
  - { offset: 0xCD078, size: 0x8, addend: 0x0, symName: __ZN14QSharedPointerIN5Tiled7TilesetEE5derefEPN15QtSharedPointer20ExternalRefCountDataE, symObjAddr: 0x19420, symBinAddr: 0x21AC0, symSize: 0x70 }
  - { offset: 0xCD09C, size: 0x8, addend: 0x0, symName: __ZN15QtSharedPointer20ExternalRefCountData7destroyEv, symObjAddr: 0x19490, symBinAddr: 0x21B30, symSize: 0x20 }
  - { offset: 0xCD0C2, size: 0x8, addend: 0x0, symName: __ZN15QtSharedPointer20ExternalRefCountDataD1Ev, symObjAddr: 0x194B0, symBinAddr: 0x21B50, symSize: 0x20 }
  - { offset: 0xCD0EC, size: 0x8, addend: 0x0, symName: __ZN15QtSharedPointer20ExternalRefCountDatadlEPv, symObjAddr: 0x194D0, symBinAddr: 0x21B70, symSize: 0x20 }
  - { offset: 0xCD10F, size: 0x8, addend: 0x0, symName: __ZN15QtSharedPointer20ExternalRefCountDataD2Ev, symObjAddr: 0x194F0, symBinAddr: 0x21B90, symSize: 0x70 }
  - { offset: 0xCD139, size: 0x8, addend: 0x0, symName: __ZNK5QHashI14QSharedPointerIN5Tiled7TilesetEE15QHashDummyValueE4sizeEv, symObjAddr: 0x19560, symBinAddr: 0x21C00, symSize: 0x40 }
  - { offset: 0xCD15F, size: 0x8, addend: 0x0, symName: __ZNK5QHashI14QSharedPointerIN5Tiled7TilesetEE15QHashDummyValueE10constBeginEv, symObjAddr: 0x195A0, symBinAddr: 0x21C40, symSize: 0x80 }
  - { offset: 0xCD185, size: 0x8, addend: 0x0, symName: __ZN4QSetI14QSharedPointerIN5Tiled7TilesetEEE14const_iteratorC1EN5QHashIS3_15QHashDummyValueE14const_iteratorE, symObjAddr: 0x19620, symBinAddr: 0x21CC0, symSize: 0x30 }
  - { offset: 0xCD1BD, size: 0x8, addend: 0x0, symName: __ZNK12QHashPrivate4DataINS_4NodeI14QSharedPointerIN5Tiled7TilesetEE15QHashDummyValueEEE5beginEv, symObjAddr: 0x19650, symBinAddr: 0x21CF0, symSize: 0x50 }
  - { offset: 0xCD1F3, size: 0x8, addend: 0x0, symName: __ZN5QHashI14QSharedPointerIN5Tiled7TilesetEE15QHashDummyValueE14const_iteratorC1EN12QHashPrivate8iteratorINS7_4NodeIS3_S4_EEEE, symObjAddr: 0x196A0, symBinAddr: 0x21D40, symSize: 0x30 }
  - { offset: 0xCD22C, size: 0x8, addend: 0x0, symName: __ZN5QHashI14QSharedPointerIN5Tiled7TilesetEE15QHashDummyValueE14const_iteratorC1Ev, symObjAddr: 0x196D0, symBinAddr: 0x21D70, symSize: 0x20 }
  - { offset: 0xCD256, size: 0x8, addend: 0x0, symName: __ZNK12QHashPrivate8iteratorINS_4NodeI14QSharedPointerIN5Tiled7TilesetEE15QHashDummyValueEEE8isUnusedEv, symObjAddr: 0x196F0, symBinAddr: 0x21D90, symSize: 0x60 }
  - { offset: 0xCD27C, size: 0x8, addend: 0x0, symName: __ZN12QHashPrivate8iteratorINS_4NodeI14QSharedPointerIN5Tiled7TilesetEE15QHashDummyValueEEEppEv, symObjAddr: 0x19750, symBinAddr: 0x21DF0, symSize: 0x80 }
  - { offset: 0xCD2A2, size: 0x8, addend: 0x0, symName: __ZNK12QHashPrivate8iteratorINS_4NodeI14QSharedPointerIN5Tiled7TilesetEE15QHashDummyValueEEE4spanEv, symObjAddr: 0x197D0, symBinAddr: 0x21E70, symSize: 0x20 }
  - { offset: 0xCD2C8, size: 0x8, addend: 0x0, symName: __ZNK12QHashPrivate4SpanINS_4NodeI14QSharedPointerIN5Tiled7TilesetEE15QHashDummyValueEEE7hasNodeEm, symObjAddr: 0x197F0, symBinAddr: 0x21E90, symSize: 0x30 }
  - { offset: 0xCD2FD, size: 0x8, addend: 0x0, symName: __ZNK12QHashPrivate8iteratorINS_4NodeI14QSharedPointerIN5Tiled7TilesetEE15QHashDummyValueEEE5indexEv, symObjAddr: 0x19820, symBinAddr: 0x21EC0, symSize: 0x20 }
  - { offset: 0xCD323, size: 0x8, addend: 0x0, symName: __ZN5QHashI14QSharedPointerIN5Tiled7TilesetEE15QHashDummyValueE14const_iteratorC2EN12QHashPrivate8iteratorINS7_4NodeIS3_S4_EEEE, symObjAddr: 0x19840, symBinAddr: 0x21EE0, symSize: 0x30 }
  - { offset: 0xCD35C, size: 0x8, addend: 0x0, symName: __ZN5QHashI14QSharedPointerIN5Tiled7TilesetEE15QHashDummyValueE14const_iteratorC2Ev, symObjAddr: 0x19870, symBinAddr: 0x21F10, symSize: 0x20 }
  - { offset: 0xCD386, size: 0x8, addend: 0x0, symName: __ZN12QHashPrivate8iteratorINS_4NodeI14QSharedPointerIN5Tiled7TilesetEE15QHashDummyValueEEEC1Ev, symObjAddr: 0x19890, symBinAddr: 0x21F30, symSize: 0x20 }
  - { offset: 0xCD3B3, size: 0x8, addend: 0x0, symName: __ZN12QHashPrivate8iteratorINS_4NodeI14QSharedPointerIN5Tiled7TilesetEE15QHashDummyValueEEEC2Ev, symObjAddr: 0x198B0, symBinAddr: 0x21F50, symSize: 0x20 }
  - { offset: 0xCD3E0, size: 0x8, addend: 0x0, symName: __ZN4QSetI14QSharedPointerIN5Tiled7TilesetEEE14const_iteratorC2EN5QHashIS3_15QHashDummyValueE14const_iteratorE, symObjAddr: 0x198D0, symBinAddr: 0x21F70, symSize: 0x30 }
  - { offset: 0xCD418, size: 0x8, addend: 0x0, symName: __ZNK5QHashI14QSharedPointerIN5Tiled7TilesetEE15QHashDummyValueE14const_iteratorneERKS6_, symObjAddr: 0x19900, symBinAddr: 0x21FA0, symSize: 0x40 }
  - { offset: 0xCD44D, size: 0x8, addend: 0x0, symName: __ZNK12QHashPrivate8iteratorINS_4NodeI14QSharedPointerIN5Tiled7TilesetEE15QHashDummyValueEEEneES8_, symObjAddr: 0x19940, symBinAddr: 0x21FE0, symSize: 0x40 }
  - { offset: 0xCD482, size: 0x8, addend: 0x0, symName: __ZNK12QHashPrivate8iteratorINS_4NodeI14QSharedPointerIN5Tiled7TilesetEE15QHashDummyValueEEEeqES8_, symObjAddr: 0x19980, symBinAddr: 0x22020, symSize: 0x40 }
  - { offset: 0xCD4B7, size: 0x8, addend: 0x0, symName: __ZNK5QHashI14QSharedPointerIN5Tiled7TilesetEE15QHashDummyValueE8constEndEv, symObjAddr: 0x199C0, symBinAddr: 0x22060, symSize: 0x30 }
  - { offset: 0xCD4DD, size: 0x8, addend: 0x0, symName: __ZN5QListI14QSharedPointerIN5Tiled7TilesetEEE11emplaceBackIJRKS3_EEERS3_DpOT_, symObjAddr: 0x199F0, symBinAddr: 0x22090, symSize: 0x70 }
  - { offset: 0xCD51D, size: 0x8, addend: 0x0, symName: __ZN9QtPrivate16QMovableArrayOpsI14QSharedPointerIN5Tiled7TilesetEEE7emplaceIJRKS4_EEEvxDpOT_, symObjAddr: 0x19A60, symBinAddr: 0x22100, symSize: 0x210 }
  - { offset: 0xCD5AC, size: 0x8, addend: 0x0, symName: __ZNK5QListI14QSharedPointerIN5Tiled7TilesetEEE8iteratormiEx, symObjAddr: 0x19C70, symBinAddr: 0x22310, symSize: 0x40 }
  - { offset: 0xCD5E0, size: 0x8, addend: 0x0, symName: __ZNK5QListI14QSharedPointerIN5Tiled7TilesetEEE8iteratordeEv, symObjAddr: 0x19CB0, symBinAddr: 0x22350, symSize: 0x20 }
  - { offset: 0xCD606, size: 0x8, addend: 0x0, symName: __ZNK17QArrayDataPointerI14QSharedPointerIN5Tiled7TilesetEEE11needsDetachEv, symObjAddr: 0x19CD0, symBinAddr: 0x22370, symSize: 0x40 }
  - { offset: 0xCD62C, size: 0x8, addend: 0x0, symName: __ZN17QArrayDataPointerI14QSharedPointerIN5Tiled7TilesetEEE13detachAndGrowEN10QArrayData14GrowthPositionExPPKS3_PS4_, symObjAddr: 0x19D10, symBinAddr: 0x223B0, symSize: 0x100 }
  - { offset: 0xCD6A6, size: 0x8, addend: 0x0, symName: __ZN14QSharedPointerIN5Tiled7TilesetEEC1EOS2_, symObjAddr: 0x19E10, symBinAddr: 0x224B0, symSize: 0x30 }
  - { offset: 0xCD702, size: 0x8, addend: 0x0, symName: __ZN9QtPrivate16QMovableArrayOpsI14QSharedPointerIN5Tiled7TilesetEEE8InserterC1EP17QArrayDataPointerIS4_Exx, symObjAddr: 0x19E40, symBinAddr: 0x224E0, symSize: 0x40 }
  - { offset: 0xCD759, size: 0x8, addend: 0x0, symName: __ZN9QtPrivate16QMovableArrayOpsI14QSharedPointerIN5Tiled7TilesetEEE8Inserter9insertOneEOS4_, symObjAddr: 0x19E80, symBinAddr: 0x22520, symSize: 0x40 }
  - { offset: 0xCD78E, size: 0x8, addend: 0x0, symName: __ZN9QtPrivate16QMovableArrayOpsI14QSharedPointerIN5Tiled7TilesetEEE8InserterD1Ev, symObjAddr: 0x19EC0, symBinAddr: 0x22560, symSize: 0x20 }
  - { offset: 0xCD7B8, size: 0x8, addend: 0x0, symName: __ZN17QArrayDataPointerI14QSharedPointerIN5Tiled7TilesetEEE20tryReadjustFreeSpaceEN10QArrayData14GrowthPositionExPPKS3_, symObjAddr: 0x19F10, symBinAddr: 0x22580, symSize: 0x1E0 }
  - { offset: 0xCD84C, size: 0x8, addend: 0x0, symName: __ZN17QArrayDataPointerI14QSharedPointerIN5Tiled7TilesetEEE17reallocateAndGrowEN10QArrayData14GrowthPositionExPS4_, symObjAddr: 0x1A0F0, symBinAddr: 0x22760, symSize: 0x260 }
  - { offset: 0xCD8C8, size: 0x8, addend: 0x0, symName: __ZN17QArrayDataPointerI14QSharedPointerIN5Tiled7TilesetEEE8relocateExPPKS3_, symObjAddr: 0x1A3A0, symBinAddr: 0x229C0, symSize: 0x80 }
  - { offset: 0xCD92B, size: 0x8, addend: 0x0, symName: __ZNKSt3__14lessIvEclB9nqe210106IRPK14QSharedPointerIN5Tiled7TilesetEES9_EEDTltclsr3stdE7forwardIT_Efp_Eclsr3stdE7forwardIT0_Efp0_EEOSA_OSB_, symObjAddr: 0x1A5F0, symBinAddr: 0x22C10, symSize: 0x30 }
  - { offset: 0xCD981, size: 0x8, addend: 0x0, symName: __ZNK17QArrayDataPointerI14QSharedPointerIN5Tiled7TilesetEEE4dataEv, symObjAddr: 0x1A620, symBinAddr: 0x22C40, symSize: 0x20 }
  - { offset: 0xCD9A7, size: 0x8, addend: 0x0, symName: __ZNK17QArrayDataPointerI14QSharedPointerIN5Tiled7TilesetEEE5beginEv, symObjAddr: 0x1A660, symBinAddr: 0x22C80, symSize: 0x20 }
  - { offset: 0xCD9CD, size: 0x8, addend: 0x0, symName: __ZNK17QArrayDataPointerI14QSharedPointerIN5Tiled7TilesetEEE3endEv, symObjAddr: 0x1A680, symBinAddr: 0x22CA0, symSize: 0x30 }
  - { offset: 0xCD9F3, size: 0x8, addend: 0x0, symName: __ZN9QtPrivate16QMovableArrayOpsI14QSharedPointerIN5Tiled7TilesetEEE10reallocateExN10QArrayData16AllocationOptionE, symObjAddr: 0x1A6B0, symBinAddr: 0x22CD0, symSize: 0x80 }
  - { offset: 0xCDA47, size: 0x8, addend: 0x0, symName: __ZN17QArrayDataPointerI14QSharedPointerIN5Tiled7TilesetEEE12allocateGrowERKS4_xN10QArrayData14GrowthPositionE, symObjAddr: 0x1A730, symBinAddr: 0x22D50, symSize: 0x230 }
  - { offset: 0xCDAE6, size: 0x8, addend: 0x0, symName: __ZN9QtPrivate16QGenericArrayOpsI14QSharedPointerIN5Tiled7TilesetEEE10moveAppendEPS4_S6_, symObjAddr: 0x1A960, symBinAddr: 0x22F80, symSize: 0x150 }
  - { offset: 0xCDB3A, size: 0x8, addend: 0x0, symName: __ZN15QTypedArrayDataI14QSharedPointerIN5Tiled7TilesetEEE19reallocateUnalignedEPS4_PS3_xN10QArrayData16AllocationOptionE, symObjAddr: 0x1AAB0, symBinAddr: 0x230D0, symSize: 0x70 }
  - { offset: 0xCDB95, size: 0x8, addend: 0x0, symName: __ZNK17QArrayDataPointerI14QSharedPointerIN5Tiled7TilesetEEE14detachCapacityEx, symObjAddr: 0x1AB20, symBinAddr: 0x23140, symSize: 0x50 }
  - { offset: 0xCDBCA, size: 0x8, addend: 0x0, symName: __ZN17QArrayDataPointerI14QSharedPointerIN5Tiled7TilesetEEEC1EP15QTypedArrayDataIS3_EPS3_x, symObjAddr: 0x1ABB0, symBinAddr: 0x231D0, symSize: 0x40 }
  - { offset: 0xCDC1E, size: 0x8, addend: 0x0, symName: __ZNSt3__110__get_pairILm0EE3getB9nqe210106IP15QTypedArrayDataI14QSharedPointerIN5Tiled7TilesetEEEPS7_EEOT_ONS_4pairISB_T0_EE, symObjAddr: 0x1AC80, symBinAddr: 0x23210, symSize: 0x10 }
  - { offset: 0xCDC54, size: 0x8, addend: 0x0, symName: __ZNSt3__110__get_pairILm1EE3getB9nqe210106IP15QTypedArrayDataI14QSharedPointerIN5Tiled7TilesetEEEPS7_EEOT0_ONS_4pairIT_SB_EE, symObjAddr: 0x1AC90, symBinAddr: 0x23220, symSize: 0x20 }
  - { offset: 0xCDC8A, size: 0x8, addend: 0x0, symName: __ZN17QArrayDataPointerI14QSharedPointerIN5Tiled7TilesetEEEC2EP15QTypedArrayDataIS3_EPS3_x, symObjAddr: 0x1ACB0, symBinAddr: 0x23240, symSize: 0x40 }
  - { offset: 0xCDCDE, size: 0x8, addend: 0x0, symName: __ZN14QSharedPointerIN5Tiled7TilesetEEC2EOS2_, symObjAddr: 0x1ACF0, symBinAddr: 0x23280, symSize: 0x80 }
  - { offset: 0xCDD17, size: 0x8, addend: 0x0, symName: __ZN2Qt23totally_ordered_wrapperIPN5Tiled7TilesetEEC1EDn, symObjAddr: 0x1AD70, symBinAddr: 0x23300, symSize: 0x30 }
  - { offset: 0xCDD4D, size: 0x8, addend: 0x0, symName: __ZN9QtPrivate16QMovableArrayOpsI14QSharedPointerIN5Tiled7TilesetEEE8InserterC2EP17QArrayDataPointerIS4_Exx, symObjAddr: 0x1ADA0, symBinAddr: 0x23330, symSize: 0x80 }
  - { offset: 0xCDDA4, size: 0x8, addend: 0x0, symName: __ZN9QtPrivate16QMovableArrayOpsI14QSharedPointerIN5Tiled7TilesetEEE8Inserter10verifyPostEv, symObjAddr: 0x1AE20, symBinAddr: 0x233B0, symSize: 0x40 }
  - { offset: 0xCDDCA, size: 0x8, addend: 0x0, symName: __ZN9QtPrivate16QMovableArrayOpsI14QSharedPointerIN5Tiled7TilesetEEE8InserterD2Ev, symObjAddr: 0x1AE60, symBinAddr: 0x233F0, symSize: 0x30 }
  - { offset: 0xCDE13, size: 0x8, addend: 0x0, symName: __ZN5QListI14QSharedPointerIN5Tiled7TilesetEEE8iteratorC1EPS3_, symObjAddr: 0x1AE90, symBinAddr: 0x23420, symSize: 0x30 }
  - { offset: 0xCDE4B, size: 0x8, addend: 0x0, symName: __ZN5QListI14QSharedPointerIN5Tiled7TilesetEEE8iteratorC2EPS3_, symObjAddr: 0x1AEC0, symBinAddr: 0x23450, symSize: 0x20 }
  - { offset: 0xCDE83, size: 0x8, addend: 0x0, symName: __ZNK5QHashI14QSharedPointerIN5Tiled7TilesetEE15QHashDummyValueE14const_iterator3keyEv, symObjAddr: 0x1AEE0, symBinAddr: 0x23470, symSize: 0x20 }
  - { offset: 0xCDEA9, size: 0x8, addend: 0x0, symName: __ZNK12QHashPrivate8iteratorINS_4NodeI14QSharedPointerIN5Tiled7TilesetEE15QHashDummyValueEEE4nodeEv, symObjAddr: 0x1AF00, symBinAddr: 0x23490, symSize: 0x80 }
  - { offset: 0xCDECF, size: 0x8, addend: 0x0, symName: __ZN12QHashPrivate4SpanINS_4NodeI14QSharedPointerIN5Tiled7TilesetEE15QHashDummyValueEEE2atEm, symObjAddr: 0x1AF80, symBinAddr: 0x23510, symSize: 0xA0 }
  - { offset: 0xCDF04, size: 0x8, addend: 0x0, symName: __ZN12QHashPrivate4SpanINS_4NodeI14QSharedPointerIN5Tiled7TilesetEE15QHashDummyValueEEE5Entry4nodeEv, symObjAddr: 0x1B020, symBinAddr: 0x235B0, symSize: 0x10 }
  - { offset: 0xCDF2A, size: 0x8, addend: 0x0, symName: __ZN5QHashI14QSharedPointerIN5Tiled7TilesetEE15QHashDummyValueE14const_iteratorppEv, symObjAddr: 0x1B030, symBinAddr: 0x235C0, symSize: 0x30 }
  - { offset: 0xCDF50, size: 0x8, addend: 0x0, symName: __ZN4QSetI14QSharedPointerIN5Tiled7TilesetEEED2Ev, symObjAddr: 0x1B060, symBinAddr: 0x235F0, symSize: 0x20 }
  - { offset: 0xCDF7C, size: 0x8, addend: 0x0, symName: __ZN5QHashI14QSharedPointerIN5Tiled7TilesetEE15QHashDummyValueED1Ev, symObjAddr: 0x1B080, symBinAddr: 0x23610, symSize: 0x20 }
  - { offset: 0xCDFA6, size: 0x8, addend: 0x0, symName: __ZN5QHashI14QSharedPointerIN5Tiled7TilesetEE15QHashDummyValueED2Ev, symObjAddr: 0x1B0A0, symBinAddr: 0x23630, symSize: 0x60 }
  - { offset: 0xCDFD0, size: 0x8, addend: 0x0, symName: __ZN9QtPrivate8RefCount5derefEv, symObjAddr: 0x1B100, symBinAddr: 0x23690, symSize: 0x50 }
  - { offset: 0xCE004, size: 0x8, addend: 0x0, symName: __ZN12QHashPrivate4DataINS_4NodeI14QSharedPointerIN5Tiled7TilesetEE15QHashDummyValueEEED1Ev, symObjAddr: 0x1B150, symBinAddr: 0x236E0, symSize: 0x20 }
  - { offset: 0xCE02E, size: 0x8, addend: 0x0, symName: __ZN12QHashPrivate4DataINS_4NodeI14QSharedPointerIN5Tiled7TilesetEE15QHashDummyValueEEED2Ev, symObjAddr: 0x1B170, symBinAddr: 0x23700, symSize: 0x80 }
  - { offset: 0xCE058, size: 0x8, addend: 0x0, symName: __ZN12QHashPrivate4SpanINS_4NodeI14QSharedPointerIN5Tiled7TilesetEE15QHashDummyValueEEED1Ev, symObjAddr: 0x1B1F0, symBinAddr: 0x23780, symSize: 0x20 }
  - { offset: 0xCE082, size: 0x8, addend: 0x0, symName: __ZN12QHashPrivate4SpanINS_4NodeI14QSharedPointerIN5Tiled7TilesetEE15QHashDummyValueEEED2Ev, symObjAddr: 0x1B210, symBinAddr: 0x237A0, symSize: 0x20 }
  - { offset: 0xCE0AC, size: 0x8, addend: 0x0, symName: __ZN12QHashPrivate4SpanINS_4NodeI14QSharedPointerIN5Tiled7TilesetEE15QHashDummyValueEEE8freeDataEv, symObjAddr: 0x1B230, symBinAddr: 0x237C0, symSize: 0xD0 }
  - { offset: 0xCE127, size: 0x8, addend: 0x0, symName: __ZN12QHashPrivate4NodeI14QSharedPointerIN5Tiled7TilesetEE15QHashDummyValueED1Ev, symObjAddr: 0x1B300, symBinAddr: 0x23890, symSize: 0x20 }
  - { offset: 0xCE153, size: 0x8, addend: 0x0, symName: __ZN12QHashPrivate4NodeI14QSharedPointerIN5Tiled7TilesetEE15QHashDummyValueED2Ev, symObjAddr: 0x1B320, symBinAddr: 0x238B0, symSize: 0x20 }
  - { offset: 0xCE17F, size: 0x8, addend: 0x0, symName: __ZNK5QListI14QSharedPointerIN5Tiled7TilesetEEE8iteratoreqES5_, symObjAddr: 0x1B4E0, symBinAddr: 0x23A70, symSize: 0x20 }
  - { offset: 0xCE1B3, size: 0x8, addend: 0x0, symName: __ZNK5QListI14QSharedPointerIN5Tiled7TilesetEEE8iteratormiES5_, symObjAddr: 0x1B540, symBinAddr: 0x23AD0, symSize: 0x20 }
  - { offset: 0xCE1F1, size: 0x8, addend: 0x0, symName: '__ZZL16processTileLayerPKN5Tiled9TileLayerERN2Yy7ContextEENK3$_0clERK14QSharedPointerINS_7TilesetEESB_', symObjAddr: 0x1BD40, symBinAddr: 0x242D0, symSize: 0x50 }
  - { offset: 0xCE239, size: 0x8, addend: 0x0, symName: __ZN5QListI14QSharedPointerIN5Tiled7TilesetEEE8iteratormmEv, symObjAddr: 0x1BD90, symBinAddr: 0x24320, symSize: 0x20 }
  - { offset: 0xCE25F, size: 0x8, addend: 0x0, symName: __ZNSt3__18_IterOpsINS_17_ClassicAlgPolicyEE9iter_swapB9nqe210106IRN5QListI14QSharedPointerIN5Tiled7TilesetEEE8iteratorESB_EEvOT_OT0_, symObjAddr: 0x1BDB0, symBinAddr: 0x24340, symSize: 0x40 }
  - { offset: 0xCE2A2, size: 0x8, addend: 0x0, symName: __ZNK5QListI14QSharedPointerIN5Tiled7TilesetEEE8iteratorplEx, symObjAddr: 0x1BF80, symBinAddr: 0x24510, symSize: 0x40 }
  - { offset: 0xCE2DB, size: 0x8, addend: 0x0, symName: __ZNSt3__18_IterOpsINS_17_ClassicAlgPolicyEE9iter_swapB9nqe210106IRN5QListI14QSharedPointerIN5Tiled7TilesetEEE8iteratorESA_EEvOT_OT0_, symObjAddr: 0x1C6E0, symBinAddr: 0x24C70, symSize: 0x40 }
  - { offset: 0xCE31E, size: 0x8, addend: 0x0, symName: __ZN5QListI14QSharedPointerIN5Tiled7TilesetEEE8iteratorppEv, symObjAddr: 0x1D7F0, symBinAddr: 0x25D80, symSize: 0x20 }
  - { offset: 0xCE343, size: 0x8, addend: 0x0, symName: __ZltRK7QStringS1_, symObjAddr: 0x1D810, symBinAddr: 0x25DA0, symSize: 0x40 }
  - { offset: 0xCE397, size: 0x8, addend: 0x0, symName: __Z15compareThreeWayRK7QStringS1_, symObjAddr: 0x1D8A0, symBinAddr: 0x25E30, symSize: 0x50 }
  - { offset: 0xCE3EB, size: 0x8, addend: 0x0, symName: __ZN9QtPrivate25CompareAgainstLiteralZeroC1EMS0_FvvE, symObjAddr: 0x1D910, symBinAddr: 0x25EA0, symSize: 0x50 }
  - { offset: 0xCE41F, size: 0x8, addend: 0x0, symName: __ZN9QtPrivate25CompareAgainstLiteralZeroC2EMS0_FvvE, symObjAddr: 0x1D960, symBinAddr: 0x25EF0, symSize: 0x30 }
  - { offset: 0xCE452, size: 0x8, addend: 0x0, symName: __Z15compareThreeWayRK11QStringViewS1_, symObjAddr: 0x1D990, symBinAddr: 0x25F20, symSize: 0x70 }
  - { offset: 0xCE4A0, size: 0x8, addend: 0x0, symName: __Z4swapIN5Tiled7TilesetEEvR14QSharedPointerIT_ES5_, symObjAddr: 0x1DAD0, symBinAddr: 0x26010, symSize: 0x30 }
  - { offset: 0xCE4E3, size: 0x8, addend: 0x0, symName: __ZN14QSharedPointerIN5Tiled7TilesetEE4swapERS2_, symObjAddr: 0x1DB00, symBinAddr: 0x26040, symSize: 0x30 }
  - { offset: 0xCE518, size: 0x8, addend: 0x0, symName: __ZN14QSharedPointerIN5Tiled7TilesetEE12internalSwapERS2_, symObjAddr: 0x1DB30, symBinAddr: 0x26070, symSize: 0x40 }
  - { offset: 0xCE54C, size: 0x8, addend: 0x0, symName: __Z11qt_ptr_swapIN15QtSharedPointer20ExternalRefCountDataEEvRPT_S4_, symObjAddr: 0x1DB70, symBinAddr: 0x260B0, symSize: 0x40 }
  - { offset: 0xCE599, size: 0x8, addend: 0x0, symName: __Z11qt_ptr_swapIN5Tiled7TilesetEEvRPT_S4_, symObjAddr: 0x1DBE0, symBinAddr: 0x26120, symSize: 0x40 }
  - { offset: 0xCE5E7, size: 0x8, addend: 0x0, symName: __ZNK5QListI14QSharedPointerIN5Tiled7TilesetEEE8iteratorneES5_, symObjAddr: 0x1DC20, symBinAddr: 0x26160, symSize: 0x20 }
  - { offset: 0xCE61B, size: 0x8, addend: 0x0, symName: __ZNSt3__18_IterOpsINS_17_ClassicAlgPolicyEE11__iter_moveB9nqe210106IRN5QListI14QSharedPointerIN5Tiled7TilesetEEE8iteratorELi0EEEDTclsr3stdE4movedeclsr3stdE7declvalIRT_EEEEOSC_, symObjAddr: 0x1DC40, symBinAddr: 0x26180, symSize: 0x20 }
  - { offset: 0xCE64D, size: 0x8, addend: 0x0, symName: __ZN14QSharedPointerIN5Tiled7TilesetEEaSEOS2_, symObjAddr: 0x1DC60, symBinAddr: 0x261A0, symSize: 0x50 }
  - { offset: 0xCE692, size: 0x8, addend: 0x0, symName: __ZNSt3__18_IterOpsINS_17_ClassicAlgPolicyEE25__validate_iter_referenceB9nqe210106IRN5QListI14QSharedPointerIN5Tiled7TilesetEEE8iteratorEEEvv, symObjAddr: 0x1DCB0, symBinAddr: 0x261F0, symSize: 0x10 }
  - { offset: 0xCE6B0, size: 0x8, addend: 0x0, symName: __ZNSt3__18_IterOpsINS_17_ClassicAlgPolicyEE4nextB9nqe210106IN5QListI14QSharedPointerIN5Tiled7TilesetEEE8iteratorEEET_SB_SB_, symObjAddr: 0x1DCC0, symBinAddr: 0x26200, symSize: 0x20 }
  - { offset: 0xCE6E6, size: 0x8, addend: 0x0, symName: __ZN5QListI14QSharedPointerIN5Tiled7TilesetEEE8iteratorpLEx, symObjAddr: 0x1E720, symBinAddr: 0x26C60, symSize: 0x20 }
  - { offset: 0xCE71A, size: 0x8, addend: 0x0, symName: __ZNK5QListI14QSharedPointerIN5Tiled7TilesetEEE8iteratorltES5_, symObjAddr: 0x1E740, symBinAddr: 0x26C80, symSize: 0x20 }
  - { offset: 0xCE74E, size: 0x8, addend: 0x0, symName: __ZNK5QListI14QSharedPointerIN5Tiled7TilesetEEE8iteratorgeES5_, symObjAddr: 0x1E760, symBinAddr: 0x26CA0, symSize: 0x20 }
  - { offset: 0xCE782, size: 0x8, addend: 0x0, symName: __ZN5QListI14QSharedPointerIN5Tiled7TilesetEEE8iteratormIEx, symObjAddr: 0x1E970, symBinAddr: 0x26EB0, symSize: 0x30 }
  - { offset: 0xCE7B6, size: 0x8, addend: 0x0, symName: __ZNSt3__18_IterOpsINS_17_ClassicAlgPolicyEE9iter_swapB9nqe210106IN5QListI14QSharedPointerIN5Tiled7TilesetEEE8iteratorESA_EEvOT_OT0_, symObjAddr: 0x1EDF0, symBinAddr: 0x27330, symSize: 0x40 }
  - { offset: 0xCE812, size: 0x8, addend: 0x0, symName: __ZNSt3__14pairIN5QListI14QSharedPointerIN5Tiled7TilesetEEE8iteratorEbEC1B9nqe210106IRS7_RbLi0EEEOT_OT0_, symObjAddr: 0x1EE30, symBinAddr: 0x27370, symSize: 0x30 }
  - { offset: 0xCE870, size: 0x8, addend: 0x0, symName: __ZNSt3__14pairIN5QListI14QSharedPointerIN5Tiled7TilesetEEE8iteratorEbEC2B9nqe210106IRS7_RbLi0EEEOT_OT0_, symObjAddr: 0x1EE60, symBinAddr: 0x273A0, symSize: 0x30 }
  - { offset: 0xCE8CE, size: 0x8, addend: 0x0, symName: __ZNSt3__118__unwrap_iter_implIN5QListI14QSharedPointerIN5Tiled7TilesetEEE8iteratorELb0EE8__unwrapB9nqe210106ES7_, symObjAddr: 0x1EE90, symBinAddr: 0x273D0, symSize: 0x20 }
  - { offset: 0xCE8F1, size: 0x8, addend: 0x0, symName: __ZN5QListI14QSharedPointerIN5Tiled7TilesetEEE6detachEv, symObjAddr: 0x1EEB0, symBinAddr: 0x273F0, symSize: 0x20 }
  - { offset: 0xCE917, size: 0x8, addend: 0x0, symName: __ZN17QArrayDataPointerI14QSharedPointerIN5Tiled7TilesetEEE6detachEPS4_, symObjAddr: 0x1EED0, symBinAddr: 0x27410, symSize: 0x40 }
  - { offset: 0xCE94B, size: 0x8, addend: 0x0, symName: __ZNK17QArrayDataPointerI14QSharedPointerIN5Tiled7TilesetEEE10constBeginEv, symObjAddr: 0x1EF10, symBinAddr: 0x27450, symSize: 0x20 }
  - { offset: 0xCE971, size: 0x8, addend: 0x0, symName: __ZN5QListI14QSharedPointerIN5Tiled7TilesetEEE14const_iteratorC1EPKS3_, symObjAddr: 0x1EF30, symBinAddr: 0x27470, symSize: 0x30 }
  - { offset: 0xCE9A9, size: 0x8, addend: 0x0, symName: __ZN5QListI14QSharedPointerIN5Tiled7TilesetEEE14const_iteratorC2EPKS3_, symObjAddr: 0x1EF60, symBinAddr: 0x274A0, symSize: 0x20 }
  - { offset: 0xCE9E1, size: 0x8, addend: 0x0, symName: __ZNK17QArrayDataPointerI14QSharedPointerIN5Tiled7TilesetEEE8constEndEv, symObjAddr: 0x1EF80, symBinAddr: 0x274C0, symSize: 0x30 }
  - { offset: 0xCEA07, size: 0x8, addend: 0x0, symName: __ZNK5Tiled7Tileset11imageSourceEv, symObjAddr: 0x1EFB0, symBinAddr: 0x274F0, symSize: 0x20 }
  - { offset: 0xCEA2F, size: 0x8, addend: 0x0, symName: __ZNK5Tiled7Tileset5imageEv, symObjAddr: 0x1EFD0, symBinAddr: 0x27510, symSize: 0x20 }
  - { offset: 0xCEA56, size: 0x8, addend: 0x0, symName: __Z13comparesEqualRK5QSizeS1_, symObjAddr: 0x1EFF0, symBinAddr: 0x27530, symSize: 0x50 }
  - { offset: 0xCEA91, size: 0x8, addend: 0x0, symName: __ZN5QSizeC1Eii, symObjAddr: 0x1F0A0, symBinAddr: 0x275E0, symSize: 0x30 }
  - { offset: 0xCEAD8, size: 0x8, addend: 0x0, symName: __ZN5QSizeC2Eii, symObjAddr: 0x1F0D0, symBinAddr: 0x27610, symSize: 0x40 }
  - { offset: 0xCEB1F, size: 0x8, addend: 0x0, symName: __ZN9QtPrivate16QCheckedIntegers11QCheckedIntIiNS0_13SafeCheckImplIiEENS0_18AssertReportPolicyEEC1Ei, symObjAddr: 0x1F110, symBinAddr: 0x27650, symSize: 0x30 }
  - { offset: 0xCEB57, size: 0x8, addend: 0x0, symName: __ZN9QtPrivate16QCheckedIntegers11QCheckedIntIiNS0_13SafeCheckImplIiEENS0_18AssertReportPolicyEEC2Ei, symObjAddr: 0x1F140, symBinAddr: 0x27680, symSize: 0x20 }
  - { offset: 0xCEB8F, size: 0x8, addend: 0x0, symName: __ZN2Yy12GMRTileLayerC1Ev, symObjAddr: 0x1F160, symBinAddr: 0x276A0, symSize: 0x20 }
  - { offset: 0xCEBB9, size: 0x8, addend: 0x0, symName: __ZNSt3__110unique_ptrIN2Yy12GMRTileLayerENS_14default_deleteIS2_EEEC1B9nqe210106ILb1EvEEPS2_, symObjAddr: 0x1F180, symBinAddr: 0x276C0, symSize: 0x30 }
  - { offset: 0xCEBFD, size: 0x8, addend: 0x0, symName: __ZN2Yy12GMRTileLayerC2Ev, symObjAddr: 0x1F1B0, symBinAddr: 0x276F0, symSize: 0x80 }
  - { offset: 0xCEC27, size: 0x8, addend: 0x0, symName: __ZN2Yy8GMRLayerC2ENS_12ResourceTypeE, symObjAddr: 0x1F230, symBinAddr: 0x27770, symSize: 0x70 }
  - { offset: 0xCEC60, size: 0x8, addend: 0x0, symName: __ZNSt3__16vectorIjNS_9allocatorIjEEEC1B9nqe210106Ev, symObjAddr: 0x1F2A0, symBinAddr: 0x277E0, symSize: 0x20 }
  - { offset: 0xCEC8A, size: 0x8, addend: 0x0, symName: __ZNSt3__16vectorIjNS_9allocatorIjEEEC2B9nqe210106Ev, symObjAddr: 0x1F2C0, symBinAddr: 0x27800, symSize: 0x40 }
  - { offset: 0xCECB4, size: 0x8, addend: 0x0, symName: __ZNSt3__19allocatorIjEC1B9nqe210106Ev, symObjAddr: 0x1F300, symBinAddr: 0x27840, symSize: 0x20 }
  - { offset: 0xCECDE, size: 0x8, addend: 0x0, symName: __ZNSt3__19allocatorIjEC2B9nqe210106Ev, symObjAddr: 0x1F320, symBinAddr: 0x27860, symSize: 0x20 }
  - { offset: 0xCED08, size: 0x8, addend: 0x0, symName: __ZNSt3__116__non_trivial_ifILb1ENS_9allocatorIjEEEC2B9nqe210106Ev, symObjAddr: 0x1F340, symBinAddr: 0x27880, symSize: 0x10 }
  - { offset: 0xCED32, size: 0x8, addend: 0x0, symName: __ZNSt3__110unique_ptrIN2Yy12GMRTileLayerENS_14default_deleteIS2_EEEC2B9nqe210106ILb1EvEEPS2_, symObjAddr: 0x1F350, symBinAddr: 0x27890, symSize: 0x20 }
  - { offset: 0xCED76, size: 0x8, addend: 0x0, symName: __ZNK7QPointF7toPointEv, symObjAddr: 0x1F370, symBinAddr: 0x278B0, symSize: 0x50 }
  - { offset: 0xCED9E, size: 0x8, addend: 0x0, symName: __ZNK6QPoint1xEv, symObjAddr: 0x1F3C0, symBinAddr: 0x27900, symSize: 0x20 }
  - { offset: 0xCEDC5, size: 0x8, addend: 0x0, symName: __ZNK6QPoint1yEv, symObjAddr: 0x1F3E0, symBinAddr: 0x27920, symSize: 0x20 }
  - { offset: 0xCEDEC, size: 0x8, addend: 0x0, symName: __ZNK5Tiled9TileLayer6heightEv, symObjAddr: 0x1F400, symBinAddr: 0x27940, symSize: 0x20 }
  - { offset: 0xCEE12, size: 0x8, addend: 0x0, symName: __ZNK5Tiled9TileLayer5widthEv, symObjAddr: 0x1F420, symBinAddr: 0x27960, symSize: 0x20 }
  - { offset: 0xCEE38, size: 0x8, addend: 0x0, symName: __ZNK5Tiled9TileLayer6cellAtEii, symObjAddr: 0x1F440, symBinAddr: 0x27980, symSize: 0x60 }
  - { offset: 0xCEE9D, size: 0x8, addend: 0x0, symName: __ZNK5Tiled4Cell7tilesetEv, symObjAddr: 0x1F4A0, symBinAddr: 0x279E0, symSize: 0x20 }
  - { offset: 0xCEEC3, size: 0x8, addend: 0x0, symName: __ZNSt3__16vectorIjNS_9allocatorIjEEE9push_backB9nqe210106ERKj, symObjAddr: 0x1F4C0, symBinAddr: 0x27A00, symSize: 0x30 }
  - { offset: 0xCEEF8, size: 0x8, addend: 0x0, symName: __ZNK5Tiled4Cell6tileIdEv, symObjAddr: 0x1F4F0, symBinAddr: 0x27A30, symSize: 0x20 }
  - { offset: 0xCEF1E, size: 0x8, addend: 0x0, symName: __ZN6QPointC1Eii, symObjAddr: 0x1F630, symBinAddr: 0x27B70, symSize: 0x30 }
  - { offset: 0xCEF65, size: 0x8, addend: 0x0, symName: __ZNSt3__18functionIFvvEEC1IN5Tiled10JumpToTileEvEET_, symObjAddr: 0x1F660, symBinAddr: 0x27BA0, symSize: 0x20 }
  - { offset: 0xCEFAA, size: 0x8, addend: 0x0, symName: __ZNSt3__18functionIFvvEED1Ev, symObjAddr: 0x1F680, symBinAddr: 0x27BC0, symSize: 0x20 }
  - { offset: 0xCEFD4, size: 0x8, addend: 0x0, symName: __ZN5Tiled10JumpToTileD1Ev, symObjAddr: 0x1F6A0, symBinAddr: 0x27BE0, symSize: 0x20 }
  - { offset: 0xCF000, size: 0x8, addend: 0x0, symName: __ZNK5Tiled4Cell21flippedAntiDiagonallyEv, symObjAddr: 0x1F6C0, symBinAddr: 0x27C00, symSize: 0x20 }
  - { offset: 0xCF026, size: 0x8, addend: 0x0, symName: __ZNK5Tiled4Cell17flippedVerticallyEv, symObjAddr: 0x1F6E0, symBinAddr: 0x27C20, symSize: 0x20 }
  - { offset: 0xCF04C, size: 0x8, addend: 0x0, symName: __ZNK5Tiled4Cell19flippedHorizontallyEv, symObjAddr: 0x1F700, symBinAddr: 0x27C40, symSize: 0x20 }
  - { offset: 0xCF071, size: 0x8, addend: 0x0, symName: __Z6qBoundIdERKT_S2_S2_S2_, symObjAddr: 0x1F7D0, symBinAddr: 0x27D10, symSize: 0x70 }
  - { offset: 0xCF0C2, size: 0x8, addend: 0x0, symName: __Z4qMaxIdERKT_S2_S2_, symObjAddr: 0x1F840, symBinAddr: 0x27D80, symSize: 0x40 }
  - { offset: 0xCF105, size: 0x8, addend: 0x0, symName: __Z4qMinIdERKT_S2_S2_, symObjAddr: 0x1F880, symBinAddr: 0x27DC0, symSize: 0x40 }
  - { offset: 0xCF149, size: 0x8, addend: 0x0, symName: __ZNK9QtPrivate16QCheckedIntegers11QCheckedIntIiNS0_13SafeCheckImplIiEENS0_18AssertReportPolicyEE5valueEv, symObjAddr: 0x1F8C0, symBinAddr: 0x27E00, symSize: 0x10 }
  - { offset: 0xCF16F, size: 0x8, addend: 0x0, symName: __ZNK5Tiled9TileLayer9findChunkEii, symObjAddr: 0x1F8D0, symBinAddr: 0x27E10, symSize: 0xA0 }
  - { offset: 0xCF1D5, size: 0x8, addend: 0x0, symName: __ZNK5Tiled5Chunk6cellAtEii, symObjAddr: 0x1F970, symBinAddr: 0x27EB0, symSize: 0x30 }
  - { offset: 0xCF218, size: 0x8, addend: 0x0, symName: __ZNK5QHashI6QPointN5Tiled5ChunkEE4findERKS0_, symObjAddr: 0x1F9A0, symBinAddr: 0x27EE0, symSize: 0x40 }
  - { offset: 0xCF24D, size: 0x8, addend: 0x0, symName: __ZNK5QHashI6QPointN5Tiled5ChunkEE14const_iteratorneERKS4_, symObjAddr: 0x1F9E0, symBinAddr: 0x27F20, symSize: 0x40 }
  - { offset: 0xCF282, size: 0x8, addend: 0x0, symName: __ZNK5QHashI6QPointN5Tiled5ChunkEE3endEv, symObjAddr: 0x1FA20, symBinAddr: 0x27F60, symSize: 0x30 }
  - { offset: 0xCF2A8, size: 0x8, addend: 0x0, symName: __ZNK5QHashI6QPointN5Tiled5ChunkEE14const_iterator5valueEv, symObjAddr: 0x1FA50, symBinAddr: 0x27F90, symSize: 0x20 }
  - { offset: 0xCF2CE, size: 0x8, addend: 0x0, symName: __ZNK5QHashI6QPointN5Tiled5ChunkEE13constFindImplIS0_EENS3_14const_iteratorERKT_, symObjAddr: 0x1FA70, symBinAddr: 0x27FB0, symSize: 0xC0 }
  - { offset: 0xCF31C, size: 0x8, addend: 0x0, symName: __ZNK5QHashI6QPointN5Tiled5ChunkEE7isEmptyEv, symObjAddr: 0x1FB30, symBinAddr: 0x28070, symSize: 0x40 }
  - { offset: 0xCF342, size: 0x8, addend: 0x0, symName: __ZNK12QHashPrivate4DataINS_4NodeI6QPointN5Tiled5ChunkEEEE10findBucketIS2_EENS6_6BucketERKT_, symObjAddr: 0x1FB70, symBinAddr: 0x280B0, symSize: 0x70 }
  - { offset: 0xCF390, size: 0x8, addend: 0x0, symName: __ZNK12QHashPrivate4DataINS_4NodeI6QPointN5Tiled5ChunkEEEE6Bucket8isUnusedEv, symObjAddr: 0x1FBE0, symBinAddr: 0x28120, symSize: 0x30 }
  - { offset: 0xCF3B6, size: 0x8, addend: 0x0, symName: __ZNK12QHashPrivate4DataINS_4NodeI6QPointN5Tiled5ChunkEEEE6Bucket13toBucketIndexEPKS6_, symObjAddr: 0x1FC10, symBinAddr: 0x28150, symSize: 0x40 }
  - { offset: 0xCF3EB, size: 0x8, addend: 0x0, symName: __ZN5QHashI6QPointN5Tiled5ChunkEE14const_iteratorC1EN12QHashPrivate8iteratorINS5_4NodeIS0_S2_EEEE, symObjAddr: 0x1FC50, symBinAddr: 0x28190, symSize: 0x30 }
  - { offset: 0xCF424, size: 0x8, addend: 0x0, symName: __ZNK12QHashPrivate4DataINS_4NodeI6QPointN5Tiled5ChunkEEEE18findBucketWithHashIS2_EENS6_6BucketERKT_m, symObjAddr: 0x1FCB0, symBinAddr: 0x281F0, symSize: 0xE0 }
  - { offset: 0xCF4AF, size: 0x8, addend: 0x0, symName: __ZN12QHashPrivate4DataINS_4NodeI6QPointN5Tiled5ChunkEEEE6BucketC1EPKS6_m, symObjAddr: 0x1FDB0, symBinAddr: 0x282F0, symSize: 0x30 }
  - { offset: 0xCF4F7, size: 0x8, addend: 0x0, symName: __ZNK12QHashPrivate4DataINS_4NodeI6QPointN5Tiled5ChunkEEEE6Bucket6offsetEv, symObjAddr: 0x1FDE0, symBinAddr: 0x28320, symSize: 0x30 }
  - { offset: 0xCF51D, size: 0x8, addend: 0x0, symName: __ZN12QHashPrivate4DataINS_4NodeI6QPointN5Tiled5ChunkEEEE6Bucket12nodeAtOffsetEm, symObjAddr: 0x1FE10, symBinAddr: 0x28350, symSize: 0x30 }
  - { offset: 0xCF551, size: 0x8, addend: 0x0, symName: __Z11qHashEqualsI6QPointEbRKT_S3_, symObjAddr: 0x1FE40, symBinAddr: 0x28380, symSize: 0x30 }
  - { offset: 0xCF598, size: 0x8, addend: 0x0, symName: __ZN12QHashPrivate4DataINS_4NodeI6QPointN5Tiled5ChunkEEEE6Bucket14advanceWrappedEPKS6_, symObjAddr: 0x1FE70, symBinAddr: 0x283B0, symSize: 0x30 }
  - { offset: 0xCF5CD, size: 0x8, addend: 0x0, symName: __ZN12QHashPrivate4DataINS_4NodeI6QPointN5Tiled5ChunkEEEE6BucketC2EPKS6_m, symObjAddr: 0x1FEA0, symBinAddr: 0x283E0, symSize: 0x40 }
  - { offset: 0xCF615, size: 0x8, addend: 0x0, symName: __ZNK12QHashPrivate4SpanINS_4NodeI6QPointN5Tiled5ChunkEEEE6offsetEm, symObjAddr: 0x1FEE0, symBinAddr: 0x28420, symSize: 0x20 }
  - { offset: 0xCF64A, size: 0x8, addend: 0x0, symName: __ZN12QHashPrivate4SpanINS_4NodeI6QPointN5Tiled5ChunkEEEE8atOffsetEm, symObjAddr: 0x1FF00, symBinAddr: 0x28440, symSize: 0x80 }
  - { offset: 0xCF67F, size: 0x8, addend: 0x0, symName: __ZN12QHashPrivate4SpanINS_4NodeI6QPointN5Tiled5ChunkEEEE5Entry4nodeEv, symObjAddr: 0x1FF80, symBinAddr: 0x284C0, symSize: 0x10 }
  - { offset: 0xCF6A4, size: 0x8, addend: 0x0, symName: __ZeqRK6QPointS1_, symObjAddr: 0x1FF90, symBinAddr: 0x284D0, symSize: 0x30 }
  - { offset: 0xCF6F2, size: 0x8, addend: 0x0, symName: __Z13comparesEqualRK6QPointS1_, symObjAddr: 0x1FFC0, symBinAddr: 0x28500, symSize: 0x50 }
  - { offset: 0xCF72D, size: 0x8, addend: 0x0, symName: __ZN12QHashPrivate4DataINS_4NodeI6QPointN5Tiled5ChunkEEEE6Bucket12advance_implEPKS6_PNS_4SpanIS5_EE, symObjAddr: 0x20010, symBinAddr: 0x28550, symSize: 0xC0 }
  - { offset: 0xCF771, size: 0x8, addend: 0x0, symName: __ZNK12QHashPrivate4SpanINS_4NodeI6QPointN5Tiled5ChunkEEEE7hasNodeEm, symObjAddr: 0x200D0, symBinAddr: 0x28610, symSize: 0x30 }
  - { offset: 0xCF7A6, size: 0x8, addend: 0x0, symName: __ZN5QHashI6QPointN5Tiled5ChunkEE14const_iteratorC2EN12QHashPrivate8iteratorINS5_4NodeIS0_S2_EEEE, symObjAddr: 0x20100, symBinAddr: 0x28640, symSize: 0x30 }
  - { offset: 0xCF7DF, size: 0x8, addend: 0x0, symName: __ZNK12QHashPrivate8iteratorINS_4NodeI6QPointN5Tiled5ChunkEEEEneES6_, symObjAddr: 0x20130, symBinAddr: 0x28670, symSize: 0x40 }
  - { offset: 0xCF814, size: 0x8, addend: 0x0, symName: __ZNK12QHashPrivate8iteratorINS_4NodeI6QPointN5Tiled5ChunkEEEEeqES6_, symObjAddr: 0x20170, symBinAddr: 0x286B0, symSize: 0x40 }
  - { offset: 0xCF849, size: 0x8, addend: 0x0, symName: __ZN5QHashI6QPointN5Tiled5ChunkEE14const_iteratorC1Ev, symObjAddr: 0x201B0, symBinAddr: 0x286F0, symSize: 0x20 }
  - { offset: 0xCF873, size: 0x8, addend: 0x0, symName: __ZN5QHashI6QPointN5Tiled5ChunkEE14const_iteratorC2Ev, symObjAddr: 0x201D0, symBinAddr: 0x28710, symSize: 0x20 }
  - { offset: 0xCF89D, size: 0x8, addend: 0x0, symName: __ZN12QHashPrivate8iteratorINS_4NodeI6QPointN5Tiled5ChunkEEEEC1Ev, symObjAddr: 0x201F0, symBinAddr: 0x28730, symSize: 0x20 }
  - { offset: 0xCF8CA, size: 0x8, addend: 0x0, symName: __ZN12QHashPrivate8iteratorINS_4NodeI6QPointN5Tiled5ChunkEEEEC2Ev, symObjAddr: 0x20210, symBinAddr: 0x28750, symSize: 0x20 }
  - { offset: 0xCF8F7, size: 0x8, addend: 0x0, symName: __ZNK12QHashPrivate8iteratorINS_4NodeI6QPointN5Tiled5ChunkEEEE4nodeEv, symObjAddr: 0x20230, symBinAddr: 0x28770, symSize: 0x80 }
  - { offset: 0xCF91D, size: 0x8, addend: 0x0, symName: __ZNK12QHashPrivate8iteratorINS_4NodeI6QPointN5Tiled5ChunkEEEE8isUnusedEv, symObjAddr: 0x202B0, symBinAddr: 0x287F0, symSize: 0x60 }
  - { offset: 0xCF943, size: 0x8, addend: 0x0, symName: __ZNK12QHashPrivate8iteratorINS_4NodeI6QPointN5Tiled5ChunkEEEE4spanEv, symObjAddr: 0x20310, symBinAddr: 0x28850, symSize: 0x20 }
  - { offset: 0xCF969, size: 0x8, addend: 0x0, symName: __ZN12QHashPrivate4SpanINS_4NodeI6QPointN5Tiled5ChunkEEEE2atEm, symObjAddr: 0x20330, symBinAddr: 0x28870, symSize: 0x90 }
  - { offset: 0xCF99E, size: 0x8, addend: 0x0, symName: __ZNK12QHashPrivate8iteratorINS_4NodeI6QPointN5Tiled5ChunkEEEE5indexEv, symObjAddr: 0x203C0, symBinAddr: 0x28900, symSize: 0x20 }
  - { offset: 0xCF9C4, size: 0x8, addend: 0x0, symName: __ZNK5QListIN5Tiled4CellEE2atEx, symObjAddr: 0x203E0, symBinAddr: 0x28920, symSize: 0x70 }
  - { offset: 0xCF9F9, size: 0x8, addend: 0x0, symName: __ZNK17QArrayDataPointerIN5Tiled4CellEEptEv, symObjAddr: 0x20450, symBinAddr: 0x28990, symSize: 0x10 }
  - { offset: 0xCFA1F, size: 0x8, addend: 0x0, symName: __ZNK5QListIN5Tiled4CellEE4dataEv, symObjAddr: 0x20460, symBinAddr: 0x289A0, symSize: 0x30 }
  - { offset: 0xCFA45, size: 0x8, addend: 0x0, symName: __ZNK17QArrayDataPointerIN5Tiled4CellEE4dataEv, symObjAddr: 0x20490, symBinAddr: 0x289D0, symSize: 0x20 }
  - { offset: 0xCFA6B, size: 0x8, addend: 0x0, symName: __ZNSt3__16vectorIjNS_9allocatorIjEEE12emplace_backIJRKjEEERjDpOT_, symObjAddr: 0x204B0, symBinAddr: 0x289F0, symSize: 0x70 }
  - { offset: 0xCFABB, size: 0x8, addend: 0x0, symName: __ZNSt3__16vectorIjNS_9allocatorIjEEE30__emplace_back_assume_capacityB9nqe210106IJRKjEEEvDpOT_, symObjAddr: 0x20520, symBinAddr: 0x28A60, symSize: 0x90 }
  - { offset: 0xCFB0B, size: 0x8, addend: 0x0, symName: __ZNSt3__16vectorIjNS_9allocatorIjEEE24__emplace_back_slow_pathIJRKjEEEPjDpOT_, symObjAddr: 0x205B0, symBinAddr: 0x28AF0, symSize: 0xD0 }
  - { offset: 0xCFB74, size: 0x8, addend: 0x0, symName: __ZNSt3__16vectorIjNS_9allocatorIjEEE21_ConstructTransactionC1B9nqe210106ERS3_m, symObjAddr: 0x20680, symBinAddr: 0x28BC0, symSize: 0x30 }
  - { offset: 0xCFBBC, size: 0x8, addend: 0x0, symName: __ZNSt3__116allocator_traitsINS_9allocatorIjEEE9constructB9nqe210106IjJRKjELi0EEEvRS2_PT_DpOT0_, symObjAddr: 0x206B0, symBinAddr: 0x28BF0, symSize: 0x30 }
  - { offset: 0xCFC18, size: 0x8, addend: 0x0, symName: __ZNSt3__16vectorIjNS_9allocatorIjEEE21_ConstructTransactionD1B9nqe210106Ev, symObjAddr: 0x206F0, symBinAddr: 0x28C30, symSize: 0x20 }
  - { offset: 0xCFC42, size: 0x8, addend: 0x0, symName: __ZNSt3__16vectorIjNS_9allocatorIjEEE21_ConstructTransactionC2B9nqe210106ERS3_m, symObjAddr: 0x20710, symBinAddr: 0x28C50, symSize: 0x60 }
  - { offset: 0xCFC8A, size: 0x8, addend: 0x0, symName: __ZNKSt3__16vectorIjNS_9allocatorIjEEE19__annotate_increaseB9nqe210106Em, symObjAddr: 0x20770, symBinAddr: 0x28CB0, symSize: 0x80 }
  - { offset: 0xCFCBF, size: 0x8, addend: 0x0, symName: __ZNKSt3__16vectorIjNS_9allocatorIjEEE31__annotate_contiguous_containerB9nqe210106EPKvS5_, symObjAddr: 0x207F0, symBinAddr: 0x28D30, symSize: 0x60 }
  - { offset: 0xCFD03, size: 0x8, addend: 0x0, symName: __ZNKSt3__16vectorIjNS_9allocatorIjEEE4dataB9nqe210106Ev, symObjAddr: 0x20850, symBinAddr: 0x28D90, symSize: 0x20 }
  - { offset: 0xCFD29, size: 0x8, addend: 0x0, symName: __ZNKSt3__16vectorIjNS_9allocatorIjEEE8capacityB9nqe210106Ev, symObjAddr: 0x20890, symBinAddr: 0x28DD0, symSize: 0x20 }
  - { offset: 0xCFD4F, size: 0x8, addend: 0x0, symName: __ZNSt3__19allocatorIjE9constructB9nqe210106IjJRKjEEEvPT_DpOT0_, symObjAddr: 0x208B0, symBinAddr: 0x28DF0, symSize: 0x20 }
  - { offset: 0xCFDA5, size: 0x8, addend: 0x0, symName: __ZNSt3__16vectorIjNS_9allocatorIjEEE21_ConstructTransactionD2B9nqe210106Ev, symObjAddr: 0x208D0, symBinAddr: 0x28E10, symSize: 0x50 }
  - { offset: 0xCFDCF, size: 0x8, addend: 0x0, symName: __ZNKSt3__16vectorIjNS_9allocatorIjEEE17__annotate_shrinkB9nqe210106Em, symObjAddr: 0x20920, symBinAddr: 0x28E60, symSize: 0x70 }
  - { offset: 0xCFE04, size: 0x8, addend: 0x0, symName: __ZNKSt3__16vectorIjNS_9allocatorIjEEE11__recommendB9nqe210106Em, symObjAddr: 0x20990, symBinAddr: 0x28ED0, symSize: 0x80 }
  - { offset: 0xCFE5B, size: 0x8, addend: 0x0, symName: __ZNSt3__114__split_bufferIjRNS_9allocatorIjEEEC1EmmS3_, symObjAddr: 0x20A10, symBinAddr: 0x28F50, symSize: 0x40 }
  - { offset: 0xCFEB1, size: 0x8, addend: 0x0, symName: __ZNSt3__16vectorIjNS_9allocatorIjEEE26__swap_out_circular_bufferERNS_14__split_bufferIjRS2_EE, symObjAddr: 0x20A50, symBinAddr: 0x28F90, symSize: 0x110 }
  - { offset: 0xCFEF8, size: 0x8, addend: 0x0, symName: __ZNSt3__114__split_bufferIjRNS_9allocatorIjEEED1Ev, symObjAddr: 0x20B60, symBinAddr: 0x290A0, symSize: 0x20 }
  - { offset: 0xCFF24, size: 0x8, addend: 0x0, symName: __ZNKSt3__16vectorIjNS_9allocatorIjEEE8max_sizeB9nqe210106Ev, symObjAddr: 0x20B80, symBinAddr: 0x290C0, symSize: 0x50 }
  - { offset: 0xCFF4A, size: 0x8, addend: 0x0, symName: __ZNSt3__16vectorIjNS_9allocatorIjEEE20__throw_length_errorB9nqe210106Ev, symObjAddr: 0x20BD0, symBinAddr: 0x29110, symSize: 0x10 }
  - { offset: 0xCFF68, size: 0x8, addend: 0x0, symName: __ZNSt3__116allocator_traitsINS_9allocatorIjEEE8max_sizeB9nqe210106IS2_Li0EEEmRKS2_, symObjAddr: 0x20C40, symBinAddr: 0x29180, symSize: 0x20 }
  - { offset: 0xCFF9B, size: 0x8, addend: 0x0, symName: __ZNSt3__114numeric_limitsIlE3maxB9nqe210106Ev, symObjAddr: 0x20C60, symBinAddr: 0x291A0, symSize: 0x10 }
  - { offset: 0xCFFC3, size: 0x8, addend: 0x0, symName: __ZNKSt3__16__lessIvvEclB9nqe210106ImmEEbRKT_RKT0_, symObjAddr: 0x20CC0, symBinAddr: 0x29200, symSize: 0x30 }
  - { offset: 0xD0017, size: 0x8, addend: 0x0, symName: __ZNKSt3__19allocatorIjE8max_sizeB9nqe210106Ev, symObjAddr: 0x20CF0, symBinAddr: 0x29230, symSize: 0x20 }
  - { offset: 0xD003D, size: 0x8, addend: 0x0, symName: __ZNSt3__123__libcpp_numeric_limitsIlLb1EE3maxB9nqe210106Ev, symObjAddr: 0x20D10, symBinAddr: 0x29250, symSize: 0x10 }
  - { offset: 0xD0051, size: 0x8, addend: 0x0, symName: __ZNSt12length_errorC1B9nqe210106EPKc, symObjAddr: 0x20D80, symBinAddr: 0x292C0, symSize: 0x30 }
  - { offset: 0xD0089, size: 0x8, addend: 0x0, symName: __ZNSt12length_errorC2B9nqe210106EPKc, symObjAddr: 0x20DB0, symBinAddr: 0x292F0, symSize: 0x40 }
  - { offset: 0xD00C1, size: 0x8, addend: 0x0, symName: __ZNSt3__114__split_bufferIjRNS_9allocatorIjEEEC2EmmS3_, symObjAddr: 0x20E40, symBinAddr: 0x29380, symSize: 0xB0 }
  - { offset: 0xD0136, size: 0x8, addend: 0x0, symName: __ZNSt3__19allocatorIjE8allocateB9nqe210106Em, symObjAddr: 0x20F30, symBinAddr: 0x29470, symSize: 0x50 }
  - { offset: 0xD016A, size: 0x8, addend: 0x0, symName: __ZNKSt3__16vectorIjNS_9allocatorIjEEE17__annotate_deleteB9nqe210106Ev, symObjAddr: 0x21020, symBinAddr: 0x29560, symSize: 0x80 }
  - { offset: 0xD0190, size: 0x8, addend: 0x0, symName: __ZNKSt3__16vectorIjNS_9allocatorIjEEE14__annotate_newB9nqe210106Em, symObjAddr: 0x21140, symBinAddr: 0x29680, symSize: 0x70 }
  - { offset: 0xD01C5, size: 0x8, addend: 0x0, symName: __ZNSt3__114__split_bufferIjRNS_9allocatorIjEEED2Ev, symObjAddr: 0x211B0, symBinAddr: 0x296F0, symSize: 0x60 }
  - { offset: 0xD01F1, size: 0x8, addend: 0x0, symName: __ZNSt3__114__split_bufferIjRNS_9allocatorIjEEE5clearB9nqe210106Ev, symObjAddr: 0x21210, symBinAddr: 0x29750, symSize: 0x20 }
  - { offset: 0xD0217, size: 0x8, addend: 0x0, symName: __ZNSt3__116allocator_traitsINS_9allocatorIjEEE10deallocateB9nqe210106ERS2_Pjm, symObjAddr: 0x21230, symBinAddr: 0x29770, symSize: 0x30 }
  - { offset: 0xD0259, size: 0x8, addend: 0x0, symName: __ZNKSt3__114__split_bufferIjRNS_9allocatorIjEEE8capacityB9nqe210106Ev, symObjAddr: 0x21260, symBinAddr: 0x297A0, symSize: 0x20 }
  - { offset: 0xD027F, size: 0x8, addend: 0x0, symName: __ZNSt3__114__split_bufferIjRNS_9allocatorIjEEE17__destruct_at_endB9nqe210106EPj, symObjAddr: 0x21280, symBinAddr: 0x297C0, symSize: 0x30 }
  - { offset: 0xD02B3, size: 0x8, addend: 0x0, symName: __ZNSt3__114__split_bufferIjRNS_9allocatorIjEEE17__destruct_at_endB9nqe210106EPjNS_17integral_constantIbLb0EEE, symObjAddr: 0x212B0, symBinAddr: 0x297F0, symSize: 0x70 }
  - { offset: 0xD02F3, size: 0x8, addend: 0x0, symName: __ZNSt3__116allocator_traitsINS_9allocatorIjEEE7destroyB9nqe210106IjLi0EEEvRS2_PT_, symObjAddr: 0x21320, symBinAddr: 0x29860, symSize: 0x30 }
  - { offset: 0xD0335, size: 0x8, addend: 0x0, symName: __ZNSt3__19allocatorIjE7destroyB9nqe210106EPj, symObjAddr: 0x21350, symBinAddr: 0x29890, symSize: 0x10 }
  - { offset: 0xD0369, size: 0x8, addend: 0x0, symName: __ZNSt3__19allocatorIjE10deallocateB9nqe210106EPjm, symObjAddr: 0x21360, symBinAddr: 0x298A0, symSize: 0x30 }
  - { offset: 0xD03AB, size: 0x8, addend: 0x0, symName: __ZNSt3__18functionIFvvEEC1EOS2_, symObjAddr: 0x21410, symBinAddr: 0x29950, symSize: 0x30 }
  - { offset: 0xD03E4, size: 0x8, addend: 0x0, symName: __ZN5Tiled5IssueD1Ev, symObjAddr: 0x21440, symBinAddr: 0x29980, symSize: 0x20 }
  - { offset: 0xD0410, size: 0x8, addend: 0x0, symName: __ZNSt3__18functionIFvvEEC2EOS2_, symObjAddr: 0x21460, symBinAddr: 0x299A0, symSize: 0x30 }
  - { offset: 0xD0449, size: 0x8, addend: 0x0, symName: __ZNSt3__110__function12__value_funcIFvvEEC1B9nqe210106EOS3_, symObjAddr: 0x21490, symBinAddr: 0x299D0, symSize: 0x30 }
  - { offset: 0xD0481, size: 0x8, addend: 0x0, symName: __ZNSt3__110__function12__value_funcIFvvEEC2B9nqe210106EOS3_, symObjAddr: 0x214C0, symBinAddr: 0x29A00, symSize: 0xB0 }
  - { offset: 0xD04B9, size: 0x8, addend: 0x0, symName: __ZNSt3__110__function12__value_funcIFvvEE9__as_baseB9nqe210106EPv, symObjAddr: 0x21570, symBinAddr: 0x29AB0, symSize: 0x10 }
  - { offset: 0xD04DC, size: 0x8, addend: 0x0, symName: __ZN5Tiled5IssueD2Ev, symObjAddr: 0x21580, symBinAddr: 0x29AC0, symSize: 0x30 }
  - { offset: 0xD0508, size: 0x8, addend: 0x0, symName: __ZN6QPointC2Eii, symObjAddr: 0x215B0, symBinAddr: 0x29AF0, symSize: 0x40 }
  - { offset: 0xD054F, size: 0x8, addend: 0x0, symName: __ZNSt3__18functionIFvvEEC2IN5Tiled10JumpToTileEvEET_, symObjAddr: 0x215F0, symBinAddr: 0x29B30, symSize: 0x20 }
  - { offset: 0xD0594, size: 0x8, addend: 0x0, symName: __ZNSt3__110__function12__value_funcIFvvEEC1B9nqe210106IN5Tiled10JumpToTileELi0EEEOT_, symObjAddr: 0x21610, symBinAddr: 0x29B50, symSize: 0x30 }
  - { offset: 0xD05DB, size: 0x8, addend: 0x0, symName: __ZNSt3__110__function12__value_funcIFvvEEC2B9nqe210106IN5Tiled10JumpToTileELi0EEEOT_, symObjAddr: 0x21640, symBinAddr: 0x29B80, symSize: 0x90 }
  - { offset: 0xD0622, size: 0x8, addend: 0x0, symName: __ZNSt3__110__function6__funcIN5Tiled10JumpToTileEFvvEEC1B9nqe210106EOS3_, symObjAddr: 0x216E0, symBinAddr: 0x29C20, symSize: 0x30 }
  - { offset: 0xD065A, size: 0x8, addend: 0x0, symName: __ZNSt3__110__function6__funcIN5Tiled10JumpToTileEFvvEEC2B9nqe210106EOS3_, symObjAddr: 0x21710, symBinAddr: 0x29C50, symSize: 0x50 }
  - { offset: 0xD0692, size: 0x8, addend: 0x0, symName: __ZNSt3__110__function6__baseIFvvEEC2B9nqe210106Ev, symObjAddr: 0x21760, symBinAddr: 0x29CA0, symSize: 0x20 }
  - { offset: 0xD06BC, size: 0x8, addend: 0x0, symName: __ZN5Tiled10JumpToTileC1EOS0_, symObjAddr: 0x21780, symBinAddr: 0x29CC0, symSize: 0x30 }
  - { offset: 0xD06F1, size: 0x8, addend: 0x0, symName: __ZNSt3__110__function6__funcIN5Tiled10JumpToTileEFvvEED1Ev, symObjAddr: 0x217B0, symBinAddr: 0x29CF0, symSize: 0x20 }
  - { offset: 0xD071D, size: 0x8, addend: 0x0, symName: __ZNSt3__110__function6__funcIN5Tiled10JumpToTileEFvvEED0Ev, symObjAddr: 0x217D0, symBinAddr: 0x29D10, symSize: 0x30 }
  - { offset: 0xD0749, size: 0x8, addend: 0x0, symName: __ZNKSt3__110__function6__funcIN5Tiled10JumpToTileEFvvEE7__cloneEv, symObjAddr: 0x21800, symBinAddr: 0x29D40, symSize: 0x60 }
  - { offset: 0xD076F, size: 0x8, addend: 0x0, symName: __ZNKSt3__110__function6__funcIN5Tiled10JumpToTileEFvvEE7__cloneEPNS0_6__baseIS4_EE, symObjAddr: 0x21860, symBinAddr: 0x29DA0, symSize: 0x30 }
  - { offset: 0xD07A3, size: 0x8, addend: 0x0, symName: __ZNSt3__110__function6__funcIN5Tiled10JumpToTileEFvvEE7destroyEv, symObjAddr: 0x21890, symBinAddr: 0x29DD0, symSize: 0x20 }
  - { offset: 0xD07C9, size: 0x8, addend: 0x0, symName: __ZNSt3__110__function6__funcIN5Tiled10JumpToTileEFvvEE18destroy_deallocateEv, symObjAddr: 0x218B0, symBinAddr: 0x29DF0, symSize: 0x30 }
  - { offset: 0xD07EF, size: 0x8, addend: 0x0, symName: __ZNSt3__110__function6__funcIN5Tiled10JumpToTileEFvvEEclEv, symObjAddr: 0x218E0, symBinAddr: 0x29E20, symSize: 0x20 }
  - { offset: 0xD0815, size: 0x8, addend: 0x0, symName: __ZNKSt3__110__function6__funcIN5Tiled10JumpToTileEFvvEE6targetERKSt9type_info, symObjAddr: 0x21900, symBinAddr: 0x29E40, symSize: 0x50 }
  - { offset: 0xD0849, size: 0x8, addend: 0x0, symName: __ZNKSt3__110__function6__funcIN5Tiled10JumpToTileEFvvEE11target_typeEv, symObjAddr: 0x21950, symBinAddr: 0x29E90, symSize: 0x20 }
  - { offset: 0xD086F, size: 0x8, addend: 0x0, symName: __ZNSt3__110__function6__baseIFvvEED1Ev, symObjAddr: 0x21970, symBinAddr: 0x29EB0, symSize: 0x10 }
  - { offset: 0xD0899, size: 0x8, addend: 0x0, symName: __ZNSt3__110__function6__baseIFvvEED0Ev, symObjAddr: 0x21980, symBinAddr: 0x29EC0, symSize: 0x10 }
  - { offset: 0xD08C3, size: 0x8, addend: 0x0, symName: __ZN5Tiled10JumpToTileC2EOS0_, symObjAddr: 0x21990, symBinAddr: 0x29ED0, symSize: 0x40 }
  - { offset: 0xD08F8, size: 0x8, addend: 0x0, symName: __ZNSt3__110__function6__funcIN5Tiled10JumpToTileEFvvEED2Ev, symObjAddr: 0x219D0, symBinAddr: 0x29F10, symSize: 0x40 }
  - { offset: 0xD0924, size: 0x8, addend: 0x0, symName: __ZNSt3__110__function6__baseIFvvEED2Ev, symObjAddr: 0x21A10, symBinAddr: 0x29F50, symSize: 0x10 }
  - { offset: 0xD094E, size: 0x8, addend: 0x0, symName: __ZNSt3__110__function6__funcIN5Tiled10JumpToTileEFvvEEC1B9nqe210106ERKS3_, symObjAddr: 0x21A20, symBinAddr: 0x29F60, symSize: 0x30 }
  - { offset: 0xD0986, size: 0x8, addend: 0x0, symName: __ZNSt3__110__function6__funcIN5Tiled10JumpToTileEFvvEEC2B9nqe210106ERKS3_, symObjAddr: 0x21A50, symBinAddr: 0x29F90, symSize: 0x50 }
  - { offset: 0xD09BE, size: 0x8, addend: 0x0, symName: __ZN5Tiled10JumpToTileC1ERKS0_, symObjAddr: 0x21AA0, symBinAddr: 0x29FE0, symSize: 0x30 }
  - { offset: 0xD09F3, size: 0x8, addend: 0x0, symName: __ZN5Tiled10JumpToTileC2ERKS0_, symObjAddr: 0x21AD0, symBinAddr: 0x2A010, symSize: 0x40 }
  - { offset: 0xD0A2D, size: 0x8, addend: 0x0, symName: __ZNSt3__128__invoke_void_return_wrapperIvLb1EE6__callB9nqe210106IJRN5Tiled10JumpToTileEEEEvDpOT_, symObjAddr: 0x21B30, symBinAddr: 0x2A070, symSize: 0x20 }
  - { offset: 0xD0A5C, size: 0x8, addend: 0x0, symName: __ZNK5Tiled11ActivatableINS_10JumpToTileEEclEv, symObjAddr: 0x21B70, symBinAddr: 0x2A0B0, symSize: 0x30 }
  - { offset: 0xD0A82, size: 0x8, addend: 0x0, symName: __ZNKSt3__18functionIFvRKN5Tiled10JumpToTileEEEclES4_, symObjAddr: 0x21BA0, symBinAddr: 0x2A0E0, symSize: 0x30 }
  - { offset: 0xD0AB9, size: 0x8, addend: 0x0, symName: __ZNKSt3__110__function12__value_funcIFvRKN5Tiled10JumpToTileEEEclB9nqe210106ES5_, symObjAddr: 0x21BD0, symBinAddr: 0x2A110, symSize: 0x40 }
  - { offset: 0xD0AEE, size: 0x8, addend: 0x0, symName: __ZNSt3__117bad_function_callC1B9nqe210106Ev, symObjAddr: 0x21C60, symBinAddr: 0x2A1A0, symSize: 0x20 }
  - { offset: 0xD0B18, size: 0x8, addend: 0x0, symName: __ZNSt3__117bad_function_callD1Ev, symObjAddr: 0x21C80, symBinAddr: 0x2A1C0, symSize: 0x20 }
  - { offset: 0xD0B42, size: 0x8, addend: 0x0, symName: __ZNSt3__117bad_function_callC2B9nqe210106Ev, symObjAddr: 0x21CA0, symBinAddr: 0x2A1E0, symSize: 0x40 }
  - { offset: 0xD0B6C, size: 0x8, addend: 0x0, symName: __ZNSt9exceptionC2B9nqe210106Ev, symObjAddr: 0x21CE0, symBinAddr: 0x2A220, symSize: 0x20 }
  - { offset: 0xD0B96, size: 0x8, addend: 0x0, symName: __ZNSt3__117bad_function_callD0Ev, symObjAddr: 0x21D00, symBinAddr: 0x2A240, symSize: 0x30 }
  - { offset: 0xD0BC0, size: 0x8, addend: 0x0, symName: __ZNSt3__117bad_function_callD2Ev, symObjAddr: 0x21D30, symBinAddr: 0x2A270, symSize: 0x20 }
  - { offset: 0xD0C0A, size: 0x8, addend: 0x0, symName: __ZNKSt9type_infoeqB9nqe210106ERKS_, symObjAddr: 0x21D50, symBinAddr: 0x2A290, symSize: 0x40 }
  - { offset: 0xD0C68, size: 0x8, addend: 0x0, symName: __ZNSt3__18functionIFvvEED2Ev, symObjAddr: 0x21D90, symBinAddr: 0x2A2D0, symSize: 0x20 }
  - { offset: 0xD0C92, size: 0x8, addend: 0x0, symName: __ZNSt3__110__function12__value_funcIFvvEED1B9nqe210106Ev, symObjAddr: 0x21DB0, symBinAddr: 0x2A2F0, symSize: 0x20 }
  - { offset: 0xD0CBC, size: 0x8, addend: 0x0, symName: __ZNSt3__110__function12__value_funcIFvvEED2B9nqe210106Ev, symObjAddr: 0x21DD0, symBinAddr: 0x2A310, symSize: 0x50 }
  - { offset: 0xD0CE6, size: 0x8, addend: 0x0, symName: __ZN5Tiled10JumpToTileD2Ev, symObjAddr: 0x21E20, symBinAddr: 0x2A360, symSize: 0x20 }
  - { offset: 0xD0D12, size: 0x8, addend: 0x0, symName: __ZNSt3__110unique_ptrIN2Yy8GMRLayerENS_14default_deleteIS2_EEEC2B9nqe210106INS1_12GMRTileLayerENS3_IS7_EEvvEEONS0_IT_T0_EE, symObjAddr: 0x21E40, symBinAddr: 0x2A380, symSize: 0x50 }
  - { offset: 0xD0D60, size: 0x8, addend: 0x0, symName: __ZNSt3__110unique_ptrIN2Yy12GMRTileLayerENS_14default_deleteIS2_EEE7releaseB9nqe210106Ev, symObjAddr: 0x21E90, symBinAddr: 0x2A3D0, symSize: 0x20 }
  - { offset: 0xD0D96, size: 0x8, addend: 0x0, symName: __ZNSt3__110unique_ptrIN2Yy12GMRTileLayerENS_14default_deleteIS2_EEE11get_deleterB9nqe210106Ev, symObjAddr: 0x21EB0, symBinAddr: 0x2A3F0, symSize: 0x10 }
  - { offset: 0xD0DC1, size: 0x8, addend: 0x0, symName: __ZNSt3__114default_deleteIN2Yy8GMRLayerEEC1B9nqe210106INS1_12GMRTileLayerELi0EEERKNS0_IT_EE, symObjAddr: 0x21EC0, symBinAddr: 0x2A400, symSize: 0x30 }
  - { offset: 0xD0E04, size: 0x8, addend: 0x0, symName: __ZNSt3__114default_deleteIN2Yy8GMRLayerEEC2B9nqe210106INS1_12GMRTileLayerELi0EEERKNS0_IT_EE, symObjAddr: 0x21EF0, symBinAddr: 0x2A430, symSize: 0x10 }
  - { offset: 0xD0E47, size: 0x8, addend: 0x0, symName: __ZNSt3__110unique_ptrIN2Yy12GMRTileLayerENS_14default_deleteIS2_EEED2B9nqe210106Ev, symObjAddr: 0x21F00, symBinAddr: 0x2A440, symSize: 0x20 }
  - { offset: 0xD0E71, size: 0x8, addend: 0x0, symName: __ZNSt3__110unique_ptrIN2Yy12GMRTileLayerENS_14default_deleteIS2_EEE5resetB9nqe210106EPS2_, symObjAddr: 0x21F20, symBinAddr: 0x2A460, symSize: 0x40 }
  - { offset: 0xD0EB6, size: 0x8, addend: 0x0, symName: __ZNKSt3__114default_deleteIN2Yy12GMRTileLayerEEclB9nqe210106EPS2_, symObjAddr: 0x21F60, symBinAddr: 0x2A4A0, symSize: 0x40 }
  - { offset: 0xD0EEA, size: 0x8, addend: 0x0, symName: __ZN5QListI14QSharedPointerIN5Tiled7TilesetEEED2Ev, symObjAddr: 0x21FA0, symBinAddr: 0x2A4E0, symSize: 0x20 }
  - { offset: 0xD0F16, size: 0x8, addend: 0x0, symName: __ZNKSt3__110unique_ptrIN5Tiled11MapRendererENS_14default_deleteIS2_EEEptB9nqe210106Ev, symObjAddr: 0x21FC0, symBinAddr: 0x2A500, symSize: 0x20 }
  - { offset: 0xD0F3C, size: 0x8, addend: 0x0, symName: __ZNK5Tiled9TileLayer6boundsEv, symObjAddr: 0x21FE0, symBinAddr: 0x2A520, symSize: 0x40 }
  - { offset: 0xD0F62, size: 0x8, addend: 0x0, symName: '__ZNSt3__18functionIFv6QPointRK7QPointFEEC1IZL21createAssetsFromTilesRNS_6vectorIN2Yy10GMRGraphicENS_9allocatorISA_EEEEPKN5Tiled9TileLayerERNS9_7ContextEE3$_0vEET_', symObjAddr: 0x22020, symBinAddr: 0x2A560, symSize: 0x40 }
  - { offset: 0xD0FA6, size: 0x8, addend: 0x0, symName: __ZN6QRectFC1ERK5QRect, symObjAddr: 0x22060, symBinAddr: 0x2A5A0, symSize: 0x30 }
  - { offset: 0xD0FE1, size: 0x8, addend: 0x0, symName: __ZNSt3__18functionIFv6QPointRK7QPointFEED1Ev, symObjAddr: 0x22090, symBinAddr: 0x2A5D0, symSize: 0x20 }
  - { offset: 0xD100D, size: 0x8, addend: 0x0, symName: __ZNK5QRect10translatedEii, symObjAddr: 0x220B0, symBinAddr: 0x2A5F0, symSize: 0xF0 }
  - { offset: 0xD1053, size: 0x8, addend: 0x0, symName: __ZN6QPointC1EN9QtPrivate16QCheckedIntegers11QCheckedIntIiNS1_13SafeCheckImplIiEENS1_18AssertReportPolicyEEES6_, symObjAddr: 0x221E0, symBinAddr: 0x2A720, symSize: 0x30 }
  - { offset: 0xD1099, size: 0x8, addend: 0x0, symName: __ZN5QRectC1ERK6QPointS2_, symObjAddr: 0x22210, symBinAddr: 0x2A750, symSize: 0x30 }
  - { offset: 0xD10E0, size: 0x8, addend: 0x0, symName: __ZN9QtPrivate16QCheckedIntegers13SafeCheckImplIiE3addEiiPi, symObjAddr: 0x222A0, symBinAddr: 0x2A7E0, symSize: 0x40 }
  - { offset: 0xD111F, size: 0x8, addend: 0x0, symName: __ZN9QtPrivate16QCheckedIntegers18AssertReportPolicy5checkEbPKcS3_, symObjAddr: 0x222E0, symBinAddr: 0x2A820, symSize: 0x40 }
  - { offset: 0xD115D, size: 0x8, addend: 0x0, symName: __Z12qAddOverflowIiENSt3__19enable_ifIXsr3stdE11is_signed_vIT_EEbE4typeES2_S2_PS2_, symObjAddr: 0x22320, symBinAddr: 0x2A860, symSize: 0x30 }
  - { offset: 0xD11B3, size: 0x8, addend: 0x0, symName: __ZN6QPointC2EN9QtPrivate16QCheckedIntegers11QCheckedIntIiNS1_13SafeCheckImplIiEENS1_18AssertReportPolicyEEES6_, symObjAddr: 0x22350, symBinAddr: 0x2A890, symSize: 0x20 }
  - { offset: 0xD11F9, size: 0x8, addend: 0x0, symName: __ZN5QRectC2ERK6QPointS2_, symObjAddr: 0x22370, symBinAddr: 0x2A8B0, symSize: 0xA0 }
  - { offset: 0xD1240, size: 0x8, addend: 0x0, symName: '__ZNSt3__18functionIFv6QPointRK7QPointFEEC2IZL21createAssetsFromTilesRNS_6vectorIN2Yy10GMRGraphicENS_9allocatorISA_EEEEPKN5Tiled9TileLayerERNS9_7ContextEE3$_0vEET_', symObjAddr: 0x22410, symBinAddr: 0x2A950, symSize: 0x20 }
  - { offset: 0xD1284, size: 0x8, addend: 0x0, symName: '__ZNSt3__110__function12__value_funcIFv6QPointRK7QPointFEEC1B9nqe210106IZL21createAssetsFromTilesRNS_6vectorIN2Yy10GMRGraphicENS_9allocatorISB_EEEEPKN5Tiled9TileLayerERNSA_7ContextEE3$_0Li0EEEOT_', symObjAddr: 0x22430, symBinAddr: 0x2A970, symSize: 0x30 }
  - { offset: 0xD12CB, size: 0x8, addend: 0x0, symName: '__ZNSt3__110__function12__value_funcIFv6QPointRK7QPointFEEC2B9nqe210106IZL21createAssetsFromTilesRNS_6vectorIN2Yy10GMRGraphicENS_9allocatorISB_EEEEPKN5Tiled9TileLayerERNSA_7ContextEE3$_0Li0EEEOT_', symObjAddr: 0x22460, symBinAddr: 0x2A9A0, symSize: 0x90 }
  - { offset: 0xD1312, size: 0x8, addend: 0x0, symName: '__ZNSt3__110__function6__funcIZL21createAssetsFromTilesRNS_6vectorIN2Yy10GMRGraphicENS_9allocatorIS4_EEEEPKN5Tiled9TileLayerERNS3_7ContextEE3$_0Fv6QPointRK7QPointFEEC1B9nqe210106EOSF_', symObjAddr: 0x22500, symBinAddr: 0x2AA40, symSize: 0x30 }
  - { offset: 0xD134A, size: 0x8, addend: 0x0, symName: '__ZNSt3__110__function6__funcIZL21createAssetsFromTilesRNS_6vectorIN2Yy10GMRGraphicENS_9allocatorIS4_EEEEPKN5Tiled9TileLayerERNS3_7ContextEE3$_0Fv6QPointRK7QPointFEEC2B9nqe210106EOSF_', symObjAddr: 0x22530, symBinAddr: 0x2AA70, symSize: 0x50 }
  - { offset: 0xD1382, size: 0x8, addend: 0x0, symName: __ZNSt3__110__function6__baseIFv6QPointRK7QPointFEEC2B9nqe210106Ev, symObjAddr: 0x22580, symBinAddr: 0x2AAC0, symSize: 0x20 }
  - { offset: 0xD13AC, size: 0x8, addend: 0x0, symName: '__ZNSt3__110__function6__funcIZL21createAssetsFromTilesRNS_6vectorIN2Yy10GMRGraphicENS_9allocatorIS4_EEEEPKN5Tiled9TileLayerERNS3_7ContextEE3$_0Fv6QPointRK7QPointFEED1Ev', symObjAddr: 0x225A0, symBinAddr: 0x2AAE0, symSize: 0x20 }
  - { offset: 0xD13D8, size: 0x8, addend: 0x0, symName: '__ZNSt3__110__function6__funcIZL21createAssetsFromTilesRNS_6vectorIN2Yy10GMRGraphicENS_9allocatorIS4_EEEEPKN5Tiled9TileLayerERNS3_7ContextEE3$_0Fv6QPointRK7QPointFEED0Ev', symObjAddr: 0x225C0, symBinAddr: 0x2AB00, symSize: 0x30 }
  - { offset: 0xD1404, size: 0x8, addend: 0x0, symName: '__ZNKSt3__110__function6__funcIZL21createAssetsFromTilesRNS_6vectorIN2Yy10GMRGraphicENS_9allocatorIS4_EEEEPKN5Tiled9TileLayerERNS3_7ContextEE3$_0Fv6QPointRK7QPointFEE7__cloneEv', symObjAddr: 0x225F0, symBinAddr: 0x2AB30, symSize: 0x60 }
  - { offset: 0xD142A, size: 0x8, addend: 0x0, symName: '__ZNKSt3__110__function6__funcIZL21createAssetsFromTilesRNS_6vectorIN2Yy10GMRGraphicENS_9allocatorIS4_EEEEPKN5Tiled9TileLayerERNS3_7ContextEE3$_0Fv6QPointRK7QPointFEE7__cloneEPNS0_6__baseISK_EE', symObjAddr: 0x22650, symBinAddr: 0x2AB90, symSize: 0x30 }
  - { offset: 0xD145E, size: 0x8, addend: 0x0, symName: '__ZNSt3__110__function6__funcIZL21createAssetsFromTilesRNS_6vectorIN2Yy10GMRGraphicENS_9allocatorIS4_EEEEPKN5Tiled9TileLayerERNS3_7ContextEE3$_0Fv6QPointRK7QPointFEE7destroyEv', symObjAddr: 0x22680, symBinAddr: 0x2ABC0, symSize: 0x10 }
  - { offset: 0xD1484, size: 0x8, addend: 0x0, symName: '__ZNSt3__110__function6__funcIZL21createAssetsFromTilesRNS_6vectorIN2Yy10GMRGraphicENS_9allocatorIS4_EEEEPKN5Tiled9TileLayerERNS3_7ContextEE3$_0Fv6QPointRK7QPointFEE18destroy_deallocateEv', symObjAddr: 0x22690, symBinAddr: 0x2ABD0, symSize: 0x30 }
  - { offset: 0xD14AA, size: 0x8, addend: 0x0, symName: '__ZNSt3__110__function6__funcIZL21createAssetsFromTilesRNS_6vectorIN2Yy10GMRGraphicENS_9allocatorIS4_EEEEPKN5Tiled9TileLayerERNS3_7ContextEE3$_0Fv6QPointRK7QPointFEEclEOSG_SJ_', symObjAddr: 0x226C0, symBinAddr: 0x2AC00, symSize: 0x30 }
  - { offset: 0xD14EC, size: 0x8, addend: 0x0, symName: '__ZNKSt3__110__function6__funcIZL21createAssetsFromTilesRNS_6vectorIN2Yy10GMRGraphicENS_9allocatorIS4_EEEEPKN5Tiled9TileLayerERNS3_7ContextEE3$_0Fv6QPointRK7QPointFEE6targetERKSt9type_info', symObjAddr: 0x226F0, symBinAddr: 0x2AC30, symSize: 0x50 }
  - { offset: 0xD1520, size: 0x8, addend: 0x0, symName: '__ZNKSt3__110__function6__funcIZL21createAssetsFromTilesRNS_6vectorIN2Yy10GMRGraphicENS_9allocatorIS4_EEEEPKN5Tiled9TileLayerERNS3_7ContextEE3$_0Fv6QPointRK7QPointFEE11target_typeEv', symObjAddr: 0x22740, symBinAddr: 0x2AC80, symSize: 0x20 }
  - { offset: 0xD1546, size: 0x8, addend: 0x0, symName: __ZNSt3__110__function6__baseIFv6QPointRK7QPointFEED1Ev, symObjAddr: 0x22760, symBinAddr: 0x2ACA0, symSize: 0x10 }
  - { offset: 0xD1570, size: 0x8, addend: 0x0, symName: __ZNSt3__110__function6__baseIFv6QPointRK7QPointFEED0Ev, symObjAddr: 0x22770, symBinAddr: 0x2ACB0, symSize: 0x10 }
  - { offset: 0xD159A, size: 0x8, addend: 0x0, symName: '__ZNSt3__110__function6__funcIZL21createAssetsFromTilesRNS_6vectorIN2Yy10GMRGraphicENS_9allocatorIS4_EEEEPKN5Tiled9TileLayerERNS3_7ContextEE3$_0Fv6QPointRK7QPointFEED2Ev', symObjAddr: 0x22780, symBinAddr: 0x2ACC0, symSize: 0x20 }
  - { offset: 0xD15C6, size: 0x8, addend: 0x0, symName: __ZNSt3__110__function6__baseIFv6QPointRK7QPointFEED2Ev, symObjAddr: 0x227A0, symBinAddr: 0x2ACE0, symSize: 0x10 }
  - { offset: 0xD15F0, size: 0x8, addend: 0x0, symName: '__ZNSt3__110__function6__funcIZL21createAssetsFromTilesRNS_6vectorIN2Yy10GMRGraphicENS_9allocatorIS4_EEEEPKN5Tiled9TileLayerERNS3_7ContextEE3$_0Fv6QPointRK7QPointFEEC1B9nqe210106ERKSF_', symObjAddr: 0x227B0, symBinAddr: 0x2ACF0, symSize: 0x30 }
  - { offset: 0xD1628, size: 0x8, addend: 0x0, symName: '__ZNSt3__110__function6__funcIZL21createAssetsFromTilesRNS_6vectorIN2Yy10GMRGraphicENS_9allocatorIS4_EEEEPKN5Tiled9TileLayerERNS3_7ContextEE3$_0Fv6QPointRK7QPointFEEC2B9nqe210106ERKSF_', symObjAddr: 0x227E0, symBinAddr: 0x2AD20, symSize: 0x50 }
  - { offset: 0xD1665, size: 0x8, addend: 0x0, symName: '__ZNSt3__128__invoke_void_return_wrapperIvLb1EE6__callB9nqe210106IJRZL21createAssetsFromTilesRNS_6vectorIN2Yy10GMRGraphicENS_9allocatorIS5_EEEEPKN5Tiled9TileLayerERNS4_7ContextEE3$_06QPointRK7QPointFEEEvDpOT_', symObjAddr: 0x22860, symBinAddr: 0x2ADA0, symSize: 0x30 }
  - { offset: 0xD16C6, size: 0x8, addend: 0x0, symName: '__ZZL21createAssetsFromTilesRNSt3__16vectorIN2Yy10GMRGraphicENS_9allocatorIS2_EEEEPKN5Tiled9TileLayerERNS1_7ContextEENK3$_0clE6QPointRK7QPointF', symObjAddr: 0x228D0, symBinAddr: 0x2AE10, symSize: 0xDD0 }
  - { offset: 0xD181A, size: 0x8, addend: 0x0, symName: __ZNK5Tiled9TileLayer6cellAtE6QPoint, symObjAddr: 0x236A0, symBinAddr: 0x2BBE0, symSize: 0x50 }
  - { offset: 0xD1850, size: 0x8, addend: 0x0, symName: __ZeqRK5QSizeS1_, symObjAddr: 0x236F0, symBinAddr: 0x2BC30, symSize: 0x30 }
  - { offset: 0xD189F, size: 0x8, addend: 0x0, symName: __ZNK5Tiled7Tileset8findTileEi, symObjAddr: 0x23720, symBinAddr: 0x2BC60, symSize: 0x40 }
  - { offset: 0xD18D6, size: 0x8, addend: 0x0, symName: __ZNK5Tiled4Tile11imageSourceEv, symObjAddr: 0x23760, symBinAddr: 0x2BCA0, symSize: 0x20 }
  - { offset: 0xD18FD, size: 0x8, addend: 0x0, symName: __ZNSt3__16vectorIN2Yy10GMRGraphicENS_9allocatorIS2_EEE12emplace_backIJRKbEEERS2_DpOT_, symObjAddr: 0x23780, symBinAddr: 0x2BCC0, symSize: 0x80 }
  - { offset: 0xD194D, size: 0x8, addend: 0x0, symName: __ZNK5Tiled4Tile4sizeEv, symObjAddr: 0x23800, symBinAddr: 0x2BD40, symSize: 0x30 }
  - { offset: 0xD1974, size: 0x8, addend: 0x0, symName: __ZL16optionalPropertyIdET_PKN5Tiled6ObjectERK7QStringRKS0_, symObjAddr: 0x23830, symBinAddr: 0x2BD70, symSize: 0x100 }
  - { offset: 0xD19DA, size: 0x8, addend: 0x0, symName: __ZN7QPointFC1Edd, symObjAddr: 0x23930, symBinAddr: 0x2BE70, symSize: 0x30 }
  - { offset: 0xD1A23, size: 0x8, addend: 0x0, symName: __ZplRK7QPointFS1_, symObjAddr: 0x23960, symBinAddr: 0x2BEA0, symSize: 0x50 }
  - { offset: 0xD1A61, size: 0x8, addend: 0x0, symName: __ZNK5Tiled7Tileset10tileOffsetEv, symObjAddr: 0x239B0, symBinAddr: 0x2BEF0, symSize: 0x20 }
  - { offset: 0xD1A89, size: 0x8, addend: 0x0, symName: __ZN7QPointFC1ERK6QPoint, symObjAddr: 0x239D0, symBinAddr: 0x2BF10, symSize: 0x30 }
  - { offset: 0xD1AC4, size: 0x8, addend: 0x0, symName: __ZL8spriteIdPKN5Tiled6ObjectERK4QUrlRN2Yy7ContextE, symObjAddr: 0x23A00, symBinAddr: 0x2BF40, symSize: 0x1F0 }
  - { offset: 0xD1B22, size: 0x8, addend: 0x0, symName: __ZNK5QSize5widthEv, symObjAddr: 0x23BF0, symBinAddr: 0x2C130, symSize: 0x20 }
  - { offset: 0xD1B49, size: 0x8, addend: 0x0, symName: __ZNK5QSize6heightEv, symObjAddr: 0x23C10, symBinAddr: 0x2C150, symSize: 0x20 }
  - { offset: 0xD1B70, size: 0x8, addend: 0x0, symName: __ZN7QPointF2ryEv, symObjAddr: 0x23C30, symBinAddr: 0x2C170, symSize: 0x20 }
  - { offset: 0xD1B98, size: 0x8, addend: 0x0, symName: __ZN7QPointF2rxEv, symObjAddr: 0x23C50, symBinAddr: 0x2C190, symSize: 0x10 }
  - { offset: 0xD1BC0, size: 0x8, addend: 0x0, symName: __ZL21initializeTileGraphicRN2Yy10GMRGraphicE5QSizeRKN5Tiled4CellEPKNS3_4TileERNS_7ContextE, symObjAddr: 0x23C60, symBinAddr: 0x2C1A0, symSize: 0x1F0 }
  - { offset: 0xD1C59, size: 0x8, addend: 0x0, symName: __ZN2Yy7Context10makeUniqueERK7QString, symObjAddr: 0x23E50, symBinAddr: 0x2C390, symSize: 0x250 }
  - { offset: 0xD1CD8, size: 0x8, addend: 0x0, symName: __ZNK7QString3argIiLb1EEES_T_ii5QChar, symObjAddr: 0x240A0, symBinAddr: 0x2C5E0, symSize: 0x60 }
  - { offset: 0xD1D49, size: 0x8, addend: 0x0, symName: __ZNK5Tiled4Tile2idEv, symObjAddr: 0x24100, symBinAddr: 0x2C640, symSize: 0x20 }
  - { offset: 0xD1D70, size: 0x8, addend: 0x0, symName: __ZNK4QMapIiPN5Tiled4TileEE5valueERKiRKS2_, symObjAddr: 0x24120, symBinAddr: 0x2C660, symSize: 0xB0 }
  - { offset: 0xD1DC4, size: 0x8, addend: 0x0, symName: __ZNK9QtPrivate30QExplicitlySharedDataPointerV2I8QMapDataINSt3__13mapIiPN5Tiled4TileENS2_4lessIiEENS2_9allocatorINS2_4pairIKiS6_EEEEEEEEcvbEv, symObjAddr: 0x241D0, symBinAddr: 0x2C710, symSize: 0x30 }
  - { offset: 0xD1DEA, size: 0x8, addend: 0x0, symName: __ZNK9QtPrivate30QExplicitlySharedDataPointerV2I8QMapDataINSt3__13mapIiPN5Tiled4TileENS2_4lessIiEENS2_9allocatorINS2_4pairIKiS6_EEEEEEEEptEv, symObjAddr: 0x24200, symBinAddr: 0x2C740, symSize: 0x20 }
  - { offset: 0xD1E10, size: 0x8, addend: 0x0, symName: __ZNKSt3__13mapIiPN5Tiled4TileENS_4lessIiEENS_9allocatorINS_4pairIKiS3_EEEEE4findB9nqe210106ERS8_, symObjAddr: 0x24220, symBinAddr: 0x2C760, symSize: 0x40 }
  - { offset: 0xD1E45, size: 0x8, addend: 0x0, symName: __ZNKSt3__13mapIiPN5Tiled4TileENS_4lessIiEENS_9allocatorINS_4pairIKiS3_EEEEE4cendB9nqe210106Ev, symObjAddr: 0x24290, symBinAddr: 0x2C7D0, symSize: 0x30 }
  - { offset: 0xD1E6B, size: 0x8, addend: 0x0, symName: __ZNKSt3__120__map_const_iteratorINS_21__tree_const_iteratorINS_12__value_typeIiPN5Tiled4TileEEEPNS_11__tree_nodeIS6_PvEElEEEptB9nqe210106Ev, symObjAddr: 0x242C0, symBinAddr: 0x2C800, symSize: 0x30 }
  - { offset: 0xD1E91, size: 0x8, addend: 0x0, symName: __ZNK2Qt23totally_ordered_wrapperIP8QMapDataINSt3__13mapIiPN5Tiled4TileENS2_4lessIiEENS2_9allocatorINS2_4pairIKiS6_EEEEEEEE3getEv, symObjAddr: 0x242F0, symBinAddr: 0x2C830, symSize: 0x20 }
  - { offset: 0xD1EB7, size: 0x8, addend: 0x0, symName: __ZNKSt3__16__treeINS_12__value_typeIiPN5Tiled4TileEEENS_19__map_value_compareIiNS_4pairIKiS4_EENS_4lessIiEELb1EEENS_9allocatorIS9_EEE4findIiEENS_21__tree_const_iteratorIS5_PNS_11__tree_nodeIS5_PvEElEERKT_, symObjAddr: 0x24310, symBinAddr: 0x2C850, symSize: 0xD0 }
  - { offset: 0xD1F05, size: 0x8, addend: 0x0, symName: __ZNSt3__120__map_const_iteratorINS_21__tree_const_iteratorINS_12__value_typeIiPN5Tiled4TileEEEPNS_11__tree_nodeIS6_PvEElEEEC1B9nqe210106ESB_, symObjAddr: 0x243E0, symBinAddr: 0x2C920, symSize: 0x30 }
  - { offset: 0xD1F3E, size: 0x8, addend: 0x0, symName: __ZNKSt3__16__treeINS_12__value_typeIiPN5Tiled4TileEEENS_19__map_value_compareIiNS_4pairIKiS4_EENS_4lessIiEELb1EEENS_9allocatorIS9_EEE13__lower_boundIiEENS_21__tree_const_iteratorIS5_PNS_11__tree_nodeIS5_PvEElEERKT_SL_PNS_15__tree_end_nodeIPNS_16__tree_node_baseISJ_EEEE, symObjAddr: 0x24410, symBinAddr: 0x2C950, symSize: 0x90 }
  - { offset: 0xD1F9A, size: 0x8, addend: 0x0, symName: __ZNKSt3__16__treeINS_12__value_typeIiPN5Tiled4TileEEENS_19__map_value_compareIiNS_4pairIKiS4_EENS_4lessIiEELb1EEENS_9allocatorIS9_EEE6__rootB9nqe210106Ev, symObjAddr: 0x244A0, symBinAddr: 0x2C9E0, symSize: 0x20 }
  - { offset: 0xD1FC0, size: 0x8, addend: 0x0, symName: __ZNKSt3__16__treeINS_12__value_typeIiPN5Tiled4TileEEENS_19__map_value_compareIiNS_4pairIKiS4_EENS_4lessIiEELb1EEENS_9allocatorIS9_EEE10__end_nodeB9nqe210106Ev, symObjAddr: 0x244C0, symBinAddr: 0x2CA00, symSize: 0x20 }
  - { offset: 0xD1FE6, size: 0x8, addend: 0x0, symName: __ZNKSt3__16__treeINS_12__value_typeIiPN5Tiled4TileEEENS_19__map_value_compareIiNS_4pairIKiS4_EENS_4lessIiEELb1EEENS_9allocatorIS9_EEE3endB9nqe210106Ev, symObjAddr: 0x24510, symBinAddr: 0x2CA50, symSize: 0x30 }
  - { offset: 0xD200C, size: 0x8, addend: 0x0, symName: __ZNKSt3__16__treeINS_12__value_typeIiPN5Tiled4TileEEENS_19__map_value_compareIiNS_4pairIKiS4_EENS_4lessIiEELb1EEENS_9allocatorIS9_EEE10value_compB9nqe210106Ev, symObjAddr: 0x24540, symBinAddr: 0x2CA80, symSize: 0x20 }
  - { offset: 0xD2032, size: 0x8, addend: 0x0, symName: __ZNKSt3__119__map_value_compareIiNS_4pairIKiPN5Tiled4TileEEENS_4lessIiEELb1EEclB9nqe210106ERS2_RKS6_, symObjAddr: 0x24560, symBinAddr: 0x2CAA0, symSize: 0x30 }
  - { offset: 0xD2076, size: 0x8, addend: 0x0, symName: __ZNKSt3__121__tree_const_iteratorINS_12__value_typeIiPN5Tiled4TileEEEPNS_11__tree_nodeIS5_PvEElEdeB9nqe210106Ev, symObjAddr: 0x24590, symBinAddr: 0x2CAD0, symSize: 0x20 }
  - { offset: 0xD209C, size: 0x8, addend: 0x0, symName: __ZNKSt3__119__map_value_compareIiNS_4pairIKiPN5Tiled4TileEEENS_4lessIiEELb1EEclB9nqe210106ERKS6_RS2_, symObjAddr: 0x245B0, symBinAddr: 0x2CAF0, symSize: 0x30 }
  - { offset: 0xD20E0, size: 0x8, addend: 0x0, symName: __ZNSt3__121__tree_const_iteratorINS_12__value_typeIiPN5Tiled4TileEEEPNS_11__tree_nodeIS5_PvEElEC1B9nqe210106EPNS_15__tree_end_nodeIPNS_16__tree_node_baseIS7_EEEE, symObjAddr: 0x245E0, symBinAddr: 0x2CB20, symSize: 0x30 }
  - { offset: 0xD2119, size: 0x8, addend: 0x0, symName: __ZNKSt3__14lessIiEclB9nqe210106ERKiS3_, symObjAddr: 0x24610, symBinAddr: 0x2CB50, symSize: 0x30 }
  - { offset: 0xD215D, size: 0x8, addend: 0x0, symName: __ZNSt3__121__tree_const_iteratorINS_12__value_typeIiPN5Tiled4TileEEEPNS_11__tree_nodeIS5_PvEElEC2B9nqe210106EPNS_15__tree_end_nodeIPNS_16__tree_node_baseIS7_EEEE, symObjAddr: 0x24640, symBinAddr: 0x2CB80, symSize: 0x20 }
  - { offset: 0xD219B, size: 0x8, addend: 0x0, symName: __ZNSt3__114pointer_traitsIPNS_15__tree_end_nodeIPNS_16__tree_node_baseIPvEEEEE10pointer_toB9nqe210106ERS6_, symObjAddr: 0x24660, symBinAddr: 0x2CBA0, symSize: 0x10 }
  - { offset: 0xD21BE, size: 0x8, addend: 0x0, symName: __ZNKSt3__121__tree_const_iteratorINS_12__value_typeIiPN5Tiled4TileEEEPNS_11__tree_nodeIS5_PvEElE8__get_npB9nqe210106Ev, symObjAddr: 0x246A0, symBinAddr: 0x2CBE0, symSize: 0x20 }
  - { offset: 0xD21E4, size: 0x8, addend: 0x0, symName: __ZNSt3__120__map_const_iteratorINS_21__tree_const_iteratorINS_12__value_typeIiPN5Tiled4TileEEEPNS_11__tree_nodeIS6_PvEElEEEC2B9nqe210106ESB_, symObjAddr: 0x246C0, symBinAddr: 0x2CC00, symSize: 0x20 }
  - { offset: 0xD221D, size: 0x8, addend: 0x0, symName: __ZNKSt3__13mapIiPN5Tiled4TileENS_4lessIiEENS_9allocatorINS_4pairIKiS3_EEEEE3endB9nqe210106Ev, symObjAddr: 0x246E0, symBinAddr: 0x2CC20, symSize: 0x30 }
  - { offset: 0xD2243, size: 0x8, addend: 0x0, symName: __ZNSt3__114pointer_traitsIPKNS_4pairIKiPN5Tiled4TileEEEE10pointer_toB9nqe210106ERS7_, symObjAddr: 0x24710, symBinAddr: 0x2CC50, symSize: 0x10 }
  - { offset: 0xD2266, size: 0x8, addend: 0x0, symName: __ZNSt3__16vectorIN2Yy10GMRGraphicENS_9allocatorIS2_EEE30__emplace_back_assume_capacityB9nqe210106IJRKbEEEvDpOT_, symObjAddr: 0x24720, symBinAddr: 0x2CC60, symSize: 0x90 }
  - { offset: 0xD22B6, size: 0x8, addend: 0x0, symName: __ZNSt3__16vectorIN2Yy10GMRGraphicENS_9allocatorIS2_EEE24__emplace_back_slow_pathIJRKbEEEPS2_DpOT_, symObjAddr: 0x247B0, symBinAddr: 0x2CCF0, symSize: 0xD0 }
  - { offset: 0xD231F, size: 0x8, addend: 0x0, symName: __ZNSt3__16vectorIN2Yy10GMRGraphicENS_9allocatorIS2_EEE21_ConstructTransactionC1B9nqe210106ERS5_m, symObjAddr: 0x24880, symBinAddr: 0x2CDC0, symSize: 0x30 }
  - { offset: 0xD2367, size: 0x8, addend: 0x0, symName: __ZNSt3__116allocator_traitsINS_9allocatorIN2Yy10GMRGraphicEEEE9constructB9nqe210106IS3_JRKbELi0EEEvRS4_PT_DpOT0_, symObjAddr: 0x248B0, symBinAddr: 0x2CDF0, symSize: 0x30 }
  - { offset: 0xD23C3, size: 0x8, addend: 0x0, symName: __ZNSt3__16vectorIN2Yy10GMRGraphicENS_9allocatorIS2_EEE21_ConstructTransactionD1B9nqe210106Ev, symObjAddr: 0x248F0, symBinAddr: 0x2CE30, symSize: 0x20 }
  - { offset: 0xD23ED, size: 0x8, addend: 0x0, symName: __ZNSt3__16vectorIN2Yy10GMRGraphicENS_9allocatorIS2_EEE21_ConstructTransactionC2B9nqe210106ERS5_m, symObjAddr: 0x24910, symBinAddr: 0x2CE50, symSize: 0x60 }
  - { offset: 0xD2435, size: 0x8, addend: 0x0, symName: __ZNKSt3__16vectorIN2Yy10GMRGraphicENS_9allocatorIS2_EEE19__annotate_increaseB9nqe210106Em, symObjAddr: 0x24970, symBinAddr: 0x2CEB0, symSize: 0x90 }
  - { offset: 0xD246A, size: 0x8, addend: 0x0, symName: __ZNKSt3__16vectorIN2Yy10GMRGraphicENS_9allocatorIS2_EEE31__annotate_contiguous_containerB9nqe210106EPKvS7_, symObjAddr: 0x24A00, symBinAddr: 0x2CF40, symSize: 0x60 }
  - { offset: 0xD24AE, size: 0x8, addend: 0x0, symName: __ZNKSt3__16vectorIN2Yy10GMRGraphicENS_9allocatorIS2_EEE4dataB9nqe210106Ev, symObjAddr: 0x24A60, symBinAddr: 0x2CFA0, symSize: 0x20 }
  - { offset: 0xD24D4, size: 0x8, addend: 0x0, symName: __ZNKSt3__16vectorIN2Yy10GMRGraphicENS_9allocatorIS2_EEE4sizeB9nqe210106Ev, symObjAddr: 0x24A80, symBinAddr: 0x2CFC0, symSize: 0x30 }
  - { offset: 0xD24FA, size: 0x8, addend: 0x0, symName: __ZNKSt3__16vectorIN2Yy10GMRGraphicENS_9allocatorIS2_EEE8capacityB9nqe210106Ev, symObjAddr: 0x24AD0, symBinAddr: 0x2D010, symSize: 0x30 }
  - { offset: 0xD2520, size: 0x8, addend: 0x0, symName: __ZNSt3__19allocatorIN2Yy10GMRGraphicEE9constructB9nqe210106IS2_JRKbEEEvPT_DpOT0_, symObjAddr: 0x24B00, symBinAddr: 0x2D040, symSize: 0x30 }
  - { offset: 0xD2576, size: 0x8, addend: 0x0, symName: __ZN2Yy10GMRGraphicC1Eb, symObjAddr: 0x24B30, symBinAddr: 0x2D070, symSize: 0x30 }
  - { offset: 0xD25AE, size: 0x8, addend: 0x0, symName: __ZN2Yy10GMRGraphicC2Eb, symObjAddr: 0x24B60, symBinAddr: 0x2D0A0, symSize: 0xC0 }
  - { offset: 0xD25E6, size: 0x8, addend: 0x0, symName: __ZNSt3__16vectorIN2Yy10GMRGraphicENS_9allocatorIS2_EEE21_ConstructTransactionD2B9nqe210106Ev, symObjAddr: 0x24C20, symBinAddr: 0x2D160, symSize: 0x60 }
  - { offset: 0xD2610, size: 0x8, addend: 0x0, symName: __ZNKSt3__16vectorIN2Yy10GMRGraphicENS_9allocatorIS2_EEE17__annotate_shrinkB9nqe210106Em, symObjAddr: 0x24C80, symBinAddr: 0x2D1C0, symSize: 0x70 }
  - { offset: 0xD2645, size: 0x8, addend: 0x0, symName: __ZNKSt3__16vectorIN2Yy10GMRGraphicENS_9allocatorIS2_EEE11__recommendB9nqe210106Em, symObjAddr: 0x24CF0, symBinAddr: 0x2D230, symSize: 0x80 }
  - { offset: 0xD269C, size: 0x8, addend: 0x0, symName: __ZNSt3__114__split_bufferIN2Yy10GMRGraphicERNS_9allocatorIS2_EEEC1EmmS5_, symObjAddr: 0x24D70, symBinAddr: 0x2D2B0, symSize: 0x40 }
  - { offset: 0xD26F2, size: 0x8, addend: 0x0, symName: __ZNSt3__16vectorIN2Yy10GMRGraphicENS_9allocatorIS2_EEE26__swap_out_circular_bufferERNS_14__split_bufferIS2_RS4_EE, symObjAddr: 0x24DB0, symBinAddr: 0x2D2F0, symSize: 0x120 }
  - { offset: 0xD2739, size: 0x8, addend: 0x0, symName: __ZNSt3__114__split_bufferIN2Yy10GMRGraphicERNS_9allocatorIS2_EEED1Ev, symObjAddr: 0x24ED0, symBinAddr: 0x2D410, symSize: 0x20 }
  - { offset: 0xD2765, size: 0x8, addend: 0x0, symName: __ZNKSt3__16vectorIN2Yy10GMRGraphicENS_9allocatorIS2_EEE8max_sizeB9nqe210106Ev, symObjAddr: 0x24EF0, symBinAddr: 0x2D430, symSize: 0x50 }
  - { offset: 0xD278B, size: 0x8, addend: 0x0, symName: __ZNSt3__16vectorIN2Yy10GMRGraphicENS_9allocatorIS2_EEE20__throw_length_errorB9nqe210106Ev, symObjAddr: 0x24F40, symBinAddr: 0x2D480, symSize: 0x10 }
  - { offset: 0xD27A9, size: 0x8, addend: 0x0, symName: __ZNSt3__116allocator_traitsINS_9allocatorIN2Yy10GMRGraphicEEEE8max_sizeB9nqe210106IS4_Li0EEEmRKS4_, symObjAddr: 0x24F50, symBinAddr: 0x2D490, symSize: 0x20 }
  - { offset: 0xD27DC, size: 0x8, addend: 0x0, symName: __ZNKSt3__19allocatorIN2Yy10GMRGraphicEE8max_sizeB9nqe210106Ev, symObjAddr: 0x24F70, symBinAddr: 0x2D4B0, symSize: 0x20 }
  - { offset: 0xD2802, size: 0x8, addend: 0x0, symName: __ZNSt3__114__split_bufferIN2Yy10GMRGraphicERNS_9allocatorIS2_EEEC2EmmS5_, symObjAddr: 0x24F90, symBinAddr: 0x2D4D0, symSize: 0xB0 }
  - { offset: 0xD2877, size: 0x8, addend: 0x0, symName: __ZNSt3__19allocatorIN2Yy10GMRGraphicEE8allocateB9nqe210106Em, symObjAddr: 0x25080, symBinAddr: 0x2D5C0, symSize: 0x50 }
  - { offset: 0xD28AB, size: 0x8, addend: 0x0, symName: __ZNKSt3__16vectorIN2Yy10GMRGraphicENS_9allocatorIS2_EEE17__annotate_deleteB9nqe210106Ev, symObjAddr: 0x25130, symBinAddr: 0x2D670, symSize: 0x80 }
  - { offset: 0xD28D1, size: 0x8, addend: 0x0, symName: __ZNKSt3__16vectorIN2Yy10GMRGraphicENS_9allocatorIS2_EEE14__annotate_newB9nqe210106Em, symObjAddr: 0x252F0, symBinAddr: 0x2D830, symSize: 0x80 }
  - { offset: 0xD2906, size: 0x8, addend: 0x0, symName: __ZNSt3__129_AllocatorDestroyRangeReverseINS_9allocatorIN2Yy10GMRGraphicEEEPS3_EC1B9nqe210106ERS4_RS5_S8_, symObjAddr: 0x253D0, symBinAddr: 0x2D910, symSize: 0x40 }
  - { offset: 0xD2962, size: 0x8, addend: 0x0, symName: __ZNSt3__116allocator_traitsINS_9allocatorIN2Yy10GMRGraphicEEEE9constructB9nqe210106IS3_JS3_ELi0EEEvRS4_PT_DpOT0_, symObjAddr: 0x25410, symBinAddr: 0x2D950, symSize: 0x30 }
  - { offset: 0xD29BE, size: 0x8, addend: 0x0, symName: __ZNSt3__128__exception_guard_exceptionsINS_29_AllocatorDestroyRangeReverseINS_9allocatorIN2Yy10GMRGraphicEEEPS4_EEE10__completeB9nqe210106Ev, symObjAddr: 0x25440, symBinAddr: 0x2D980, symSize: 0x20 }
  - { offset: 0xD29E4, size: 0x8, addend: 0x0, symName: __ZNSt3__128__exception_guard_exceptionsINS_29_AllocatorDestroyRangeReverseINS_9allocatorIN2Yy10GMRGraphicEEEPS4_EEED1B9nqe210106Ev, symObjAddr: 0x254B0, symBinAddr: 0x2D9F0, symSize: 0x20 }
  - { offset: 0xD2A0E, size: 0x8, addend: 0x0, symName: __ZNSt3__128__exception_guard_exceptionsINS_29_AllocatorDestroyRangeReverseINS_9allocatorIN2Yy10GMRGraphicEEEPS4_EEEC1B9nqe210106ES7_, symObjAddr: 0x254D0, symBinAddr: 0x2DA10, symSize: 0x40 }
  - { offset: 0xD2A46, size: 0x8, addend: 0x0, symName: __ZNSt3__128__exception_guard_exceptionsINS_29_AllocatorDestroyRangeReverseINS_9allocatorIN2Yy10GMRGraphicEEEPS4_EEEC2B9nqe210106ES7_, symObjAddr: 0x25510, symBinAddr: 0x2DA50, symSize: 0x30 }
  - { offset: 0xD2A7E, size: 0x8, addend: 0x0, symName: __ZNSt3__129_AllocatorDestroyRangeReverseINS_9allocatorIN2Yy10GMRGraphicEEEPS3_EC2B9nqe210106ERS4_RS5_S8_, symObjAddr: 0x25540, symBinAddr: 0x2DA80, symSize: 0x40 }
  - { offset: 0xD2AD5, size: 0x8, addend: 0x0, symName: __ZNSt3__19allocatorIN2Yy10GMRGraphicEE9constructB9nqe210106IS2_JS2_EEEvPT_DpOT0_, symObjAddr: 0x25580, symBinAddr: 0x2DAC0, symSize: 0x30 }
  - { offset: 0xD2B2B, size: 0x8, addend: 0x0, symName: __ZN2Yy10GMRGraphicC1EOS0_, symObjAddr: 0x255B0, symBinAddr: 0x2DAF0, symSize: 0x30 }
  - { offset: 0xD2B60, size: 0x8, addend: 0x0, symName: __ZN2Yy10GMRGraphicC2EOS0_, symObjAddr: 0x255E0, symBinAddr: 0x2DB20, symSize: 0xD0 }
  - { offset: 0xD2B9A, size: 0x8, addend: 0x0, symName: __ZN2Yy10GMResourceC2ERKS0_, symObjAddr: 0x256B0, symBinAddr: 0x2DBF0, symSize: 0x80 }
  - { offset: 0xD2BCF, size: 0x8, addend: 0x0, symName: __ZN5QListI7QStringEC1ERKS1_, symObjAddr: 0x25730, symBinAddr: 0x2DC70, symSize: 0x30 }
  - { offset: 0xD2C04, size: 0x8, addend: 0x0, symName: __ZN5QListI7QStringEC2ERKS1_, symObjAddr: 0x25760, symBinAddr: 0x2DCA0, symSize: 0x30 }
  - { offset: 0xD2C39, size: 0x8, addend: 0x0, symName: __ZN17QArrayDataPointerI7QStringEC1ERKS1_, symObjAddr: 0x25790, symBinAddr: 0x2DCD0, symSize: 0x30 }
  - { offset: 0xD2C71, size: 0x8, addend: 0x0, symName: __ZN17QArrayDataPointerI7QStringEC2ERKS1_, symObjAddr: 0x257C0, symBinAddr: 0x2DD00, symSize: 0x50 }
  - { offset: 0xD2CA9, size: 0x8, addend: 0x0, symName: __ZN17QArrayDataPointerI7QStringE3refEv, symObjAddr: 0x25810, symBinAddr: 0x2DD50, symSize: 0x30 }
  - { offset: 0xD2CCF, size: 0x8, addend: 0x0, symName: __ZN10QArrayData3refEv, symObjAddr: 0x25840, symBinAddr: 0x2DD80, symSize: 0x20 }
  - { offset: 0xD2CF5, size: 0x8, addend: 0x0, symName: __ZN19QBasicAtomicIntegerIiE10refRelaxedEv, symObjAddr: 0x25860, symBinAddr: 0x2DDA0, symSize: 0x20 }
  - { offset: 0xD2D45, size: 0x8, addend: 0x0, symName: __ZN10QAtomicOpsIiE18fetchAndAddRelaxedIiEET_RNSt3__16atomicIS2_EEN19QAtomicAdditiveTypeIS2_E9AdditiveTE, symObjAddr: 0x25880, symBinAddr: 0x2DDC0, symSize: 0x30 }
  - { offset: 0xD2D81, size: 0x8, addend: 0x0, symName: __ZNSt3__116allocator_traitsINS_9allocatorIN2Yy10GMRGraphicEEEE7destroyB9nqe210106IS3_Li0EEEvRS4_PT_, symObjAddr: 0x258B0, symBinAddr: 0x2DDF0, symSize: 0x30 }
  - { offset: 0xD2DC3, size: 0x8, addend: 0x0, symName: __ZNSt3__19allocatorIN2Yy10GMRGraphicEE7destroyB9nqe210106EPS2_, symObjAddr: 0x258E0, symBinAddr: 0x2DE20, symSize: 0x20 }
  - { offset: 0xD2DF7, size: 0x8, addend: 0x0, symName: __ZNSt3__128__exception_guard_exceptionsINS_29_AllocatorDestroyRangeReverseINS_9allocatorIN2Yy10GMRGraphicEEEPS4_EEED2B9nqe210106Ev, symObjAddr: 0x25900, symBinAddr: 0x2DE40, symSize: 0x40 }
  - { offset: 0xD2E21, size: 0x8, addend: 0x0, symName: __ZNKSt3__129_AllocatorDestroyRangeReverseINS_9allocatorIN2Yy10GMRGraphicEEEPS3_EclB9nqe210106Ev, symObjAddr: 0x25940, symBinAddr: 0x2DE80, symSize: 0x60 }
  - { offset: 0xD2E47, size: 0x8, addend: 0x0, symName: __ZNSt3__116reverse_iteratorIPN2Yy10GMRGraphicEEC1B9nqe210106ES3_, symObjAddr: 0x25A00, symBinAddr: 0x2DF40, symSize: 0x30 }
  - { offset: 0xD2E7F, size: 0x8, addend: 0x0, symName: __ZNKSt3__116reverse_iteratorIPN2Yy10GMRGraphicEEdeB9nqe210106Ev, symObjAddr: 0x25A70, symBinAddr: 0x2DFB0, symSize: 0x30 }
  - { offset: 0xD2EB3, size: 0x8, addend: 0x0, symName: __ZNSt3__116reverse_iteratorIPN2Yy10GMRGraphicEEppB9nqe210106Ev, symObjAddr: 0x25AA0, symBinAddr: 0x2DFE0, symSize: 0x20 }
  - { offset: 0xD2ED9, size: 0x8, addend: 0x0, symName: __ZNKSt3__116reverse_iteratorIPN2Yy10GMRGraphicEE4baseB9nqe210106Ev, symObjAddr: 0x25AC0, symBinAddr: 0x2E000, symSize: 0x20 }
  - { offset: 0xD2EFF, size: 0x8, addend: 0x0, symName: __ZNSt3__116reverse_iteratorIPN2Yy10GMRGraphicEEC2B9nqe210106ES3_, symObjAddr: 0x25AE0, symBinAddr: 0x2E020, symSize: 0x30 }
  - { offset: 0xD2F37, size: 0x8, addend: 0x0, symName: __ZNSt3__114__split_bufferIN2Yy10GMRGraphicERNS_9allocatorIS2_EEED2Ev, symObjAddr: 0x25B10, symBinAddr: 0x2E050, symSize: 0x60 }
  - { offset: 0xD2F63, size: 0x8, addend: 0x0, symName: __ZNSt3__114__split_bufferIN2Yy10GMRGraphicERNS_9allocatorIS2_EEE5clearB9nqe210106Ev, symObjAddr: 0x25B70, symBinAddr: 0x2E0B0, symSize: 0x20 }
  - { offset: 0xD2F89, size: 0x8, addend: 0x0, symName: __ZNSt3__116allocator_traitsINS_9allocatorIN2Yy10GMRGraphicEEEE10deallocateB9nqe210106ERS4_PS3_m, symObjAddr: 0x25B90, symBinAddr: 0x2E0D0, symSize: 0x30 }
  - { offset: 0xD2FCB, size: 0x8, addend: 0x0, symName: __ZNKSt3__114__split_bufferIN2Yy10GMRGraphicERNS_9allocatorIS2_EEE8capacityB9nqe210106Ev, symObjAddr: 0x25BC0, symBinAddr: 0x2E100, symSize: 0x30 }
  - { offset: 0xD2FF1, size: 0x8, addend: 0x0, symName: __ZNSt3__114__split_bufferIN2Yy10GMRGraphicERNS_9allocatorIS2_EEE17__destruct_at_endB9nqe210106EPS2_, symObjAddr: 0x25BF0, symBinAddr: 0x2E130, symSize: 0x30 }
  - { offset: 0xD3025, size: 0x8, addend: 0x0, symName: __ZNSt3__114__split_bufferIN2Yy10GMRGraphicERNS_9allocatorIS2_EEE17__destruct_at_endB9nqe210106EPS2_NS_17integral_constantIbLb0EEE, symObjAddr: 0x25C20, symBinAddr: 0x2E160, symSize: 0x70 }
  - { offset: 0xD3065, size: 0x8, addend: 0x0, symName: __ZNSt3__19allocatorIN2Yy10GMRGraphicEE10deallocateB9nqe210106EPS2_m, symObjAddr: 0x25C90, symBinAddr: 0x2E1D0, symSize: 0x30 }
  - { offset: 0xD30A7, size: 0x8, addend: 0x0, symName: __ZNK5QRect4sizeEv, symObjAddr: 0x25D10, symBinAddr: 0x2E250, symSize: 0x40 }
  - { offset: 0xD30CF, size: 0x8, addend: 0x0, symName: __ZNK5QRect5widthEv, symObjAddr: 0x25D50, symBinAddr: 0x2E290, symSize: 0x60 }
  - { offset: 0xD30F7, size: 0x8, addend: 0x0, symName: __ZNK5QRect6heightEv, symObjAddr: 0x25DB0, symBinAddr: 0x2E2F0, symSize: 0x60 }
  - { offset: 0xD311F, size: 0x8, addend: 0x0, symName: __ZN9QtPrivate16QCheckedIntegers13SafeCheckImplIiE3subEiiPi, symObjAddr: 0x25E70, symBinAddr: 0x2E3B0, symSize: 0x40 }
  - { offset: 0xD315D, size: 0x8, addend: 0x0, symName: __Z12qSubOverflowIiENSt3__19enable_ifIXsr3stdE11is_signed_vIT_EEbE4typeES2_S2_PS2_, symObjAddr: 0x25EB0, symBinAddr: 0x2E3F0, symSize: 0x30 }
  - { offset: 0xD31B3, size: 0x8, addend: 0x0, symName: __ZNKR8QVariant5valueIdEET_v, symObjAddr: 0x25EE0, symBinAddr: 0x2E420, symSize: 0x20 }
  - { offset: 0xD31E1, size: 0x8, addend: 0x0, symName: __Z13qvariant_castIdET_RK8QVariant, symObjAddr: 0x25F00, symBinAddr: 0x2E440, symSize: 0x70 }
  - { offset: 0xD3228, size: 0x8, addend: 0x0, symName: __ZN9QMetaType8fromTypeIdEES_v, symObjAddr: 0x25F70, symBinAddr: 0x2E4B0, symSize: 0x30 }
  - { offset: 0xD3245, size: 0x8, addend: 0x0, symName: __ZeqRK9QMetaTypeS1_, symObjAddr: 0x25FA0, symBinAddr: 0x2E4E0, symSize: 0x30 }
  - { offset: 0xD329A, size: 0x8, addend: 0x0, symName: __ZNK8QVariant7Private4typeEv, symObjAddr: 0x25FD0, symBinAddr: 0x2E510, symSize: 0x30 }
  - { offset: 0xD32C0, size: 0x8, addend: 0x0, symName: __ZNK8QVariant7Private3getIdEERKT_v, symObjAddr: 0x26000, symBinAddr: 0x2E540, symSize: 0x20 }
  - { offset: 0xD32EF, size: 0x8, addend: 0x0, symName: __ZN9QMetaTypeC1EPKN9QtPrivate18QMetaTypeInterfaceE, symObjAddr: 0x260A0, symBinAddr: 0x2E5E0, symSize: 0x30 }
  - { offset: 0xD3328, size: 0x8, addend: 0x0, symName: __ZN9QMetaTypeC2EPKN9QtPrivate18QMetaTypeInterfaceE, symObjAddr: 0x260D0, symBinAddr: 0x2E610, symSize: 0x20 }
  - { offset: 0xD3360, size: 0x8, addend: 0x0, symName: __Z13comparesEqualRK9QMetaTypeS1_, symObjAddr: 0x260F0, symBinAddr: 0x2E630, symSize: 0x80 }
  - { offset: 0xD33BE, size: 0x8, addend: 0x0, symName: __ZNK9QMetaType2idEi, symObjAddr: 0x26170, symBinAddr: 0x2E6B0, symSize: 0x20 }
  - { offset: 0xD33F0, size: 0x8, addend: 0x0, symName: __ZNK9QMetaType14registerHelperEv, symObjAddr: 0x26190, symBinAddr: 0x2E6D0, symSize: 0x70 }
  - { offset: 0xD3435, size: 0x8, addend: 0x0, symName: __ZNK8QVariant7Private13typeInterfaceEv, symObjAddr: 0x26200, symBinAddr: 0x2E740, symSize: 0x20 }
  - { offset: 0xD345B, size: 0x8, addend: 0x0, symName: __ZNK8QVariant7Private7storageEv, symObjAddr: 0x26220, symBinAddr: 0x2E760, symSize: 0x50 }
  - { offset: 0xD3481, size: 0x8, addend: 0x0, symName: __ZN8QVariant13PrivateShared4dataEv, symObjAddr: 0x26270, symBinAddr: 0x2E7B0, symSize: 0x20 }
  - { offset: 0xD34A7, size: 0x8, addend: 0x0, symName: __ZNK8QVariant8metaTypeEv, symObjAddr: 0x26290, symBinAddr: 0x2E7D0, symSize: 0x30 }
  - { offset: 0xD34CF, size: 0x8, addend: 0x0, symName: __ZNK8QVariant9constDataEv, symObjAddr: 0x262C0, symBinAddr: 0x2E800, symSize: 0x20 }
  - { offset: 0xD34F5, size: 0x8, addend: 0x0, symName: __ZN7QPointFC2Edd, symObjAddr: 0x262E0, symBinAddr: 0x2E820, symSize: 0x30 }
  - { offset: 0xD353F, size: 0x8, addend: 0x0, symName: __ZN7QPointFC2ERK6QPoint, symObjAddr: 0x26310, symBinAddr: 0x2E850, symSize: 0x50 }
  - { offset: 0xD357A, size: 0x8, addend: 0x0, symName: __ZNKR8QVariant5valueI7QStringEET_v, symObjAddr: 0x26360, symBinAddr: 0x2E8A0, symSize: 0x30 }
  - { offset: 0xD35A9, size: 0x8, addend: 0x0, symName: __ZN2Yy7Context10resourceIdERK7QString, symObjAddr: 0x26390, symBinAddr: 0x2E8D0, symSize: 0xB0 }
  - { offset: 0xD35EE, size: 0x8, addend: 0x0, symName: __ZN6QFlagsIN4QUrl25ComponentFormattingOptionEEC1ES1_, symObjAddr: 0x26440, symBinAddr: 0x2E980, symSize: 0x30 }
  - { offset: 0xD3625, size: 0x8, addend: 0x0, symName: __Z13qvariant_castI7QStringET_RK8QVariant, symObjAddr: 0x26470, symBinAddr: 0x2E9B0, symSize: 0x80 }
  - { offset: 0xD366C, size: 0x8, addend: 0x0, symName: __ZN9QMetaType8fromTypeI7QStringEES_v, symObjAddr: 0x264F0, symBinAddr: 0x2EA30, symSize: 0x30 }
  - { offset: 0xD368A, size: 0x8, addend: 0x0, symName: __ZNK8QVariant7Private3getI7QStringEERKT_v, symObjAddr: 0x26520, symBinAddr: 0x2EA60, symSize: 0x20 }
  - { offset: 0xD36B9, size: 0x8, addend: 0x0, symName: __ZN5QHashI7QStringS0_EixERKS0_, symObjAddr: 0x26610, symBinAddr: 0x2EB50, symSize: 0x30 }
  - { offset: 0xD36EE, size: 0x8, addend: 0x0, symName: __ZN5QHashI7QStringS0_E10tryEmplaceIJEEENS1_16TryEmplaceResultERKS0_DpOT_, symObjAddr: 0x26920, symBinAddr: 0x2EE60, symSize: 0x30 }
  - { offset: 0xD3729, size: 0x8, addend: 0x0, symName: __ZNK5QHashI7QStringS0_E8iteratordeEv, symObjAddr: 0x26950, symBinAddr: 0x2EE90, symSize: 0x20 }
  - { offset: 0xD374F, size: 0x8, addend: 0x0, symName: __ZN5QHashI7QStringS0_E15tryEmplace_implIRKS0_JEEENS1_16TryEmplaceResultEOT_DpOT0_, symObjAddr: 0x26970, symBinAddr: 0x2EEB0, symSize: 0x2C0 }
  - { offset: 0xD3825, size: 0x8, addend: 0x0, symName: __ZN5QHashI7QStringS0_E6detachEv, symObjAddr: 0x26C30, symBinAddr: 0x2F170, symSize: 0x50 }
  - { offset: 0xD384B, size: 0x8, addend: 0x0, symName: __ZNK12QHashPrivate4DataINS_4NodeI7QStringS2_EEE18findBucketWithHashIS2_EENS4_6BucketERKT_m, symObjAddr: 0x26CB0, symBinAddr: 0x2F1F0, symSize: 0xE0 }
  - { offset: 0xD38D6, size: 0x8, addend: 0x0, symName: __ZNK12QHashPrivate4DataINS_4NodeI7QStringS2_EEE6Bucket8isUnusedEv, symObjAddr: 0x26D90, symBinAddr: 0x2F2D0, symSize: 0x30 }
  - { offset: 0xD38FC, size: 0x8, addend: 0x0, symName: __ZNK5QHashI7QStringS0_E10isDetachedEv, symObjAddr: 0x26DC0, symBinAddr: 0x2F300, symSize: 0x40 }
  - { offset: 0xD3922, size: 0x8, addend: 0x0, symName: __ZNK12QHashPrivate4DataINS_4NodeI7QStringS2_EEE10shouldGrowEv, symObjAddr: 0x26E00, symBinAddr: 0x2F340, symSize: 0x30 }
  - { offset: 0xD3948, size: 0x8, addend: 0x0, symName: __ZN5QHashI7QStringS0_EaSERKS1_, symObjAddr: 0x26E30, symBinAddr: 0x2F370, symSize: 0xA0 }
  - { offset: 0xD399C, size: 0x8, addend: 0x0, symName: __ZNK12QHashPrivate4DataINS_4NodeI7QStringS2_EEE6Bucket13toBucketIndexEPKS4_, symObjAddr: 0x26ED0, symBinAddr: 0x2F410, symSize: 0x40 }
  - { offset: 0xD39D1, size: 0x8, addend: 0x0, symName: __ZN12QHashPrivate4DataINS_4NodeI7QStringS2_EEE8detachedEPS4_m, symObjAddr: 0x26F10, symBinAddr: 0x2F450, symSize: 0xF0 }
  - { offset: 0xD3A14, size: 0x8, addend: 0x0, symName: __ZN12QHashPrivate4DataINS_4NodeI7QStringS2_EEE8detachedEPS4_, symObjAddr: 0x27000, symBinAddr: 0x2F540, symSize: 0xE0 }
  - { offset: 0xD3A48, size: 0x8, addend: 0x0, symName: __ZN12QHashPrivate4DataINS_4NodeI7QStringS2_EEE6BucketC1EPKS4_m, symObjAddr: 0x270E0, symBinAddr: 0x2F620, symSize: 0x30 }
  - { offset: 0xD3A90, size: 0x8, addend: 0x0, symName: __ZNK12QHashPrivate4DataINS_4NodeI7QStringS2_EEE6Bucket6insertEv, symObjAddr: 0x27110, symBinAddr: 0x2F650, symSize: 0x30 }
  - { offset: 0xD3AB6, size: 0x8, addend: 0x0, symName: __ZN12QHashPrivate4NodeI7QStringS1_E13createInPlaceIJEEEvPS2_RKS1_DpOT_, symObjAddr: 0x27140, symBinAddr: 0x2F680, symSize: 0x40 }
  - { offset: 0xD3AED, size: 0x8, addend: 0x0, symName: __ZNK12QHashPrivate4DataINS_4NodeI7QStringS2_EEE6Bucket10toIteratorEPKS4_, symObjAddr: 0x27180, symBinAddr: 0x2F6C0, symSize: 0x40 }
  - { offset: 0xD3B22, size: 0x8, addend: 0x0, symName: __ZN5QHashI7QStringS0_E8iteratorC1EN12QHashPrivate8iteratorINS3_4NodeIS0_S0_EEEE, symObjAddr: 0x271C0, symBinAddr: 0x2F700, symSize: 0x30 }
  - { offset: 0xD3B5B, size: 0x8, addend: 0x0, symName: __ZN5QHashI7QStringS0_E16TryEmplaceResultC1ENS1_8iteratorEb, symObjAddr: 0x271F0, symBinAddr: 0x2F730, symSize: 0x40 }
  - { offset: 0xD3BA3, size: 0x8, addend: 0x0, symName: __ZN5QHashI7QStringS0_ED1Ev, symObjAddr: 0x27230, symBinAddr: 0x2F770, symSize: 0x20 }
  - { offset: 0xD3BCD, size: 0x8, addend: 0x0, symName: __ZNK9QtPrivate8RefCount8isSharedEv, symObjAddr: 0x27250, symBinAddr: 0x2F790, symSize: 0x40 }
  - { offset: 0xD3C00, size: 0x8, addend: 0x0, symName: __Z5qHashRK7QStringm, symObjAddr: 0x27290, symBinAddr: 0x2F7D0, symSize: 0x40 }
  - { offset: 0xD3C3B, size: 0x8, addend: 0x0, symName: __ZNK12QHashPrivate4DataINS_4NodeI7QStringS2_EEE6Bucket6offsetEv, symObjAddr: 0x272D0, symBinAddr: 0x2F810, symSize: 0x30 }
  - { offset: 0xD3C61, size: 0x8, addend: 0x0, symName: __ZN12QHashPrivate4DataINS_4NodeI7QStringS2_EEE6Bucket12nodeAtOffsetEm, symObjAddr: 0x27300, symBinAddr: 0x2F840, symSize: 0x30 }
  - { offset: 0xD3C95, size: 0x8, addend: 0x0, symName: __Z11qHashEqualsI7QStringEbRKT_S3_, symObjAddr: 0x27330, symBinAddr: 0x2F870, symSize: 0x30 }
  - { offset: 0xD3CDC, size: 0x8, addend: 0x0, symName: __ZN12QHashPrivate4DataINS_4NodeI7QStringS2_EEE6Bucket14advanceWrappedEPKS4_, symObjAddr: 0x27360, symBinAddr: 0x2F8A0, symSize: 0x30 }
  - { offset: 0xD3D11, size: 0x8, addend: 0x0, symName: __ZNK12QHashPrivate4SpanINS_4NodeI7QStringS2_EEE6offsetEm, symObjAddr: 0x27390, symBinAddr: 0x2F8D0, symSize: 0x20 }
  - { offset: 0xD3D46, size: 0x8, addend: 0x0, symName: __ZN12QHashPrivate4SpanINS_4NodeI7QStringS2_EEE8atOffsetEm, symObjAddr: 0x273B0, symBinAddr: 0x2F8F0, symSize: 0x80 }
  - { offset: 0xD3D7B, size: 0x8, addend: 0x0, symName: __ZN12QHashPrivate4SpanINS_4NodeI7QStringS2_EEE5Entry4nodeEv, symObjAddr: 0x27430, symBinAddr: 0x2F970, symSize: 0x10 }
  - { offset: 0xD3DA0, size: 0x8, addend: 0x0, symName: __ZeqRK7QStringS1_, symObjAddr: 0x27440, symBinAddr: 0x2F980, symSize: 0x30 }
  - { offset: 0xD3DF4, size: 0x8, addend: 0x0, symName: __Z13comparesEqualRK7QStringS1_, symObjAddr: 0x27470, symBinAddr: 0x2F9B0, symSize: 0x40 }
  - { offset: 0xD3E31, size: 0x8, addend: 0x0, symName: __Z13comparesEqualRK11QStringViewS1_, symObjAddr: 0x274B0, symBinAddr: 0x2F9F0, symSize: 0x80 }
  - { offset: 0xD3E6F, size: 0x8, addend: 0x0, symName: __ZN12QHashPrivate4DataINS_4NodeI7QStringS2_EEE6Bucket12advance_implEPKS4_PNS_4SpanIS3_EE, symObjAddr: 0x27530, symBinAddr: 0x2FA70, symSize: 0xC0 }
  - { offset: 0xD3EB3, size: 0x8, addend: 0x0, symName: __ZNK12QHashPrivate4SpanINS_4NodeI7QStringS2_EEE7hasNodeEm, symObjAddr: 0x275F0, symBinAddr: 0x2FB30, symSize: 0x30 }
  - { offset: 0xD3EE8, size: 0x8, addend: 0x0, symName: __ZN9QtPrivate8RefCount3refEv, symObjAddr: 0x27620, symBinAddr: 0x2FB60, symSize: 0x40 }
  - { offset: 0xD3F1C, size: 0x8, addend: 0x0, symName: __ZN12QHashPrivate4DataINS_4NodeI7QStringS2_EEED1Ev, symObjAddr: 0x27660, symBinAddr: 0x2FBA0, symSize: 0x20 }
  - { offset: 0xD3F46, size: 0x8, addend: 0x0, symName: __ZN12QHashPrivate4DataINS_4NodeI7QStringS2_EEED2Ev, symObjAddr: 0x27680, symBinAddr: 0x2FBC0, symSize: 0x80 }
  - { offset: 0xD3F70, size: 0x8, addend: 0x0, symName: __ZN12QHashPrivate4SpanINS_4NodeI7QStringS2_EEED1Ev, symObjAddr: 0x27700, symBinAddr: 0x2FC40, symSize: 0x20 }
  - { offset: 0xD3F9A, size: 0x8, addend: 0x0, symName: __ZN12QHashPrivate4SpanINS_4NodeI7QStringS2_EEED2Ev, symObjAddr: 0x27720, symBinAddr: 0x2FC60, symSize: 0x20 }
  - { offset: 0xD3FC4, size: 0x8, addend: 0x0, symName: __ZN12QHashPrivate4SpanINS_4NodeI7QStringS2_EEE8freeDataEv, symObjAddr: 0x27740, symBinAddr: 0x2FC80, symSize: 0xD0 }
  - { offset: 0xD403F, size: 0x8, addend: 0x0, symName: __ZN12QHashPrivate4NodeI7QStringS1_ED1Ev, symObjAddr: 0x27810, symBinAddr: 0x2FD50, symSize: 0x20 }
  - { offset: 0xD406B, size: 0x8, addend: 0x0, symName: __ZN12QHashPrivate4NodeI7QStringS1_ED2Ev, symObjAddr: 0x27830, symBinAddr: 0x2FD70, symSize: 0x30 }
  - { offset: 0xD4097, size: 0x8, addend: 0x0, symName: __ZN12QHashPrivate4DataINS_4NodeI7QStringS2_EEEC1Em, symObjAddr: 0x27860, symBinAddr: 0x2FDA0, symSize: 0x30 }
  - { offset: 0xD40D0, size: 0x8, addend: 0x0, symName: __ZN12QHashPrivate4DataINS_4NodeI7QStringS2_EEEC1ERKS4_m, symObjAddr: 0x27890, symBinAddr: 0x2FDD0, symSize: 0x30 }
  - { offset: 0xD4118, size: 0x8, addend: 0x0, symName: __ZN12QHashPrivate4DataINS_4NodeI7QStringS2_EEEC2Em, symObjAddr: 0x278C0, symBinAddr: 0x2FE00, symSize: 0xA0 }
  - { offset: 0xD4151, size: 0x8, addend: 0x0, symName: __ZN19QBasicAtomicIntegerIiEC1Ei, symObjAddr: 0x27960, symBinAddr: 0x2FEA0, symSize: 0x30 }
  - { offset: 0xD4189, size: 0x8, addend: 0x0, symName: __ZN12QHashPrivate4DataINS_4NodeI7QStringS2_EEE13allocateSpansEm, symObjAddr: 0x27A00, symBinAddr: 0x2FF40, symSize: 0x100 }
  - { offset: 0xD4255, size: 0x8, addend: 0x0, symName: __ZNK9QHashSeedcvmEv, symObjAddr: 0x27B00, symBinAddr: 0x30040, symSize: 0x20 }
  - { offset: 0xD427B, size: 0x8, addend: 0x0, symName: __ZN19QBasicAtomicIntegerIiEC2Ei, symObjAddr: 0x27B20, symBinAddr: 0x30060, symSize: 0x30 }
  - { offset: 0xD42B3, size: 0x8, addend: 0x0, symName: __ZNSt3__16atomicIiEC1B9nqe210106Ei, symObjAddr: 0x27B50, symBinAddr: 0x30090, symSize: 0x30 }
  - { offset: 0xD42EB, size: 0x8, addend: 0x0, symName: __ZNSt3__16atomicIiEC2B9nqe210106Ei, symObjAddr: 0x27B80, symBinAddr: 0x300C0, symSize: 0x30 }
  - { offset: 0xD4323, size: 0x8, addend: 0x0, symName: __ZNSt3__113__atomic_baseIiLb1EEC2B9nqe210106Ei, symObjAddr: 0x27BB0, symBinAddr: 0x300F0, symSize: 0x30 }
  - { offset: 0xD435B, size: 0x8, addend: 0x0, symName: __ZNSt3__113__atomic_baseIiLb0EEC2B9nqe210106Ei, symObjAddr: 0x27BE0, symBinAddr: 0x30120, symSize: 0x30 }
  - { offset: 0xD4393, size: 0x8, addend: 0x0, symName: __ZNSt3__117__cxx_atomic_implIiNS_22__cxx_atomic_base_implIiEEEC1B9nqe210106Ei, symObjAddr: 0x27C10, symBinAddr: 0x30150, symSize: 0x30 }
  - { offset: 0xD43CB, size: 0x8, addend: 0x0, symName: __ZNSt3__117__cxx_atomic_implIiNS_22__cxx_atomic_base_implIiEEEC2B9nqe210106Ei, symObjAddr: 0x27C40, symBinAddr: 0x30180, symSize: 0x30 }
  - { offset: 0xD4403, size: 0x8, addend: 0x0, symName: __ZNSt3__122__cxx_atomic_base_implIiEC2Ei, symObjAddr: 0x27C70, symBinAddr: 0x301B0, symSize: 0x20 }
  - { offset: 0xD443A, size: 0x8, addend: 0x0, symName: __Z21qCountLeadingZeroBitsm, symObjAddr: 0x27C90, symBinAddr: 0x301D0, symSize: 0x20 }
  - { offset: 0xD4467, size: 0x8, addend: 0x0, symName: __ZNSt3__114numeric_limitsImE3maxB9nqe210106Ev, symObjAddr: 0x27CB0, symBinAddr: 0x301F0, symSize: 0x10 }
  - { offset: 0xD447F, size: 0x8, addend: 0x0, symName: __ZN3q2011countl_zeroImEENSt3__19enable_ifIXsr3stdE13is_unsigned_vIT_EEiE4typeES3_, symObjAddr: 0x27CC0, symBinAddr: 0x30200, symSize: 0x30 }
  - { offset: 0xD44B6, size: 0x8, addend: 0x0, symName: __ZNSt3__123__libcpp_numeric_limitsImLb1EE3maxB9nqe210106Ev, symObjAddr: 0x27CF0, symBinAddr: 0x30230, symSize: 0x10 }
  - { offset: 0xD44CA, size: 0x8, addend: 0x0, symName: __ZN12QHashPrivate4SpanINS_4NodeI7QStringS2_EEEC1Ev, symObjAddr: 0x27D00, symBinAddr: 0x30240, symSize: 0x20 }
  - { offset: 0xD44F4, size: 0x8, addend: 0x0, symName: __ZN12QHashPrivate4SpanINS_4NodeI7QStringS2_EEEC2Ev, symObjAddr: 0x27D20, symBinAddr: 0x30260, symSize: 0x40 }
  - { offset: 0xD45B4, size: 0x8, addend: 0x0, symName: __ZN12QHashPrivate4DataINS_4NodeI7QStringS2_EEEC2ERKS4_m, symObjAddr: 0x27D60, symBinAddr: 0x302A0, symSize: 0x1C0 }
  - { offset: 0xD46D4, size: 0x8, addend: 0x0, symName: __Z4qMaxImERKT_S2_S2_, symObjAddr: 0x27F20, symBinAddr: 0x30460, symSize: 0x40 }
  - { offset: 0xD4718, size: 0x8, addend: 0x0, symName: __ZNK12QHashPrivate4SpanINS_4NodeI7QStringS2_EEE2atEm, symObjAddr: 0x27F60, symBinAddr: 0x304A0, symSize: 0x90 }
  - { offset: 0xD474D, size: 0x8, addend: 0x0, symName: __ZNK12QHashPrivate4DataINS_4NodeI7QStringS2_EEE10findBucketIS2_EENS4_6BucketERKT_, symObjAddr: 0x27FF0, symBinAddr: 0x30530, symSize: 0x50 }
  - { offset: 0xD479B, size: 0x8, addend: 0x0, symName: __ZN12QHashPrivate4DataINS_4NodeI7QStringS2_EEE6BucketC1EPNS_4SpanIS3_EEm, symObjAddr: 0x28040, symBinAddr: 0x30580, symSize: 0x30 }
  - { offset: 0xD47E3, size: 0x8, addend: 0x0, symName: __ZN12QHashPrivate4NodeI7QStringS1_EC1ERKS2_, symObjAddr: 0x28070, symBinAddr: 0x305B0, symSize: 0x30 }
  - { offset: 0xD4818, size: 0x8, addend: 0x0, symName: __ZN12QHashPrivate4DataINS_4NodeI7QStringS2_EEE6BucketC2EPNS_4SpanIS3_EEm, symObjAddr: 0x280A0, symBinAddr: 0x305E0, symSize: 0x30 }
  - { offset: 0xD4860, size: 0x8, addend: 0x0, symName: __ZN12QHashPrivate4NodeI7QStringS1_EC2ERKS2_, symObjAddr: 0x280D0, symBinAddr: 0x30610, symSize: 0x40 }
  - { offset: 0xD4895, size: 0x8, addend: 0x0, symName: __ZN12QHashPrivate4DataINS_4NodeI7QStringS2_EEEC1ERKS4_, symObjAddr: 0x28110, symBinAddr: 0x30650, symSize: 0x30 }
  - { offset: 0xD495A, size: 0x8, addend: 0x0, symName: __ZN12QHashPrivate4DataINS_4NodeI7QStringS2_EEEC2ERKS4_, symObjAddr: 0x28140, symBinAddr: 0x30680, symSize: 0x190 }
  - { offset: 0xD4A6B, size: 0x8, addend: 0x0, symName: __ZN12QHashPrivate4DataINS_4NodeI7QStringS2_EEE6BucketC2EPKS4_m, symObjAddr: 0x282D0, symBinAddr: 0x30810, symSize: 0x40 }
  - { offset: 0xD4AB3, size: 0x8, addend: 0x0, symName: __ZN12QHashPrivate4SpanINS_4NodeI7QStringS2_EEE6insertEm, symObjAddr: 0x28310, symBinAddr: 0x30850, symSize: 0x110 }
  - { offset: 0xD4AF8, size: 0x8, addend: 0x0, symName: __ZN12QHashPrivate4SpanINS_4NodeI7QStringS2_EEE10addStorageEv, symObjAddr: 0x28420, symBinAddr: 0x30960, symSize: 0x1A0 }
  - { offset: 0xD4B5D, size: 0x8, addend: 0x0, symName: __ZN12QHashPrivate4SpanINS_4NodeI7QStringS2_EEE5Entry8nextFreeEv, symObjAddr: 0x285C0, symBinAddr: 0x30B00, symSize: 0x10 }
  - { offset: 0xD4B83, size: 0x8, addend: 0x0, symName: __ZN5QHashI7QStringS0_E8iteratorC2EN12QHashPrivate8iteratorINS3_4NodeIS0_S0_EEEE, symObjAddr: 0x285D0, symBinAddr: 0x30B10, symSize: 0x30 }
  - { offset: 0xD4BBC, size: 0x8, addend: 0x0, symName: __ZN5QHashI7QStringS0_E16TryEmplaceResultC2ENS1_8iteratorEb, symObjAddr: 0x28600, symBinAddr: 0x30B40, symSize: 0x40 }
  - { offset: 0xD4C04, size: 0x8, addend: 0x0, symName: __ZN5QHashI7QStringS0_ED2Ev, symObjAddr: 0x28640, symBinAddr: 0x30B80, symSize: 0x60 }
  - { offset: 0xD4C2E, size: 0x8, addend: 0x0, symName: __ZNK12QHashPrivate8iteratorINS_4NodeI7QStringS2_EEE4nodeEv, symObjAddr: 0x286A0, symBinAddr: 0x30BE0, symSize: 0x80 }
  - { offset: 0xD4C54, size: 0x8, addend: 0x0, symName: __ZNK12QHashPrivate8iteratorINS_4NodeI7QStringS2_EEE8isUnusedEv, symObjAddr: 0x28720, symBinAddr: 0x30C60, symSize: 0x60 }
  - { offset: 0xD4C7A, size: 0x8, addend: 0x0, symName: __ZNK12QHashPrivate8iteratorINS_4NodeI7QStringS2_EEE4spanEv, symObjAddr: 0x28780, symBinAddr: 0x30CC0, symSize: 0x20 }
  - { offset: 0xD4CA0, size: 0x8, addend: 0x0, symName: __ZN12QHashPrivate4SpanINS_4NodeI7QStringS2_EEE2atEm, symObjAddr: 0x287A0, symBinAddr: 0x30CE0, symSize: 0x90 }
  - { offset: 0xD4CD5, size: 0x8, addend: 0x0, symName: __ZNK12QHashPrivate8iteratorINS_4NodeI7QStringS2_EEE5indexEv, symObjAddr: 0x28830, symBinAddr: 0x30D70, symSize: 0x20 }
  - { offset: 0xD4CFB, size: 0x8, addend: 0x0, symName: __ZN5QListI7QStringEC1IA5_cvEERKT_, symObjAddr: 0x28850, symBinAddr: 0x30D90, symSize: 0x30 }
  - { offset: 0xD4D3F, size: 0x8, addend: 0x0, symName: __ZN6QFlagsIN12QDirIterator12IteratorFlagEEC1ES1_, symObjAddr: 0x28880, symBinAddr: 0x30DC0, symSize: 0x30 }
  - { offset: 0xD4D77, size: 0x8, addend: 0x0, symName: __ZN5QListI7QStringEC2IA5_cvEERKT_, symObjAddr: 0x288B0, symBinAddr: 0x30DF0, symSize: 0x90 }
  - { offset: 0xD4DBB, size: 0x8, addend: 0x0, symName: __ZN5QListI7QStringE6appendEOS0_, symObjAddr: 0x28940, symBinAddr: 0x30E80, symSize: 0x30 }
  - { offset: 0xD4DF0, size: 0x8, addend: 0x0, symName: __ZN5QListI7QStringE11emplaceBackIJS0_EEERS0_DpOT_, symObjAddr: 0x28990, symBinAddr: 0x30EB0, symSize: 0x70 }
  - { offset: 0xD4E30, size: 0x8, addend: 0x0, symName: __ZN9QtPrivate16QMovableArrayOpsI7QStringE7emplaceIJS1_EEEvxDpOT_, symObjAddr: 0x28A10, symBinAddr: 0x30F20, symSize: 0x210 }
  - { offset: 0xD4EBF, size: 0x8, addend: 0x0, symName: __ZN5QListI7QStringE3endEv, symObjAddr: 0x28C20, symBinAddr: 0x31130, symSize: 0x40 }
  - { offset: 0xD4EE5, size: 0x8, addend: 0x0, symName: __ZNK5QListI7QStringE8iteratormiEx, symObjAddr: 0x28C60, symBinAddr: 0x31170, symSize: 0x40 }
  - { offset: 0xD4F19, size: 0x8, addend: 0x0, symName: __ZNK5QListI7QStringE8iteratordeEv, symObjAddr: 0x28CA0, symBinAddr: 0x311B0, symSize: 0x20 }
  - { offset: 0xD4F3F, size: 0x8, addend: 0x0, symName: __ZNK17QArrayDataPointerI7QStringE11needsDetachEv, symObjAddr: 0x28CC0, symBinAddr: 0x311D0, symSize: 0x40 }
  - { offset: 0xD4F65, size: 0x8, addend: 0x0, symName: __ZNK17QArrayDataPointerI7QStringE14freeSpaceAtEndEv, symObjAddr: 0x28D00, symBinAddr: 0x31210, symSize: 0x60 }
  - { offset: 0xD4F8B, size: 0x8, addend: 0x0, symName: __ZNK17QArrayDataPointerI7QStringE16freeSpaceAtBeginEv, symObjAddr: 0x28D90, symBinAddr: 0x31270, symSize: 0x60 }
  - { offset: 0xD4FB1, size: 0x8, addend: 0x0, symName: __ZN17QArrayDataPointerI7QStringE13detachAndGrowEN10QArrayData14GrowthPositionExPPKS0_PS1_, symObjAddr: 0x28E10, symBinAddr: 0x312D0, symSize: 0x100 }
  - { offset: 0xD5049, size: 0x8, addend: 0x0, symName: __ZN9QtPrivate16QMovableArrayOpsI7QStringE8InserterC1EP17QArrayDataPointerIS1_Exx, symObjAddr: 0x28F10, symBinAddr: 0x313D0, symSize: 0x40 }
  - { offset: 0xD50A0, size: 0x8, addend: 0x0, symName: __ZN9QtPrivate16QMovableArrayOpsI7QStringE8Inserter9insertOneEOS1_, symObjAddr: 0x28F50, symBinAddr: 0x31410, symSize: 0x40 }
  - { offset: 0xD50D5, size: 0x8, addend: 0x0, symName: __ZN9QtPrivate16QMovableArrayOpsI7QStringE8InserterD1Ev, symObjAddr: 0x28F90, symBinAddr: 0x31450, symSize: 0x20 }
  - { offset: 0xD50FF, size: 0x8, addend: 0x0, symName: __ZN15QTypedArrayDataI7QStringE9dataStartEP10QArrayDatax, symObjAddr: 0x28FD0, symBinAddr: 0x31470, symSize: 0x80 }
  - { offset: 0xD513E, size: 0x8, addend: 0x0, symName: __ZN17QArrayDataPointerI7QStringE20tryReadjustFreeSpaceEN10QArrayData14GrowthPositionExPPKS0_, symObjAddr: 0x29050, symBinAddr: 0x314F0, symSize: 0x1E0 }
  - { offset: 0xD51D2, size: 0x8, addend: 0x0, symName: __ZN17QArrayDataPointerI7QStringE17reallocateAndGrowEN10QArrayData14GrowthPositionExPS1_, symObjAddr: 0x29230, symBinAddr: 0x316D0, symSize: 0x260 }
  - { offset: 0xD524E, size: 0x8, addend: 0x0, symName: __ZNK17QArrayDataPointerI7QStringE22constAllocatedCapacityEv, symObjAddr: 0x29490, symBinAddr: 0x31930, symSize: 0x40 }
  - { offset: 0xD5274, size: 0x8, addend: 0x0, symName: __ZN17QArrayDataPointerI7QStringE8relocateExPPKS0_, symObjAddr: 0x294D0, symBinAddr: 0x31970, symSize: 0x80 }
  - { offset: 0xD52CD, size: 0x8, addend: 0x0, symName: __ZNKSt3__14lessIvEclB9nqe210106IRPK7QStringS6_EEDTltclsr3stdE7forwardIT_Efp_Eclsr3stdE7forwardIT0_Efp0_EEOS7_OS8_, symObjAddr: 0x29720, symBinAddr: 0x31BC0, symSize: 0x30 }
  - { offset: 0xD5323, size: 0x8, addend: 0x0, symName: __ZNK17QArrayDataPointerI7QStringE5beginEv, symObjAddr: 0x297A0, symBinAddr: 0x31C20, symSize: 0x20 }
  - { offset: 0xD5349, size: 0x8, addend: 0x0, symName: __ZNK17QArrayDataPointerI7QStringE3endEv, symObjAddr: 0x297C0, symBinAddr: 0x31C40, symSize: 0x30 }
  - { offset: 0xD536F, size: 0x8, addend: 0x0, symName: __ZN9QtPrivate16QMovableArrayOpsI7QStringE10reallocateExN10QArrayData16AllocationOptionE, symObjAddr: 0x297F0, symBinAddr: 0x31C70, symSize: 0x80 }
  - { offset: 0xD53C3, size: 0x8, addend: 0x0, symName: __ZN17QArrayDataPointerI7QStringE12allocateGrowERKS1_xN10QArrayData14GrowthPositionE, symObjAddr: 0x29870, symBinAddr: 0x31CF0, symSize: 0x230 }
  - { offset: 0xD5462, size: 0x8, addend: 0x0, symName: __ZN9QtPrivate16QGenericArrayOpsI7QStringE10copyAppendEPKS1_S4_, symObjAddr: 0x29AA0, symBinAddr: 0x31F20, symSize: 0x150 }
  - { offset: 0xD54B6, size: 0x8, addend: 0x0, symName: __ZN9QtPrivate16QGenericArrayOpsI7QStringE10moveAppendEPS1_S3_, symObjAddr: 0x29BF0, symBinAddr: 0x32070, symSize: 0x150 }
  - { offset: 0xD550A, size: 0x8, addend: 0x0, symName: __ZN17QArrayDataPointerI7QStringE4swapERS1_, symObjAddr: 0x29D40, symBinAddr: 0x321C0, symSize: 0x60 }
  - { offset: 0xD553E, size: 0x8, addend: 0x0, symName: __ZN15QTypedArrayDataI7QStringE19reallocateUnalignedEPS1_PS0_xN10QArrayData16AllocationOptionE, symObjAddr: 0x29DA0, symBinAddr: 0x32220, symSize: 0x70 }
  - { offset: 0xD55A3, size: 0x8, addend: 0x0, symName: __ZNSt3__14pairIP15QTypedArrayDataI7QStringEPS2_EC1B9nqe210106IS4_S5_Li0EEEOT_OT0_, symObjAddr: 0x29E10, symBinAddr: 0x32290, symSize: 0x30 }
  - { offset: 0xD5601, size: 0x8, addend: 0x0, symName: __ZNSt3__14pairIP15QTypedArrayDataI7QStringEPS2_EC2B9nqe210106IS4_S5_Li0EEEOT_OT0_, symObjAddr: 0x29E40, symBinAddr: 0x322C0, symSize: 0x30 }
  - { offset: 0xD565F, size: 0x8, addend: 0x0, symName: __ZNK17QArrayDataPointerI7QStringE14detachCapacityEx, symObjAddr: 0x29E70, symBinAddr: 0x322F0, symSize: 0x50 }
  - { offset: 0xD5694, size: 0x8, addend: 0x0, symName: __ZN15QTypedArrayDataI7QStringE8allocateExN10QArrayData16AllocationOptionE, symObjAddr: 0x29EC0, symBinAddr: 0x32340, symSize: 0x60 }
  - { offset: 0xD56E1, size: 0x8, addend: 0x0, symName: __ZN17QArrayDataPointerI7QStringEC1EP15QTypedArrayDataIS0_EPS0_x, symObjAddr: 0x29F60, symBinAddr: 0x323E0, symSize: 0x40 }
  - { offset: 0xD5735, size: 0x8, addend: 0x0, symName: __ZNK17QArrayDataPointerI7QStringE5flagsEv, symObjAddr: 0x29FA0, symBinAddr: 0x32420, symSize: 0x40 }
  - { offset: 0xD575B, size: 0x8, addend: 0x0, symName: __ZNSt3__110__get_pairILm0EE3getB9nqe210106IP15QTypedArrayDataI7QStringEPS4_EEOT_ONS_4pairIS8_T0_EE, symObjAddr: 0x29FE0, symBinAddr: 0x32460, symSize: 0x10 }
  - { offset: 0xD5791, size: 0x8, addend: 0x0, symName: __ZNSt3__110__get_pairILm1EE3getB9nqe210106IP15QTypedArrayDataI7QStringEPS4_EEOT0_ONS_4pairIT_S8_EE, symObjAddr: 0x29FF0, symBinAddr: 0x32470, symSize: 0x20 }
  - { offset: 0xD57C7, size: 0x8, addend: 0x0, symName: __ZN17QArrayDataPointerI7QStringEC2EP15QTypedArrayDataIS0_EPS0_x, symObjAddr: 0x2A010, symBinAddr: 0x32490, symSize: 0x40 }
  - { offset: 0xD581B, size: 0x8, addend: 0x0, symName: __ZNK17QArrayDataPointerI7QStringE9isMutableEv, symObjAddr: 0x2A050, symBinAddr: 0x324D0, symSize: 0x20 }
  - { offset: 0xD5841, size: 0x8, addend: 0x0, symName: __ZNK17QArrayDataPointerI7QStringE8isSharedEv, symObjAddr: 0x2A070, symBinAddr: 0x324F0, symSize: 0x40 }
  - { offset: 0xD5866, size: 0x8, addend: 0x0, symName: __Z11qt_ptr_swapI15QTypedArrayDataI7QStringEEvRPT_S5_, symObjAddr: 0x2A0B0, symBinAddr: 0x32530, symSize: 0x40 }
  - { offset: 0xD58B3, size: 0x8, addend: 0x0, symName: __Z11qt_ptr_swapI7QStringEvRPT_S3_, symObjAddr: 0x2A0F0, symBinAddr: 0x32570, symSize: 0x40 }
  - { offset: 0xD5901, size: 0x8, addend: 0x0, symName: __ZN9QtPrivate16QMovableArrayOpsI7QStringE8InserterC2EP17QArrayDataPointerIS1_Exx, symObjAddr: 0x2A130, symBinAddr: 0x325B0, symSize: 0x80 }
  - { offset: 0xD5958, size: 0x8, addend: 0x0, symName: __ZN9QtPrivate16QMovableArrayOpsI7QStringE8Inserter10verifyPostEv, symObjAddr: 0x2A1B0, symBinAddr: 0x32630, symSize: 0x40 }
  - { offset: 0xD597E, size: 0x8, addend: 0x0, symName: __ZN9QtPrivate16QMovableArrayOpsI7QStringE8InserterD2Ev, symObjAddr: 0x2A1F0, symBinAddr: 0x32670, symSize: 0x30 }
  - { offset: 0xD59C7, size: 0x8, addend: 0x0, symName: __ZN5QListI7QStringE6detachEv, symObjAddr: 0x2A220, symBinAddr: 0x326A0, symSize: 0x20 }
  - { offset: 0xD59ED, size: 0x8, addend: 0x0, symName: __ZN5QListI7QStringE8iteratorC1EPS0_, symObjAddr: 0x2A240, symBinAddr: 0x326C0, symSize: 0x30 }
  - { offset: 0xD5A25, size: 0x8, addend: 0x0, symName: __ZN17QArrayDataPointerI7QStringE6detachEPS1_, symObjAddr: 0x2A270, symBinAddr: 0x326F0, symSize: 0x40 }
  - { offset: 0xD5A59, size: 0x8, addend: 0x0, symName: __ZN5QListI7QStringE8iteratorC2EPS0_, symObjAddr: 0x2A2B0, symBinAddr: 0x32730, symSize: 0x20 }
  - { offset: 0xD5A91, size: 0x8, addend: 0x0, symName: __ZN6QFlagsIN12QDirIterator12IteratorFlagEEC2ES1_, symObjAddr: 0x2A4B0, symBinAddr: 0x32750, symSize: 0x30 }
  - { offset: 0xD5AC9, size: 0x8, addend: 0x0, symName: __ZN9QtPrivate19QFlagsStorageHelperIN12QDirIterator12IteratorFlagELi4EECI2NS_13QFlagsStorageIS2_EEENSt3__110in_place_tEj, symObjAddr: 0x2A4E0, symBinAddr: 0x32780, symSize: 0x30 }
  - { offset: 0xD5B07, size: 0x8, addend: 0x0, symName: __ZN9QtPrivate13QFlagsStorageIN12QDirIterator12IteratorFlagEEC2ENSt3__110in_place_tEj, symObjAddr: 0x2A510, symBinAddr: 0x327B0, symSize: 0x20 }
  - { offset: 0xD5B49, size: 0x8, addend: 0x0, symName: __ZN6QFlagsIN4QUrl25ComponentFormattingOptionEEC2ES1_, symObjAddr: 0x2A530, symBinAddr: 0x327D0, symSize: 0x30 }
  - { offset: 0xD5B81, size: 0x8, addend: 0x0, symName: __ZN9QtPrivate19QFlagsStorageHelperIN4QUrl25ComponentFormattingOptionELi4EECI2NS_13QFlagsStorageIS2_EEENSt3__110in_place_tEj, symObjAddr: 0x2A560, symBinAddr: 0x32800, symSize: 0x30 }
  - { offset: 0xD5BBF, size: 0x8, addend: 0x0, symName: __ZN9QtPrivate13QFlagsStorageIN4QUrl25ComponentFormattingOptionEEC2ENSt3__110in_place_tEj, symObjAddr: 0x2A590, symBinAddr: 0x32830, symSize: 0x20 }
  - { offset: 0xD5C01, size: 0x8, addend: 0x0, symName: __ZNK5Tiled4Tile7tilesetEv, symObjAddr: 0x2A5B0, symBinAddr: 0x32850, symSize: 0x20 }
  - { offset: 0xD5C28, size: 0x8, addend: 0x0, symName: __ZNK5Tiled7Tileset11columnCountEv, symObjAddr: 0x2A5D0, symBinAddr: 0x32870, symSize: 0x20 }
  - { offset: 0xD5C50, size: 0x8, addend: 0x0, symName: __ZNK5Tiled7Tileset6marginEv, symObjAddr: 0x2A5F0, symBinAddr: 0x32890, symSize: 0x20 }
  - { offset: 0xD5C78, size: 0x8, addend: 0x0, symName: __ZNK5Tiled7Tileset11tileSpacingEv, symObjAddr: 0x2A610, symBinAddr: 0x328B0, symSize: 0x20 }
  - { offset: 0xD5CA0, size: 0x8, addend: 0x0, symName: __ZNK5Tiled7Tileset9tileWidthEv, symObjAddr: 0x2A630, symBinAddr: 0x328D0, symSize: 0x20 }
  - { offset: 0xD5CC8, size: 0x8, addend: 0x0, symName: __ZNK5Tiled7Tileset10tileHeightEv, symObjAddr: 0x2A650, symBinAddr: 0x328F0, symSize: 0x20 }
  - { offset: 0xD5CF0, size: 0x8, addend: 0x0, symName: __ZNK4QSetI7QStringE8containsERKS0_, symObjAddr: 0x2A6A0, symBinAddr: 0x32940, symSize: 0x30 }
  - { offset: 0xD5D24, size: 0x8, addend: 0x0, symName: __ZN4QSetI7QStringE6insertERKS0_, symObjAddr: 0x2A6D0, symBinAddr: 0x32970, symSize: 0x60 }
  - { offset: 0xD5D58, size: 0x8, addend: 0x0, symName: __ZNK5QHashI7QString15QHashDummyValueE8containsERKS0_, symObjAddr: 0x2A730, symBinAddr: 0x329D0, symSize: 0x50 }
  - { offset: 0xD5D8D, size: 0x8, addend: 0x0, symName: __ZNK12QHashPrivate4DataINS_4NodeI7QString15QHashDummyValueEEE8findNodeIS2_EEPS4_RKT_, symObjAddr: 0x2A780, symBinAddr: 0x32A20, symSize: 0x70 }
  - { offset: 0xD5DDB, size: 0x8, addend: 0x0, symName: __ZNK12QHashPrivate4DataINS_4NodeI7QString15QHashDummyValueEEE10findBucketIS2_EENS5_6BucketERKT_, symObjAddr: 0x2A7F0, symBinAddr: 0x32A90, symSize: 0x50 }
  - { offset: 0xD5E29, size: 0x8, addend: 0x0, symName: __ZNK12QHashPrivate4DataINS_4NodeI7QString15QHashDummyValueEEE6Bucket8isUnusedEv, symObjAddr: 0x2A840, symBinAddr: 0x32AE0, symSize: 0x30 }
  - { offset: 0xD5E4F, size: 0x8, addend: 0x0, symName: __ZN12QHashPrivate4DataINS_4NodeI7QString15QHashDummyValueEEE6Bucket4nodeEv, symObjAddr: 0x2A870, symBinAddr: 0x32B10, symSize: 0x30 }
  - { offset: 0xD5E75, size: 0x8, addend: 0x0, symName: __ZNK12QHashPrivate4DataINS_4NodeI7QString15QHashDummyValueEEE18findBucketWithHashIS2_EENS5_6BucketERKT_m, symObjAddr: 0x2A8A0, symBinAddr: 0x32B40, symSize: 0xD0 }
  - { offset: 0xD5F00, size: 0x8, addend: 0x0, symName: __ZN12QHashPrivate4DataINS_4NodeI7QString15QHashDummyValueEEE6BucketC1EPKS5_m, symObjAddr: 0x2A970, symBinAddr: 0x32C10, symSize: 0x30 }
  - { offset: 0xD5F48, size: 0x8, addend: 0x0, symName: __ZNK12QHashPrivate4DataINS_4NodeI7QString15QHashDummyValueEEE6Bucket6offsetEv, symObjAddr: 0x2A9A0, symBinAddr: 0x32C40, symSize: 0x30 }
  - { offset: 0xD5F6E, size: 0x8, addend: 0x0, symName: __ZN12QHashPrivate4DataINS_4NodeI7QString15QHashDummyValueEEE6Bucket12nodeAtOffsetEm, symObjAddr: 0x2A9D0, symBinAddr: 0x32C70, symSize: 0x30 }
  - { offset: 0xD5FA3, size: 0x8, addend: 0x0, symName: __ZN12QHashPrivate4DataINS_4NodeI7QString15QHashDummyValueEEE6Bucket14advanceWrappedEPKS5_, symObjAddr: 0x2AA00, symBinAddr: 0x32CA0, symSize: 0x30 }
  - { offset: 0xD5FD8, size: 0x8, addend: 0x0, symName: __ZN12QHashPrivate4DataINS_4NodeI7QString15QHashDummyValueEEE6BucketC2EPKS5_m, symObjAddr: 0x2AA30, symBinAddr: 0x32CD0, symSize: 0x40 }
  - { offset: 0xD6020, size: 0x8, addend: 0x0, symName: __ZNK12QHashPrivate4SpanINS_4NodeI7QString15QHashDummyValueEEE6offsetEm, symObjAddr: 0x2AA70, symBinAddr: 0x32D10, symSize: 0x20 }
  - { offset: 0xD6055, size: 0x8, addend: 0x0, symName: __ZN12QHashPrivate4SpanINS_4NodeI7QString15QHashDummyValueEEE8atOffsetEm, symObjAddr: 0x2AA90, symBinAddr: 0x32D30, symSize: 0x80 }
  - { offset: 0xD608A, size: 0x8, addend: 0x0, symName: __ZN12QHashPrivate4SpanINS_4NodeI7QString15QHashDummyValueEEE5Entry4nodeEv, symObjAddr: 0x2AB10, symBinAddr: 0x32DB0, symSize: 0x10 }
  - { offset: 0xD60B0, size: 0x8, addend: 0x0, symName: __ZN12QHashPrivate4DataINS_4NodeI7QString15QHashDummyValueEEE6Bucket12advance_implEPKS5_PNS_4SpanIS4_EE, symObjAddr: 0x2AB20, symBinAddr: 0x32DC0, symSize: 0xC0 }
  - { offset: 0xD60F4, size: 0x8, addend: 0x0, symName: __ZNK12QHashPrivate4SpanINS_4NodeI7QString15QHashDummyValueEEE7hasNodeEm, symObjAddr: 0x2ABE0, symBinAddr: 0x32E80, symSize: 0x30 }
  - { offset: 0xD6129, size: 0x8, addend: 0x0, symName: __ZN12QHashPrivate4SpanINS_4NodeI7QString15QHashDummyValueEEE2atEm, symObjAddr: 0x2AC10, symBinAddr: 0x32EB0, symSize: 0x90 }
  - { offset: 0xD615E, size: 0x8, addend: 0x0, symName: __ZN5QHashI7QString15QHashDummyValueE6insertERKS0_OS1_, symObjAddr: 0x2ACA0, symBinAddr: 0x32F40, symSize: 0x40 }
  - { offset: 0xD61A2, size: 0x8, addend: 0x0, symName: __ZN4QSetI7QStringE8iteratorC1EN5QHashIS0_15QHashDummyValueE8iteratorE, symObjAddr: 0x2ACE0, symBinAddr: 0x32F80, symSize: 0x30 }
  - { offset: 0xD61DA, size: 0x8, addend: 0x0, symName: __ZN5QHashI7QString15QHashDummyValueE7emplaceIJS1_EEENS2_8iteratorERKS0_DpOT_, symObjAddr: 0x2AD10, symBinAddr: 0x32FB0, symSize: 0x90 }
  - { offset: 0xD6239, size: 0x8, addend: 0x0, symName: __ZN5QHashI7QString15QHashDummyValueE7emplaceIJS1_EEENS2_8iteratorEOS0_DpOT_, symObjAddr: 0x2ADA0, symBinAddr: 0x33040, symSize: 0xF0 }
  - { offset: 0xD6298, size: 0x8, addend: 0x0, symName: __ZNK5QHashI7QString15QHashDummyValueE10isDetachedEv, symObjAddr: 0x2AE90, symBinAddr: 0x33130, symSize: 0x40 }
  - { offset: 0xD62BE, size: 0x8, addend: 0x0, symName: __ZNK12QHashPrivate4DataINS_4NodeI7QString15QHashDummyValueEEE10shouldGrowEv, symObjAddr: 0x2AED0, symBinAddr: 0x33170, symSize: 0x30 }
  - { offset: 0xD62E4, size: 0x8, addend: 0x0, symName: __ZN5QHashI7QString15QHashDummyValueE14emplace_helperIJS1_EEENS2_8iteratorEOS0_DpOT_, symObjAddr: 0x2AF00, symBinAddr: 0x331A0, symSize: 0x90 }
  - { offset: 0xD6343, size: 0x8, addend: 0x0, symName: __ZN5QHashI7QString15QHashDummyValueEC1ERKS2_, symObjAddr: 0x2AF90, symBinAddr: 0x33230, symSize: 0x30 }
  - { offset: 0xD637C, size: 0x8, addend: 0x0, symName: __ZN5QHashI7QString15QHashDummyValueE6detachEv, symObjAddr: 0x2AFC0, symBinAddr: 0x33260, symSize: 0x50 }
  - { offset: 0xD63A2, size: 0x8, addend: 0x0, symName: __ZN5QHashI7QString15QHashDummyValueED1Ev, symObjAddr: 0x2B010, symBinAddr: 0x332B0, symSize: 0x20 }
  - { offset: 0xD63CC, size: 0x8, addend: 0x0, symName: __ZN12QHashPrivate4DataINS_4NodeI7QString15QHashDummyValueEEE12findOrInsertIS2_EENS5_15InsertionResultERKT_, symObjAddr: 0x2B030, symBinAddr: 0x332D0, symSize: 0x190 }
  - { offset: 0xD642A, size: 0x8, addend: 0x0, symName: __ZN12QHashPrivate4NodeI7QString15QHashDummyValueE13createInPlaceIJS2_EEEvPS3_OS1_DpOT_, symObjAddr: 0x2B1C0, symBinAddr: 0x33460, symSize: 0x30 }
  - { offset: 0xD6470, size: 0x8, addend: 0x0, symName: __ZNK12QHashPrivate8iteratorINS_4NodeI7QString15QHashDummyValueEEE4nodeEv, symObjAddr: 0x2B1F0, symBinAddr: 0x33490, symSize: 0x80 }
  - { offset: 0xD6496, size: 0x8, addend: 0x0, symName: __ZN12QHashPrivate4NodeI7QString15QHashDummyValueE12emplaceValueIJS2_EEEvDpOT_, symObjAddr: 0x2B270, symBinAddr: 0x33510, symSize: 0x10 }
  - { offset: 0xD64D1, size: 0x8, addend: 0x0, symName: __ZN5QHashI7QString15QHashDummyValueE8iteratorC1EN12QHashPrivate8iteratorINS4_4NodeIS0_S1_EEEE, symObjAddr: 0x2B280, symBinAddr: 0x33520, symSize: 0x30 }
  - { offset: 0xD650A, size: 0x8, addend: 0x0, symName: __ZN12QHashPrivate4DataINS_4NodeI7QString15QHashDummyValueEEE6BucketC1EPNS_4SpanIS4_EEm, symObjAddr: 0x2B2B0, symBinAddr: 0x33550, symSize: 0x30 }
  - { offset: 0xD6552, size: 0x8, addend: 0x0, symName: __ZNK12QHashPrivate4DataINS_4NodeI7QString15QHashDummyValueEEE6Bucket10toIteratorEPKS5_, symObjAddr: 0x2B2E0, symBinAddr: 0x33580, symSize: 0x40 }
  - { offset: 0xD6587, size: 0x8, addend: 0x0, symName: __ZN12QHashPrivate4DataINS_4NodeI7QString15QHashDummyValueEEE6rehashEm, symObjAddr: 0x2B320, symBinAddr: 0x335C0, symSize: 0x200 }
  - { offset: 0xD669E, size: 0x8, addend: 0x0, symName: __ZNK12QHashPrivate4DataINS_4NodeI7QString15QHashDummyValueEEE6Bucket6insertEv, symObjAddr: 0x2B520, symBinAddr: 0x337C0, symSize: 0x30 }
  - { offset: 0xD66C4, size: 0x8, addend: 0x0, symName: __ZN12QHashPrivate4DataINS_4NodeI7QString15QHashDummyValueEEE6BucketC2EPNS_4SpanIS4_EEm, symObjAddr: 0x2B550, symBinAddr: 0x337F0, symSize: 0x30 }
  - { offset: 0xD670C, size: 0x8, addend: 0x0, symName: __ZNK12QHashPrivate4DataINS_4NodeI7QString15QHashDummyValueEEE6Bucket13toBucketIndexEPKS5_, symObjAddr: 0x2B580, symBinAddr: 0x33820, symSize: 0x40 }
  - { offset: 0xD6741, size: 0x8, addend: 0x0, symName: __ZN12QHashPrivate4DataINS_4NodeI7QString15QHashDummyValueEEE13allocateSpansEm, symObjAddr: 0x2B5C0, symBinAddr: 0x33860, symSize: 0x100 }
  - { offset: 0xD679A, size: 0x8, addend: 0x0, symName: __ZN12QHashPrivate4NodeI7QString15QHashDummyValueEC1EOS3_, symObjAddr: 0x2B6C0, symBinAddr: 0x33960, symSize: 0x30 }
  - { offset: 0xD67CF, size: 0x8, addend: 0x0, symName: __ZN12QHashPrivate4SpanINS_4NodeI7QString15QHashDummyValueEEE8freeDataEv, symObjAddr: 0x2B6F0, symBinAddr: 0x33990, symSize: 0xD0 }
  - { offset: 0xD684A, size: 0x8, addend: 0x0, symName: __ZN12QHashPrivate4SpanINS_4NodeI7QString15QHashDummyValueEEED1Ev, symObjAddr: 0x2B7C0, symBinAddr: 0x33A60, symSize: 0x20 }
  - { offset: 0xD6874, size: 0x8, addend: 0x0, symName: __ZN12QHashPrivate4SpanINS_4NodeI7QString15QHashDummyValueEEEC1Ev, symObjAddr: 0x2B7E0, symBinAddr: 0x33A80, symSize: 0x20 }
  - { offset: 0xD689E, size: 0x8, addend: 0x0, symName: __ZN12QHashPrivate4SpanINS_4NodeI7QString15QHashDummyValueEEEC2Ev, symObjAddr: 0x2B800, symBinAddr: 0x33AA0, symSize: 0x40 }
  - { offset: 0xD68C8, size: 0x8, addend: 0x0, symName: __ZN12QHashPrivate4NodeI7QString15QHashDummyValueEC2EOS3_, symObjAddr: 0x2B840, symBinAddr: 0x33AE0, symSize: 0x30 }
  - { offset: 0xD68FD, size: 0x8, addend: 0x0, symName: __ZN12QHashPrivate4NodeI7QString15QHashDummyValueED1Ev, symObjAddr: 0x2B870, symBinAddr: 0x33B10, symSize: 0x20 }
  - { offset: 0xD6929, size: 0x8, addend: 0x0, symName: __ZN12QHashPrivate4NodeI7QString15QHashDummyValueED2Ev, symObjAddr: 0x2B890, symBinAddr: 0x33B30, symSize: 0x20 }
  - { offset: 0xD6955, size: 0x8, addend: 0x0, symName: __ZN12QHashPrivate4SpanINS_4NodeI7QString15QHashDummyValueEEED2Ev, symObjAddr: 0x2B8B0, symBinAddr: 0x33B50, symSize: 0x20 }
  - { offset: 0xD697F, size: 0x8, addend: 0x0, symName: __ZN12QHashPrivate4SpanINS_4NodeI7QString15QHashDummyValueEEE6insertEm, symObjAddr: 0x2B8D0, symBinAddr: 0x33B70, symSize: 0x110 }
  - { offset: 0xD69C4, size: 0x8, addend: 0x0, symName: __ZN12QHashPrivate4SpanINS_4NodeI7QString15QHashDummyValueEEE10addStorageEv, symObjAddr: 0x2B9E0, symBinAddr: 0x33C80, symSize: 0x1A0 }
  - { offset: 0xD6A29, size: 0x8, addend: 0x0, symName: __ZN12QHashPrivate4SpanINS_4NodeI7QString15QHashDummyValueEEE5Entry8nextFreeEv, symObjAddr: 0x2BB80, symBinAddr: 0x33E20, symSize: 0x10 }
  - { offset: 0xD6A4F, size: 0x8, addend: 0x0, symName: __ZNK12QHashPrivate8iteratorINS_4NodeI7QString15QHashDummyValueEEE8isUnusedEv, symObjAddr: 0x2BB90, symBinAddr: 0x33E30, symSize: 0x60 }
  - { offset: 0xD6A75, size: 0x8, addend: 0x0, symName: __ZNK12QHashPrivate8iteratorINS_4NodeI7QString15QHashDummyValueEEE4spanEv, symObjAddr: 0x2BBF0, symBinAddr: 0x33E90, symSize: 0x20 }
  - { offset: 0xD6A9B, size: 0x8, addend: 0x0, symName: __ZNK12QHashPrivate8iteratorINS_4NodeI7QString15QHashDummyValueEEE5indexEv, symObjAddr: 0x2BC10, symBinAddr: 0x33EB0, symSize: 0x20 }
  - { offset: 0xD6AC1, size: 0x8, addend: 0x0, symName: __ZN5QHashI7QString15QHashDummyValueE8iteratorC2EN12QHashPrivate8iteratorINS4_4NodeIS0_S1_EEEE, symObjAddr: 0x2BC30, symBinAddr: 0x33ED0, symSize: 0x30 }
  - { offset: 0xD6AFA, size: 0x8, addend: 0x0, symName: __ZN5QHashI7QString15QHashDummyValueEC2ERKS2_, symObjAddr: 0x2BC60, symBinAddr: 0x33F00, symSize: 0x40 }
  - { offset: 0xD6B33, size: 0x8, addend: 0x0, symName: __ZN12QHashPrivate4DataINS_4NodeI7QString15QHashDummyValueEEE8detachedEPS5_, symObjAddr: 0x2BCA0, symBinAddr: 0x33F40, symSize: 0xE0 }
  - { offset: 0xD6B67, size: 0x8, addend: 0x0, symName: __ZN12QHashPrivate4DataINS_4NodeI7QString15QHashDummyValueEEEC1Em, symObjAddr: 0x2BD80, symBinAddr: 0x34020, symSize: 0x30 }
  - { offset: 0xD6BA0, size: 0x8, addend: 0x0, symName: __ZN12QHashPrivate4DataINS_4NodeI7QString15QHashDummyValueEEEC1ERKS5_, symObjAddr: 0x2BDB0, symBinAddr: 0x34050, symSize: 0x30 }
  - { offset: 0xD6BD9, size: 0x8, addend: 0x0, symName: __ZN12QHashPrivate4DataINS_4NodeI7QString15QHashDummyValueEEED1Ev, symObjAddr: 0x2BDE0, symBinAddr: 0x34080, symSize: 0x20 }
  - { offset: 0xD6C03, size: 0x8, addend: 0x0, symName: __ZN12QHashPrivate4DataINS_4NodeI7QString15QHashDummyValueEEEC2Em, symObjAddr: 0x2BE00, symBinAddr: 0x340A0, symSize: 0xA0 }
  - { offset: 0xD6CD2, size: 0x8, addend: 0x0, symName: __ZN12QHashPrivate4DataINS_4NodeI7QString15QHashDummyValueEEEC2ERKS5_, symObjAddr: 0x2BEA0, symBinAddr: 0x34140, symSize: 0x190 }
  - { offset: 0xD6DE3, size: 0x8, addend: 0x0, symName: __ZNK12QHashPrivate4SpanINS_4NodeI7QString15QHashDummyValueEEE2atEm, symObjAddr: 0x2C030, symBinAddr: 0x342D0, symSize: 0x90 }
  - { offset: 0xD6E18, size: 0x8, addend: 0x0, symName: __ZN12QHashPrivate4NodeI7QString15QHashDummyValueEC1ERKS3_, symObjAddr: 0x2C0C0, symBinAddr: 0x34360, symSize: 0x30 }
  - { offset: 0xD6E4D, size: 0x8, addend: 0x0, symName: __ZN12QHashPrivate4NodeI7QString15QHashDummyValueEC2ERKS3_, symObjAddr: 0x2C0F0, symBinAddr: 0x34390, symSize: 0x30 }
  - { offset: 0xD6E82, size: 0x8, addend: 0x0, symName: __ZN12QHashPrivate4DataINS_4NodeI7QString15QHashDummyValueEEED2Ev, symObjAddr: 0x2C120, symBinAddr: 0x343C0, symSize: 0x80 }
  - { offset: 0xD6EAC, size: 0x8, addend: 0x0, symName: __ZN5QHashI7QString15QHashDummyValueED2Ev, symObjAddr: 0x2C1A0, symBinAddr: 0x34440, symSize: 0x60 }
  - { offset: 0xD6ED6, size: 0x8, addend: 0x0, symName: __ZN4QSetI7QStringE8iteratorC2EN5QHashIS0_15QHashDummyValueE8iteratorE, symObjAddr: 0x2C200, symBinAddr: 0x344A0, symSize: 0x30 }
  - { offset: 0xD6F0E, size: 0x8, addend: 0x0, symName: __ZN6QRectFC2ERK5QRect, symObjAddr: 0x2C230, symBinAddr: 0x344D0, symSize: 0xC0 }
  - { offset: 0xD6F49, size: 0x8, addend: 0x0, symName: __ZNK5QRect1xEv, symObjAddr: 0x2C2F0, symBinAddr: 0x34590, symSize: 0x20 }
  - { offset: 0xD6F70, size: 0x8, addend: 0x0, symName: __ZNK5QRect1yEv, symObjAddr: 0x2C310, symBinAddr: 0x345B0, symSize: 0x20 }
  - { offset: 0xD6F97, size: 0x8, addend: 0x0, symName: __ZNK5QRect5rightEv, symObjAddr: 0x2C330, symBinAddr: 0x345D0, symSize: 0x20 }
  - { offset: 0xD6FBE, size: 0x8, addend: 0x0, symName: __ZNK5QRect4leftEv, symObjAddr: 0x2C350, symBinAddr: 0x345F0, symSize: 0x20 }
  - { offset: 0xD6FE5, size: 0x8, addend: 0x0, symName: __ZNK5QRect6bottomEv, symObjAddr: 0x2C370, symBinAddr: 0x34610, symSize: 0x20 }
  - { offset: 0xD700C, size: 0x8, addend: 0x0, symName: __ZNK5QRect3topEv, symObjAddr: 0x2C390, symBinAddr: 0x34630, symSize: 0x20 }
  - { offset: 0xD7033, size: 0x8, addend: 0x0, symName: __ZNSt3__18functionIFv6QPointRK7QPointFEED2Ev, symObjAddr: 0x2C3B0, symBinAddr: 0x34650, symSize: 0x20 }
  - { offset: 0xD705F, size: 0x8, addend: 0x0, symName: __ZNSt3__110__function12__value_funcIFv6QPointRK7QPointFEED1B9nqe210106Ev, symObjAddr: 0x2C3D0, symBinAddr: 0x34670, symSize: 0x20 }
  - { offset: 0xD7089, size: 0x8, addend: 0x0, symName: __ZNSt3__110__function12__value_funcIFv6QPointRK7QPointFEED2B9nqe210106Ev, symObjAddr: 0x2C3F0, symBinAddr: 0x34690, symSize: 0x50 }
  - { offset: 0xD70B3, size: 0x8, addend: 0x0, symName: __ZN2Yy13GMRAssetLayerC1Ev, symObjAddr: 0x2C440, symBinAddr: 0x346E0, symSize: 0x20 }
  - { offset: 0xD70DD, size: 0x8, addend: 0x0, symName: __ZNSt3__110unique_ptrIN2Yy13GMRAssetLayerENS_14default_deleteIS2_EEEC1B9nqe210106ILb1EvEEPS2_, symObjAddr: 0x2C460, symBinAddr: 0x34700, symSize: 0x30 }
  - { offset: 0xD7121, size: 0x8, addend: 0x0, symName: __ZN2Yy13GMRAssetLayerC2Ev, symObjAddr: 0x2C490, symBinAddr: 0x34730, symSize: 0x50 }
  - { offset: 0xD714B, size: 0x8, addend: 0x0, symName: __ZNSt3__110unique_ptrIN2Yy13GMRAssetLayerENS_14default_deleteIS2_EEEC2B9nqe210106ILb1EvEEPS2_, symObjAddr: 0x2C4E0, symBinAddr: 0x34780, symSize: 0x20 }
  - { offset: 0xD718F, size: 0x8, addend: 0x0, symName: __ZNSt3__16vectorIN2Yy10GMRGraphicENS_9allocatorIS2_EEE13__move_assignERS5_NS_17integral_constantIbLb1EEE, symObjAddr: 0x2C500, symBinAddr: 0x347A0, symSize: 0x80 }
  - { offset: 0xD71D2, size: 0x8, addend: 0x0, symName: __ZNSt3__16vectorIN2Yy10GMRGraphicENS_9allocatorIS2_EEE13__vdeallocateEv, symObjAddr: 0x2C580, symBinAddr: 0x34820, symSize: 0x80 }
  - { offset: 0xD71FA, size: 0x8, addend: 0x0, symName: __ZNSt3__16vectorIN2Yy10GMRGraphicENS_9allocatorIS2_EEE19__move_assign_allocB9nqe210106ERS5_, symObjAddr: 0x2C600, symBinAddr: 0x348A0, symSize: 0x30 }
  - { offset: 0xD722F, size: 0x8, addend: 0x0, symName: __ZNSt3__16vectorIN2Yy10GMRGraphicENS_9allocatorIS2_EEE5clearB9nqe210106Ev, symObjAddr: 0x2C630, symBinAddr: 0x348D0, symSize: 0x40 }
  - { offset: 0xD7265, size: 0x8, addend: 0x0, symName: __ZNSt3__16vectorIN2Yy10GMRGraphicENS_9allocatorIS2_EEE22__base_destruct_at_endB9nqe210106EPS2_, symObjAddr: 0x2C670, symBinAddr: 0x34910, symSize: 0x80 }
  - { offset: 0xD72AA, size: 0x8, addend: 0x0, symName: __ZNSt3__16vectorIN2Yy10GMRGraphicENS_9allocatorIS2_EEE19__move_assign_allocB9nqe210106ERS5_NS_17integral_constantIbLb1EEE, symObjAddr: 0x2C6F0, symBinAddr: 0x34990, symSize: 0x10 }
  - { offset: 0xD72EB, size: 0x8, addend: 0x0, symName: __ZNSt3__110unique_ptrIN2Yy8GMRLayerENS_14default_deleteIS2_EEEC2B9nqe210106INS1_13GMRAssetLayerENS3_IS7_EEvvEEONS0_IT_T0_EE, symObjAddr: 0x2C700, symBinAddr: 0x349A0, symSize: 0x50 }
  - { offset: 0xD7339, size: 0x8, addend: 0x0, symName: __ZNSt3__110unique_ptrIN2Yy13GMRAssetLayerENS_14default_deleteIS2_EEE7releaseB9nqe210106Ev, symObjAddr: 0x2C750, symBinAddr: 0x349F0, symSize: 0x20 }
  - { offset: 0xD736F, size: 0x8, addend: 0x0, symName: __ZNSt3__110unique_ptrIN2Yy13GMRAssetLayerENS_14default_deleteIS2_EEE11get_deleterB9nqe210106Ev, symObjAddr: 0x2C770, symBinAddr: 0x34A10, symSize: 0x10 }
  - { offset: 0xD739A, size: 0x8, addend: 0x0, symName: __ZNSt3__114default_deleteIN2Yy8GMRLayerEEC1B9nqe210106INS1_13GMRAssetLayerELi0EEERKNS0_IT_EE, symObjAddr: 0x2C780, symBinAddr: 0x34A20, symSize: 0x30 }
  - { offset: 0xD73DD, size: 0x8, addend: 0x0, symName: __ZNSt3__114default_deleteIN2Yy8GMRLayerEEC2B9nqe210106INS1_13GMRAssetLayerELi0EEERKNS0_IT_EE, symObjAddr: 0x2C7B0, symBinAddr: 0x34A50, symSize: 0x10 }
  - { offset: 0xD7420, size: 0x8, addend: 0x0, symName: __ZNSt3__110unique_ptrIN2Yy13GMRAssetLayerENS_14default_deleteIS2_EEED2B9nqe210106Ev, symObjAddr: 0x2C7C0, symBinAddr: 0x34A60, symSize: 0x20 }
  - { offset: 0xD744A, size: 0x8, addend: 0x0, symName: __ZNSt3__110unique_ptrIN2Yy13GMRAssetLayerENS_14default_deleteIS2_EEE5resetB9nqe210106EPS2_, symObjAddr: 0x2C7E0, symBinAddr: 0x34A80, symSize: 0x40 }
  - { offset: 0xD748F, size: 0x8, addend: 0x0, symName: __ZNKSt3__114default_deleteIN2Yy13GMRAssetLayerEEclB9nqe210106EPS2_, symObjAddr: 0x2C820, symBinAddr: 0x34AC0, symSize: 0x40 }
  - { offset: 0xD74C3, size: 0x8, addend: 0x0, symName: __ZNSt3__110unique_ptrIN2Yy8GMRLayerENS_14default_deleteIS2_EEE5resetB9nqe210106EPS2_, symObjAddr: 0x2C860, symBinAddr: 0x34B00, symSize: 0x40 }
  - { offset: 0xD7508, size: 0x8, addend: 0x0, symName: __ZNKSt3__114default_deleteIN2Yy8GMRLayerEEclB9nqe210106EPS2_, symObjAddr: 0x2C8A0, symBinAddr: 0x34B40, symSize: 0x30 }
  - { offset: 0xD753C, size: 0x8, addend: 0x0, symName: __ZNSt3__16vectorINS_10unique_ptrIN2Yy8GMRLayerENS_14default_deleteIS3_EEEENS_9allocatorIS6_EEE13__move_assignERS9_NS_17integral_constantIbLb1EEE, symObjAddr: 0x2C8D0, symBinAddr: 0x34B70, symSize: 0x80 }
  - { offset: 0xD757F, size: 0x8, addend: 0x0, symName: __ZNSt3__16vectorINS_10unique_ptrIN2Yy8GMRLayerENS_14default_deleteIS3_EEEENS_9allocatorIS6_EEE13__vdeallocateEv, symObjAddr: 0x2C950, symBinAddr: 0x34BF0, symSize: 0x80 }
  - { offset: 0xD75A7, size: 0x8, addend: 0x0, symName: __ZNSt3__16vectorINS_10unique_ptrIN2Yy8GMRLayerENS_14default_deleteIS3_EEEENS_9allocatorIS6_EEE19__move_assign_allocB9nqe210106ERS9_, symObjAddr: 0x2C9D0, symBinAddr: 0x34C70, symSize: 0x30 }
  - { offset: 0xD75DC, size: 0x8, addend: 0x0, symName: __ZNSt3__16vectorINS_10unique_ptrIN2Yy8GMRLayerENS_14default_deleteIS3_EEEENS_9allocatorIS6_EEE19__move_assign_allocB9nqe210106ERS9_NS_17integral_constantIbLb1EEE, symObjAddr: 0x2CA00, symBinAddr: 0x34CA0, symSize: 0x10 }
  - { offset: 0xD761D, size: 0x8, addend: 0x0, symName: __ZNSt3__16vectorIN2Yy10GMRGraphicENS_9allocatorIS2_EEED2B9nqe210106Ev, symObjAddr: 0x2CA10, symBinAddr: 0x34CB0, symSize: 0x40 }
  - { offset: 0xD7647, size: 0x8, addend: 0x0, symName: __ZNSt3__16vectorIN2Yy10GMRGraphicENS_9allocatorIS2_EEE16__destroy_vectorC1B9nqe210106ERS5_, symObjAddr: 0x2CA50, symBinAddr: 0x34CF0, symSize: 0x30 }
  - { offset: 0xD767F, size: 0x8, addend: 0x0, symName: __ZNSt3__16vectorIN2Yy10GMRGraphicENS_9allocatorIS2_EEE16__destroy_vectorclB9nqe210106Ev, symObjAddr: 0x2CA80, symBinAddr: 0x34D20, symSize: 0x70 }
  - { offset: 0xD76A5, size: 0x8, addend: 0x0, symName: __ZNSt3__16vectorIN2Yy10GMRGraphicENS_9allocatorIS2_EEE16__destroy_vectorC2B9nqe210106ERS5_, symObjAddr: 0x2CAF0, symBinAddr: 0x34D90, symSize: 0x20 }
  - { offset: 0xD76DD, size: 0x8, addend: 0x0, symName: __ZNSt3__110unique_ptrIN2Yy8GMRLayerENS_14default_deleteIS2_EEE7releaseB9nqe210106Ev, symObjAddr: 0x2CB10, symBinAddr: 0x34DB0, symSize: 0x20 }
  - { offset: 0xD7713, size: 0x8, addend: 0x0, symName: __ZNSt3__110unique_ptrIN2Yy8GMRLayerENS_14default_deleteIS2_EEE11get_deleterB9nqe210106Ev, symObjAddr: 0x2CB30, symBinAddr: 0x34DD0, symSize: 0x10 }
  - { offset: 0xD7739, size: 0x8, addend: 0x0, symName: __ZNSt3__16vectorIN2Yy11GMRInstanceENS_9allocatorIS2_EEEC1B9nqe210106Ev, symObjAddr: 0x2CB40, symBinAddr: 0x34DE0, symSize: 0x20 }
  - { offset: 0xD7763, size: 0x8, addend: 0x0, symName: __ZNK5Tiled11ObjectGroup7objectsEv, symObjAddr: 0x2CB60, symBinAddr: 0x34E00, symSize: 0x20 }
  - { offset: 0xD7789, size: 0x8, addend: 0x0, symName: __ZN5QListIPN5Tiled9MapObjectEEC1ERKS3_, symObjAddr: 0x2CB80, symBinAddr: 0x34E20, symSize: 0x30 }
  - { offset: 0xD77BE, size: 0x8, addend: 0x0, symName: __ZNK5Tiled11ObjectGroup9drawOrderEv, symObjAddr: 0x2CBB0, symBinAddr: 0x34E50, symSize: 0x20 }
  - { offset: 0xD77E5, size: 0x8, addend: 0x0, symName: __ZN5QListIPN5Tiled9MapObjectEE5beginEv, symObjAddr: 0x2CC10, symBinAddr: 0x34EB0, symSize: 0x40 }
  - { offset: 0xD780B, size: 0x8, addend: 0x0, symName: __ZN5QListIPN5Tiled9MapObjectEE3endEv, symObjAddr: 0x2CC50, symBinAddr: 0x34EF0, symSize: 0x40 }
  - { offset: 0xD7831, size: 0x8, addend: 0x0, symName: __ZNK5QListIPN5Tiled9MapObjectEE5beginEv, symObjAddr: 0x2CC90, symBinAddr: 0x34F30, symSize: 0x40 }
  - { offset: 0xD7857, size: 0x8, addend: 0x0, symName: __ZNK5QListIPN5Tiled9MapObjectEE3endEv, symObjAddr: 0x2CCD0, symBinAddr: 0x34F70, symSize: 0x40 }
  - { offset: 0xD787D, size: 0x8, addend: 0x0, symName: __ZNK5QListIPN5Tiled9MapObjectEE14const_iteratorneES4_, symObjAddr: 0x2CD10, symBinAddr: 0x34FB0, symSize: 0x20 }
  - { offset: 0xD78B1, size: 0x8, addend: 0x0, symName: __ZNK5QListIPN5Tiled9MapObjectEE14const_iteratordeEv, symObjAddr: 0x2CD30, symBinAddr: 0x34FD0, symSize: 0x20 }
  - { offset: 0xD78D7, size: 0x8, addend: 0x0, symName: __ZNSt3__18functionIFvvEEC1IN5Tiled12JumpToObjectEvEET_, symObjAddr: 0x2CEF0, symBinAddr: 0x35110, symSize: 0x20 }
  - { offset: 0xD791C, size: 0x8, addend: 0x0, symName: __ZN5Tiled12JumpToObjectD1Ev, symObjAddr: 0x2CF10, symBinAddr: 0x35130, symSize: 0x20 }
  - { offset: 0xD7948, size: 0x8, addend: 0x0, symName: __ZNSt3__16vectorIN2Yy7GMRViewENS_9allocatorIS2_EEE12emplace_backIJEEERS2_DpOT_, symObjAddr: 0x2CF30, symBinAddr: 0x35150, symSize: 0x70 }
  - { offset: 0xD7984, size: 0x8, addend: 0x0, symName: __ZNK5Tiled9MapObject9isVisibleEv, symObjAddr: 0x2CFA0, symBinAddr: 0x351C0, symSize: 0x20 }
  - { offset: 0xD79AB, size: 0x8, addend: 0x0, symName: __Z6qRoundd, symObjAddr: 0x2CFC0, symBinAddr: 0x351E0, symSize: 0x30 }
  - { offset: 0xD79DA, size: 0x8, addend: 0x0, symName: __ZNK5Tiled9MapObject1xEv, symObjAddr: 0x2CFF0, symBinAddr: 0x35210, symSize: 0x20 }
  - { offset: 0xD7A02, size: 0x8, addend: 0x0, symName: __ZNK5Tiled9MapObject1yEv, symObjAddr: 0x2D010, symBinAddr: 0x35230, symSize: 0x20 }
  - { offset: 0xD7A2A, size: 0x8, addend: 0x0, symName: __ZNK5Tiled9MapObject5widthEv, symObjAddr: 0x2D030, symBinAddr: 0x35250, symSize: 0x20 }
  - { offset: 0xD7A52, size: 0x8, addend: 0x0, symName: __ZNK5Tiled9MapObject6heightEv, symObjAddr: 0x2D050, symBinAddr: 0x35270, symSize: 0x20 }
  - { offset: 0xD7A7A, size: 0x8, addend: 0x0, symName: __ZNSt3__16vectorIN2Yy11GMRInstanceENS_9allocatorIS2_EEE12emplace_backIJEEERS2_DpOT_, symObjAddr: 0x2D070, symBinAddr: 0x35290, symSize: 0x70 }
  - { offset: 0xD7AB6, size: 0x8, addend: 0x0, symName: __ZL12takePropertyIbET_R4QMapI7QString8QVariantERKS2_RKS0_, symObjAddr: 0x2D0E0, symBinAddr: 0x35300, symSize: 0xF0 }
  - { offset: 0xD7B1C, size: 0x8, addend: 0x0, symName: __ZL12takePropertyIdET_R4QMapI7QString8QVariantERKS2_RKS0_, symObjAddr: 0x2D1D0, symBinAddr: 0x353F0, symSize: 0x100 }
  - { offset: 0xD7B82, size: 0x8, addend: 0x0, symName: __ZNK5Tiled9MapObject4cellEv, symObjAddr: 0x2D2D0, symBinAddr: 0x354F0, symSize: 0x20 }
  - { offset: 0xD7BAA, size: 0x8, addend: 0x0, symName: __ZNK5Tiled4Cell7isEmptyEv, symObjAddr: 0x2D2F0, symBinAddr: 0x35510, symSize: 0x20 }
  - { offset: 0xD7BD0, size: 0x8, addend: 0x0, symName: __ZN4QMapI7QString8QVariantE6removeERKS0_, symObjAddr: 0x2D310, symBinAddr: 0x35530, symSize: 0xC0 }
  - { offset: 0xD7C25, size: 0x8, addend: 0x0, symName: __ZNK5Tiled4Cell4tileEv, symObjAddr: 0x2D3D0, symBinAddr: 0x355F0, symSize: 0x50 }
  - { offset: 0xD7C4C, size: 0x8, addend: 0x0, symName: __ZNK5Tiled9MapObject4sizeEv, symObjAddr: 0x2D420, symBinAddr: 0x35640, symSize: 0x20 }
  - { offset: 0xD7C74, size: 0x8, addend: 0x0, symName: __ZN7QPointFmIERKS_, symObjAddr: 0x2D440, symBinAddr: 0x35660, symSize: 0x40 }
  - { offset: 0xD7CAB, size: 0x8, addend: 0x0, symName: __ZNK5Tiled11MapRenderer19pixelToScreenCoordsERK7QPointF, symObjAddr: 0x2D480, symBinAddr: 0x356A0, symSize: 0x70 }
  - { offset: 0xD7CE2, size: 0x8, addend: 0x0, symName: __ZNK5Tiled9MapObject8positionEv, symObjAddr: 0x2D4F0, symBinAddr: 0x35710, symSize: 0x20 }
  - { offset: 0xD7D0A, size: 0x8, addend: 0x0, symName: __ZN10QTransformC1Ev, symObjAddr: 0x2D510, symBinAddr: 0x35730, symSize: 0x20 }
  - { offset: 0xD7D34, size: 0x8, addend: 0x0, symName: __ZNK5Tiled9MapObject8rotationEv, symObjAddr: 0x2D530, symBinAddr: 0x35750, symSize: 0x20 }
  - { offset: 0xD7D5C, size: 0x8, addend: 0x0, symName: __ZN7QPointFpLERKS_, symObjAddr: 0x2D550, symBinAddr: 0x35770, symSize: 0x40 }
  - { offset: 0xD7D93, size: 0x8, addend: 0x0, symName: __ZL12takePropertyI6QColorET_R4QMapI7QString8QVariantERKS3_RKS1_, symObjAddr: 0x2D590, symBinAddr: 0x357B0, symSize: 0x150 }
  - { offset: 0xD7DFB, size: 0x8, addend: 0x0, symName: __ZL12takePropertyIiET_R4QMapI7QString8QVariantERKS2_RKS0_, symObjAddr: 0x2D6E0, symBinAddr: 0x35900, symSize: 0xF0 }
  - { offset: 0xD7E61, size: 0x8, addend: 0x0, symName: __ZN2Yy7Context12instanceNameEPKN5Tiled9MapObjectERK7QString, symObjAddr: 0x2D7D0, symBinAddr: 0x359F0, symSize: 0x2C0 }
  - { offset: 0xD7EDE, size: 0x8, addend: 0x0, symName: __ZNSt3__16vectorIN2Yy16InstanceCreationENS_9allocatorIS2_EEE12emplace_backIJEEERS2_DpOT_, symObjAddr: 0x2DA90, symBinAddr: 0x35CB0, symSize: 0x70 }
  - { offset: 0xD7F1A, size: 0x8, addend: 0x0, symName: __ZNK4QMapI7QString8QVariantE10constBeginEv, symObjAddr: 0x2DB00, symBinAddr: 0x35D20, symSize: 0x30 }
  - { offset: 0xD7F3F, size: 0x8, addend: 0x0, symName: __ZneRKN4QMapI7QString8QVariantE14const_iteratorES5_, symObjAddr: 0x2DB30, symBinAddr: 0x35D50, symSize: 0x30 }
  - { offset: 0xD7F7D, size: 0x8, addend: 0x0, symName: __ZNK4QMapI7QString8QVariantE8constEndEv, symObjAddr: 0x2DB60, symBinAddr: 0x35D80, symSize: 0x30 }
  - { offset: 0xD7FA3, size: 0x8, addend: 0x0, symName: __ZNSt3__16vectorIN2Yy20GMOverriddenPropertyENS_9allocatorIS2_EEE12emplace_backIJEEERS2_DpOT_, symObjAddr: 0x2DB90, symBinAddr: 0x35DB0, symSize: 0x70 }
  - { offset: 0xD7FDF, size: 0x8, addend: 0x0, symName: __ZNK4QMapI7QString8QVariantE14const_iterator3keyEv, symObjAddr: 0x2DC00, symBinAddr: 0x35E20, symSize: 0x20 }
  - { offset: 0xD8005, size: 0x8, addend: 0x0, symName: __ZL25toOverriddenPropertyValueRK8QVariantRN2Yy7ContextE, symObjAddr: 0x2DC20, symBinAddr: 0x35E40, symSize: 0x5E0 }
  - { offset: 0xD812E, size: 0x8, addend: 0x0, symName: __ZNK4QMapI7QString8QVariantE14const_iterator5valueEv, symObjAddr: 0x2E200, symBinAddr: 0x36420, symSize: 0x20 }
  - { offset: 0xD8154, size: 0x8, addend: 0x0, symName: __ZN4QMapI7QString8QVariantE14const_iteratorppEv, symObjAddr: 0x2E220, symBinAddr: 0x36440, symSize: 0x30 }
  - { offset: 0xD817A, size: 0x8, addend: 0x0, symName: __ZN4QMapI7QString8QVariantED1Ev, symObjAddr: 0x2E250, symBinAddr: 0x36470, symSize: 0x20 }
  - { offset: 0xD81A6, size: 0x8, addend: 0x0, symName: __ZNK5Tiled9MapObject12isTileObjectEv, symObjAddr: 0x2E270, symBinAddr: 0x36490, symSize: 0x30 }
  - { offset: 0xD81CE, size: 0x8, addend: 0x0, symName: __ZNK6QSizeF6toSizeEv, symObjAddr: 0x2E2A0, symBinAddr: 0x364C0, symSize: 0x60 }
  - { offset: 0xD81F6, size: 0x8, addend: 0x0, symName: __ZNK5Tiled9MapObject2idEv, symObjAddr: 0x2E300, symBinAddr: 0x36520, symSize: 0x20 }
  - { offset: 0xD821E, size: 0x8, addend: 0x0, symName: __ZL16optionalPropertyI6QColorET_PKN5Tiled6ObjectERK7QStringRKS1_, symObjAddr: 0x2E320, symBinAddr: 0x36540, symSize: 0x150 }
  - { offset: 0xD8286, size: 0x8, addend: 0x0, symName: __ZNK5Tiled9MapObject5shapeEv, symObjAddr: 0x2E470, symBinAddr: 0x36690, symSize: 0x20 }
  - { offset: 0xD82AE, size: 0x8, addend: 0x0, symName: __ZNSt3__16vectorIN2Yy6GMPathENS_9allocatorIS2_EEE12emplace_backIJEEERS2_DpOT_, symObjAddr: 0x2E490, symBinAddr: 0x366B0, symSize: 0x70 }
  - { offset: 0xD82EA, size: 0x8, addend: 0x0, symName: __ZNK5Tiled9MapObject7polygonEv, symObjAddr: 0x2E500, symBinAddr: 0x36720, symSize: 0x20 }
  - { offset: 0xD8312, size: 0x8, addend: 0x0, symName: __ZN5QListI7QPointFEaSEOS1_, symObjAddr: 0x2E520, symBinAddr: 0x36740, symSize: 0x30 }
  - { offset: 0xD8343, size: 0x8, addend: 0x0, symName: __ZN9QPolygonFD1Ev, symObjAddr: 0x2E550, symBinAddr: 0x36770, symSize: 0x20 }
  - { offset: 0xD836F, size: 0x8, addend: 0x0, symName: __ZNK5Tiled9MapObject4nameEv, symObjAddr: 0x2E570, symBinAddr: 0x36790, symSize: 0x20 }
  - { offset: 0xD8397, size: 0x8, addend: 0x0, symName: __ZNSt3__16vectorIN2Yy6GMPathENS_9allocatorIS2_EEE9push_backB9nqe210106ERKS2_, symObjAddr: 0x2E590, symBinAddr: 0x367B0, symSize: 0x30 }
  - { offset: 0xD83CC, size: 0x8, addend: 0x0, symName: __ZN5QListIPN5Tiled9MapObjectEE14const_iteratorppEv, symObjAddr: 0x2E5C0, symBinAddr: 0x367E0, symSize: 0x20 }
  - { offset: 0xD83F2, size: 0x8, addend: 0x0, symName: __ZNKSt3__16vectorIN2Yy11GMRInstanceENS_9allocatorIS2_EEE5emptyB9nqe210106Ev, symObjAddr: 0x2E5E0, symBinAddr: 0x36800, symSize: 0x20 }
  - { offset: 0xD8418, size: 0x8, addend: 0x0, symName: __ZNKSt3__110unique_ptrIN2Yy16GMRInstanceLayerENS_14default_deleteIS2_EEEptB9nqe210106Ev, symObjAddr: 0x2E670, symBinAddr: 0x36890, symSize: 0x20 }
  - { offset: 0xD843E, size: 0x8, addend: 0x0, symName: __ZNSt3__16vectorIN2Yy11GMRInstanceENS_9allocatorIS2_EEEaSB9nqe210106EOS5_, symObjAddr: 0x2E690, symBinAddr: 0x368B0, symSize: 0x30 }
  - { offset: 0xD8473, size: 0x8, addend: 0x0, symName: __ZNSt3__110unique_ptrIN2Yy8GMRLayerENS_14default_deleteIS2_EEEC1B9nqe210106INS1_16GMRInstanceLayerENS3_IS7_EEvvEEONS0_IT_T0_EE, symObjAddr: 0x2E6C0, symBinAddr: 0x368E0, symSize: 0x30 }
  - { offset: 0xD84C1, size: 0x8, addend: 0x0, symName: __ZNSt3__110unique_ptrIN2Yy16GMRInstanceLayerENS_14default_deleteIS2_EEED1B9nqe210106Ev, symObjAddr: 0x2E6F0, symBinAddr: 0x36910, symSize: 0x20 }
  - { offset: 0xD84EB, size: 0x8, addend: 0x0, symName: __ZNSt3__16vectorIN2Yy6GMPathENS_9allocatorIS2_EEE5beginB9nqe210106Ev, symObjAddr: 0x2E710, symBinAddr: 0x36930, symSize: 0x40 }
  - { offset: 0xD8511, size: 0x8, addend: 0x0, symName: __ZNSt3__16vectorIN2Yy6GMPathENS_9allocatorIS2_EEE3endB9nqe210106Ev, symObjAddr: 0x2E750, symBinAddr: 0x36970, symSize: 0x40 }
  - { offset: 0xD8537, size: 0x8, addend: 0x0, symName: __ZNKSt3__111__wrap_iterIPN2Yy6GMPathEEdeB9nqe210106Ev, symObjAddr: 0x2E7C0, symBinAddr: 0x369E0, symSize: 0x20 }
  - { offset: 0xD855D, size: 0x8, addend: 0x0, symName: __ZNKSt3__110unique_ptrIN2Yy12GMRPathLayerENS_14default_deleteIS2_EEEptB9nqe210106Ev, symObjAddr: 0x2E850, symBinAddr: 0x36A70, symSize: 0x20 }
  - { offset: 0xD8583, size: 0x8, addend: 0x0, symName: __ZNSt3__110unique_ptrIN2Yy8GMRLayerENS_14default_deleteIS2_EEEC1B9nqe210106INS1_12GMRPathLayerENS3_IS7_EEvvEEONS0_IT_T0_EE, symObjAddr: 0x2E870, symBinAddr: 0x36A90, symSize: 0x30 }
  - { offset: 0xD85D1, size: 0x8, addend: 0x0, symName: __ZNSt3__110unique_ptrIN2Yy12GMRPathLayerENS_14default_deleteIS2_EEED1B9nqe210106Ev, symObjAddr: 0x2E8A0, symBinAddr: 0x36AC0, symSize: 0x20 }
  - { offset: 0xD85FB, size: 0x8, addend: 0x0, symName: __ZNSt3__111__wrap_iterIPN2Yy6GMPathEEppB9nqe210106Ev, symObjAddr: 0x2E8C0, symBinAddr: 0x36AE0, symSize: 0x20 }
  - { offset: 0xD8621, size: 0x8, addend: 0x0, symName: __ZNSt3__110unique_ptrIN2Yy8GMRLayerENS_14default_deleteIS2_EEEaSB9nqe210106INS1_16GMRInstanceLayerENS3_IS7_EEvvEERS5_ONS0_IT_T0_EE, symObjAddr: 0x2E8E0, symBinAddr: 0x36B00, symSize: 0x50 }
  - { offset: 0xD866B, size: 0x8, addend: 0x0, symName: __ZN5QListIPN5Tiled9MapObjectEED1Ev, symObjAddr: 0x2E930, symBinAddr: 0x36B50, symSize: 0x20 }
  - { offset: 0xD8697, size: 0x8, addend: 0x0, symName: __ZNSt3__16vectorIN2Yy11GMRInstanceENS_9allocatorIS2_EEED1B9nqe210106Ev, symObjAddr: 0x2E950, symBinAddr: 0x36B70, symSize: 0x20 }
  - { offset: 0xD86C1, size: 0x8, addend: 0x0, symName: __ZNSt3__16vectorIN2Yy11GMRInstanceENS_9allocatorIS2_EEEC2B9nqe210106Ev, symObjAddr: 0x2E970, symBinAddr: 0x36B90, symSize: 0x40 }
  - { offset: 0xD86EB, size: 0x8, addend: 0x0, symName: __ZNSt3__19allocatorIN2Yy11GMRInstanceEEC1B9nqe210106Ev, symObjAddr: 0x2E9B0, symBinAddr: 0x36BD0, symSize: 0x20 }
  - { offset: 0xD8715, size: 0x8, addend: 0x0, symName: __ZNSt3__19allocatorIN2Yy11GMRInstanceEEC2B9nqe210106Ev, symObjAddr: 0x2E9D0, symBinAddr: 0x36BF0, symSize: 0x20 }
  - { offset: 0xD873F, size: 0x8, addend: 0x0, symName: __ZNSt3__116__non_trivial_ifILb1ENS_9allocatorIN2Yy11GMRInstanceEEEEC2B9nqe210106Ev, symObjAddr: 0x2E9F0, symBinAddr: 0x36C10, symSize: 0x10 }
  - { offset: 0xD8769, size: 0x8, addend: 0x0, symName: __ZN5QListIPN5Tiled9MapObjectEEC2ERKS3_, symObjAddr: 0x2EA00, symBinAddr: 0x36C20, symSize: 0x30 }
  - { offset: 0xD879E, size: 0x8, addend: 0x0, symName: __ZN17QArrayDataPointerIPN5Tiled9MapObjectEEC1ERKS3_, symObjAddr: 0x2EA30, symBinAddr: 0x36C50, symSize: 0x30 }
  - { offset: 0xD87D6, size: 0x8, addend: 0x0, symName: __ZN17QArrayDataPointerIPN5Tiled9MapObjectEEC2ERKS3_, symObjAddr: 0x2EA60, symBinAddr: 0x36C80, symSize: 0x50 }
  - { offset: 0xD880E, size: 0x8, addend: 0x0, symName: __ZN17QArrayDataPointerIPN5Tiled9MapObjectEE3refEv, symObjAddr: 0x2EAB0, symBinAddr: 0x36CD0, symSize: 0x30 }
  - { offset: 0xD8834, size: 0x8, addend: 0x0, symName: __ZNK5QListIPN5Tiled9MapObjectEE8iteratormiES4_, symObjAddr: 0x2EC20, symBinAddr: 0x36E40, symSize: 0x20 }
  - { offset: 0xD8890, size: 0x8, addend: 0x0, symName: __ZNSt3__110unique_ptrIPN5Tiled9MapObjectENS_26__temporary_buffer_deleterIS3_EEEC1B9nqe210106ILb1EvEEv, symObjAddr: 0x2EC40, symBinAddr: 0x36E60, symSize: 0x20 }
  - { offset: 0xD88F3, size: 0x8, addend: 0x0, symName: __ZNSt3__14pairIPPN5Tiled9MapObjectElEC1B9nqe210106INS_25__check_pair_constructionIS4_lEELi0EEERKS4_RKl, symObjAddr: 0x2EC60, symBinAddr: 0x36E80, symSize: 0x30 }
  - { offset: 0xD8948, size: 0x8, addend: 0x0, symName: __ZNSt3__110unique_ptrIPN5Tiled9MapObjectENS_26__temporary_buffer_deleterIS3_EEEaSB9nqe210106EOS6_, symObjAddr: 0x2ED50, symBinAddr: 0x36F70, symSize: 0x50 }
  - { offset: 0xD897C, size: 0x8, addend: 0x0, symName: __ZNSt3__110unique_ptrIPN5Tiled9MapObjectENS_26__temporary_buffer_deleterIS3_EEED1B9nqe210106Ev, symObjAddr: 0x2EDA0, symBinAddr: 0x36FC0, symSize: 0x20 }
  - { offset: 0xD89A6, size: 0x8, addend: 0x0, symName: __ZNKSt3__110unique_ptrIPN5Tiled9MapObjectENS_26__temporary_buffer_deleterIS3_EEE3getB9nqe210106Ev, symObjAddr: 0x2EDC0, symBinAddr: 0x36FE0, symSize: 0x20 }
  - { offset: 0xD89CC, size: 0x8, addend: 0x0, symName: __ZNSt3__110unique_ptrIPN5Tiled9MapObjectENS_26__temporary_buffer_deleterIS3_EEE11get_deleterB9nqe210106Ev, symObjAddr: 0x2EDE0, symBinAddr: 0x37000, symSize: 0x20 }
  - { offset: 0xD89F2, size: 0x8, addend: 0x0, symName: __ZNSt3__110unique_ptrIPN5Tiled9MapObjectENS_26__temporary_buffer_deleterIS3_EEEC2B9nqe210106ILb1EvEEv, symObjAddr: 0x2F130, symBinAddr: 0x37350, symSize: 0x30 }
  - { offset: 0xD8A28, size: 0x8, addend: 0x0, symName: __ZNSt3__126__temporary_buffer_deleterIPN5Tiled9MapObjectEEC1B9nqe210106Ev, symObjAddr: 0x2F160, symBinAddr: 0x37380, symSize: 0x20 }
  - { offset: 0xD8A52, size: 0x8, addend: 0x0, symName: __ZNSt3__126__temporary_buffer_deleterIPN5Tiled9MapObjectEEC2B9nqe210106Ev, symObjAddr: 0x2F180, symBinAddr: 0x373A0, symSize: 0x20 }
  - { offset: 0xD8A7C, size: 0x8, addend: 0x0, symName: __ZNSt3__14pairIPPN5Tiled9MapObjectElEC2B9nqe210106INS_25__check_pair_constructionIS4_lEELi0EEERKS4_RKl, symObjAddr: 0x2F1A0, symBinAddr: 0x373C0, symSize: 0x30 }
  - { offset: 0xD8AD1, size: 0x8, addend: 0x0, symName: __ZNSt3__126__temporary_buffer_deleterIPN5Tiled9MapObjectEEC1B9nqe210106El, symObjAddr: 0x2F1D0, symBinAddr: 0x373F0, symSize: 0x30 }
  - { offset: 0xD8B0E, size: 0x8, addend: 0x0, symName: __ZNSt3__110unique_ptrIPN5Tiled9MapObjectENS_26__temporary_buffer_deleterIS3_EEEC1B9nqe210106ILb1EvEEPS3_NS_16__dependent_typeINS_27__unique_ptr_deleter_sfinaeIS5_EEXT_EE20__good_rval_ref_typeE, symObjAddr: 0x2F200, symBinAddr: 0x37420, symSize: 0x30 }
  - { offset: 0xD8B60, size: 0x8, addend: 0x0, symName: __ZNSt3__126__temporary_buffer_deleterIPN5Tiled9MapObjectEEC2B9nqe210106El, symObjAddr: 0x2F230, symBinAddr: 0x37450, symSize: 0x20 }
  - { offset: 0xD8B98, size: 0x8, addend: 0x0, symName: __ZNSt3__110unique_ptrIPN5Tiled9MapObjectENS_26__temporary_buffer_deleterIS3_EEEC2B9nqe210106ILb1EvEEPS3_NS_16__dependent_typeINS_27__unique_ptr_deleter_sfinaeIS5_EEXT_EE20__good_rval_ref_typeE, symObjAddr: 0x2F250, symBinAddr: 0x37470, symSize: 0x30 }
  - { offset: 0xD8BEA, size: 0x8, addend: 0x0, symName: __ZNSt3__110unique_ptrIPN5Tiled9MapObjectENS_26__temporary_buffer_deleterIS3_EEE5resetB9nqe210106EPS3_, symObjAddr: 0x2F280, symBinAddr: 0x374A0, symSize: 0x50 }
  - { offset: 0xD8C2F, size: 0x8, addend: 0x0, symName: __ZNSt3__110unique_ptrIPN5Tiled9MapObjectENS_26__temporary_buffer_deleterIS3_EEE7releaseB9nqe210106Ev, symObjAddr: 0x2F2D0, symBinAddr: 0x374F0, symSize: 0x20 }
  - { offset: 0xD8C65, size: 0x8, addend: 0x0, symName: __ZNSt3__126__temporary_buffer_deleterIPN5Tiled9MapObjectEEclB9nqe210106EPS3_, symObjAddr: 0x2F2F0, symBinAddr: 0x37510, symSize: 0x30 }
  - { offset: 0xD8C99, size: 0x8, addend: 0x0, symName: __ZNSt3__110unique_ptrIPN5Tiled9MapObjectENS_26__temporary_buffer_deleterIS3_EEED2B9nqe210106Ev, symObjAddr: 0x2F360, symBinAddr: 0x37580, symSize: 0x20 }
  - { offset: 0xD8CCD, size: 0x8, addend: 0x0, symName: '__ZZL18processObjectGroupPKN5Tiled11ObjectGroupERN2Yy7ContextEENK3$_0clEPKNS_9MapObjectES9_', symObjAddr: 0x2F380, symBinAddr: 0x375A0, symSize: 0x40 }
  - { offset: 0xD8D15, size: 0x8, addend: 0x0, symName: __ZN5QListIPN5Tiled9MapObjectEE8iteratormmEv, symObjAddr: 0x2F3C0, symBinAddr: 0x375E0, symSize: 0x20 }
  - { offset: 0xD8D3B, size: 0x8, addend: 0x0, symName: __ZNK5QListIPN5Tiled9MapObjectEE8iteratordeEv, symObjAddr: 0x2F3E0, symBinAddr: 0x37600, symSize: 0x20 }
  - { offset: 0xD8D61, size: 0x8, addend: 0x0, symName: __ZNSt3__18_IterOpsINS_17_ClassicAlgPolicyEE9iter_swapB9nqe210106IRN5QListIPN5Tiled9MapObjectEE8iteratorESA_EEvOT_OT0_, symObjAddr: 0x2F400, symBinAddr: 0x37620, symSize: 0x40 }
  - { offset: 0xD8DA4, size: 0x8, addend: 0x0, symName: __ZNK5QListIPN5Tiled9MapObjectEE8iteratorplEx, symObjAddr: 0x2F5E0, symBinAddr: 0x37800, symSize: 0x40 }
  - { offset: 0xD8DDD, size: 0x8, addend: 0x0, symName: __ZNSt3__112__destruct_nC1B9nqe210106Em, symObjAddr: 0x2F620, symBinAddr: 0x37840, symSize: 0x30 }
  - { offset: 0xD8E33, size: 0x8, addend: 0x0, symName: __ZNSt3__110unique_ptrIPN5Tiled9MapObjectERNS_12__destruct_nEEC1B9nqe210106ILb1EvEEPS3_NS_16__dependent_typeINS_27__unique_ptr_deleter_sfinaeIS5_EEXT_EE15__lval_ref_typeE, symObjAddr: 0x2F650, symBinAddr: 0x37870, symSize: 0x30 }
  - { offset: 0xD8E85, size: 0x8, addend: 0x0, symName: __ZNSt3__112__destruct_n5__setB9nqe210106IPN5Tiled9MapObjectEEEvmPT_, symObjAddr: 0x2F9F0, symBinAddr: 0x37C10, symSize: 0x30 }
  - { offset: 0xD8ECC, size: 0x8, addend: 0x0, symName: __ZNSt3__110unique_ptrIPN5Tiled9MapObjectERNS_12__destruct_nEED1B9nqe210106Ev, symObjAddr: 0x2FB70, symBinAddr: 0x37D90, symSize: 0x20 }
  - { offset: 0xD8EF6, size: 0x8, addend: 0x0, symName: __ZNK5QListIPN5Tiled9MapObjectEE8iteratoreqES4_, symObjAddr: 0x30020, symBinAddr: 0x38240, symSize: 0x20 }
  - { offset: 0xD8F2A, size: 0x8, addend: 0x0, symName: __ZN5QListIPN5Tiled9MapObjectEE8iteratorppEv, symObjAddr: 0x30040, symBinAddr: 0x38260, symSize: 0x20 }
  - { offset: 0xD8F50, size: 0x8, addend: 0x0, symName: __ZNK5QListIPN5Tiled9MapObjectEE8iteratorneES4_, symObjAddr: 0x30060, symBinAddr: 0x38280, symSize: 0x20 }
  - { offset: 0xD8F89, size: 0x8, addend: 0x0, symName: __ZNSt3__18_IterOpsINS_17_ClassicAlgPolicyEE11__iter_moveB9nqe210106IRN5QListIPN5Tiled9MapObjectEE8iteratorELi0EEEDTclsr3stdE4movedeclsr3stdE7declvalIRT_EEEEOSB_, symObjAddr: 0x30080, symBinAddr: 0x382A0, symSize: 0x20 }
  - { offset: 0xD8FBB, size: 0x8, addend: 0x0, symName: __ZNSt3__18_IterOpsINS_17_ClassicAlgPolicyEE25__validate_iter_referenceB9nqe210106IRN5QListIPN5Tiled9MapObjectEE8iteratorEEEvv, symObjAddr: 0x300A0, symBinAddr: 0x382C0, symSize: 0x10 }
  - { offset: 0xD8FD9, size: 0x8, addend: 0x0, symName: __ZN5QListIPN5Tiled9MapObjectEE8iteratorC1EPS2_, symObjAddr: 0x300B0, symBinAddr: 0x382D0, symSize: 0x30 }
  - { offset: 0xD9011, size: 0x8, addend: 0x0, symName: __ZN5QListIPN5Tiled9MapObjectEE8iteratorC2EPS2_, symObjAddr: 0x300E0, symBinAddr: 0x38300, symSize: 0x20 }
  - { offset: 0xD9049, size: 0x8, addend: 0x0, symName: __ZNSt3__112__destruct_nC2B9nqe210106Em, symObjAddr: 0x30100, symBinAddr: 0x38320, symSize: 0x20 }
  - { offset: 0xD9081, size: 0x8, addend: 0x0, symName: __ZNSt3__110unique_ptrIPN5Tiled9MapObjectERNS_12__destruct_nEEC2B9nqe210106ILb1EvEEPS3_NS_16__dependent_typeINS_27__unique_ptr_deleter_sfinaeIS5_EEXT_EE15__lval_ref_typeE, symObjAddr: 0x30120, symBinAddr: 0x38340, symSize: 0x30 }
  - { offset: 0xD90D3, size: 0x8, addend: 0x0, symName: __ZNSt3__112__destruct_n6__incrB9nqe210106IPN5Tiled9MapObjectEEEvv, symObjAddr: 0x30170, symBinAddr: 0x38390, symSize: 0x20 }
  - { offset: 0xD9102, size: 0x8, addend: 0x0, symName: __ZNSt3__110unique_ptrIPN5Tiled9MapObjectERNS_12__destruct_nEE7releaseB9nqe210106Ev, symObjAddr: 0x30190, symBinAddr: 0x383B0, symSize: 0x20 }
  - { offset: 0xD9138, size: 0x8, addend: 0x0, symName: __ZNSt3__112__destruct_n6__incrB9nqe210106ENS_17integral_constantIbLb1EEE, symObjAddr: 0x306E0, symBinAddr: 0x38900, symSize: 0x10 }
  - { offset: 0xD9168, size: 0x8, addend: 0x0, symName: __ZNSt3__112__destruct_n5__setB9nqe210106EmNS_17integral_constantIbLb1EEE, symObjAddr: 0x306F0, symBinAddr: 0x38910, symSize: 0x10 }
  - { offset: 0xD91A7, size: 0x8, addend: 0x0, symName: __ZNSt3__18_IterOpsINS_17_ClassicAlgPolicyEE11__iter_moveB9nqe210106IRPPN5Tiled9MapObjectELi0EEEDTclsr3stdE4movedeclsr3stdE7declvalIRT_EEEEOS9_, symObjAddr: 0x30700, symBinAddr: 0x38920, symSize: 0x20 }
  - { offset: 0xD91D9, size: 0x8, addend: 0x0, symName: __ZNSt3__18_IterOpsINS_17_ClassicAlgPolicyEE25__validate_iter_referenceB9nqe210106IRPPN5Tiled9MapObjectEEEvv, symObjAddr: 0x30720, symBinAddr: 0x38940, symSize: 0x10 }
  - { offset: 0xD91F7, size: 0x8, addend: 0x0, symName: __ZNSt3__110unique_ptrIPN5Tiled9MapObjectERNS_12__destruct_nEED2B9nqe210106Ev, symObjAddr: 0x30730, symBinAddr: 0x38950, symSize: 0x20 }
  - { offset: 0xD9221, size: 0x8, addend: 0x0, symName: __ZNSt3__110unique_ptrIPN5Tiled9MapObjectERNS_12__destruct_nEE5resetB9nqe210106EPS3_, symObjAddr: 0x30750, symBinAddr: 0x38970, symSize: 0x50 }
  - { offset: 0xD9266, size: 0x8, addend: 0x0, symName: __ZNSt3__112__destruct_nclB9nqe210106IPN5Tiled9MapObjectEEEvPT_, symObjAddr: 0x307A0, symBinAddr: 0x389C0, symSize: 0x30 }
  - { offset: 0xD92A3, size: 0x8, addend: 0x0, symName: __ZNSt3__112__destruct_n9__processB9nqe210106IPN5Tiled9MapObjectEEEvPT_NS_17integral_constantIbLb1EEE, symObjAddr: 0x307D0, symBinAddr: 0x389F0, symSize: 0x10 }
  - { offset: 0xD92E6, size: 0x8, addend: 0x0, symName: __ZN5QListIPN5Tiled9MapObjectEE8iteratorC1Ev, symObjAddr: 0x30AB0, symBinAddr: 0x38CD0, symSize: 0x20 }
  - { offset: 0xD9310, size: 0x8, addend: 0x0, symName: __ZNSt3__18_IterOpsINS_17_ClassicAlgPolicyEE7advanceB9nqe210106IN5QListIPN5Tiled9MapObjectEE8iteratorExEEvRT_T0_, symObjAddr: 0x30AD0, symBinAddr: 0x38CF0, symSize: 0x30 }
  - { offset: 0xD9353, size: 0x8, addend: 0x0, symName: __ZNSt3__18_IterOpsINS_17_ClassicAlgPolicyEE8distanceB9nqe210106IN5QListIPN5Tiled9MapObjectEE8iteratorEEENS_15iterator_traitsIT_E15difference_typeESB_SB_, symObjAddr: 0x30BF0, symBinAddr: 0x38E10, symSize: 0x40 }
  - { offset: 0xD938D, size: 0x8, addend: 0x0, symName: __ZNSt3__116reverse_iteratorIPPN5Tiled9MapObjectEEC1B9nqe210106ES4_, symObjAddr: 0x31030, symBinAddr: 0x39250, symSize: 0x30 }
  - { offset: 0xD93C5, size: 0x8, addend: 0x0, symName: __ZNSt3__116reverse_iteratorIN5QListIPN5Tiled9MapObjectEE8iteratorEEC1B9nqe210106ES6_, symObjAddr: 0x31060, symBinAddr: 0x39280, symSize: 0x30 }
  - { offset: 0xD93FD, size: 0x8, addend: 0x0, symName: '__ZNSt3__18__invertIRZL18processObjectGroupPKN5Tiled11ObjectGroupERN2Yy7ContextEE3$_0EC1B9nqe210106ES9_', symObjAddr: 0x31090, symBinAddr: 0x392B0, symSize: 0x30 }
  - { offset: 0xD9458, size: 0x8, addend: 0x0, symName: __ZNKSt3__111__move_implINS_17_ClassicAlgPolicyEEclB9nqe210106IPPN5Tiled9MapObjectES7_N5QListIS6_E8iteratorEEENS_4pairIT_T1_EESC_T0_SD_, symObjAddr: 0x31240, symBinAddr: 0x39460, symSize: 0x80 }
  - { offset: 0xD94E1, size: 0x8, addend: 0x0, symName: __ZNSt3__14pairIPPN5Tiled9MapObjectES4_EC1B9nqe210106IS4_S4_Li0EEEOT_OT0_, symObjAddr: 0x313F0, symBinAddr: 0x39610, symSize: 0x30 }
  - { offset: 0xD953F, size: 0x8, addend: 0x0, symName: __ZNSt3__14pairIPPN5Tiled9MapObjectES4_EC2B9nqe210106IS4_S4_Li0EEEOT_OT0_, symObjAddr: 0x31420, symBinAddr: 0x39640, symSize: 0x30 }
  - { offset: 0xD959D, size: 0x8, addend: 0x0, symName: __ZNSt3__118__unwrap_iter_implIPPN5Tiled9MapObjectELb1EE8__unwrapB9nqe210106ES4_, symObjAddr: 0x31450, symBinAddr: 0x39670, symSize: 0x20 }
  - { offset: 0xD95C0, size: 0x8, addend: 0x0, symName: __ZNSt3__118__unwrap_iter_implIN5QListIPN5Tiled9MapObjectEE8iteratorELb0EE8__unwrapB9nqe210106ES6_, symObjAddr: 0x31480, symBinAddr: 0x396A0, symSize: 0x20 }
  - { offset: 0xD95E8, size: 0x8, addend: 0x0, symName: __ZNSt3__14pairIPPN5Tiled9MapObjectEN5QListIS3_E8iteratorEEC1B9nqe210106IS4_S7_Li0EEEOT_OT0_, symObjAddr: 0x314A0, symBinAddr: 0x396C0, symSize: 0x30 }
  - { offset: 0xD9646, size: 0x8, addend: 0x0, symName: __ZNSt3__14pairIPPN5Tiled9MapObjectEN5QListIS3_E8iteratorEEC2B9nqe210106IS4_S7_Li0EEEOT_OT0_, symObjAddr: 0x314D0, symBinAddr: 0x396F0, symSize: 0x30 }
  - { offset: 0xD96A4, size: 0x8, addend: 0x0, symName: __ZNSt3__118__unwrap_iter_implIPPN5Tiled9MapObjectELb1EE8__rewrapB9nqe210106ES4_S4_, symObjAddr: 0x31540, symBinAddr: 0x39760, symSize: 0x50 }
  - { offset: 0xD96D5, size: 0x8, addend: 0x0, symName: __ZNSt3__118__unwrap_iter_implIN5QListIPN5Tiled9MapObjectEE8iteratorELb0EE8__rewrapB9nqe210106ES6_S6_, symObjAddr: 0x31590, symBinAddr: 0x397B0, symSize: 0x20 }
  - { offset: 0xD9702, size: 0x8, addend: 0x0, symName: '__ZNSt3__18__invertIRZL18processObjectGroupPKN5Tiled11ObjectGroupERN2Yy7ContextEE3$_0EclB9nqe210106IPNS1_9MapObjectESD_EEbRKT_RKT0_', symObjAddr: 0x316C0, symBinAddr: 0x398E0, symSize: 0x40 }
  - { offset: 0xD9756, size: 0x8, addend: 0x0, symName: __ZNKSt3__116reverse_iteratorIN5QListIPN5Tiled9MapObjectEE8iteratorEEdeB9nqe210106Ev, symObjAddr: 0x31700, symBinAddr: 0x39920, symSize: 0x30 }
  - { offset: 0xD978A, size: 0x8, addend: 0x0, symName: __ZNKSt3__116reverse_iteratorIPPN5Tiled9MapObjectEEdeB9nqe210106Ev, symObjAddr: 0x31730, symBinAddr: 0x39950, symSize: 0x30 }
  - { offset: 0xD97BE, size: 0x8, addend: 0x0, symName: __ZNSt3__18_IterOpsINS_17_ClassicAlgPolicyEE11__iter_moveB9nqe210106IRNS_16reverse_iteratorIN5QListIPN5Tiled9MapObjectEE8iteratorEEELi0EEEDTclsr3stdE4movedeclsr3stdE7declvalIRT_EEEEOSD_, symObjAddr: 0x31760, symBinAddr: 0x39980, symSize: 0x20 }
  - { offset: 0xD97F0, size: 0x8, addend: 0x0, symName: __ZNSt3__116reverse_iteratorIN5QListIPN5Tiled9MapObjectEE8iteratorEEppB9nqe210106Ev, symObjAddr: 0x31780, symBinAddr: 0x399A0, symSize: 0x30 }
  - { offset: 0xD9816, size: 0x8, addend: 0x0, symName: __ZNSt3__18_IterOpsINS_17_ClassicAlgPolicyEE11__iter_moveB9nqe210106IRNS_16reverse_iteratorIPPN5Tiled9MapObjectEEELi0EEEDTclsr3stdE4movedeclsr3stdE7declvalIRT_EEEEOSB_, symObjAddr: 0x317B0, symBinAddr: 0x399D0, symSize: 0x20 }
  - { offset: 0xD9848, size: 0x8, addend: 0x0, symName: __ZNSt3__116reverse_iteratorIPPN5Tiled9MapObjectEEppB9nqe210106Ev, symObjAddr: 0x317D0, symBinAddr: 0x399F0, symSize: 0x20 }
  - { offset: 0xD986E, size: 0x8, addend: 0x0, symName: __ZNKSt3__116reverse_iteratorIPPN5Tiled9MapObjectEE4baseB9nqe210106Ev, symObjAddr: 0x317F0, symBinAddr: 0x39A10, symSize: 0x20 }
  - { offset: 0xD9894, size: 0x8, addend: 0x0, symName: __ZNKSt3__116reverse_iteratorIN5QListIPN5Tiled9MapObjectEE8iteratorEE4baseB9nqe210106Ev, symObjAddr: 0x31810, symBinAddr: 0x39A30, symSize: 0x20 }
  - { offset: 0xD98D3, size: 0x8, addend: 0x0, symName: __ZNKSt3__111__move_implINS_17_ClassicAlgPolicyEEclB9nqe210106INS_16reverse_iteratorIPPN5Tiled9MapObjectEEES9_NS4_IN5QListIS7_E8iteratorEEEEENS_4pairIT_T1_EESF_T0_SG_, symObjAddr: 0x31AD0, symBinAddr: 0x39CF0, symSize: 0x90 }
  - { offset: 0xD995C, size: 0x8, addend: 0x0, symName: __ZNSt3__14pairINS_16reverse_iteratorIPPN5Tiled9MapObjectEEES6_EC1B9nqe210106IS6_S6_Li0EEEOT_OT0_, symObjAddr: 0x31D10, symBinAddr: 0x39F30, symSize: 0x30 }
  - { offset: 0xD99BA, size: 0x8, addend: 0x0, symName: __ZNSt3__14pairINS_16reverse_iteratorIPPN5Tiled9MapObjectEEES6_EC2B9nqe210106IS6_S6_Li0EEEOT_OT0_, symObjAddr: 0x31D40, symBinAddr: 0x39F60, symSize: 0x40 }
  - { offset: 0xD9A18, size: 0x8, addend: 0x0, symName: __ZNSt3__118__unwrap_iter_implINS_16reverse_iteratorIPPN5Tiled9MapObjectEEELb0EE8__unwrapB9nqe210106ES6_, symObjAddr: 0x31D80, symBinAddr: 0x39FA0, symSize: 0x20 }
  - { offset: 0xD9A3B, size: 0x8, addend: 0x0, symName: __ZNSt3__118__unwrap_iter_implINS_16reverse_iteratorIN5QListIPN5Tiled9MapObjectEE8iteratorEEELb0EE8__unwrapB9nqe210106ES8_, symObjAddr: 0x31DA0, symBinAddr: 0x39FC0, symSize: 0x20 }
  - { offset: 0xD9A63, size: 0x8, addend: 0x0, symName: __ZNSt3__14pairINS_16reverse_iteratorIPPN5Tiled9MapObjectEEENS1_IN5QListIS4_E8iteratorEEEEC1B9nqe210106IS6_SA_Li0EEEOT_OT0_, symObjAddr: 0x31DC0, symBinAddr: 0x39FE0, symSize: 0x30 }
  - { offset: 0xD9AC1, size: 0x8, addend: 0x0, symName: __ZNSt3__14pairINS_16reverse_iteratorIPPN5Tiled9MapObjectEEENS1_IN5QListIS4_E8iteratorEEEEC2B9nqe210106IS6_SA_Li0EEEOT_OT0_, symObjAddr: 0x31DF0, symBinAddr: 0x3A010, symSize: 0x40 }
  - { offset: 0xD9B1F, size: 0x8, addend: 0x0, symName: __ZNSt3__118__unwrap_iter_implINS_16reverse_iteratorIPPN5Tiled9MapObjectEEELb0EE8__rewrapB9nqe210106ES6_S6_, symObjAddr: 0x31EA0, symBinAddr: 0x3A0C0, symSize: 0x30 }
  - { offset: 0xD9B4C, size: 0x8, addend: 0x0, symName: __ZNSt3__118__unwrap_iter_implINS_16reverse_iteratorIN5QListIPN5Tiled9MapObjectEE8iteratorEEELb0EE8__rewrapB9nqe210106ES8_S8_, symObjAddr: 0x31ED0, symBinAddr: 0x3A0F0, symSize: 0x30 }
  - { offset: 0xD9B79, size: 0x8, addend: 0x0, symName: __ZNSt3__18_IterOpsINS_17_ClassicAlgPolicyEE25__validate_iter_referenceB9nqe210106IRNS_16reverse_iteratorIN5QListIPN5Tiled9MapObjectEE8iteratorEEEEEvv, symObjAddr: 0x31F00, symBinAddr: 0x3A120, symSize: 0x10 }
  - { offset: 0xD9B97, size: 0x8, addend: 0x0, symName: __ZNSt3__18_IterOpsINS_17_ClassicAlgPolicyEE25__validate_iter_referenceB9nqe210106IRNS_16reverse_iteratorIPPN5Tiled9MapObjectEEEEEvv, symObjAddr: 0x31F10, symBinAddr: 0x3A130, symSize: 0x10 }
  - { offset: 0xD9BB5, size: 0x8, addend: 0x0, symName: __ZNSt3__116reverse_iteratorIPPN5Tiled9MapObjectEEC2B9nqe210106ES4_, symObjAddr: 0x31F20, symBinAddr: 0x3A140, symSize: 0x30 }
  - { offset: 0xD9BED, size: 0x8, addend: 0x0, symName: __ZNSt3__116reverse_iteratorIN5QListIPN5Tiled9MapObjectEE8iteratorEEC2B9nqe210106ES6_, symObjAddr: 0x31F50, symBinAddr: 0x3A170, symSize: 0x30 }
  - { offset: 0xD9C25, size: 0x8, addend: 0x0, symName: '__ZNSt3__18__invertIRZL18processObjectGroupPKN5Tiled11ObjectGroupERN2Yy7ContextEE3$_0EC2B9nqe210106ES9_', symObjAddr: 0x31F80, symBinAddr: 0x3A1A0, symSize: 0x20 }
  - { offset: 0xD9C5D, size: 0x8, addend: 0x0, symName: __ZN5QListIPN5Tiled9MapObjectEE8iteratorC2Ev, symObjAddr: 0x31FA0, symBinAddr: 0x3A1C0, symSize: 0x20 }
  - { offset: 0xD9C87, size: 0x8, addend: 0x0, symName: __ZN5QListIPN5Tiled9MapObjectEE8iteratorpLEx, symObjAddr: 0x32030, symBinAddr: 0x3A250, symSize: 0x20 }
  - { offset: 0xD9CBB, size: 0x8, addend: 0x0, symName: __ZNSt3__18_IterOpsINS_17_ClassicAlgPolicyEE4nextB9nqe210106IRN5QListIPN5Tiled9MapObjectEE8iteratorEEEu14__remove_cvrefIT_EOSB_NS_15iterator_traitsISC_E15difference_typeE, symObjAddr: 0x32070, symBinAddr: 0x3A290, symSize: 0x40 }
  - { offset: 0xD9CFF, size: 0x8, addend: 0x0, symName: __ZNKSt3__110__identityclB9nqe210106IRPN5Tiled9MapObjectEEEOT_S7_, symObjAddr: 0x32150, symBinAddr: 0x3A370, symSize: 0x20 }
  - { offset: 0xD9D3C, size: 0x8, addend: 0x0, symName: __ZNSt3__18_IterOpsINS_17_ClassicAlgPolicyEE4nextB9nqe210106IN5QListIPN5Tiled9MapObjectEE8iteratorEEET_SA_SA_, symObjAddr: 0x32360, symBinAddr: 0x3A580, symSize: 0x20 }
  - { offset: 0xD9D8B, size: 0x8, addend: 0x0, symName: __ZNSt3__14pairIN5QListIPN5Tiled9MapObjectEE8iteratorES6_EC1B9nqe210106IRS6_S9_Li0EEEOT_OT0_, symObjAddr: 0x32380, symBinAddr: 0x3A5A0, symSize: 0x30 }
  - { offset: 0xD9DE9, size: 0x8, addend: 0x0, symName: __ZNSt3__14pairIN5QListIPN5Tiled9MapObjectEE8iteratorES6_EC1B9nqe210106IS6_S6_Li0EEEOT_OT0_, symObjAddr: 0x323B0, symBinAddr: 0x3A5D0, symSize: 0x30 }
  - { offset: 0xD9E47, size: 0x8, addend: 0x0, symName: __ZNSt3__14pairIN5QListIPN5Tiled9MapObjectEE8iteratorES6_EC2B9nqe210106IRS6_S9_Li0EEEOT_OT0_, symObjAddr: 0x324E0, symBinAddr: 0x3A700, symSize: 0x30 }
  - { offset: 0xD9EA5, size: 0x8, addend: 0x0, symName: __ZNSt3__14pairIN5QListIPN5Tiled9MapObjectEE8iteratorES6_EC2B9nqe210106IS6_S6_Li0EEEOT_OT0_, symObjAddr: 0x32510, symBinAddr: 0x3A730, symSize: 0x30 }
  - { offset: 0xD9F03, size: 0x8, addend: 0x0, symName: __ZNKSt3__111__move_implINS_17_ClassicAlgPolicyEEclB9nqe210106IN5QListIPN5Tiled9MapObjectEE8iteratorES9_S9_EENS_4pairIT_T1_EESB_T0_SC_, symObjAddr: 0x32A90, symBinAddr: 0x3ACB0, symSize: 0x90 }
  - { offset: 0xD9F6E, size: 0x8, addend: 0x0, symName: __ZNSt3__18_IterOpsINS_17_ClassicAlgPolicyEE4prevB9nqe210106IRN5QListIPN5Tiled9MapObjectEE8iteratorEEEu14__remove_cvrefIT_EOSB_NS_15iterator_traitsISC_E15difference_typeE, symObjAddr: 0x32B90, symBinAddr: 0x3ADB0, symSize: 0x40 }
  - { offset: 0xD9FB2, size: 0x8, addend: 0x0, symName: __ZNKSt3__120__move_backward_implINS_17_ClassicAlgPolicyEEclB9nqe210106IN5QListIPN5Tiled9MapObjectEE8iteratorES9_S9_EENS_4pairIT_T1_EESB_T0_SC_, symObjAddr: 0x32D80, symBinAddr: 0x3AFA0, symSize: 0xC0 }
  - { offset: 0xDA03A, size: 0x8, addend: 0x0, symName: __ZN5QListIPN5Tiled9MapObjectEE6detachEv, symObjAddr: 0x32F20, symBinAddr: 0x3B140, symSize: 0x20 }
  - { offset: 0xDA060, size: 0x8, addend: 0x0, symName: __ZN17QArrayDataPointerIPN5Tiled9MapObjectEEptEv, symObjAddr: 0x32F40, symBinAddr: 0x3B160, symSize: 0x10 }
  - { offset: 0xDA086, size: 0x8, addend: 0x0, symName: __ZN17QArrayDataPointerIPN5Tiled9MapObjectEE5beginEv, symObjAddr: 0x32F50, symBinAddr: 0x3B170, symSize: 0x20 }
  - { offset: 0xDA0AC, size: 0x8, addend: 0x0, symName: __ZN17QArrayDataPointerIPN5Tiled9MapObjectEE6detachEPS3_, symObjAddr: 0x32F70, symBinAddr: 0x3B190, symSize: 0x40 }
  - { offset: 0xDA0E0, size: 0x8, addend: 0x0, symName: __ZNK17QArrayDataPointerIPN5Tiled9MapObjectEE11needsDetachEv, symObjAddr: 0x32FB0, symBinAddr: 0x3B1D0, symSize: 0x40 }
  - { offset: 0xDA106, size: 0x8, addend: 0x0, symName: __ZN17QArrayDataPointerIPN5Tiled9MapObjectEE17reallocateAndGrowEN10QArrayData14GrowthPositionExPS3_, symObjAddr: 0x32FF0, symBinAddr: 0x3B210, symSize: 0x260 }
  - { offset: 0xDA182, size: 0x8, addend: 0x0, symName: __ZN9QtPrivate12QPodArrayOpsIPN5Tiled9MapObjectEE10reallocateExN10QArrayData16AllocationOptionE, symObjAddr: 0x33250, symBinAddr: 0x3B470, symSize: 0x80 }
  - { offset: 0xDA1D6, size: 0x8, addend: 0x0, symName: __ZNK17QArrayDataPointerIPN5Tiled9MapObjectEE22constAllocatedCapacityEv, symObjAddr: 0x332D0, symBinAddr: 0x3B4F0, symSize: 0x40 }
  - { offset: 0xDA1FC, size: 0x8, addend: 0x0, symName: __ZNK17QArrayDataPointerIPN5Tiled9MapObjectEE14freeSpaceAtEndEv, symObjAddr: 0x33310, symBinAddr: 0x3B530, symSize: 0x60 }
  - { offset: 0xDA222, size: 0x8, addend: 0x0, symName: __ZN17QArrayDataPointerIPN5Tiled9MapObjectEE12allocateGrowERKS3_xN10QArrayData14GrowthPositionE, symObjAddr: 0x33370, symBinAddr: 0x3B590, symSize: 0x230 }
  - { offset: 0xDA2C1, size: 0x8, addend: 0x0, symName: __ZN17QArrayDataPointerIPN5Tiled9MapObjectEE4dataEv, symObjAddr: 0x335A0, symBinAddr: 0x3B7C0, symSize: 0x20 }
  - { offset: 0xDA2E7, size: 0x8, addend: 0x0, symName: __ZNK17QArrayDataPointerIPN5Tiled9MapObjectEE16freeSpaceAtBeginEv, symObjAddr: 0x335C0, symBinAddr: 0x3B7E0, symSize: 0x60 }
  - { offset: 0xDA30D, size: 0x8, addend: 0x0, symName: __ZN9QtPrivate12QPodArrayOpsIPN5Tiled9MapObjectEE10copyAppendEPKS3_S6_, symObjAddr: 0x33620, symBinAddr: 0x3B840, symSize: 0x140 }
  - { offset: 0xDA34F, size: 0x8, addend: 0x0, symName: __ZN9QtPrivate12QPodArrayOpsIPN5Tiled9MapObjectEE10moveAppendEPS3_S5_, symObjAddr: 0x33760, symBinAddr: 0x3B980, symSize: 0x30 }
  - { offset: 0xDA391, size: 0x8, addend: 0x0, symName: __ZN17QArrayDataPointerIPN5Tiled9MapObjectEE4swapERS3_, symObjAddr: 0x33790, symBinAddr: 0x3B9B0, symSize: 0x60 }
  - { offset: 0xDA3C5, size: 0x8, addend: 0x0, symName: __ZN17QArrayDataPointerIPN5Tiled9MapObjectEED1Ev, symObjAddr: 0x337F0, symBinAddr: 0x3BA10, symSize: 0x20 }
  - { offset: 0xDA3EF, size: 0x8, addend: 0x0, symName: __ZN15QTypedArrayDataIPN5Tiled9MapObjectEE19reallocateUnalignedEPS3_PS2_xN10QArrayData16AllocationOptionE, symObjAddr: 0x33810, symBinAddr: 0x3BA30, symSize: 0x70 }
  - { offset: 0xDA44F, size: 0x8, addend: 0x0, symName: __ZNSt3__14pairIP15QTypedArrayDataIPN5Tiled9MapObjectEEPS4_EC1B9nqe210106IS6_S7_Li0EEEOT_OT0_, symObjAddr: 0x33880, symBinAddr: 0x3BAA0, symSize: 0x30 }
  - { offset: 0xDA4AD, size: 0x8, addend: 0x0, symName: __ZNSt3__14pairIP15QTypedArrayDataIPN5Tiled9MapObjectEEPS4_EC2B9nqe210106IS6_S7_Li0EEEOT_OT0_, symObjAddr: 0x338B0, symBinAddr: 0x3BAD0, symSize: 0x30 }
  - { offset: 0xDA50B, size: 0x8, addend: 0x0, symName: __ZNK17QArrayDataPointerIPN5Tiled9MapObjectEE14detachCapacityEx, symObjAddr: 0x338E0, symBinAddr: 0x3BB00, symSize: 0x50 }
  - { offset: 0xDA540, size: 0x8, addend: 0x0, symName: __ZN15QTypedArrayDataIPN5Tiled9MapObjectEE8allocateExN10QArrayData16AllocationOptionE, symObjAddr: 0x33930, symBinAddr: 0x3BB50, symSize: 0x60 }
  - { offset: 0xDA58D, size: 0x8, addend: 0x0, symName: __ZN17QArrayDataPointerIPN5Tiled9MapObjectEEC1EP15QTypedArrayDataIS2_EPS2_x, symObjAddr: 0x339D0, symBinAddr: 0x3BBF0, symSize: 0x40 }
  - { offset: 0xDA5E1, size: 0x8, addend: 0x0, symName: __ZNK17QArrayDataPointerIPN5Tiled9MapObjectEE5flagsEv, symObjAddr: 0x33A10, symBinAddr: 0x3BC30, symSize: 0x40 }
  - { offset: 0xDA607, size: 0x8, addend: 0x0, symName: __ZNSt3__110__get_pairILm0EE3getB9nqe210106IP15QTypedArrayDataIPN5Tiled9MapObjectEEPS6_EEOT_ONS_4pairISA_T0_EE, symObjAddr: 0x33A50, symBinAddr: 0x3BC70, symSize: 0x10 }
  - { offset: 0xDA63D, size: 0x8, addend: 0x0, symName: __ZNSt3__110__get_pairILm1EE3getB9nqe210106IP15QTypedArrayDataIPN5Tiled9MapObjectEEPS6_EEOT0_ONS_4pairIT_SA_EE, symObjAddr: 0x33A60, symBinAddr: 0x3BC80, symSize: 0x20 }
  - { offset: 0xDA673, size: 0x8, addend: 0x0, symName: __ZN17QArrayDataPointerIPN5Tiled9MapObjectEEC2EP15QTypedArrayDataIS2_EPS2_x, symObjAddr: 0x33A80, symBinAddr: 0x3BCA0, symSize: 0x40 }
  - { offset: 0xDA6C7, size: 0x8, addend: 0x0, symName: __ZN15QTypedArrayDataIPN5Tiled9MapObjectEE9dataStartEP10QArrayDatax, symObjAddr: 0x33AC0, symBinAddr: 0x3BCE0, symSize: 0x80 }
  - { offset: 0xDA706, size: 0x8, addend: 0x0, symName: __ZNK17QArrayDataPointerIPN5Tiled9MapObjectEE9isMutableEv, symObjAddr: 0x33B40, symBinAddr: 0x3BD60, symSize: 0x20 }
  - { offset: 0xDA72C, size: 0x8, addend: 0x0, symName: __ZNK17QArrayDataPointerIPN5Tiled9MapObjectEE8isSharedEv, symObjAddr: 0x33B60, symBinAddr: 0x3BD80, symSize: 0x40 }
  - { offset: 0xDA752, size: 0x8, addend: 0x0, symName: __ZN17QArrayDataPointerIPN5Tiled9MapObjectEE3endEv, symObjAddr: 0x33BA0, symBinAddr: 0x3BDC0, symSize: 0x30 }
  - { offset: 0xDA777, size: 0x8, addend: 0x0, symName: __Z11qt_ptr_swapI15QTypedArrayDataIPN5Tiled9MapObjectEEEvRPT_S7_, symObjAddr: 0x33BD0, symBinAddr: 0x3BDF0, symSize: 0x40 }
  - { offset: 0xDA7C4, size: 0x8, addend: 0x0, symName: __Z11qt_ptr_swapIPN5Tiled9MapObjectEEvRPT_S5_, symObjAddr: 0x33C10, symBinAddr: 0x3BE30, symSize: 0x40 }
  - { offset: 0xDA812, size: 0x8, addend: 0x0, symName: __ZN17QArrayDataPointerIPN5Tiled9MapObjectEED2Ev, symObjAddr: 0x33C50, symBinAddr: 0x3BE70, symSize: 0x40 }
  - { offset: 0xDA83C, size: 0x8, addend: 0x0, symName: __ZN17QArrayDataPointerIPN5Tiled9MapObjectEE5derefEv, symObjAddr: 0x33C90, symBinAddr: 0x3BEB0, symSize: 0x40 }
  - { offset: 0xDA862, size: 0x8, addend: 0x0, symName: __ZN9QtPrivate12QPodArrayOpsIPN5Tiled9MapObjectEE10destroyAllEv, symObjAddr: 0x33CD0, symBinAddr: 0x3BEF0, symSize: 0x70 }
  - { offset: 0xDA888, size: 0x8, addend: 0x0, symName: __ZN15QTypedArrayDataIPN5Tiled9MapObjectEE10deallocateEP10QArrayData, symObjAddr: 0x33D40, symBinAddr: 0x3BF60, symSize: 0x30 }
  - { offset: 0xDA8AB, size: 0x8, addend: 0x0, symName: __ZNK17QArrayDataPointerIPN5Tiled9MapObjectEEptEv, symObjAddr: 0x33D70, symBinAddr: 0x3BF90, symSize: 0x10 }
  - { offset: 0xDA8D1, size: 0x8, addend: 0x0, symName: __ZNK17QArrayDataPointerIPN5Tiled9MapObjectEE10constBeginEv, symObjAddr: 0x33D80, symBinAddr: 0x3BFA0, symSize: 0x20 }
  - { offset: 0xDA8F7, size: 0x8, addend: 0x0, symName: __ZN5QListIPN5Tiled9MapObjectEE14const_iteratorC1EPKS2_, symObjAddr: 0x33DA0, symBinAddr: 0x3BFC0, symSize: 0x30 }
  - { offset: 0xDA92F, size: 0x8, addend: 0x0, symName: __ZNK17QArrayDataPointerIPN5Tiled9MapObjectEE4dataEv, symObjAddr: 0x33DD0, symBinAddr: 0x3BFF0, symSize: 0x20 }
  - { offset: 0xDA955, size: 0x8, addend: 0x0, symName: __ZN5QListIPN5Tiled9MapObjectEE14const_iteratorC2EPKS2_, symObjAddr: 0x33DF0, symBinAddr: 0x3C010, symSize: 0x20 }
  - { offset: 0xDA98D, size: 0x8, addend: 0x0, symName: __ZNK17QArrayDataPointerIPN5Tiled9MapObjectEE8constEndEv, symObjAddr: 0x33E10, symBinAddr: 0x3C030, symSize: 0x30 }
  - { offset: 0xDA9B3, size: 0x8, addend: 0x0, symName: __ZN7QStringC1E13QLatin1String, symObjAddr: 0x34050, symBinAddr: 0x3C180, symSize: 0x60 }
  - { offset: 0xDA9EE, size: 0x8, addend: 0x0, symName: __ZN7QString10fromLatin1EPKcx, symObjAddr: 0x340B0, symBinAddr: 0x3C1E0, symSize: 0x80 }
  - { offset: 0xDAA21, size: 0x8, addend: 0x0, symName: __ZNK13QLatin1String4dataEv, symObjAddr: 0x34130, symBinAddr: 0x3C260, symSize: 0x20 }
  - { offset: 0xDAA47, size: 0x8, addend: 0x0, symName: __ZNSt3__18functionIFvvEEC2IN5Tiled12JumpToObjectEvEET_, symObjAddr: 0x34150, symBinAddr: 0x3C280, symSize: 0x20 }
  - { offset: 0xDAA8C, size: 0x8, addend: 0x0, symName: __ZNSt3__110__function12__value_funcIFvvEEC1B9nqe210106IN5Tiled12JumpToObjectELi0EEEOT_, symObjAddr: 0x34170, symBinAddr: 0x3C2A0, symSize: 0x30 }
  - { offset: 0xDAAD3, size: 0x8, addend: 0x0, symName: __ZNSt3__110__function12__value_funcIFvvEEC2B9nqe210106IN5Tiled12JumpToObjectELi0EEEOT_, symObjAddr: 0x341A0, symBinAddr: 0x3C2D0, symSize: 0x90 }
  - { offset: 0xDAB1A, size: 0x8, addend: 0x0, symName: __ZNSt3__110__function6__funcIN5Tiled12JumpToObjectEFvvEEC1B9nqe210106EOS3_, symObjAddr: 0x34240, symBinAddr: 0x3C370, symSize: 0x30 }
  - { offset: 0xDAB52, size: 0x8, addend: 0x0, symName: __ZNSt3__110__function6__funcIN5Tiled12JumpToObjectEFvvEEC2B9nqe210106EOS3_, symObjAddr: 0x34270, symBinAddr: 0x3C3A0, symSize: 0x50 }
  - { offset: 0xDAB8A, size: 0x8, addend: 0x0, symName: __ZN5Tiled12JumpToObjectC1EOS0_, symObjAddr: 0x342C0, symBinAddr: 0x3C3F0, symSize: 0x30 }
  - { offset: 0xDABBF, size: 0x8, addend: 0x0, symName: __ZNSt3__110__function6__funcIN5Tiled12JumpToObjectEFvvEED1Ev, symObjAddr: 0x342F0, symBinAddr: 0x3C420, symSize: 0x20 }
  - { offset: 0xDABEB, size: 0x8, addend: 0x0, symName: __ZNSt3__110__function6__funcIN5Tiled12JumpToObjectEFvvEED0Ev, symObjAddr: 0x34310, symBinAddr: 0x3C440, symSize: 0x30 }
  - { offset: 0xDAC17, size: 0x8, addend: 0x0, symName: __ZNKSt3__110__function6__funcIN5Tiled12JumpToObjectEFvvEE7__cloneEv, symObjAddr: 0x34340, symBinAddr: 0x3C470, symSize: 0x60 }
  - { offset: 0xDAC3D, size: 0x8, addend: 0x0, symName: __ZNKSt3__110__function6__funcIN5Tiled12JumpToObjectEFvvEE7__cloneEPNS0_6__baseIS4_EE, symObjAddr: 0x343A0, symBinAddr: 0x3C4D0, symSize: 0x30 }
  - { offset: 0xDAC71, size: 0x8, addend: 0x0, symName: __ZNSt3__110__function6__funcIN5Tiled12JumpToObjectEFvvEE7destroyEv, symObjAddr: 0x343D0, symBinAddr: 0x3C500, symSize: 0x20 }
  - { offset: 0xDAC97, size: 0x8, addend: 0x0, symName: __ZNSt3__110__function6__funcIN5Tiled12JumpToObjectEFvvEE18destroy_deallocateEv, symObjAddr: 0x343F0, symBinAddr: 0x3C520, symSize: 0x30 }
  - { offset: 0xDACBD, size: 0x8, addend: 0x0, symName: __ZNSt3__110__function6__funcIN5Tiled12JumpToObjectEFvvEEclEv, symObjAddr: 0x34420, symBinAddr: 0x3C550, symSize: 0x20 }
  - { offset: 0xDACE3, size: 0x8, addend: 0x0, symName: __ZNKSt3__110__function6__funcIN5Tiled12JumpToObjectEFvvEE6targetERKSt9type_info, symObjAddr: 0x34440, symBinAddr: 0x3C570, symSize: 0x50 }
  - { offset: 0xDAD17, size: 0x8, addend: 0x0, symName: __ZNKSt3__110__function6__funcIN5Tiled12JumpToObjectEFvvEE11target_typeEv, symObjAddr: 0x34490, symBinAddr: 0x3C5C0, symSize: 0x20 }
  - { offset: 0xDAD3D, size: 0x8, addend: 0x0, symName: __ZN5Tiled12JumpToObjectC2EOS0_, symObjAddr: 0x344B0, symBinAddr: 0x3C5E0, symSize: 0x40 }
  - { offset: 0xDAD72, size: 0x8, addend: 0x0, symName: __ZNSt3__110__function6__funcIN5Tiled12JumpToObjectEFvvEED2Ev, symObjAddr: 0x344F0, symBinAddr: 0x3C620, symSize: 0x40 }
  - { offset: 0xDAD9E, size: 0x8, addend: 0x0, symName: __ZNSt3__110__function6__funcIN5Tiled12JumpToObjectEFvvEEC1B9nqe210106ERKS3_, symObjAddr: 0x34530, symBinAddr: 0x3C660, symSize: 0x30 }
  - { offset: 0xDADD6, size: 0x8, addend: 0x0, symName: __ZNSt3__110__function6__funcIN5Tiled12JumpToObjectEFvvEEC2B9nqe210106ERKS3_, symObjAddr: 0x34560, symBinAddr: 0x3C690, symSize: 0x50 }
  - { offset: 0xDAE0E, size: 0x8, addend: 0x0, symName: __ZN5Tiled12JumpToObjectC1ERKS0_, symObjAddr: 0x345B0, symBinAddr: 0x3C6E0, symSize: 0x30 }
  - { offset: 0xDAE43, size: 0x8, addend: 0x0, symName: __ZN5Tiled12JumpToObjectC2ERKS0_, symObjAddr: 0x345E0, symBinAddr: 0x3C710, symSize: 0x40 }
  - { offset: 0xDAE7D, size: 0x8, addend: 0x0, symName: __ZNSt3__128__invoke_void_return_wrapperIvLb1EE6__callB9nqe210106IJRN5Tiled12JumpToObjectEEEEvDpOT_, symObjAddr: 0x34640, symBinAddr: 0x3C770, symSize: 0x20 }
  - { offset: 0xDAEAC, size: 0x8, addend: 0x0, symName: __ZNK5Tiled11ActivatableINS_12JumpToObjectEEclEv, symObjAddr: 0x34680, symBinAddr: 0x3C7B0, symSize: 0x30 }
  - { offset: 0xDAED2, size: 0x8, addend: 0x0, symName: __ZNKSt3__18functionIFvRKN5Tiled12JumpToObjectEEEclES4_, symObjAddr: 0x346B0, symBinAddr: 0x3C7E0, symSize: 0x30 }
  - { offset: 0xDAF09, size: 0x8, addend: 0x0, symName: __ZNKSt3__110__function12__value_funcIFvRKN5Tiled12JumpToObjectEEEclB9nqe210106ES5_, symObjAddr: 0x346E0, symBinAddr: 0x3C810, symSize: 0x40 }
  - { offset: 0xDAF3E, size: 0x8, addend: 0x0, symName: __ZN5Tiled12JumpToObjectD2Ev, symObjAddr: 0x34720, symBinAddr: 0x3C850, symSize: 0x20 }
  - { offset: 0xDAF6A, size: 0x8, addend: 0x0, symName: __ZNSt3__16vectorIN2Yy7GMRViewENS_9allocatorIS2_EEE30__emplace_back_assume_capacityB9nqe210106IJEEEvDpOT_, symObjAddr: 0x34740, symBinAddr: 0x3C870, symSize: 0x80 }
  - { offset: 0xDAFA6, size: 0x8, addend: 0x0, symName: __ZNSt3__16vectorIN2Yy7GMRViewENS_9allocatorIS2_EEE24__emplace_back_slow_pathIJEEEPS2_DpOT_, symObjAddr: 0x347C0, symBinAddr: 0x3C8F0, symSize: 0xC0 }
  - { offset: 0xDAFFB, size: 0x8, addend: 0x0, symName: __ZNSt3__16vectorIN2Yy7GMRViewENS_9allocatorIS2_EEE21_ConstructTransactionC1B9nqe210106ERS5_m, symObjAddr: 0x34880, symBinAddr: 0x3C9B0, symSize: 0x30 }
  - { offset: 0xDB043, size: 0x8, addend: 0x0, symName: __ZNSt3__116allocator_traitsINS_9allocatorIN2Yy7GMRViewEEEE9constructB9nqe210106IS3_JELi0EEEvRS4_PT_DpOT0_, symObjAddr: 0x348B0, symBinAddr: 0x3C9E0, symSize: 0x30 }
  - { offset: 0xDB08B, size: 0x8, addend: 0x0, symName: __ZNSt3__16vectorIN2Yy7GMRViewENS_9allocatorIS2_EEE21_ConstructTransactionD1B9nqe210106Ev, symObjAddr: 0x348E0, symBinAddr: 0x3CA10, symSize: 0x20 }
  - { offset: 0xDB0B5, size: 0x8, addend: 0x0, symName: __ZNSt3__16vectorIN2Yy7GMRViewENS_9allocatorIS2_EEE21_ConstructTransactionC2B9nqe210106ERS5_m, symObjAddr: 0x34900, symBinAddr: 0x3CA30, symSize: 0x60 }
  - { offset: 0xDB0FD, size: 0x8, addend: 0x0, symName: __ZNKSt3__16vectorIN2Yy7GMRViewENS_9allocatorIS2_EEE19__annotate_increaseB9nqe210106Em, symObjAddr: 0x34960, symBinAddr: 0x3CA90, symSize: 0xA0 }
  - { offset: 0xDB132, size: 0x8, addend: 0x0, symName: __ZNSt3__19allocatorIN2Yy7GMRViewEE9constructB9nqe210106IS2_JEEEvPT_DpOT0_, symObjAddr: 0x34A00, symBinAddr: 0x3CB30, symSize: 0x40 }
  - { offset: 0xDB175, size: 0x8, addend: 0x0, symName: __ZN2Yy7GMRViewC1Ev, symObjAddr: 0x34A40, symBinAddr: 0x3CB70, symSize: 0x20 }
  - { offset: 0xDB1A1, size: 0x8, addend: 0x0, symName: __ZN2Yy7GMRViewC2Ev, symObjAddr: 0x34A60, symBinAddr: 0x3CB90, symSize: 0x80 }
  - { offset: 0xDB1CD, size: 0x8, addend: 0x0, symName: __ZNSt3__16vectorIN2Yy7GMRViewENS_9allocatorIS2_EEE21_ConstructTransactionD2B9nqe210106Ev, symObjAddr: 0x34AE0, symBinAddr: 0x3CC10, symSize: 0x60 }
  - { offset: 0xDB1F7, size: 0x8, addend: 0x0, symName: __ZNKSt3__16vectorIN2Yy7GMRViewENS_9allocatorIS2_EEE11__recommendB9nqe210106Em, symObjAddr: 0x34B40, symBinAddr: 0x3CC70, symSize: 0x80 }
  - { offset: 0xDB24E, size: 0x8, addend: 0x0, symName: __ZNSt3__114__split_bufferIN2Yy7GMRViewERNS_9allocatorIS2_EEEC1EmmS5_, symObjAddr: 0x34BC0, symBinAddr: 0x3CCF0, symSize: 0x40 }
  - { offset: 0xDB2A4, size: 0x8, addend: 0x0, symName: __ZNSt3__16vectorIN2Yy7GMRViewENS_9allocatorIS2_EEE26__swap_out_circular_bufferERNS_14__split_bufferIS2_RS4_EE, symObjAddr: 0x34C00, symBinAddr: 0x3CD30, symSize: 0x120 }
  - { offset: 0xDB2EB, size: 0x8, addend: 0x0, symName: __ZNSt3__114__split_bufferIN2Yy7GMRViewERNS_9allocatorIS2_EEED1Ev, symObjAddr: 0x34D20, symBinAddr: 0x3CE50, symSize: 0x20 }
  - { offset: 0xDB317, size: 0x8, addend: 0x0, symName: __ZNKSt3__16vectorIN2Yy7GMRViewENS_9allocatorIS2_EEE8max_sizeB9nqe210106Ev, symObjAddr: 0x34D40, symBinAddr: 0x3CE70, symSize: 0x50 }
  - { offset: 0xDB33D, size: 0x8, addend: 0x0, symName: __ZNSt3__16vectorIN2Yy7GMRViewENS_9allocatorIS2_EEE20__throw_length_errorB9nqe210106Ev, symObjAddr: 0x34D90, symBinAddr: 0x3CEC0, symSize: 0x10 }
  - { offset: 0xDB35B, size: 0x8, addend: 0x0, symName: __ZNSt3__116allocator_traitsINS_9allocatorIN2Yy7GMRViewEEEE8max_sizeB9nqe210106IS4_Li0EEEmRKS4_, symObjAddr: 0x34DA0, symBinAddr: 0x3CED0, symSize: 0x20 }
  - { offset: 0xDB38E, size: 0x8, addend: 0x0, symName: __ZNKSt3__19allocatorIN2Yy7GMRViewEE8max_sizeB9nqe210106Ev, symObjAddr: 0x34DC0, symBinAddr: 0x3CEF0, symSize: 0x20 }
  - { offset: 0xDB3B4, size: 0x8, addend: 0x0, symName: __ZNSt3__114__split_bufferIN2Yy7GMRViewERNS_9allocatorIS2_EEEC2EmmS5_, symObjAddr: 0x34DE0, symBinAddr: 0x3CF10, symSize: 0xA0 }
  - { offset: 0xDB429, size: 0x8, addend: 0x0, symName: __ZNSt3__19allocatorIN2Yy7GMRViewEE8allocateB9nqe210106Em, symObjAddr: 0x34EC0, symBinAddr: 0x3CFF0, symSize: 0x50 }
  - { offset: 0xDB45D, size: 0x8, addend: 0x0, symName: __ZNKSt3__16vectorIN2Yy7GMRViewENS_9allocatorIS2_EEE14__annotate_newB9nqe210106Em, symObjAddr: 0x350B0, symBinAddr: 0x3D1E0, symSize: 0x80 }
  - { offset: 0xDB492, size: 0x8, addend: 0x0, symName: __ZNSt3__129_AllocatorDestroyRangeReverseINS_9allocatorIN2Yy7GMRViewEEEPS3_EC1B9nqe210106ERS4_RS5_S8_, symObjAddr: 0x35190, symBinAddr: 0x3D2C0, symSize: 0x40 }
  - { offset: 0xDB4EE, size: 0x8, addend: 0x0, symName: __ZNSt3__116allocator_traitsINS_9allocatorIN2Yy7GMRViewEEEE9constructB9nqe210106IS3_JS3_ELi0EEEvRS4_PT_DpOT0_, symObjAddr: 0x351D0, symBinAddr: 0x3D300, symSize: 0x30 }
  - { offset: 0xDB54A, size: 0x8, addend: 0x0, symName: __ZNSt3__128__exception_guard_exceptionsINS_29_AllocatorDestroyRangeReverseINS_9allocatorIN2Yy7GMRViewEEEPS4_EEE10__completeB9nqe210106Ev, symObjAddr: 0x35200, symBinAddr: 0x3D330, symSize: 0x20 }
  - { offset: 0xDB570, size: 0x8, addend: 0x0, symName: __ZNSt3__128__exception_guard_exceptionsINS_29_AllocatorDestroyRangeReverseINS_9allocatorIN2Yy7GMRViewEEEPS4_EEED1B9nqe210106Ev, symObjAddr: 0x35260, symBinAddr: 0x3D390, symSize: 0x20 }
  - { offset: 0xDB59A, size: 0x8, addend: 0x0, symName: __ZNSt3__128__exception_guard_exceptionsINS_29_AllocatorDestroyRangeReverseINS_9allocatorIN2Yy7GMRViewEEEPS4_EEEC1B9nqe210106ES7_, symObjAddr: 0x35280, symBinAddr: 0x3D3B0, symSize: 0x40 }
  - { offset: 0xDB5D2, size: 0x8, addend: 0x0, symName: __ZNSt3__128__exception_guard_exceptionsINS_29_AllocatorDestroyRangeReverseINS_9allocatorIN2Yy7GMRViewEEEPS4_EEEC2B9nqe210106ES7_, symObjAddr: 0x352C0, symBinAddr: 0x3D3F0, symSize: 0x30 }
  - { offset: 0xDB60A, size: 0x8, addend: 0x0, symName: __ZNSt3__129_AllocatorDestroyRangeReverseINS_9allocatorIN2Yy7GMRViewEEEPS3_EC2B9nqe210106ERS4_RS5_S8_, symObjAddr: 0x352F0, symBinAddr: 0x3D420, symSize: 0x40 }
  - { offset: 0xDB661, size: 0x8, addend: 0x0, symName: __ZNSt3__19allocatorIN2Yy7GMRViewEE9constructB9nqe210106IS2_JS2_EEEvPT_DpOT0_, symObjAddr: 0x35330, symBinAddr: 0x3D460, symSize: 0x30 }
  - { offset: 0xDB6B7, size: 0x8, addend: 0x0, symName: __ZN2Yy7GMRViewC1EOS0_, symObjAddr: 0x35360, symBinAddr: 0x3D490, symSize: 0x30 }
  - { offset: 0xDB6EC, size: 0x8, addend: 0x0, symName: __ZN2Yy7GMRViewC2EOS0_, symObjAddr: 0x35390, symBinAddr: 0x3D4C0, symSize: 0x50 }
  - { offset: 0xDB721, size: 0x8, addend: 0x0, symName: __ZNSt3__128__exception_guard_exceptionsINS_29_AllocatorDestroyRangeReverseINS_9allocatorIN2Yy7GMRViewEEEPS4_EEED2B9nqe210106Ev, symObjAddr: 0x353E0, symBinAddr: 0x3D510, symSize: 0x40 }
  - { offset: 0xDB74B, size: 0x8, addend: 0x0, symName: __ZNKSt3__129_AllocatorDestroyRangeReverseINS_9allocatorIN2Yy7GMRViewEEEPS3_EclB9nqe210106Ev, symObjAddr: 0x35420, symBinAddr: 0x3D550, symSize: 0x60 }
  - { offset: 0xDB771, size: 0x8, addend: 0x0, symName: __ZNSt3__116reverse_iteratorIPN2Yy7GMRViewEEC1B9nqe210106ES3_, symObjAddr: 0x354E0, symBinAddr: 0x3D610, symSize: 0x30 }
  - { offset: 0xDB7A9, size: 0x8, addend: 0x0, symName: __ZNKSt3__116reverse_iteratorIPN2Yy7GMRViewEEdeB9nqe210106Ev, symObjAddr: 0x35550, symBinAddr: 0x3D680, symSize: 0x30 }
  - { offset: 0xDB7DD, size: 0x8, addend: 0x0, symName: __ZNSt3__116reverse_iteratorIPN2Yy7GMRViewEEppB9nqe210106Ev, symObjAddr: 0x35580, symBinAddr: 0x3D6B0, symSize: 0x20 }
  - { offset: 0xDB803, size: 0x8, addend: 0x0, symName: __ZNKSt3__116reverse_iteratorIPN2Yy7GMRViewEE4baseB9nqe210106Ev, symObjAddr: 0x355A0, symBinAddr: 0x3D6D0, symSize: 0x20 }
  - { offset: 0xDB829, size: 0x8, addend: 0x0, symName: __ZNSt3__116reverse_iteratorIPN2Yy7GMRViewEEC2B9nqe210106ES3_, symObjAddr: 0x355C0, symBinAddr: 0x3D6F0, symSize: 0x30 }
  - { offset: 0xDB861, size: 0x8, addend: 0x0, symName: __ZNSt3__114__split_bufferIN2Yy7GMRViewERNS_9allocatorIS2_EEED2Ev, symObjAddr: 0x355F0, symBinAddr: 0x3D720, symSize: 0x60 }
  - { offset: 0xDB88D, size: 0x8, addend: 0x0, symName: __ZNSt3__114__split_bufferIN2Yy7GMRViewERNS_9allocatorIS2_EEE5clearB9nqe210106Ev, symObjAddr: 0x35650, symBinAddr: 0x3D780, symSize: 0x20 }
  - { offset: 0xDB8B3, size: 0x8, addend: 0x0, symName: __ZNKSt3__114__split_bufferIN2Yy7GMRViewERNS_9allocatorIS2_EEE8capacityB9nqe210106Ev, symObjAddr: 0x35670, symBinAddr: 0x3D7A0, symSize: 0x30 }
  - { offset: 0xDB8D9, size: 0x8, addend: 0x0, symName: __ZNSt3__114__split_bufferIN2Yy7GMRViewERNS_9allocatorIS2_EEE17__destruct_at_endB9nqe210106EPS2_, symObjAddr: 0x356A0, symBinAddr: 0x3D7D0, symSize: 0x30 }
  - { offset: 0xDB90D, size: 0x8, addend: 0x0, symName: __ZNSt3__114__split_bufferIN2Yy7GMRViewERNS_9allocatorIS2_EEE17__destruct_at_endB9nqe210106EPS2_NS_17integral_constantIbLb0EEE, symObjAddr: 0x356D0, symBinAddr: 0x3D800, symSize: 0x70 }
  - { offset: 0xDB94D, size: 0x8, addend: 0x0, symName: __ZNK6QSizeF5widthEv, symObjAddr: 0x35820, symBinAddr: 0x3D950, symSize: 0x20 }
  - { offset: 0xDB975, size: 0x8, addend: 0x0, symName: __ZNK6QSizeF6heightEv, symObjAddr: 0x35840, symBinAddr: 0x3D970, symSize: 0x20 }
  - { offset: 0xDB99D, size: 0x8, addend: 0x0, symName: __ZNSt3__16vectorIN2Yy11GMRInstanceENS_9allocatorIS2_EEE30__emplace_back_assume_capacityB9nqe210106IJEEEvDpOT_, symObjAddr: 0x35860, symBinAddr: 0x3D990, symSize: 0x80 }
  - { offset: 0xDB9D9, size: 0x8, addend: 0x0, symName: __ZNSt3__16vectorIN2Yy11GMRInstanceENS_9allocatorIS2_EEE24__emplace_back_slow_pathIJEEEPS2_DpOT_, symObjAddr: 0x358E0, symBinAddr: 0x3DA10, symSize: 0xD0 }
  - { offset: 0xDBA2E, size: 0x8, addend: 0x0, symName: __ZNSt3__16vectorIN2Yy11GMRInstanceENS_9allocatorIS2_EEE21_ConstructTransactionC1B9nqe210106ERS5_m, symObjAddr: 0x359B0, symBinAddr: 0x3DAE0, symSize: 0x30 }
  - { offset: 0xDBA76, size: 0x8, addend: 0x0, symName: __ZNSt3__116allocator_traitsINS_9allocatorIN2Yy11GMRInstanceEEEE9constructB9nqe210106IS3_JELi0EEEvRS4_PT_DpOT0_, symObjAddr: 0x359E0, symBinAddr: 0x3DB10, symSize: 0x30 }
  - { offset: 0xDBABE, size: 0x8, addend: 0x0, symName: __ZNSt3__16vectorIN2Yy11GMRInstanceENS_9allocatorIS2_EEE21_ConstructTransactionD1B9nqe210106Ev, symObjAddr: 0x35A20, symBinAddr: 0x3DB50, symSize: 0x20 }
  - { offset: 0xDBAE8, size: 0x8, addend: 0x0, symName: __ZNSt3__16vectorIN2Yy11GMRInstanceENS_9allocatorIS2_EEE21_ConstructTransactionC2B9nqe210106ERS5_m, symObjAddr: 0x35A40, symBinAddr: 0x3DB70, symSize: 0x60 }
  - { offset: 0xDBB30, size: 0x8, addend: 0x0, symName: __ZNKSt3__16vectorIN2Yy11GMRInstanceENS_9allocatorIS2_EEE19__annotate_increaseB9nqe210106Em, symObjAddr: 0x35AA0, symBinAddr: 0x3DBD0, symSize: 0x90 }
  - { offset: 0xDBB65, size: 0x8, addend: 0x0, symName: __ZNKSt3__16vectorIN2Yy11GMRInstanceENS_9allocatorIS2_EEE31__annotate_contiguous_containerB9nqe210106EPKvS7_, symObjAddr: 0x35B30, symBinAddr: 0x3DC60, symSize: 0x60 }
  - { offset: 0xDBBA9, size: 0x8, addend: 0x0, symName: __ZNKSt3__16vectorIN2Yy11GMRInstanceENS_9allocatorIS2_EEE4dataB9nqe210106Ev, symObjAddr: 0x35B90, symBinAddr: 0x3DCC0, symSize: 0x20 }
  - { offset: 0xDBBCF, size: 0x8, addend: 0x0, symName: __ZNKSt3__16vectorIN2Yy11GMRInstanceENS_9allocatorIS2_EEE4sizeB9nqe210106Ev, symObjAddr: 0x35BB0, symBinAddr: 0x3DCE0, symSize: 0x30 }
  - { offset: 0xDBBF5, size: 0x8, addend: 0x0, symName: __ZNKSt3__16vectorIN2Yy11GMRInstanceENS_9allocatorIS2_EEE8capacityB9nqe210106Ev, symObjAddr: 0x35C00, symBinAddr: 0x3DD30, symSize: 0x30 }
  - { offset: 0xDBC1B, size: 0x8, addend: 0x0, symName: __ZNSt3__19allocatorIN2Yy11GMRInstanceEE9constructB9nqe210106IS2_JEEEvPT_DpOT0_, symObjAddr: 0x35C30, symBinAddr: 0x3DD60, symSize: 0x20 }
  - { offset: 0xDBC5E, size: 0x8, addend: 0x0, symName: __ZN2Yy11GMRInstanceC1Ev, symObjAddr: 0x35C50, symBinAddr: 0x3DD80, symSize: 0x20 }
  - { offset: 0xDBC88, size: 0x8, addend: 0x0, symName: __ZN2Yy11GMRInstanceC2Ev, symObjAddr: 0x35C70, symBinAddr: 0x3DDA0, symSize: 0x110 }
  - { offset: 0xDBCB2, size: 0x8, addend: 0x0, symName: __ZNSt3__16vectorIN2Yy20GMOverriddenPropertyENS_9allocatorIS2_EEEC1B9nqe210106Ev, symObjAddr: 0x35D80, symBinAddr: 0x3DEB0, symSize: 0x20 }
  - { offset: 0xDBCDC, size: 0x8, addend: 0x0, symName: __ZNSt3__16vectorIN2Yy20GMOverriddenPropertyENS_9allocatorIS2_EEEC2B9nqe210106Ev, symObjAddr: 0x35DA0, symBinAddr: 0x3DED0, symSize: 0x40 }
  - { offset: 0xDBD06, size: 0x8, addend: 0x0, symName: __ZNSt3__19allocatorIN2Yy20GMOverriddenPropertyEEC1B9nqe210106Ev, symObjAddr: 0x35DE0, symBinAddr: 0x3DF10, symSize: 0x20 }
  - { offset: 0xDBD30, size: 0x8, addend: 0x0, symName: __ZNSt3__19allocatorIN2Yy20GMOverriddenPropertyEEC2B9nqe210106Ev, symObjAddr: 0x35E00, symBinAddr: 0x3DF30, symSize: 0x20 }
  - { offset: 0xDBD5A, size: 0x8, addend: 0x0, symName: __ZNSt3__116__non_trivial_ifILb1ENS_9allocatorIN2Yy20GMOverriddenPropertyEEEEC2B9nqe210106Ev, symObjAddr: 0x35E20, symBinAddr: 0x3DF50, symSize: 0x10 }
  - { offset: 0xDBD84, size: 0x8, addend: 0x0, symName: __ZNSt3__16vectorIN2Yy11GMRInstanceENS_9allocatorIS2_EEE21_ConstructTransactionD2B9nqe210106Ev, symObjAddr: 0x35E30, symBinAddr: 0x3DF60, symSize: 0x60 }
  - { offset: 0xDBDAE, size: 0x8, addend: 0x0, symName: __ZNKSt3__16vectorIN2Yy11GMRInstanceENS_9allocatorIS2_EEE17__annotate_shrinkB9nqe210106Em, symObjAddr: 0x35E90, symBinAddr: 0x3DFC0, symSize: 0x70 }
  - { offset: 0xDBDE3, size: 0x8, addend: 0x0, symName: __ZNKSt3__16vectorIN2Yy11GMRInstanceENS_9allocatorIS2_EEE11__recommendB9nqe210106Em, symObjAddr: 0x35F00, symBinAddr: 0x3E030, symSize: 0x80 }
  - { offset: 0xDBE3A, size: 0x8, addend: 0x0, symName: __ZNSt3__114__split_bufferIN2Yy11GMRInstanceERNS_9allocatorIS2_EEEC1EmmS5_, symObjAddr: 0x35F80, symBinAddr: 0x3E0B0, symSize: 0x40 }
  - { offset: 0xDBE90, size: 0x8, addend: 0x0, symName: __ZNSt3__16vectorIN2Yy11GMRInstanceENS_9allocatorIS2_EEE26__swap_out_circular_bufferERNS_14__split_bufferIS2_RS4_EE, symObjAddr: 0x35FC0, symBinAddr: 0x3E0F0, symSize: 0x120 }
  - { offset: 0xDBED7, size: 0x8, addend: 0x0, symName: __ZNSt3__114__split_bufferIN2Yy11GMRInstanceERNS_9allocatorIS2_EEED1Ev, symObjAddr: 0x360E0, symBinAddr: 0x3E210, symSize: 0x20 }
  - { offset: 0xDBF03, size: 0x8, addend: 0x0, symName: __ZNKSt3__16vectorIN2Yy11GMRInstanceENS_9allocatorIS2_EEE8max_sizeB9nqe210106Ev, symObjAddr: 0x36100, symBinAddr: 0x3E230, symSize: 0x50 }
  - { offset: 0xDBF29, size: 0x8, addend: 0x0, symName: __ZNSt3__16vectorIN2Yy11GMRInstanceENS_9allocatorIS2_EEE20__throw_length_errorB9nqe210106Ev, symObjAddr: 0x36150, symBinAddr: 0x3E280, symSize: 0x10 }
  - { offset: 0xDBF47, size: 0x8, addend: 0x0, symName: __ZNSt3__116allocator_traitsINS_9allocatorIN2Yy11GMRInstanceEEEE8max_sizeB9nqe210106IS4_Li0EEEmRKS4_, symObjAddr: 0x36160, symBinAddr: 0x3E290, symSize: 0x20 }
  - { offset: 0xDBF7A, size: 0x8, addend: 0x0, symName: __ZNKSt3__19allocatorIN2Yy11GMRInstanceEE8max_sizeB9nqe210106Ev, symObjAddr: 0x36180, symBinAddr: 0x3E2B0, symSize: 0x20 }
  - { offset: 0xDBFA0, size: 0x8, addend: 0x0, symName: __ZNSt3__114__split_bufferIN2Yy11GMRInstanceERNS_9allocatorIS2_EEEC2EmmS5_, symObjAddr: 0x361A0, symBinAddr: 0x3E2D0, symSize: 0xB0 }
  - { offset: 0xDC015, size: 0x8, addend: 0x0, symName: __ZNSt3__19allocatorIN2Yy11GMRInstanceEE8allocateB9nqe210106Em, symObjAddr: 0x36290, symBinAddr: 0x3E3C0, symSize: 0x50 }
  - { offset: 0xDC049, size: 0x8, addend: 0x0, symName: __ZNKSt3__16vectorIN2Yy11GMRInstanceENS_9allocatorIS2_EEE17__annotate_deleteB9nqe210106Ev, symObjAddr: 0x36340, symBinAddr: 0x3E470, symSize: 0x80 }
  - { offset: 0xDC06F, size: 0x8, addend: 0x0, symName: __ZNKSt3__16vectorIN2Yy11GMRInstanceENS_9allocatorIS2_EEE14__annotate_newB9nqe210106Em, symObjAddr: 0x36500, symBinAddr: 0x3E630, symSize: 0x80 }
  - { offset: 0xDC0A4, size: 0x8, addend: 0x0, symName: __ZNSt3__129_AllocatorDestroyRangeReverseINS_9allocatorIN2Yy11GMRInstanceEEEPS3_EC1B9nqe210106ERS4_RS5_S8_, symObjAddr: 0x365E0, symBinAddr: 0x3E710, symSize: 0x40 }
  - { offset: 0xDC100, size: 0x8, addend: 0x0, symName: __ZNSt3__116allocator_traitsINS_9allocatorIN2Yy11GMRInstanceEEEE9constructB9nqe210106IS3_JS3_ELi0EEEvRS4_PT_DpOT0_, symObjAddr: 0x36620, symBinAddr: 0x3E750, symSize: 0x30 }
  - { offset: 0xDC15C, size: 0x8, addend: 0x0, symName: __ZNSt3__128__exception_guard_exceptionsINS_29_AllocatorDestroyRangeReverseINS_9allocatorIN2Yy11GMRInstanceEEEPS4_EEE10__completeB9nqe210106Ev, symObjAddr: 0x36650, symBinAddr: 0x3E780, symSize: 0x20 }
  - { offset: 0xDC182, size: 0x8, addend: 0x0, symName: __ZNSt3__128__exception_guard_exceptionsINS_29_AllocatorDestroyRangeReverseINS_9allocatorIN2Yy11GMRInstanceEEEPS4_EEED1B9nqe210106Ev, symObjAddr: 0x366C0, symBinAddr: 0x3E7F0, symSize: 0x20 }
  - { offset: 0xDC1AC, size: 0x8, addend: 0x0, symName: __ZNSt3__128__exception_guard_exceptionsINS_29_AllocatorDestroyRangeReverseINS_9allocatorIN2Yy11GMRInstanceEEEPS4_EEEC1B9nqe210106ES7_, symObjAddr: 0x366E0, symBinAddr: 0x3E810, symSize: 0x40 }
  - { offset: 0xDC1E4, size: 0x8, addend: 0x0, symName: __ZNSt3__128__exception_guard_exceptionsINS_29_AllocatorDestroyRangeReverseINS_9allocatorIN2Yy11GMRInstanceEEEPS4_EEEC2B9nqe210106ES7_, symObjAddr: 0x36720, symBinAddr: 0x3E850, symSize: 0x30 }
  - { offset: 0xDC21C, size: 0x8, addend: 0x0, symName: __ZNSt3__129_AllocatorDestroyRangeReverseINS_9allocatorIN2Yy11GMRInstanceEEEPS3_EC2B9nqe210106ERS4_RS5_S8_, symObjAddr: 0x36750, symBinAddr: 0x3E880, symSize: 0x40 }
  - { offset: 0xDC273, size: 0x8, addend: 0x0, symName: __ZNSt3__19allocatorIN2Yy11GMRInstanceEE9constructB9nqe210106IS2_JS2_EEEvPT_DpOT0_, symObjAddr: 0x36790, symBinAddr: 0x3E8C0, symSize: 0x30 }
  - { offset: 0xDC2C9, size: 0x8, addend: 0x0, symName: __ZN2Yy11GMRInstanceC1EOS0_, symObjAddr: 0x367C0, symBinAddr: 0x3E8F0, symSize: 0x30 }
  - { offset: 0xDC2FF, size: 0x8, addend: 0x0, symName: __ZN2Yy11GMRInstanceC2EOS0_, symObjAddr: 0x367F0, symBinAddr: 0x3E920, symSize: 0x100 }
  - { offset: 0xDC335, size: 0x8, addend: 0x0, symName: __ZNSt3__16vectorIN2Yy20GMOverriddenPropertyENS_9allocatorIS2_EEEC1B9nqe210106EOS5_, symObjAddr: 0x368F0, symBinAddr: 0x3EA20, symSize: 0x30 }
  - { offset: 0xDC370, size: 0x8, addend: 0x0, symName: __ZNSt3__16vectorIN2Yy20GMOverriddenPropertyENS_9allocatorIS2_EEEC2B9nqe210106EOS5_, symObjAddr: 0x36920, symBinAddr: 0x3EA50, symSize: 0x70 }
  - { offset: 0xDC3AB, size: 0x8, addend: 0x0, symName: __ZNSt3__116allocator_traitsINS_9allocatorIN2Yy11GMRInstanceEEEE7destroyB9nqe210106IS3_Li0EEEvRS4_PT_, symObjAddr: 0x36990, symBinAddr: 0x3EAC0, symSize: 0x30 }
  - { offset: 0xDC3ED, size: 0x8, addend: 0x0, symName: __ZNSt3__19allocatorIN2Yy11GMRInstanceEE7destroyB9nqe210106EPS2_, symObjAddr: 0x369C0, symBinAddr: 0x3EAF0, symSize: 0x20 }
  - { offset: 0xDC421, size: 0x8, addend: 0x0, symName: __ZNSt3__128__exception_guard_exceptionsINS_29_AllocatorDestroyRangeReverseINS_9allocatorIN2Yy11GMRInstanceEEEPS4_EEED2B9nqe210106Ev, symObjAddr: 0x369E0, symBinAddr: 0x3EB10, symSize: 0x40 }
  - { offset: 0xDC44B, size: 0x8, addend: 0x0, symName: __ZNKSt3__129_AllocatorDestroyRangeReverseINS_9allocatorIN2Yy11GMRInstanceEEEPS3_EclB9nqe210106Ev, symObjAddr: 0x36A20, symBinAddr: 0x3EB50, symSize: 0x60 }
  - { offset: 0xDC471, size: 0x8, addend: 0x0, symName: __ZNSt3__116reverse_iteratorIPN2Yy11GMRInstanceEEC1B9nqe210106ES3_, symObjAddr: 0x36AE0, symBinAddr: 0x3EC10, symSize: 0x30 }
  - { offset: 0xDC4A9, size: 0x8, addend: 0x0, symName: __ZNKSt3__116reverse_iteratorIPN2Yy11GMRInstanceEEdeB9nqe210106Ev, symObjAddr: 0x36B50, symBinAddr: 0x3EC80, symSize: 0x30 }
  - { offset: 0xDC4DD, size: 0x8, addend: 0x0, symName: __ZNSt3__116reverse_iteratorIPN2Yy11GMRInstanceEEppB9nqe210106Ev, symObjAddr: 0x36B80, symBinAddr: 0x3ECB0, symSize: 0x20 }
  - { offset: 0xDC503, size: 0x8, addend: 0x0, symName: __ZNKSt3__116reverse_iteratorIPN2Yy11GMRInstanceEE4baseB9nqe210106Ev, symObjAddr: 0x36BA0, symBinAddr: 0x3ECD0, symSize: 0x20 }
  - { offset: 0xDC529, size: 0x8, addend: 0x0, symName: __ZNSt3__116reverse_iteratorIPN2Yy11GMRInstanceEEC2B9nqe210106ES3_, symObjAddr: 0x36BC0, symBinAddr: 0x3ECF0, symSize: 0x30 }
  - { offset: 0xDC561, size: 0x8, addend: 0x0, symName: __ZNSt3__114__split_bufferIN2Yy11GMRInstanceERNS_9allocatorIS2_EEED2Ev, symObjAddr: 0x36BF0, symBinAddr: 0x3ED20, symSize: 0x60 }
  - { offset: 0xDC58D, size: 0x8, addend: 0x0, symName: __ZNSt3__114__split_bufferIN2Yy11GMRInstanceERNS_9allocatorIS2_EEE5clearB9nqe210106Ev, symObjAddr: 0x36C50, symBinAddr: 0x3ED80, symSize: 0x20 }
  - { offset: 0xDC5B3, size: 0x8, addend: 0x0, symName: __ZNSt3__116allocator_traitsINS_9allocatorIN2Yy11GMRInstanceEEEE10deallocateB9nqe210106ERS4_PS3_m, symObjAddr: 0x36C70, symBinAddr: 0x3EDA0, symSize: 0x30 }
  - { offset: 0xDC5F5, size: 0x8, addend: 0x0, symName: __ZNKSt3__114__split_bufferIN2Yy11GMRInstanceERNS_9allocatorIS2_EEE8capacityB9nqe210106Ev, symObjAddr: 0x36CA0, symBinAddr: 0x3EDD0, symSize: 0x30 }
  - { offset: 0xDC61B, size: 0x8, addend: 0x0, symName: __ZNSt3__114__split_bufferIN2Yy11GMRInstanceERNS_9allocatorIS2_EEE17__destruct_at_endB9nqe210106EPS2_, symObjAddr: 0x36CD0, symBinAddr: 0x3EE00, symSize: 0x30 }
  - { offset: 0xDC64F, size: 0x8, addend: 0x0, symName: __ZNSt3__114__split_bufferIN2Yy11GMRInstanceERNS_9allocatorIS2_EEE17__destruct_at_endB9nqe210106EPS2_NS_17integral_constantIbLb0EEE, symObjAddr: 0x36D00, symBinAddr: 0x3EE30, symSize: 0x70 }
  - { offset: 0xDC68F, size: 0x8, addend: 0x0, symName: __ZNSt3__19allocatorIN2Yy11GMRInstanceEE10deallocateB9nqe210106EPS2_m, symObjAddr: 0x36D70, symBinAddr: 0x3EEA0, symSize: 0x30 }
  - { offset: 0xDC6D1, size: 0x8, addend: 0x0, symName: __ZNKR8QVariant5valueIbEET_v, symObjAddr: 0x371D0, symBinAddr: 0x3F300, symSize: 0x20 }
  - { offset: 0xDC700, size: 0x8, addend: 0x0, symName: __ZNK9QtPrivate30QExplicitlySharedDataPointerV2I8QMapDataINSt3__13mapI7QString8QVariantNS2_4lessIS4_EENS2_9allocatorINS2_4pairIKS4_S5_EEEEEEEEcvbEv, symObjAddr: 0x371F0, symBinAddr: 0x3F320, symSize: 0x30 }
  - { offset: 0xDC726, size: 0x8, addend: 0x0, symName: __ZN8QVariantC1Ev, symObjAddr: 0x37220, symBinAddr: 0x3F350, symSize: 0x20 }
  - { offset: 0xDC750, size: 0x8, addend: 0x0, symName: __ZNK9QtPrivate30QExplicitlySharedDataPointerV2I8QMapDataINSt3__13mapI7QString8QVariantNS2_4lessIS4_EENS2_9allocatorINS2_4pairIKS4_S5_EEEEEEEE8isSharedEv, symObjAddr: 0x37240, symBinAddr: 0x3F370, symSize: 0x50 }
  - { offset: 0xDC776, size: 0x8, addend: 0x0, symName: __ZNSt3__13mapI7QString8QVariantNS_4lessIS1_EENS_9allocatorINS_4pairIKS1_S2_EEEEEC1B9nqe210106Ev, symObjAddr: 0x37290, symBinAddr: 0x3F3C0, symSize: 0x20 }
  - { offset: 0xDC79F, size: 0x8, addend: 0x0, symName: __Z11qScopeGuardIZN4QMapI7QString8QVariantE4takeERKS1_EUlvE_E11QScopeGuardINSt3__15decayIT_E4typeEEOSA_, symObjAddr: 0x372B0, symBinAddr: 0x3F3E0, symSize: 0x30 }
  - { offset: 0xDC7D5, size: 0x8, addend: 0x0, symName: __ZN9QtPrivate30QExplicitlySharedDataPointerV2I8QMapDataINSt3__13mapI7QString8QVariantNS2_4lessIS4_EENS2_9allocatorINS2_4pairIKS4_S5_EEEEEEEEptEv, symObjAddr: 0x372E0, symBinAddr: 0x3F410, symSize: 0x20 }
  - { offset: 0xDC7FB, size: 0x8, addend: 0x0, symName: __ZNKSt3__13mapI7QString8QVariantNS_4lessIS1_EENS_9allocatorINS_4pairIKS1_S2_EEEEE6cbeginB9nqe210106Ev, symObjAddr: 0x37300, symBinAddr: 0x3F430, symSize: 0x30 }
  - { offset: 0xDC821, size: 0x8, addend: 0x0, symName: __ZNKSt3__13mapI7QString8QVariantNS_4lessIS1_EENS_9allocatorINS_4pairIKS1_S2_EEEEE4cendB9nqe210106Ev, symObjAddr: 0x37330, symBinAddr: 0x3F460, symSize: 0x30 }
  - { offset: 0xDC847, size: 0x8, addend: 0x0, symName: __ZNKSt3__13mapI7QString8QVariantNS_4lessIS1_EENS_9allocatorINS_4pairIKS1_S2_EEEEE8key_compB9nqe210106Ev, symObjAddr: 0x37360, symBinAddr: 0x3F490, symSize: 0x30 }
  - { offset: 0xDC86D, size: 0x8, addend: 0x0, symName: __ZNKSt3__14lessI7QStringEclB9nqe210106ERKS1_S4_, symObjAddr: 0x373C0, symBinAddr: 0x3F4F0, symSize: 0x30 }
  - { offset: 0xDC8B1, size: 0x8, addend: 0x0, symName: __ZNKSt3__120__map_const_iteratorINS_21__tree_const_iteratorINS_12__value_typeI7QString8QVariantEEPNS_11__tree_nodeIS5_PvEElEEEptB9nqe210106Ev, symObjAddr: 0x373F0, symBinAddr: 0x3F520, symSize: 0x30 }
  - { offset: 0xDC8E1, size: 0x8, addend: 0x0, symName: __ZZN4QMapI7QString8QVariantE4takeERKS0_ENKUlT_E_clINSt3__120__map_const_iteratorINS8_21__tree_const_iteratorINS8_12__value_typeIS0_S1_EEPNS8_11__tree_nodeISC_PvEElEEEEEEDaS5_, symObjAddr: 0x37420, symBinAddr: 0x3F550, symSize: 0x50 }
  - { offset: 0xDC923, size: 0x8, addend: 0x0, symName: __ZNSt3__120__map_const_iteratorINS_21__tree_const_iteratorINS_12__value_typeI7QString8QVariantEEPNS_11__tree_nodeIS5_PvEElEEEppB9nqe210106Ev, symObjAddr: 0x37470, symBinAddr: 0x3F5A0, symSize: 0x30 }
  - { offset: 0xDC967, size: 0x8, addend: 0x0, symName: __ZZN4QMapI7QString8QVariantE4takeERKS0_ENKUlvE0_clEv, symObjAddr: 0x374A0, symBinAddr: 0x3F5D0, symSize: 0x130 }
  - { offset: 0xDC9A1, size: 0x8, addend: 0x0, symName: __ZN11QScopeGuardIZN4QMapI7QString8QVariantE4takeERKS1_EUlvE_ED1Ev, symObjAddr: 0x375D0, symBinAddr: 0x3F700, symSize: 0x20 }
  - { offset: 0xDC9CB, size: 0x8, addend: 0x0, symName: __ZNSt3__13mapI7QString8QVariantNS_4lessIS1_EENS_9allocatorINS_4pairIKS1_S2_EEEEED1B9nqe210106Ev, symObjAddr: 0x375F0, symBinAddr: 0x3F720, symSize: 0x20 }
  - { offset: 0xDC9F5, size: 0x8, addend: 0x0, symName: __ZNSt3__13mapI7QString8QVariantNS_4lessIS1_EENS_9allocatorINS_4pairIKS1_S2_EEEEE7extractB9nqe210106ERS7_, symObjAddr: 0x37610, symBinAddr: 0x3F740, symSize: 0x40 }
  - { offset: 0xDCA2A, size: 0x8, addend: 0x0, symName: __ZNKSt3__119__basic_node_handleINS_11__tree_nodeINS_12__value_typeI7QString8QVariantEEPvEENS_9allocatorINS_4pairIKS3_S4_EEEENS_27__map_node_handle_specificsEEcvbB9nqe210106Ev, symObjAddr: 0x37650, symBinAddr: 0x3F780, symSize: 0x20 }
  - { offset: 0xDCA50, size: 0x8, addend: 0x0, symName: __ZNKSt3__127__map_node_handle_specificsINS_11__tree_nodeINS_12__value_typeI7QString8QVariantEEPvEENS_19__basic_node_handleIS7_NS_9allocatorINS_4pairIKS3_S4_EEEES0_EEE6mappedB9nqe210106Ev, symObjAddr: 0x37670, symBinAddr: 0x3F7A0, symSize: 0x30 }
  - { offset: 0xDCA76, size: 0x8, addend: 0x0, symName: __ZN8QVariantC1EOS_, symObjAddr: 0x376A0, symBinAddr: 0x3F7D0, symSize: 0x30 }
  - { offset: 0xDCAAF, size: 0x8, addend: 0x0, symName: __ZNSt3__119__basic_node_handleINS_11__tree_nodeINS_12__value_typeI7QString8QVariantEEPvEENS_9allocatorINS_4pairIKS3_S4_EEEENS_27__map_node_handle_specificsEED1B9nqe210106Ev, symObjAddr: 0x376D0, symBinAddr: 0x3F800, symSize: 0x20 }
  - { offset: 0xDCAD9, size: 0x8, addend: 0x0, symName: __ZNK2Qt23totally_ordered_wrapperIP8QMapDataINSt3__13mapI7QString8QVariantNS2_4lessIS4_EENS2_9allocatorINS2_4pairIKS4_S5_EEEEEEEE3getEv, symObjAddr: 0x376F0, symBinAddr: 0x3F820, symSize: 0x20 }
  - { offset: 0xDCAFF, size: 0x8, addend: 0x0, symName: __ZN8QVariantC2Ev, symObjAddr: 0x37710, symBinAddr: 0x3F840, symSize: 0x20 }
  - { offset: 0xDCB29, size: 0x8, addend: 0x0, symName: __ZN8QVariant7PrivateC1Ev, symObjAddr: 0x37730, symBinAddr: 0x3F860, symSize: 0x20 }
  - { offset: 0xDCB53, size: 0x8, addend: 0x0, symName: __ZN8QVariant7PrivateC2Ev, symObjAddr: 0x37750, symBinAddr: 0x3F880, symSize: 0x60 }
  - { offset: 0xDCB82, size: 0x8, addend: 0x0, symName: __ZN8QVariant7PrivateUt_C1Ev, symObjAddr: 0x377B0, symBinAddr: 0x3F8E0, symSize: 0x20 }
  - { offset: 0xDCBAE, size: 0x8, addend: 0x0, symName: __ZN8QVariant7PrivateUt_C2Ev, symObjAddr: 0x377D0, symBinAddr: 0x3F900, symSize: 0x40 }
  - { offset: 0xDCBDA, size: 0x8, addend: 0x0, symName: __ZNK2Qt23totally_ordered_wrapperIP8QMapDataINSt3__13mapI7QString8QVariantNS2_4lessIS4_EENS2_9allocatorINS2_4pairIKS4_S5_EEEEEEEEcvbEv, symObjAddr: 0x37810, symBinAddr: 0x3F940, symSize: 0x30 }
  - { offset: 0xDCC00, size: 0x8, addend: 0x0, symName: __ZNK2Qt23totally_ordered_wrapperIP8QMapDataINSt3__13mapI7QString8QVariantNS2_4lessIS4_EENS2_9allocatorINS2_4pairIKS4_S5_EEEEEEEEptEv, symObjAddr: 0x37840, symBinAddr: 0x3F970, symSize: 0x20 }
  - { offset: 0xDCC26, size: 0x8, addend: 0x0, symName: __ZNSt3__13mapI7QString8QVariantNS_4lessIS1_EENS_9allocatorINS_4pairIKS1_S2_EEEEEC2B9nqe210106Ev, symObjAddr: 0x37860, symBinAddr: 0x3F990, symSize: 0x30 }
  - { offset: 0xDCC50, size: 0x8, addend: 0x0, symName: __ZNSt3__119__map_value_compareI7QStringNS_4pairIKS1_8QVariantEENS_4lessIS1_EELb1EEC1B9nqe210106ES7_, symObjAddr: 0x37890, symBinAddr: 0x3F9C0, symSize: 0x20 }
  - { offset: 0xDCC89, size: 0x8, addend: 0x0, symName: __ZNSt3__16__treeINS_12__value_typeI7QString8QVariantEENS_19__map_value_compareIS2_NS_4pairIKS2_S3_EENS_4lessIS2_EELb1EEENS_9allocatorIS8_EEEC1ERKSB_, symObjAddr: 0x378B0, symBinAddr: 0x3F9E0, symSize: 0x30 }
  - { offset: 0xDCCC4, size: 0x8, addend: 0x0, symName: __ZNSt3__119__map_value_compareI7QStringNS_4pairIKS1_8QVariantEENS_4lessIS1_EELb1EEC2B9nqe210106ES7_, symObjAddr: 0x378E0, symBinAddr: 0x3FA10, symSize: 0x10 }
  - { offset: 0xDCCFD, size: 0x8, addend: 0x0, symName: __ZNSt3__16__treeINS_12__value_typeI7QString8QVariantEENS_19__map_value_compareIS2_NS_4pairIKS2_S3_EENS_4lessIS2_EELb1EEENS_9allocatorIS8_EEEC2ERKSB_, symObjAddr: 0x378F0, symBinAddr: 0x3FA20, symSize: 0x60 }
  - { offset: 0xDCD38, size: 0x8, addend: 0x0, symName: __ZNSt3__115__tree_end_nodeIPNS_16__tree_node_baseIPvEEEC1B9nqe210106Ev, symObjAddr: 0x37950, symBinAddr: 0x3FA80, symSize: 0x20 }
  - { offset: 0xDCD62, size: 0x8, addend: 0x0, symName: __ZNSt3__19allocatorINS_11__tree_nodeINS_12__value_typeI7QString8QVariantEEPvEEEC1B9nqe210106Ev, symObjAddr: 0x37970, symBinAddr: 0x3FAA0, symSize: 0x20 }
  - { offset: 0xDCD8C, size: 0x8, addend: 0x0, symName: __ZNSt3__16__treeINS_12__value_typeI7QString8QVariantEENS_19__map_value_compareIS2_NS_4pairIKS2_S3_EENS_4lessIS2_EELb1EEENS_9allocatorIS8_EEE10__end_nodeB9nqe210106Ev, symObjAddr: 0x37990, symBinAddr: 0x3FAC0, symSize: 0x20 }
  - { offset: 0xDCDB2, size: 0x8, addend: 0x0, symName: __ZNSt3__16__treeINS_12__value_typeI7QString8QVariantEENS_19__map_value_compareIS2_NS_4pairIKS2_S3_EENS_4lessIS2_EELb1EEENS_9allocatorIS8_EEE12__begin_nodeB9nqe210106Ev, symObjAddr: 0x379B0, symBinAddr: 0x3FAE0, symSize: 0x10 }
  - { offset: 0xDCDD8, size: 0x8, addend: 0x0, symName: __ZNSt3__115__tree_end_nodeIPNS_16__tree_node_baseIPvEEEC2B9nqe210106Ev, symObjAddr: 0x379C0, symBinAddr: 0x3FAF0, symSize: 0x20 }
  - { offset: 0xDCE02, size: 0x8, addend: 0x0, symName: __ZNSt3__19allocatorINS_11__tree_nodeINS_12__value_typeI7QString8QVariantEEPvEEEC2B9nqe210106Ev, symObjAddr: 0x379E0, symBinAddr: 0x3FB10, symSize: 0x20 }
  - { offset: 0xDCE2C, size: 0x8, addend: 0x0, symName: __ZNSt3__116__non_trivial_ifILb1ENS_9allocatorINS_11__tree_nodeINS_12__value_typeI7QString8QVariantEEPvEEEEEC2B9nqe210106Ev, symObjAddr: 0x37A00, symBinAddr: 0x3FB30, symSize: 0x10 }
  - { offset: 0xDCE56, size: 0x8, addend: 0x0, symName: __ZN11QScopeGuardIZN4QMapI7QString8QVariantE4takeERKS1_EUlvE_EC1EOS6_, symObjAddr: 0x37A10, symBinAddr: 0x3FB40, symSize: 0x30 }
  - { offset: 0xDCE8E, size: 0x8, addend: 0x0, symName: __ZN11QScopeGuardIZN4QMapI7QString8QVariantE4takeERKS1_EUlvE_EC2EOS6_, symObjAddr: 0x37A40, symBinAddr: 0x3FB70, symSize: 0x30 }
  - { offset: 0xDCEC6, size: 0x8, addend: 0x0, symName: __ZNKSt3__13mapI7QString8QVariantNS_4lessIS1_EENS_9allocatorINS_4pairIKS1_S2_EEEEE5beginB9nqe210106Ev, symObjAddr: 0x37A70, symBinAddr: 0x3FBA0, symSize: 0x30 }
  - { offset: 0xDCEEC, size: 0x8, addend: 0x0, symName: __ZNKSt3__16__treeINS_12__value_typeI7QString8QVariantEENS_19__map_value_compareIS2_NS_4pairIKS2_S3_EENS_4lessIS2_EELb1EEENS_9allocatorIS8_EEE5beginB9nqe210106Ev, symObjAddr: 0x37AA0, symBinAddr: 0x3FBD0, symSize: 0x30 }
  - { offset: 0xDCF12, size: 0x8, addend: 0x0, symName: __ZNSt3__120__map_const_iteratorINS_21__tree_const_iteratorINS_12__value_typeI7QString8QVariantEEPNS_11__tree_nodeIS5_PvEElEEEC1B9nqe210106ESA_, symObjAddr: 0x37AD0, symBinAddr: 0x3FC00, symSize: 0x30 }
  - { offset: 0xDCF4B, size: 0x8, addend: 0x0, symName: __ZNKSt3__16__treeINS_12__value_typeI7QString8QVariantEENS_19__map_value_compareIS2_NS_4pairIKS2_S3_EENS_4lessIS2_EELb1EEENS_9allocatorIS8_EEE12__begin_nodeB9nqe210106Ev, symObjAddr: 0x37B00, symBinAddr: 0x3FC30, symSize: 0x10 }
  - { offset: 0xDCF71, size: 0x8, addend: 0x0, symName: __ZNSt3__121__tree_const_iteratorINS_12__value_typeI7QString8QVariantEEPNS_11__tree_nodeIS4_PvEElEC1B9nqe210106EPNS_15__tree_end_nodeIPNS_16__tree_node_baseIS6_EEEE, symObjAddr: 0x37B10, symBinAddr: 0x3FC40, symSize: 0x30 }
  - { offset: 0xDCFAA, size: 0x8, addend: 0x0, symName: __ZNSt3__121__tree_const_iteratorINS_12__value_typeI7QString8QVariantEEPNS_11__tree_nodeIS4_PvEElEC2B9nqe210106EPNS_15__tree_end_nodeIPNS_16__tree_node_baseIS6_EEEE, symObjAddr: 0x37B40, symBinAddr: 0x3FC70, symSize: 0x20 }
  - { offset: 0xDCFE3, size: 0x8, addend: 0x0, symName: __ZNSt3__120__map_const_iteratorINS_21__tree_const_iteratorINS_12__value_typeI7QString8QVariantEEPNS_11__tree_nodeIS5_PvEElEEEC2B9nqe210106ESA_, symObjAddr: 0x37B60, symBinAddr: 0x3FC90, symSize: 0x20 }
  - { offset: 0xDD01C, size: 0x8, addend: 0x0, symName: __ZNKSt3__13mapI7QString8QVariantNS_4lessIS1_EENS_9allocatorINS_4pairIKS1_S2_EEEEE3endB9nqe210106Ev, symObjAddr: 0x37B80, symBinAddr: 0x3FCB0, symSize: 0x30 }
  - { offset: 0xDD042, size: 0x8, addend: 0x0, symName: __ZNKSt3__16__treeINS_12__value_typeI7QString8QVariantEENS_19__map_value_compareIS2_NS_4pairIKS2_S3_EENS_4lessIS2_EELb1EEENS_9allocatorIS8_EEE3endB9nqe210106Ev, symObjAddr: 0x37BB0, symBinAddr: 0x3FCE0, symSize: 0x30 }
  - { offset: 0xDD068, size: 0x8, addend: 0x0, symName: __ZNKSt3__16__treeINS_12__value_typeI7QString8QVariantEENS_19__map_value_compareIS2_NS_4pairIKS2_S3_EENS_4lessIS2_EELb1EEENS_9allocatorIS8_EEE10__end_nodeB9nqe210106Ev, symObjAddr: 0x37BE0, symBinAddr: 0x3FD10, symSize: 0x20 }
  - { offset: 0xDD08E, size: 0x8, addend: 0x0, symName: __ZNKSt3__16__treeINS_12__value_typeI7QString8QVariantEENS_19__map_value_compareIS2_NS_4pairIKS2_S3_EENS_4lessIS2_EELb1EEENS_9allocatorIS8_EEE10value_compB9nqe210106Ev, symObjAddr: 0x37C00, symBinAddr: 0x3FD30, symSize: 0x20 }
  - { offset: 0xDD0B4, size: 0x8, addend: 0x0, symName: __ZNKSt3__119__map_value_compareI7QStringNS_4pairIKS1_8QVariantEENS_4lessIS1_EELb1EE8key_compB9nqe210106Ev, symObjAddr: 0x37C20, symBinAddr: 0x3FD50, symSize: 0x10 }
  - { offset: 0xDD0DA, size: 0x8, addend: 0x0, symName: __ZNSt3__114pointer_traitsIPKNS_4pairIK7QString8QVariantEEE10pointer_toB9nqe210106ERS6_, symObjAddr: 0x37C90, symBinAddr: 0x3FDC0, symSize: 0x10 }
  - { offset: 0xDD0FD, size: 0x8, addend: 0x0, symName: __ZNKSt3__121__tree_const_iteratorINS_12__value_typeI7QString8QVariantEEPNS_11__tree_nodeIS4_PvEElEdeB9nqe210106Ev, symObjAddr: 0x37CA0, symBinAddr: 0x3FDD0, symSize: 0x20 }
  - { offset: 0xDD123, size: 0x8, addend: 0x0, symName: __ZNKSt3__121__tree_const_iteratorINS_12__value_typeI7QString8QVariantEEPNS_11__tree_nodeIS4_PvEElE8__get_npB9nqe210106Ev, symObjAddr: 0x37CC0, symBinAddr: 0x3FDF0, symSize: 0x20 }
  - { offset: 0xDD149, size: 0x8, addend: 0x0, symName: __ZNSt3__13mapI7QString8QVariantNS_4lessIS1_EENS_9allocatorINS_4pairIKS1_S2_EEEEE6insertB9nqe210106ENS_20__map_const_iteratorINS_21__tree_const_iteratorINS_12__value_typeIS1_S2_EEPNS_11__tree_nodeISE_PvEElEEEERKS8_, symObjAddr: 0x37CE0, symBinAddr: 0x3FE10, symSize: 0x50 }
  - { offset: 0xDD18D, size: 0x8, addend: 0x0, symName: __ZNKSt3__120__map_const_iteratorINS_21__tree_const_iteratorINS_12__value_typeI7QString8QVariantEEPNS_11__tree_nodeIS5_PvEElEEEdeB9nqe210106Ev, symObjAddr: 0x37D30, symBinAddr: 0x3FE60, symSize: 0x20 }
  - { offset: 0xDD1B3, size: 0x8, addend: 0x0, symName: __ZNSt3__16__treeINS_12__value_typeI7QString8QVariantEENS_19__map_value_compareIS2_NS_4pairIKS2_S3_EENS_4lessIS2_EELb1EEENS_9allocatorIS8_EEE21__emplace_hint_uniqueB9nqe210106IRKS8_EENS_15__tree_iteratorIS4_PNS_11__tree_nodeIS4_PvEElEENS_21__tree_const_iteratorIS4_SM_lEEOT_, symObjAddr: 0x37D50, symBinAddr: 0x3FE80, symSize: 0x40 }
  - { offset: 0xDD200, size: 0x8, addend: 0x0, symName: __ZNSt3__114__map_iteratorINS_15__tree_iteratorINS_12__value_typeI7QString8QVariantEEPNS_11__tree_nodeIS5_PvEElEEEC1B9nqe210106ESA_, symObjAddr: 0x37D90, symBinAddr: 0x3FEC0, symSize: 0x30 }
  - { offset: 0xDD239, size: 0x8, addend: 0x0, symName: __ZNSt3__16__treeINS_12__value_typeI7QString8QVariantEENS_19__map_value_compareIS2_NS_4pairIKS2_S3_EENS_4lessIS2_EELb1EEENS_9allocatorIS8_EEE33__emplace_hint_unique_extract_keyB9nqe210106IRKS8_EENS_15__tree_iteratorIS4_PNS_11__tree_nodeIS4_PvEElEENS_21__tree_const_iteratorIS4_SM_lEEOT_NS_23__extract_key_first_tagE, symObjAddr: 0x37DC0, symBinAddr: 0x3FEF0, symSize: 0x60 }
  - { offset: 0xDD292, size: 0x8, addend: 0x0, symName: __ZNSt3__16__treeINS_12__value_typeI7QString8QVariantEENS_19__map_value_compareIS2_NS_4pairIKS2_S3_EENS_4lessIS2_EELb1EEENS_9allocatorIS8_EEE30__emplace_hint_unique_key_argsIS2_JRKS8_EEENS6_INS_15__tree_iteratorIS4_PNS_11__tree_nodeIS4_PvEElEEbEENS_21__tree_const_iteratorIS4_SM_lEERKT_DpOT0_, symObjAddr: 0x37E20, symBinAddr: 0x3FF50, symSize: 0x110 }
  - { offset: 0xDD36C, size: 0x8, addend: 0x0, symName: __ZNSt3__16__treeINS_12__value_typeI7QString8QVariantEENS_19__map_value_compareIS2_NS_4pairIKS2_S3_EENS_4lessIS2_EELb1EEENS_9allocatorIS8_EEE12__find_equalIS2_EERPNS_16__tree_node_baseIPvEENS_21__tree_const_iteratorIS4_PNS_11__tree_nodeIS4_SH_EElEERPNS_15__tree_end_nodeISJ_EESK_RKT_, symObjAddr: 0x37F30, symBinAddr: 0x40060, symSize: 0x2F0 }
  - { offset: 0xDD417, size: 0x8, addend: 0x0, symName: __ZNSt3__16__treeINS_12__value_typeI7QString8QVariantEENS_19__map_value_compareIS2_NS_4pairIKS2_S3_EENS_4lessIS2_EELb1EEENS_9allocatorIS8_EEE16__construct_nodeIJRKS8_EEENS_10unique_ptrINS_11__tree_nodeIS4_PvEENS_22__tree_node_destructorINSC_ISL_EEEEEEDpOT_, symObjAddr: 0x38220, symBinAddr: 0x40350, symSize: 0xE0 }
  - { offset: 0xDD478, size: 0x8, addend: 0x0, symName: __ZNSt3__16__treeINS_12__value_typeI7QString8QVariantEENS_19__map_value_compareIS2_NS_4pairIKS2_S3_EENS_4lessIS2_EELb1EEENS_9allocatorIS8_EEE16__insert_node_atEPNS_15__tree_end_nodeIPNS_16__tree_node_baseIPvEEEERSJ_SJ_, symObjAddr: 0x38300, symBinAddr: 0x40430, symSize: 0xB0 }
  - { offset: 0xDD4CD, size: 0x8, addend: 0x0, symName: __ZNKSt3__110unique_ptrINS_11__tree_nodeINS_12__value_typeI7QString8QVariantEEPvEENS_22__tree_node_destructorINS_9allocatorIS7_EEEEE3getB9nqe210106Ev, symObjAddr: 0x383B0, symBinAddr: 0x404E0, symSize: 0x20 }
  - { offset: 0xDD4F3, size: 0x8, addend: 0x0, symName: __ZNSt3__110unique_ptrINS_11__tree_nodeINS_12__value_typeI7QString8QVariantEEPvEENS_22__tree_node_destructorINS_9allocatorIS7_EEEEE7releaseB9nqe210106Ev, symObjAddr: 0x383D0, symBinAddr: 0x40500, symSize: 0x20 }
  - { offset: 0xDD529, size: 0x8, addend: 0x0, symName: __ZNSt3__110unique_ptrINS_11__tree_nodeINS_12__value_typeI7QString8QVariantEEPvEENS_22__tree_node_destructorINS_9allocatorIS7_EEEEED1B9nqe210106Ev, symObjAddr: 0x383F0, symBinAddr: 0x40520, symSize: 0x20 }
  - { offset: 0xDD553, size: 0x8, addend: 0x0, symName: __ZNSt3__115__tree_iteratorINS_12__value_typeI7QString8QVariantEEPNS_11__tree_nodeIS4_PvEElEC1B9nqe210106ES8_, symObjAddr: 0x38410, symBinAddr: 0x40540, symSize: 0x30 }
  - { offset: 0xDD591, size: 0x8, addend: 0x0, symName: __ZNSt3__14pairINS_15__tree_iteratorINS_12__value_typeI7QString8QVariantEEPNS_11__tree_nodeIS5_PvEElEEbEC1B9nqe210106ISA_RbLi0EEEOT_OT0_, symObjAddr: 0x38440, symBinAddr: 0x40570, symSize: 0x30 }
  - { offset: 0xDD5EF, size: 0x8, addend: 0x0, symName: __ZNSt3__16__treeINS_12__value_typeI7QString8QVariantEENS_19__map_value_compareIS2_NS_4pairIKS2_S3_EENS_4lessIS2_EELb1EEENS_9allocatorIS8_EEE3endB9nqe210106Ev, symObjAddr: 0x38470, symBinAddr: 0x405A0, symSize: 0x30 }
  - { offset: 0xDD615, size: 0x8, addend: 0x0, symName: __ZNSt3__121__tree_const_iteratorINS_12__value_typeI7QString8QVariantEEPNS_11__tree_nodeIS4_PvEElEC1B9nqe210106ENS_15__tree_iteratorIS4_S8_lEE, symObjAddr: 0x384A0, symBinAddr: 0x405D0, symSize: 0x30 }
  - { offset: 0xDD64E, size: 0x8, addend: 0x0, symName: __ZNSt3__16__treeINS_12__value_typeI7QString8QVariantEENS_19__map_value_compareIS2_NS_4pairIKS2_S3_EENS_4lessIS2_EELb1EEENS_9allocatorIS8_EEE10value_compB9nqe210106Ev, symObjAddr: 0x384D0, symBinAddr: 0x40600, symSize: 0x20 }
  - { offset: 0xDD674, size: 0x8, addend: 0x0, symName: __ZNKSt3__119__map_value_compareI7QStringNS_4pairIKS1_8QVariantEENS_4lessIS1_EELb1EEclB9nqe210106ERS3_RKS5_, symObjAddr: 0x384F0, symBinAddr: 0x40620, symSize: 0x30 }
  - { offset: 0xDD6B8, size: 0x8, addend: 0x0, symName: __ZNSt3__16__treeINS_12__value_typeI7QString8QVariantEENS_19__map_value_compareIS2_NS_4pairIKS2_S3_EENS_4lessIS2_EELb1EEENS_9allocatorIS8_EEE5beginB9nqe210106Ev, symObjAddr: 0x38520, symBinAddr: 0x40650, symSize: 0x30 }
  - { offset: 0xDD6DE, size: 0x8, addend: 0x0, symName: __ZNKSt3__119__map_value_compareI7QStringNS_4pairIKS1_8QVariantEENS_4lessIS1_EELb1EEclB9nqe210106ERKS5_RS3_, symObjAddr: 0x38550, symBinAddr: 0x40680, symSize: 0x30 }
  - { offset: 0xDD722, size: 0x8, addend: 0x0, symName: __ZNSt3__121__tree_const_iteratorINS_12__value_typeI7QString8QVariantEEPNS_11__tree_nodeIS4_PvEElEmmB9nqe210106Ev, symObjAddr: 0x38580, symBinAddr: 0x406B0, symSize: 0x30 }
  - { offset: 0xDD748, size: 0x8, addend: 0x0, symName: __ZNSt3__16__treeINS_12__value_typeI7QString8QVariantEENS_19__map_value_compareIS2_NS_4pairIKS2_S3_EENS_4lessIS2_EELb1EEENS_9allocatorIS8_EEE12__find_equalIS2_EERPNS_16__tree_node_baseIPvEERPNS_15__tree_end_nodeISJ_EERKT_, symObjAddr: 0x385B0, symBinAddr: 0x406E0, symSize: 0x150 }
  - { offset: 0xDD7B5, size: 0x8, addend: 0x0, symName: __ZNSt3__115__tree_iteratorINS_12__value_typeI7QString8QVariantEEPNS_11__tree_nodeIS4_PvEElEC1B9nqe210106EPNS_15__tree_end_nodeIPNS_16__tree_node_baseIS6_EEEE, symObjAddr: 0x38730, symBinAddr: 0x40860, symSize: 0x30 }
  - { offset: 0xDD7EE, size: 0x8, addend: 0x0, symName: __ZNSt3__115__tree_iteratorINS_12__value_typeI7QString8QVariantEEPNS_11__tree_nodeIS4_PvEElEC2B9nqe210106EPNS_15__tree_end_nodeIPNS_16__tree_node_baseIS6_EEEE, symObjAddr: 0x38760, symBinAddr: 0x40890, symSize: 0x20 }
  - { offset: 0xDD827, size: 0x8, addend: 0x0, symName: __ZNSt3__121__tree_const_iteratorINS_12__value_typeI7QString8QVariantEEPNS_11__tree_nodeIS4_PvEElEC2B9nqe210106ENS_15__tree_iteratorIS4_S8_lEE, symObjAddr: 0x38780, symBinAddr: 0x408B0, symSize: 0x20 }
  - { offset: 0xDD860, size: 0x8, addend: 0x0, symName: __ZNKSt3__116__tree_node_baseIPvE15__parent_unsafeB9nqe210106Ev, symObjAddr: 0x38880, symBinAddr: 0x409B0, symSize: 0x20 }
  - { offset: 0xDD886, size: 0x8, addend: 0x0, symName: __ZNKSt3__16__treeINS_12__value_typeI7QString8QVariantEENS_19__map_value_compareIS2_NS_4pairIKS2_S3_EENS_4lessIS2_EELb1EEENS_9allocatorIS8_EEE6__rootB9nqe210106Ev, symObjAddr: 0x388A0, symBinAddr: 0x409D0, symSize: 0x20 }
  - { offset: 0xDD8AC, size: 0x8, addend: 0x0, symName: __ZNKSt3__16__treeINS_12__value_typeI7QString8QVariantEENS_19__map_value_compareIS2_NS_4pairIKS2_S3_EENS_4lessIS2_EELb1EEENS_9allocatorIS8_EEE10__root_ptrB9nqe210106Ev, symObjAddr: 0x388C0, symBinAddr: 0x409F0, symSize: 0x20 }
  - { offset: 0xDD8D2, size: 0x8, addend: 0x0, symName: __ZNSt3__121__tree_const_iteratorINS_12__value_typeI7QString8QVariantEEPNS_11__tree_nodeIS4_PvEElEppB9nqe210106Ev, symObjAddr: 0x38990, symBinAddr: 0x40AC0, symSize: 0x30 }
  - { offset: 0xDD8F8, size: 0x8, addend: 0x0, symName: __ZNSt3__16__treeINS_12__value_typeI7QString8QVariantEENS_19__map_value_compareIS2_NS_4pairIKS2_S3_EENS_4lessIS2_EELb1EEENS_9allocatorIS8_EEE12__node_allocB9nqe210106Ev, symObjAddr: 0x38A60, symBinAddr: 0x40B90, symSize: 0x20 }
  - { offset: 0xDD91E, size: 0x8, addend: 0x0, symName: __ZNSt3__116allocator_traitsINS_9allocatorINS_11__tree_nodeINS_12__value_typeI7QString8QVariantEEPvEEEEE8allocateB9nqe210106ERS9_m, symObjAddr: 0x38A80, symBinAddr: 0x40BB0, symSize: 0x30 }
  - { offset: 0xDD951, size: 0x8, addend: 0x0, symName: __ZNSt3__122__tree_node_destructorINS_9allocatorINS_11__tree_nodeINS_12__value_typeI7QString8QVariantEEPvEEEEEC1B9nqe210106ERS9_b, symObjAddr: 0x38AB0, symBinAddr: 0x40BE0, symSize: 0x40 }
  - { offset: 0xDD99E, size: 0x8, addend: 0x0, symName: __ZNSt3__110unique_ptrINS_11__tree_nodeINS_12__value_typeI7QString8QVariantEEPvEENS_22__tree_node_destructorINS_9allocatorIS7_EEEEEC1B9nqe210106ILb1EvEEPS7_NS_16__dependent_typeINS_27__unique_ptr_deleter_sfinaeISB_EEXT_EE20__good_rval_ref_typeE, symObjAddr: 0x38AF0, symBinAddr: 0x40C20, symSize: 0x30 }
  - { offset: 0xDD9F0, size: 0x8, addend: 0x0, symName: __ZNSt3__116allocator_traitsINS_9allocatorINS_11__tree_nodeINS_12__value_typeI7QString8QVariantEEPvEEEEE9constructB9nqe210106INS_4pairIKS4_S5_EEJRKSE_ELi0EEEvRS9_PT_DpOT0_, symObjAddr: 0x38B20, symBinAddr: 0x40C50, symSize: 0x30 }
  - { offset: 0xDDA4C, size: 0x8, addend: 0x0, symName: __ZNKSt3__110unique_ptrINS_11__tree_nodeINS_12__value_typeI7QString8QVariantEEPvEENS_22__tree_node_destructorINS_9allocatorIS7_EEEEEptB9nqe210106Ev, symObjAddr: 0x38B50, symBinAddr: 0x40C80, symSize: 0x20 }
  - { offset: 0xDDA72, size: 0x8, addend: 0x0, symName: __ZNSt3__110unique_ptrINS_11__tree_nodeINS_12__value_typeI7QString8QVariantEEPvEENS_22__tree_node_destructorINS_9allocatorIS7_EEEEE11get_deleterB9nqe210106Ev, symObjAddr: 0x38B70, symBinAddr: 0x40CA0, symSize: 0x20 }
  - { offset: 0xDDA98, size: 0x8, addend: 0x0, symName: __ZNSt3__19allocatorINS_11__tree_nodeINS_12__value_typeI7QString8QVariantEEPvEEE8allocateB9nqe210106Em, symObjAddr: 0x38B90, symBinAddr: 0x40CC0, symSize: 0x50 }
  - { offset: 0xDDAD6, size: 0x8, addend: 0x0, symName: __ZNSt3__116allocator_traitsINS_9allocatorINS_11__tree_nodeINS_12__value_typeI7QString8QVariantEEPvEEEEE8max_sizeB9nqe210106IS9_Li0EEEmRKS9_, symObjAddr: 0x38BE0, symBinAddr: 0x40D10, symSize: 0x20 }
  - { offset: 0xDDB09, size: 0x8, addend: 0x0, symName: __ZNKSt3__19allocatorINS_11__tree_nodeINS_12__value_typeI7QString8QVariantEEPvEEE8max_sizeB9nqe210106Ev, symObjAddr: 0x38C60, symBinAddr: 0x40D90, symSize: 0x20 }
  - { offset: 0xDDB2F, size: 0x8, addend: 0x0, symName: __ZNSt3__122__tree_node_destructorINS_9allocatorINS_11__tree_nodeINS_12__value_typeI7QString8QVariantEEPvEEEEEC2B9nqe210106ERS9_b, symObjAddr: 0x38C80, symBinAddr: 0x40DB0, symSize: 0x30 }
  - { offset: 0xDDB77, size: 0x8, addend: 0x0, symName: __ZNSt3__110unique_ptrINS_11__tree_nodeINS_12__value_typeI7QString8QVariantEEPvEENS_22__tree_node_destructorINS_9allocatorIS7_EEEEEC2B9nqe210106ILb1EvEEPS7_NS_16__dependent_typeINS_27__unique_ptr_deleter_sfinaeISB_EEXT_EE20__good_rval_ref_typeE, symObjAddr: 0x38CB0, symBinAddr: 0x40DE0, symSize: 0x50 }
  - { offset: 0xDDBCE, size: 0x8, addend: 0x0, symName: __ZNSt3__125__compressed_pair_paddingINS_22__tree_node_destructorINS_9allocatorINS_11__tree_nodeINS_12__value_typeI7QString8QVariantEEPvEEEEEELb0EEC1Ev, symObjAddr: 0x38D00, symBinAddr: 0x40E30, symSize: 0x20 }
  - { offset: 0xDDBFA, size: 0x8, addend: 0x0, symName: __ZNSt3__125__compressed_pair_paddingINS_22__tree_node_destructorINS_9allocatorINS_11__tree_nodeINS_12__value_typeI7QString8QVariantEEPvEEEEEELb0EEC2Ev, symObjAddr: 0x38D20, symBinAddr: 0x40E50, symSize: 0x40 }
  - { offset: 0xDDC26, size: 0x8, addend: 0x0, symName: __ZNSt3__19allocatorINS_11__tree_nodeINS_12__value_typeI7QString8QVariantEEPvEEE9constructB9nqe210106INS_4pairIKS3_S4_EEJRKSC_EEEvPT_DpOT0_, symObjAddr: 0x38D60, symBinAddr: 0x40E90, symSize: 0x30 }
  - { offset: 0xDDC7C, size: 0x8, addend: 0x0, symName: __ZNSt3__14pairIK7QString8QVariantEC1B9nqe210106ERKS4_, symObjAddr: 0x38D90, symBinAddr: 0x40EC0, symSize: 0x30 }
  - { offset: 0xDDCB0, size: 0x8, addend: 0x0, symName: __ZNSt3__14pairIK7QString8QVariantEC2B9nqe210106ERKS4_, symObjAddr: 0x38DC0, symBinAddr: 0x40EF0, symSize: 0x60 }
  - { offset: 0xDDCE4, size: 0x8, addend: 0x0, symName: __ZNSt3__16__treeINS_12__value_typeI7QString8QVariantEENS_19__map_value_compareIS2_NS_4pairIKS2_S3_EENS_4lessIS2_EELb1EEENS_9allocatorIS8_EEE4sizeB9nqe210106Ev, symObjAddr: 0x39030, symBinAddr: 0x41160, symSize: 0x20 }
  - { offset: 0xDDD0A, size: 0x8, addend: 0x0, symName: __ZNSt3__116__tree_node_baseIPvE12__set_parentB9nqe210106EPS2_, symObjAddr: 0x391C0, symBinAddr: 0x412F0, symSize: 0x20 }
  - { offset: 0xDDD3F, size: 0x8, addend: 0x0, symName: __ZNSt3__110unique_ptrINS_11__tree_nodeINS_12__value_typeI7QString8QVariantEEPvEENS_22__tree_node_destructorINS_9allocatorIS7_EEEEED2B9nqe210106Ev, symObjAddr: 0x391E0, symBinAddr: 0x41310, symSize: 0x20 }
  - { offset: 0xDDD69, size: 0x8, addend: 0x0, symName: __ZNSt3__110unique_ptrINS_11__tree_nodeINS_12__value_typeI7QString8QVariantEEPvEENS_22__tree_node_destructorINS_9allocatorIS7_EEEEE5resetB9nqe210106EPS7_, symObjAddr: 0x39200, symBinAddr: 0x41330, symSize: 0x50 }
  - { offset: 0xDDDAE, size: 0x8, addend: 0x0, symName: __ZNSt3__122__tree_node_destructorINS_9allocatorINS_11__tree_nodeINS_12__value_typeI7QString8QVariantEEPvEEEEEclB9nqe210106EPS8_, symObjAddr: 0x39250, symBinAddr: 0x41380, symSize: 0x60 }
  - { offset: 0xDDDE3, size: 0x8, addend: 0x0, symName: __ZNSt3__116allocator_traitsINS_9allocatorINS_11__tree_nodeINS_12__value_typeI7QString8QVariantEEPvEEEEE7destroyB9nqe210106INS_4pairIKS4_S5_EELi0EEEvRS9_PT_, symObjAddr: 0x392B0, symBinAddr: 0x413E0, symSize: 0x20 }
  - { offset: 0xDDE22, size: 0x8, addend: 0x0, symName: __ZNSt3__116allocator_traitsINS_9allocatorINS_11__tree_nodeINS_12__value_typeI7QString8QVariantEEPvEEEEE10deallocateB9nqe210106ERS9_PS8_m, symObjAddr: 0x392D0, symBinAddr: 0x41400, symSize: 0x30 }
  - { offset: 0xDDE64, size: 0x8, addend: 0x0, symName: __ZNSt3__14pairIK7QString8QVariantED1Ev, symObjAddr: 0x39320, symBinAddr: 0x41450, symSize: 0x20 }
  - { offset: 0xDDE90, size: 0x8, addend: 0x0, symName: __ZNSt3__14pairIK7QString8QVariantED2Ev, symObjAddr: 0x39340, symBinAddr: 0x41470, symSize: 0x30 }
  - { offset: 0xDDEBC, size: 0x8, addend: 0x0, symName: __ZNSt3__19allocatorINS_11__tree_nodeINS_12__value_typeI7QString8QVariantEEPvEEE10deallocateB9nqe210106EPS7_m, symObjAddr: 0x39370, symBinAddr: 0x414A0, symSize: 0x30 }
  - { offset: 0xDDEFE, size: 0x8, addend: 0x0, symName: __ZNSt3__115__tree_iteratorINS_12__value_typeI7QString8QVariantEEPNS_11__tree_nodeIS4_PvEElEC2B9nqe210106ES8_, symObjAddr: 0x393F0, symBinAddr: 0x41520, symSize: 0x20 }
  - { offset: 0xDDF37, size: 0x8, addend: 0x0, symName: __ZNSt3__14pairINS_15__tree_iteratorINS_12__value_typeI7QString8QVariantEEPNS_11__tree_nodeIS5_PvEElEEbEC2B9nqe210106ISA_RbLi0EEEOT_OT0_, symObjAddr: 0x39410, symBinAddr: 0x41540, symSize: 0x30 }
  - { offset: 0xDDF95, size: 0x8, addend: 0x0, symName: __ZNSt3__114__map_iteratorINS_15__tree_iteratorINS_12__value_typeI7QString8QVariantEEPNS_11__tree_nodeIS5_PvEElEEEC2B9nqe210106ESA_, symObjAddr: 0x39440, symBinAddr: 0x41570, symSize: 0x20 }
  - { offset: 0xDDFCE, size: 0x8, addend: 0x0, symName: __ZN11QScopeGuardIZN4QMapI7QString8QVariantE4takeERKS1_EUlvE_ED2Ev, symObjAddr: 0x39460, symBinAddr: 0x41590, symSize: 0x40 }
  - { offset: 0xDDFFD, size: 0x8, addend: 0x0, symName: __ZZN4QMapI7QString8QVariantE4takeERKS0_ENKUlvE_clEv, symObjAddr: 0x394A0, symBinAddr: 0x415D0, symSize: 0x40 }
  - { offset: 0xDE027, size: 0x8, addend: 0x0, symName: __ZN4QMapI7QString8QVariantEC1EONSt3__13mapIS0_S1_NS3_4lessIS0_EENS3_9allocatorINS3_4pairIKS0_S1_EEEEEE, symObjAddr: 0x394E0, symBinAddr: 0x41610, symSize: 0x30 }
  - { offset: 0xDE060, size: 0x8, addend: 0x0, symName: __ZN4QMapI7QString8QVariantE4swapERS2_, symObjAddr: 0x39510, symBinAddr: 0x41640, symSize: 0x30 }
  - { offset: 0xDE095, size: 0x8, addend: 0x0, symName: __ZN4QMapI7QString8QVariantEC2EONSt3__13mapIS0_S1_NS3_4lessIS0_EENS3_9allocatorINS3_4pairIKS0_S1_EEEEEE, symObjAddr: 0x39540, symBinAddr: 0x41670, symSize: 0xA0 }
  - { offset: 0xDE0CE, size: 0x8, addend: 0x0, symName: __ZNKSt3__13mapI7QString8QVariantNS_4lessIS1_EENS_9allocatorINS_4pairIKS1_S2_EEEEE5emptyB9nqe210106Ev, symObjAddr: 0x395E0, symBinAddr: 0x41710, symSize: 0x30 }
  - { offset: 0xDE0F4, size: 0x8, addend: 0x0, symName: __ZN8QMapDataINSt3__13mapI7QString8QVariantNS0_4lessIS2_EENS0_9allocatorINS0_4pairIKS2_S3_EEEEEEEC1EOSB_, symObjAddr: 0x39610, symBinAddr: 0x41740, symSize: 0x30 }
  - { offset: 0xDE12C, size: 0x8, addend: 0x0, symName: __ZN9QtPrivate30QExplicitlySharedDataPointerV2I8QMapDataINSt3__13mapI7QString8QVariantNS2_4lessIS4_EENS2_9allocatorINS2_4pairIKS4_S5_EEEEEEEEC1EPSE_, symObjAddr: 0x39640, symBinAddr: 0x41770, symSize: 0x30 }
  - { offset: 0xDE164, size: 0x8, addend: 0x0, symName: __ZNKSt3__16__treeINS_12__value_typeI7QString8QVariantEENS_19__map_value_compareIS2_NS_4pairIKS2_S3_EENS_4lessIS2_EELb1EEENS_9allocatorIS8_EEE4sizeB9nqe210106Ev, symObjAddr: 0x39670, symBinAddr: 0x417A0, symSize: 0x20 }
  - { offset: 0xDE18A, size: 0x8, addend: 0x0, symName: __ZN8QMapDataINSt3__13mapI7QString8QVariantNS0_4lessIS2_EENS0_9allocatorINS0_4pairIKS2_S3_EEEEEEEC2EOSB_, symObjAddr: 0x39690, symBinAddr: 0x417C0, symSize: 0x40 }
  - { offset: 0xDE1C2, size: 0x8, addend: 0x0, symName: __ZN11QSharedDataC2Ev, symObjAddr: 0x396D0, symBinAddr: 0x41800, symSize: 0x20 }
  - { offset: 0xDE1EC, size: 0x8, addend: 0x0, symName: __ZNSt3__13mapI7QString8QVariantNS_4lessIS1_EENS_9allocatorINS_4pairIKS1_S2_EEEEEC1B9nqe210106EOSA_, symObjAddr: 0x396F0, symBinAddr: 0x41820, symSize: 0x30 }
  - { offset: 0xDE225, size: 0x8, addend: 0x0, symName: __ZN10QAtomicIntC1Ei, symObjAddr: 0x39720, symBinAddr: 0x41850, symSize: 0x30 }
  - { offset: 0xDE25D, size: 0x8, addend: 0x0, symName: __ZN10QAtomicIntC2Ei, symObjAddr: 0x39750, symBinAddr: 0x41880, symSize: 0x30 }
  - { offset: 0xDE295, size: 0x8, addend: 0x0, symName: __ZN14QAtomicIntegerIiEC2Ei, symObjAddr: 0x39780, symBinAddr: 0x418B0, symSize: 0x30 }
  - { offset: 0xDE2CD, size: 0x8, addend: 0x0, symName: __ZNSt3__13mapI7QString8QVariantNS_4lessIS1_EENS_9allocatorINS_4pairIKS1_S2_EEEEEC2B9nqe210106EOSA_, symObjAddr: 0x397B0, symBinAddr: 0x418E0, symSize: 0x30 }
  - { offset: 0xDE306, size: 0x8, addend: 0x0, symName: __ZNSt3__16__treeINS_12__value_typeI7QString8QVariantEENS_19__map_value_compareIS2_NS_4pairIKS2_S3_EENS_4lessIS2_EELb1EEENS_9allocatorIS8_EEEC1EOSE_, symObjAddr: 0x397E0, symBinAddr: 0x41910, symSize: 0x30 }
  - { offset: 0xDE341, size: 0x8, addend: 0x0, symName: __ZNSt3__16__treeINS_12__value_typeI7QString8QVariantEENS_19__map_value_compareIS2_NS_4pairIKS2_S3_EENS_4lessIS2_EELb1EEENS_9allocatorIS8_EEEC2EOSE_, symObjAddr: 0x39810, symBinAddr: 0x41940, symSize: 0xD0 }
  - { offset: 0xDE37C, size: 0x8, addend: 0x0, symName: __ZN9QtPrivate30QExplicitlySharedDataPointerV2I8QMapDataINSt3__13mapI7QString8QVariantNS2_4lessIS4_EENS2_9allocatorINS2_4pairIKS4_S5_EEEEEEEEC2EPSE_, symObjAddr: 0x398E0, symBinAddr: 0x41A10, symSize: 0x50 }
  - { offset: 0xDE3B4, size: 0x8, addend: 0x0, symName: __ZN2Qt23totally_ordered_wrapperIP8QMapDataINSt3__13mapI7QString8QVariantNS2_4lessIS4_EENS2_9allocatorINS2_4pairIKS4_S5_EEEEEEEEC1ESF_, symObjAddr: 0x39930, symBinAddr: 0x41A60, symSize: 0x30 }
  - { offset: 0xDE3ED, size: 0x8, addend: 0x0, symName: __ZN2Qt23totally_ordered_wrapperIP8QMapDataINSt3__13mapI7QString8QVariantNS2_4lessIS4_EENS2_9allocatorINS2_4pairIKS4_S5_EEEEEEEEC2ESF_, symObjAddr: 0x39960, symBinAddr: 0x41A90, symSize: 0x20 }
  - { offset: 0xDE426, size: 0x8, addend: 0x0, symName: __ZN9QtPrivate30QExplicitlySharedDataPointerV2I8QMapDataINSt3__13mapI7QString8QVariantNS2_4lessIS4_EENS2_9allocatorINS2_4pairIKS4_S5_EEEEEEEE4swapERSF_, symObjAddr: 0x39980, symBinAddr: 0x41AB0, symSize: 0x30 }
  - { offset: 0xDE459, size: 0x8, addend: 0x0, symName: __Z11qt_ptr_swapI8QMapDataINSt3__13mapI7QString8QVariantNS1_4lessIS3_EENS1_9allocatorINS1_4pairIKS3_S4_EEEEEEEEvRPT_SG_, symObjAddr: 0x399E0, symBinAddr: 0x41B10, symSize: 0x40 }
  - { offset: 0xDE4A7, size: 0x8, addend: 0x0, symName: __ZNSt3__13mapI7QString8QVariantNS_4lessIS1_EENS_9allocatorINS_4pairIKS1_S2_EEEEED2B9nqe210106Ev, symObjAddr: 0x39A20, symBinAddr: 0x41B50, symSize: 0x20 }
  - { offset: 0xDE4D1, size: 0x8, addend: 0x0, symName: __ZNSt3__16__treeINS_12__value_typeI7QString8QVariantEENS_19__map_value_compareIS2_NS_4pairIKS2_S3_EENS_4lessIS2_EELb1EEENS_9allocatorIS8_EEED1Ev, symObjAddr: 0x39A40, symBinAddr: 0x41B70, symSize: 0x20 }
  - { offset: 0xDE4FD, size: 0x8, addend: 0x0, symName: __ZNSt3__16__treeINS_12__value_typeI7QString8QVariantEENS_19__map_value_compareIS2_NS_4pairIKS2_S3_EENS_4lessIS2_EELb1EEENS_9allocatorIS8_EEED2Ev, symObjAddr: 0x39A60, symBinAddr: 0x41B90, symSize: 0x30 }
  - { offset: 0xDE529, size: 0x8, addend: 0x0, symName: __ZNSt3__16__treeINS_12__value_typeI7QString8QVariantEENS_19__map_value_compareIS2_NS_4pairIKS2_S3_EENS_4lessIS2_EELb1EEENS_9allocatorIS8_EEE7destroyEPNS_11__tree_nodeIS4_PvEE, symObjAddr: 0x39A90, symBinAddr: 0x41BC0, symSize: 0x80 }
  - { offset: 0xDE581, size: 0x8, addend: 0x0, symName: __ZNSt3__16__treeINS_12__value_typeI7QString8QVariantEENS_19__map_value_compareIS2_NS_4pairIKS2_S3_EENS_4lessIS2_EELb1EEENS_9allocatorIS8_EEE21__node_handle_extractB9nqe210106INS_19__basic_node_handleINS_11__tree_nodeIS4_PvEESD_NS_27__map_node_handle_specificsEEEEET_RS7_, symObjAddr: 0x39B10, symBinAddr: 0x41C40, symSize: 0xA0 }
  - { offset: 0xDE5CF, size: 0x8, addend: 0x0, symName: __ZNSt3__16__treeINS_12__value_typeI7QString8QVariantEENS_19__map_value_compareIS2_NS_4pairIKS2_S3_EENS_4lessIS2_EELb1EEENS_9allocatorIS8_EEE4findIS2_EENS_15__tree_iteratorIS4_PNS_11__tree_nodeIS4_PvEElEERKT_, symObjAddr: 0x39BB0, symBinAddr: 0x41CE0, symSize: 0xD0 }
  - { offset: 0xDE61D, size: 0x8, addend: 0x0, symName: __ZNSt3__119__basic_node_handleINS_11__tree_nodeINS_12__value_typeI7QString8QVariantEEPvEENS_9allocatorINS_4pairIKS3_S4_EEEENS_27__map_node_handle_specificsEEC1B9nqe210106Ev, symObjAddr: 0x39CB0, symBinAddr: 0x41DE0, symSize: 0x20 }
  - { offset: 0xDE647, size: 0x8, addend: 0x0, symName: __ZNSt3__16__treeINS_12__value_typeI7QString8QVariantEENS_19__map_value_compareIS2_NS_4pairIKS2_S3_EENS_4lessIS2_EELb1EEENS_9allocatorIS8_EEE21__node_handle_extractB9nqe210106INS_19__basic_node_handleINS_11__tree_nodeIS4_PvEESD_NS_27__map_node_handle_specificsEEEEET_NS_21__tree_const_iteratorIS4_PSJ_lEE, symObjAddr: 0x39CD0, symBinAddr: 0x41E00, symSize: 0x80 }
  - { offset: 0xDE695, size: 0x8, addend: 0x0, symName: __ZNSt3__16__treeINS_12__value_typeI7QString8QVariantEENS_19__map_value_compareIS2_NS_4pairIKS2_S3_EENS_4lessIS2_EELb1EEENS_9allocatorIS8_EEE13__lower_boundIS2_EENS_15__tree_iteratorIS4_PNS_11__tree_nodeIS4_PvEElEERKT_SK_PNS_15__tree_end_nodeIPNS_16__tree_node_baseISI_EEEE, symObjAddr: 0x39D50, symBinAddr: 0x41E80, symSize: 0x90 }
  - { offset: 0xDE6F1, size: 0x8, addend: 0x0, symName: __ZNKSt3__115__tree_iteratorINS_12__value_typeI7QString8QVariantEEPNS_11__tree_nodeIS4_PvEElEdeB9nqe210106Ev, symObjAddr: 0x39E10, symBinAddr: 0x41F40, symSize: 0x20 }
  - { offset: 0xDE717, size: 0x8, addend: 0x0, symName: __ZNKSt3__115__tree_iteratorINS_12__value_typeI7QString8QVariantEEPNS_11__tree_nodeIS4_PvEElE8__get_npB9nqe210106Ev, symObjAddr: 0x39E30, symBinAddr: 0x41F60, symSize: 0x20 }
  - { offset: 0xDE73D, size: 0x8, addend: 0x0, symName: __ZNSt3__119__basic_node_handleINS_11__tree_nodeINS_12__value_typeI7QString8QVariantEEPvEENS_9allocatorINS_4pairIKS3_S4_EEEENS_27__map_node_handle_specificsEEC2B9nqe210106Ev, symObjAddr: 0x39E50, symBinAddr: 0x41F80, symSize: 0x30 }
  - { offset: 0xDE767, size: 0x8, addend: 0x0, symName: __ZNSt3__18optionalINS_9allocatorINS_4pairIK7QString8QVariantEEEEEC1B9nqe210106Ev, symObjAddr: 0x39E80, symBinAddr: 0x41FB0, symSize: 0x20 }
  - { offset: 0xDE791, size: 0x8, addend: 0x0, symName: __ZNSt3__18optionalINS_9allocatorINS_4pairIK7QString8QVariantEEEEEC2B9nqe210106Ev, symObjAddr: 0x39EA0, symBinAddr: 0x41FD0, symSize: 0x20 }
  - { offset: 0xDE7C0, size: 0x8, addend: 0x0, symName: __ZNSt3__127__optional_move_assign_baseINS_9allocatorINS_4pairIK7QString8QVariantEEEELb1EEC2Ev, symObjAddr: 0x39EC0, symBinAddr: 0x41FF0, symSize: 0x20 }
  - { offset: 0xDE7F2, size: 0x8, addend: 0x0, symName: __ZNSt3__127__optional_copy_assign_baseINS_9allocatorINS_4pairIK7QString8QVariantEEEELb1EEC2Ev, symObjAddr: 0x39EE0, symBinAddr: 0x42010, symSize: 0x20 }
  - { offset: 0xDE824, size: 0x8, addend: 0x0, symName: __ZNSt3__120__optional_move_baseINS_9allocatorINS_4pairIK7QString8QVariantEEEELb1EEC2Ev, symObjAddr: 0x39F00, symBinAddr: 0x42030, symSize: 0x20 }
  - { offset: 0xDE856, size: 0x8, addend: 0x0, symName: __ZNSt3__120__optional_copy_baseINS_9allocatorINS_4pairIK7QString8QVariantEEEELb1EEC2Ev, symObjAddr: 0x39F20, symBinAddr: 0x42050, symSize: 0x20 }
  - { offset: 0xDE883, size: 0x8, addend: 0x0, symName: __ZNSt3__123__optional_storage_baseINS_9allocatorINS_4pairIK7QString8QVariantEEEELb0EEC2Ev, symObjAddr: 0x39F40, symBinAddr: 0x42070, symSize: 0x20 }
  - { offset: 0xDE8B0, size: 0x8, addend: 0x0, symName: __ZNSt3__124__optional_destruct_baseINS_9allocatorINS_4pairIK7QString8QVariantEEEELb1EEC2B9nqe210106Ev, symObjAddr: 0x39F60, symBinAddr: 0x42090, symSize: 0x20 }
  - { offset: 0xDE8DA, size: 0x8, addend: 0x0, symName: __ZNSt3__16__treeINS_12__value_typeI7QString8QVariantEENS_19__map_value_compareIS2_NS_4pairIKS2_S3_EENS_4lessIS2_EELb1EEENS_9allocatorIS8_EEE21__remove_node_pointerEPNS_11__tree_nodeIS4_PvEE, symObjAddr: 0x39F80, symBinAddr: 0x420B0, symSize: 0xA0 }
  - { offset: 0xDE921, size: 0x8, addend: 0x0, symName: __ZNKSt3__16__treeINS_12__value_typeI7QString8QVariantEENS_19__map_value_compareIS2_NS_4pairIKS2_S3_EENS_4lessIS2_EELb1EEENS_9allocatorIS8_EEE7__allocB9nqe210106Ev, symObjAddr: 0x3A020, symBinAddr: 0x42150, symSize: 0x30 }
  - { offset: 0xDE947, size: 0x8, addend: 0x0, symName: __ZNSt3__119__basic_node_handleINS_11__tree_nodeINS_12__value_typeI7QString8QVariantEEPvEENS_9allocatorINS_4pairIKS3_S4_EEEENS_27__map_node_handle_specificsEEC1B9nqe210106EPS7_RKSC_, symObjAddr: 0x3A050, symBinAddr: 0x42180, symSize: 0x30 }
  - { offset: 0xDE98D, size: 0x8, addend: 0x0, symName: __ZNSt3__115__tree_iteratorINS_12__value_typeI7QString8QVariantEEPNS_11__tree_nodeIS4_PvEElEppB9nqe210106Ev, symObjAddr: 0x3A080, symBinAddr: 0x421B0, symSize: 0x30 }
  - { offset: 0xDE9B3, size: 0x8, addend: 0x0, symName: __ZNKSt3__16__treeINS_12__value_typeI7QString8QVariantEENS_19__map_value_compareIS2_NS_4pairIKS2_S3_EENS_4lessIS2_EELb1EEENS_9allocatorIS8_EEE12__node_allocB9nqe210106Ev, symObjAddr: 0x3A650, symBinAddr: 0x42780, symSize: 0x20 }
  - { offset: 0xDE9DE, size: 0x8, addend: 0x0, symName: __ZNSt3__19allocatorINS_4pairIK7QString8QVariantEEEC1B9nqe210106INS_11__tree_nodeINS_12__value_typeIS2_S4_EEPvEEEERKNS0_IT_EE, symObjAddr: 0x3A670, symBinAddr: 0x427A0, symSize: 0x30 }
  - { offset: 0xDEA1B, size: 0x8, addend: 0x0, symName: __ZNSt3__19allocatorINS_4pairIK7QString8QVariantEEEC2B9nqe210106INS_11__tree_nodeINS_12__value_typeIS2_S4_EEPvEEEERKNS0_IT_EE, symObjAddr: 0x3A6A0, symBinAddr: 0x427D0, symSize: 0x20 }
  - { offset: 0xDEA58, size: 0x8, addend: 0x0, symName: __ZNSt3__116__non_trivial_ifILb1ENS_9allocatorINS_4pairIK7QString8QVariantEEEEEC2B9nqe210106Ev, symObjAddr: 0x3A6C0, symBinAddr: 0x427F0, symSize: 0x10 }
  - { offset: 0xDEA82, size: 0x8, addend: 0x0, symName: __ZNSt3__119__basic_node_handleINS_11__tree_nodeINS_12__value_typeI7QString8QVariantEEPvEENS_9allocatorINS_4pairIKS3_S4_EEEENS_27__map_node_handle_specificsEEC2B9nqe210106EPS7_RKSC_, symObjAddr: 0x3A6D0, symBinAddr: 0x42800, symSize: 0x40 }
  - { offset: 0xDEACD, size: 0x8, addend: 0x0, symName: __ZNSt3__18optionalINS_9allocatorINS_4pairIK7QString8QVariantEEEEEC1B9nqe210106IRKS7_Li0EEEOT_, symObjAddr: 0x3A710, symBinAddr: 0x42840, symSize: 0x30 }
  - { offset: 0xDEB15, size: 0x8, addend: 0x0, symName: __ZNSt3__18optionalINS_9allocatorINS_4pairIK7QString8QVariantEEEEEC2B9nqe210106IRKS7_Li0EEEOT_, symObjAddr: 0x3A740, symBinAddr: 0x42870, symSize: 0x30 }
  - { offset: 0xDEB5D, size: 0x8, addend: 0x0, symName: __ZNSt3__127__optional_move_assign_baseINS_9allocatorINS_4pairIK7QString8QVariantEEEELb1EECI2NS_24__optional_destruct_baseIS7_Lb1EEEIJRKS7_EEENS_10in_place_tEDpOT_, symObjAddr: 0x3A770, symBinAddr: 0x428A0, symSize: 0x30 }
  - { offset: 0xDEB9C, size: 0x8, addend: 0x0, symName: __ZNSt3__127__optional_copy_assign_baseINS_9allocatorINS_4pairIK7QString8QVariantEEEELb1EECI2NS_24__optional_destruct_baseIS7_Lb1EEEIJRKS7_EEENS_10in_place_tEDpOT_, symObjAddr: 0x3A7A0, symBinAddr: 0x428D0, symSize: 0x30 }
  - { offset: 0xDEBDB, size: 0x8, addend: 0x0, symName: __ZNSt3__120__optional_move_baseINS_9allocatorINS_4pairIK7QString8QVariantEEEELb1EECI2NS_24__optional_destruct_baseIS7_Lb1EEEIJRKS7_EEENS_10in_place_tEDpOT_, symObjAddr: 0x3A7D0, symBinAddr: 0x42900, symSize: 0x30 }
  - { offset: 0xDEC1A, size: 0x8, addend: 0x0, symName: __ZNSt3__120__optional_copy_baseINS_9allocatorINS_4pairIK7QString8QVariantEEEELb1EECI2NS_24__optional_destruct_baseIS7_Lb1EEEIJRKS7_EEENS_10in_place_tEDpOT_, symObjAddr: 0x3A800, symBinAddr: 0x42930, symSize: 0x30 }
  - { offset: 0xDEC59, size: 0x8, addend: 0x0, symName: __ZNSt3__123__optional_storage_baseINS_9allocatorINS_4pairIK7QString8QVariantEEEELb0EECI2NS_24__optional_destruct_baseIS7_Lb1EEEIJRKS7_EEENS_10in_place_tEDpOT_, symObjAddr: 0x3A830, symBinAddr: 0x42960, symSize: 0x30 }
  - { offset: 0xDEC98, size: 0x8, addend: 0x0, symName: __ZNSt3__124__optional_destruct_baseINS_9allocatorINS_4pairIK7QString8QVariantEEEELb1EEC2B9nqe210106IJRKS7_EEENS_10in_place_tEDpOT_, symObjAddr: 0x3A860, symBinAddr: 0x42990, symSize: 0x20 }
  - { offset: 0xDECE8, size: 0x8, addend: 0x0, symName: __ZNSt3__111__tree_nodeINS_12__value_typeI7QString8QVariantEEPvE11__get_valueB9nqe210106Ev, symObjAddr: 0x3A880, symBinAddr: 0x429B0, symSize: 0x20 }
  - { offset: 0xDED0E, size: 0x8, addend: 0x0, symName: __ZN8QVariantC2EOS_, symObjAddr: 0x3A8A0, symBinAddr: 0x429D0, symSize: 0x90 }
  - { offset: 0xDED47, size: 0x8, addend: 0x0, symName: __ZNSt3__119__basic_node_handleINS_11__tree_nodeINS_12__value_typeI7QString8QVariantEEPvEENS_9allocatorINS_4pairIKS3_S4_EEEENS_27__map_node_handle_specificsEED2B9nqe210106Ev, symObjAddr: 0x3A930, symBinAddr: 0x42A60, symSize: 0x30 }
  - { offset: 0xDED71, size: 0x8, addend: 0x0, symName: __ZNSt3__119__basic_node_handleINS_11__tree_nodeINS_12__value_typeI7QString8QVariantEEPvEENS_9allocatorINS_4pairIKS3_S4_EEEENS_27__map_node_handle_specificsEE22__destroy_node_pointerB9nqe210106Ev, symObjAddr: 0x3A960, symBinAddr: 0x42A90, symSize: 0x70 }
  - { offset: 0xDEDBF, size: 0x8, addend: 0x0, symName: __ZNRSt3__18optionalINS_9allocatorINS_4pairIK7QString8QVariantEEEEEdeB9nqe210106Ev, symObjAddr: 0x3A9D0, symBinAddr: 0x42B00, symSize: 0x20 }
  - { offset: 0xDEDE5, size: 0x8, addend: 0x0, symName: __ZNSt3__19allocatorINS_11__tree_nodeINS_12__value_typeI7QString8QVariantEEPvEEEC1B9nqe210106INS_4pairIKS3_S4_EEEERKNS0_IT_EE, symObjAddr: 0x3A9F0, symBinAddr: 0x42B20, symSize: 0x30 }
  - { offset: 0xDEE27, size: 0x8, addend: 0x0, symName: __ZNSt3__135__generic_container_node_destructorINS_11__tree_nodeINS_12__value_typeI7QString8QVariantEEPvEENS_9allocatorIS7_EEECI1NS_22__tree_node_destructorIS9_EEERS9_b, symObjAddr: 0x3AA20, symBinAddr: 0x42B50, symSize: 0x40 }
  - { offset: 0xDEE66, size: 0x8, addend: 0x0, symName: __ZNRSt3__123__optional_storage_baseINS_9allocatorINS_4pairIK7QString8QVariantEEEELb0EE5__getB9nqe210106Ev, symObjAddr: 0x3AA60, symBinAddr: 0x42B90, symSize: 0x10 }
  - { offset: 0xDEE8C, size: 0x8, addend: 0x0, symName: __ZNSt3__19allocatorINS_11__tree_nodeINS_12__value_typeI7QString8QVariantEEPvEEEC2B9nqe210106INS_4pairIKS3_S4_EEEERKNS0_IT_EE, symObjAddr: 0x3AA70, symBinAddr: 0x42BA0, symSize: 0x20 }
  - { offset: 0xDEEC9, size: 0x8, addend: 0x0, symName: __ZNSt3__135__generic_container_node_destructorINS_11__tree_nodeINS_12__value_typeI7QString8QVariantEEPvEENS_9allocatorIS7_EEECI2NS_22__tree_node_destructorIS9_EEERS9_b, symObjAddr: 0x3AA90, symBinAddr: 0x42BC0, symSize: 0x40 }
  - { offset: 0xDEF07, size: 0x8, addend: 0x0, symName: __Z13qvariant_castIbET_RK8QVariant, symObjAddr: 0x3AAD0, symBinAddr: 0x42C00, symSize: 0x70 }
  - { offset: 0xDEF4E, size: 0x8, addend: 0x0, symName: __ZN9QMetaType8fromTypeIbEES_v, symObjAddr: 0x3AB40, symBinAddr: 0x42C70, symSize: 0x30 }
  - { offset: 0xDEF6C, size: 0x8, addend: 0x0, symName: __ZNK8QVariant7Private3getIbEERKT_v, symObjAddr: 0x3AB70, symBinAddr: 0x42CA0, symSize: 0x20 }
  - { offset: 0xDEF9B, size: 0x8, addend: 0x0, symName: __ZNSt3__13mapI7QString8QVariantNS_4lessIS1_EENS_9allocatorINS_4pairIKS1_S2_EEEEE5eraseB9nqe210106ERS7_, symObjAddr: 0x3AC10, symBinAddr: 0x42D40, symSize: 0x30 }
  - { offset: 0xDEFD0, size: 0x8, addend: 0x0, symName: __ZN8QMapDataINSt3__13mapI7QString8QVariantNS0_4lessIS2_EENS0_9allocatorINS0_4pairIKS2_S3_EEEEEEEC1Ev, symObjAddr: 0x3AC40, symBinAddr: 0x42D70, symSize: 0x20 }
  - { offset: 0xDEFFA, size: 0x8, addend: 0x0, symName: __ZN8QMapDataINSt3__13mapI7QString8QVariantNS0_4lessIS2_EENS0_9allocatorINS0_4pairIKS2_S3_EEEEEEE21copyIfNotEquivalentToERKSB_RS8_, symObjAddr: 0x3AC60, symBinAddr: 0x42D90, symSize: 0x1B0 }
  - { offset: 0xDF0B2, size: 0x8, addend: 0x0, symName: __ZN9QtPrivate30QExplicitlySharedDataPointerV2I8QMapDataINSt3__13mapI7QString8QVariantNS2_4lessIS4_EENS2_9allocatorINS2_4pairIKS4_S5_EEEEEEEE5resetEPSE_, symObjAddr: 0x3AE10, symBinAddr: 0x42F40, symSize: 0xA0 }
  - { offset: 0xDF0E6, size: 0x8, addend: 0x0, symName: __ZNSt3__16__treeINS_12__value_typeI7QString8QVariantEENS_19__map_value_compareIS2_NS_4pairIKS2_S3_EENS_4lessIS2_EELb1EEENS_9allocatorIS8_EEE14__erase_uniqueIS2_EEmRKT_, symObjAddr: 0x3AEB0, symBinAddr: 0x42FE0, symSize: 0x90 }
  - { offset: 0xDF134, size: 0x8, addend: 0x0, symName: __ZNSt3__16__treeINS_12__value_typeI7QString8QVariantEENS_19__map_value_compareIS2_NS_4pairIKS2_S3_EENS_4lessIS2_EELb1EEENS_9allocatorIS8_EEE5eraseENS_21__tree_const_iteratorIS4_PNS_11__tree_nodeIS4_PvEElEE, symObjAddr: 0x3AF40, symBinAddr: 0x43070, symSize: 0x80 }
  - { offset: 0xDF19B, size: 0x8, addend: 0x0, symName: __ZN8QMapDataINSt3__13mapI7QString8QVariantNS0_4lessIS2_EENS0_9allocatorINS0_4pairIKS2_S3_EEEEEEEC2Ev, symObjAddr: 0x3AFC0, symBinAddr: 0x430F0, symSize: 0x30 }
  - { offset: 0xDF1CF, size: 0x8, addend: 0x0, symName: __ZZN8QMapDataINSt3__13mapI7QString8QVariantNS0_4lessIS2_EENS0_9allocatorINS0_4pairIKS2_S3_EEEEEEE21copyIfNotEquivalentToERKSB_RS8_ENKUlT_E_clINS0_20__map_const_iteratorINS0_21__tree_const_iteratorINS0_12__value_typeIS2_S3_EEPNS0_11__tree_nodeISM_PvEElEEEEEEDaSG_, symObjAddr: 0x3AFF0, symBinAddr: 0x43120, symSize: 0x60 }
  - { offset: 0xDF210, size: 0x8, addend: 0x0, symName: __ZN8QMapDataINSt3__13mapI7QString8QVariantNS0_4lessIS2_EENS0_9allocatorINS0_4pairIKS2_S3_EEEEEEED1Ev, symObjAddr: 0x3B050, symBinAddr: 0x43180, symSize: 0x20 }
  - { offset: 0xDF23C, size: 0x8, addend: 0x0, symName: __ZN2Qt23totally_ordered_wrapperIP8QMapDataINSt3__13mapI7QString8QVariantNS2_4lessIS4_EENS2_9allocatorINS2_4pairIKS4_S5_EEEEEEEE5resetESF_, symObjAddr: 0x3B070, symBinAddr: 0x431A0, symSize: 0x20 }
  - { offset: 0xDF271, size: 0x8, addend: 0x0, symName: __ZN8QMapDataINSt3__13mapI7QString8QVariantNS0_4lessIS2_EENS0_9allocatorINS0_4pairIKS2_S3_EEEEEEED2Ev, symObjAddr: 0x3B090, symBinAddr: 0x431C0, symSize: 0x20 }
  - { offset: 0xDF29D, size: 0x8, addend: 0x0, symName: __ZN10QTransformC2Ev, symObjAddr: 0x3B0B0, symBinAddr: 0x431E0, symSize: 0x50 }
  - { offset: 0xDF2C7, size: 0x8, addend: 0x0, symName: __ZNKR8QVariant5valueI6QColorEET_v, symObjAddr: 0x3B100, symBinAddr: 0x43230, symSize: 0x40 }
  - { offset: 0xDF2F5, size: 0x8, addend: 0x0, symName: __Z13qvariant_castI6QColorET_RK8QVariant, symObjAddr: 0x3B140, symBinAddr: 0x43270, symSize: 0x90 }
  - { offset: 0xDF33C, size: 0x8, addend: 0x0, symName: __ZN9QMetaType8fromTypeI6QColorEES_v, symObjAddr: 0x3B1D0, symBinAddr: 0x43300, symSize: 0x30 }
  - { offset: 0xDF35A, size: 0x8, addend: 0x0, symName: __ZNK8QVariant7Private3getI6QColorEERKT_v, symObjAddr: 0x3B200, symBinAddr: 0x43330, symSize: 0x20 }
  - { offset: 0xDF3BC, size: 0x8, addend: 0x0, symName: __ZZN9QtPrivate16QMetaTypeForTypeI6QColorE13getDefaultCtrEvENUlPKNS_18QMetaTypeInterfaceEPvE_8__invokeES5_S6_, symObjAddr: 0x3B2A0, symBinAddr: 0x433D0, symSize: 0x30 }
  - { offset: 0xDF3EE, size: 0x8, addend: 0x0, symName: __ZN9QtPrivate24QEqualityOperatorForTypeI6QColorLb1EE6equalsEPKNS_18QMetaTypeInterfaceEPKvS7_, symObjAddr: 0x3B2D0, symBinAddr: 0x43400, symSize: 0x30 }
  - { offset: 0xDF42D, size: 0x8, addend: 0x0, symName: __ZN9QtPrivate27QDebugStreamOperatorForTypeI6QColorLb1EE11debugStreamEPKNS_18QMetaTypeInterfaceER6QDebugPKv, symObjAddr: 0x3B300, symBinAddr: 0x43430, symSize: 0x70 }
  - { offset: 0xDF46C, size: 0x8, addend: 0x0, symName: __ZN9QtPrivate26QDataStreamOperatorForTypeI6QColorLb1EE13dataStreamOutEPKNS_18QMetaTypeInterfaceER11QDataStreamPKv, symObjAddr: 0x3B370, symBinAddr: 0x434A0, symSize: 0x30 }
  - { offset: 0xDF4AB, size: 0x8, addend: 0x0, symName: __ZN9QtPrivate26QDataStreamOperatorForTypeI6QColorLb1EE12dataStreamInEPKNS_18QMetaTypeInterfaceER11QDataStreamPv, symObjAddr: 0x3B3A0, symBinAddr: 0x434D0, symSize: 0x30 }
  - { offset: 0xDF4F4, size: 0x8, addend: 0x0, symName: __ZZN9QtPrivate16QMetaTypeForTypeI6QColorE13getDefaultCtrEvENKUlPKNS_18QMetaTypeInterfaceEPvE_clES5_S6_, symObjAddr: 0x3B3D0, symBinAddr: 0x43500, symSize: 0x30 }
  - { offset: 0xDF539, size: 0x8, addend: 0x0, symName: __ZN6QColorC1Ev, symObjAddr: 0x3B400, symBinAddr: 0x43530, symSize: 0x20 }
  - { offset: 0xDF563, size: 0x8, addend: 0x0, symName: __ZN6QColorC2Ev, symObjAddr: 0x3B420, symBinAddr: 0x43550, symSize: 0x40 }
  - { offset: 0xDF58D, size: 0x8, addend: 0x0, symName: __ZN6QColor2CTC1Ettttt, symObjAddr: 0x3B460, symBinAddr: 0x43590, symSize: 0x80 }
  - { offset: 0xDF5FD, size: 0x8, addend: 0x0, symName: __ZN6QColor2CTC2Ettttt, symObjAddr: 0x3B4E0, symBinAddr: 0x43610, symSize: 0x70 }
  - { offset: 0xDF66D, size: 0x8, addend: 0x0, symName: __ZN6QDebugC1ERKS_, symObjAddr: 0x3B550, symBinAddr: 0x43680, symSize: 0x30 }
  - { offset: 0xDF6A5, size: 0x8, addend: 0x0, symName: __ZN6QDebugC2ERKS_, symObjAddr: 0x3B580, symBinAddr: 0x436B0, symSize: 0x30 }
  - { offset: 0xDF6DD, size: 0x8, addend: 0x0, symName: __ZNKR8QVariant5valueIiEET_v, symObjAddr: 0x3B5B0, symBinAddr: 0x436E0, symSize: 0x20 }
  - { offset: 0xDF70B, size: 0x8, addend: 0x0, symName: __Z13qvariant_castIiET_RK8QVariant, symObjAddr: 0x3B5D0, symBinAddr: 0x43700, symSize: 0x70 }
  - { offset: 0xDF752, size: 0x8, addend: 0x0, symName: __ZN9QMetaType8fromTypeIiEES_v, symObjAddr: 0x3B640, symBinAddr: 0x43770, symSize: 0x30 }
  - { offset: 0xDF770, size: 0x8, addend: 0x0, symName: __ZNK8QVariant7Private3getIiEERKT_v, symObjAddr: 0x3B670, symBinAddr: 0x437A0, symSize: 0x20 }
  - { offset: 0xDF79F, size: 0x8, addend: 0x0, symName: __ZN5QHashIPKN5Tiled9MapObjectE7QStringEixERKS3_, symObjAddr: 0x3B710, symBinAddr: 0x43840, symSize: 0x30 }
  - { offset: 0xDF812, size: 0x8, addend: 0x0, symName: __ZNK7QString3argIJRKS_S_EEENSt3__19enable_ifIXaagesZT_Li2Esr3stdE13conjunction_vIDpNS3_11conjunctionIJNS3_8negationIN9QtPrivate21treat_as_integral_argIu11__remove_cvIT_EEEEENS3_14is_convertibleIS9_14QAnyStringViewEEEEEEES_E4typeEDpOS9_, symObjAddr: 0x3B740, symBinAddr: 0x43870, symSize: 0x1B0 }
  - { offset: 0xDF8DA, size: 0x8, addend: 0x0, symName: __ZN5QHashIPKN5Tiled9MapObjectE7QStringE10tryEmplaceIJEEENS5_16TryEmplaceResultERKS3_DpOT_, symObjAddr: 0x3B8F0, symBinAddr: 0x43A20, symSize: 0x30 }
  - { offset: 0xDF915, size: 0x8, addend: 0x0, symName: __ZNK5QHashIPKN5Tiled9MapObjectE7QStringE8iteratordeEv, symObjAddr: 0x3B920, symBinAddr: 0x43A50, symSize: 0x20 }
  - { offset: 0xDF93B, size: 0x8, addend: 0x0, symName: __ZN5QHashIPKN5Tiled9MapObjectE7QStringE15tryEmplace_implIRKS3_JEEENS5_16TryEmplaceResultEOT_DpOT0_, symObjAddr: 0x3B940, symBinAddr: 0x43A70, symSize: 0x2C0 }
  - { offset: 0xDFA11, size: 0x8, addend: 0x0, symName: __ZN5QHashIPKN5Tiled9MapObjectE7QStringE6detachEv, symObjAddr: 0x3BC00, symBinAddr: 0x43D30, symSize: 0x50 }
  - { offset: 0xDFA37, size: 0x8, addend: 0x0, symName: __ZNK12QHashPrivate4DataINS_4NodeIPKN5Tiled9MapObjectE7QStringEEE18findBucketWithHashIS5_EENS8_6BucketERKT_m, symObjAddr: 0x3BC80, symBinAddr: 0x43DB0, symSize: 0xE0 }
  - { offset: 0xDFAC2, size: 0x8, addend: 0x0, symName: __ZNK12QHashPrivate4DataINS_4NodeIPKN5Tiled9MapObjectE7QStringEEE6Bucket8isUnusedEv, symObjAddr: 0x3BD60, symBinAddr: 0x43E90, symSize: 0x30 }
  - { offset: 0xDFAE8, size: 0x8, addend: 0x0, symName: __ZNK5QHashIPKN5Tiled9MapObjectE7QStringE10isDetachedEv, symObjAddr: 0x3BD90, symBinAddr: 0x43EC0, symSize: 0x40 }
  - { offset: 0xDFB0E, size: 0x8, addend: 0x0, symName: __ZNK12QHashPrivate4DataINS_4NodeIPKN5Tiled9MapObjectE7QStringEEE10shouldGrowEv, symObjAddr: 0x3BDD0, symBinAddr: 0x43F00, symSize: 0x30 }
  - { offset: 0xDFB34, size: 0x8, addend: 0x0, symName: __ZN5QHashIPKN5Tiled9MapObjectE7QStringEaSERKS5_, symObjAddr: 0x3BE00, symBinAddr: 0x43F30, symSize: 0xA0 }
  - { offset: 0xDFB88, size: 0x8, addend: 0x0, symName: __ZNK12QHashPrivate4DataINS_4NodeIPKN5Tiled9MapObjectE7QStringEEE6Bucket13toBucketIndexEPKS8_, symObjAddr: 0x3BEA0, symBinAddr: 0x43FD0, symSize: 0x40 }
  - { offset: 0xDFBBD, size: 0x8, addend: 0x0, symName: __ZN12QHashPrivate4DataINS_4NodeIPKN5Tiled9MapObjectE7QStringEEE8detachedEPS8_m, symObjAddr: 0x3BEE0, symBinAddr: 0x44010, symSize: 0xF0 }
  - { offset: 0xDFC00, size: 0x8, addend: 0x0, symName: __ZN12QHashPrivate4DataINS_4NodeIPKN5Tiled9MapObjectE7QStringEEE8detachedEPS8_, symObjAddr: 0x3BFD0, symBinAddr: 0x44100, symSize: 0xE0 }
  - { offset: 0xDFC34, size: 0x8, addend: 0x0, symName: __ZN12QHashPrivate4DataINS_4NodeIPKN5Tiled9MapObjectE7QStringEEE6BucketC1EPKS8_m, symObjAddr: 0x3C0B0, symBinAddr: 0x441E0, symSize: 0x30 }
  - { offset: 0xDFC7C, size: 0x8, addend: 0x0, symName: __ZNK12QHashPrivate4DataINS_4NodeIPKN5Tiled9MapObjectE7QStringEEE6Bucket6insertEv, symObjAddr: 0x3C0E0, symBinAddr: 0x44210, symSize: 0x30 }
  - { offset: 0xDFCA2, size: 0x8, addend: 0x0, symName: __ZN12QHashPrivate4NodeIPKN5Tiled9MapObjectE7QStringE13createInPlaceIJEEEvPS6_RKS4_DpOT_, symObjAddr: 0x3C110, symBinAddr: 0x44240, symSize: 0x30 }
  - { offset: 0xDFCD9, size: 0x8, addend: 0x0, symName: __ZNK12QHashPrivate4DataINS_4NodeIPKN5Tiled9MapObjectE7QStringEEE6Bucket10toIteratorEPKS8_, symObjAddr: 0x3C140, symBinAddr: 0x44270, symSize: 0x40 }
  - { offset: 0xDFD0E, size: 0x8, addend: 0x0, symName: __ZN5QHashIPKN5Tiled9MapObjectE7QStringE8iteratorC1EN12QHashPrivate8iteratorINS7_4NodeIS3_S4_EEEE, symObjAddr: 0x3C180, symBinAddr: 0x442B0, symSize: 0x30 }
  - { offset: 0xDFD47, size: 0x8, addend: 0x0, symName: __ZN5QHashIPKN5Tiled9MapObjectE7QStringE16TryEmplaceResultC1ENS5_8iteratorEb, symObjAddr: 0x3C1B0, symBinAddr: 0x442E0, symSize: 0x40 }
  - { offset: 0xDFD8F, size: 0x8, addend: 0x0, symName: __ZN5QHashIPKN5Tiled9MapObjectE7QStringED1Ev, symObjAddr: 0x3C1F0, symBinAddr: 0x44320, symSize: 0x20 }
  - { offset: 0xDFDB8, size: 0x8, addend: 0x0, symName: __Z5qHashIN5Tiled9MapObjectEEmPKT_m, symObjAddr: 0x3C210, symBinAddr: 0x44340, symSize: 0x30 }
  - { offset: 0xDFDFB, size: 0x8, addend: 0x0, symName: __Z5qHashym, symObjAddr: 0x3C240, symBinAddr: 0x44370, symSize: 0x30 }
  - { offset: 0xDFE36, size: 0x8, addend: 0x0, symName: __ZNK12QHashPrivate4DataINS_4NodeIPKN5Tiled9MapObjectE7QStringEEE6Bucket6offsetEv, symObjAddr: 0x3C2F0, symBinAddr: 0x44420, symSize: 0x30 }
  - { offset: 0xDFE5C, size: 0x8, addend: 0x0, symName: __ZN12QHashPrivate4DataINS_4NodeIPKN5Tiled9MapObjectE7QStringEEE6Bucket12nodeAtOffsetEm, symObjAddr: 0x3C320, symBinAddr: 0x44450, symSize: 0x30 }
  - { offset: 0xDFE90, size: 0x8, addend: 0x0, symName: __Z11qHashEqualsIPKN5Tiled9MapObjectEEbRKT_S6_, symObjAddr: 0x3C350, symBinAddr: 0x44480, symSize: 0x30 }
  - { offset: 0xDFED7, size: 0x8, addend: 0x0, symName: __ZN12QHashPrivate4DataINS_4NodeIPKN5Tiled9MapObjectE7QStringEEE6Bucket14advanceWrappedEPKS8_, symObjAddr: 0x3C380, symBinAddr: 0x444B0, symSize: 0x30 }
  - { offset: 0xDFF0C, size: 0x8, addend: 0x0, symName: __ZNK12QHashPrivate4SpanINS_4NodeIPKN5Tiled9MapObjectE7QStringEEE6offsetEm, symObjAddr: 0x3C3B0, symBinAddr: 0x444E0, symSize: 0x20 }
  - { offset: 0xDFF41, size: 0x8, addend: 0x0, symName: __ZN12QHashPrivate4SpanINS_4NodeIPKN5Tiled9MapObjectE7QStringEEE8atOffsetEm, symObjAddr: 0x3C3D0, symBinAddr: 0x44500, symSize: 0x80 }
  - { offset: 0xDFF76, size: 0x8, addend: 0x0, symName: __ZN12QHashPrivate4SpanINS_4NodeIPKN5Tiled9MapObjectE7QStringEEE5Entry4nodeEv, symObjAddr: 0x3C450, symBinAddr: 0x44580, symSize: 0x10 }
  - { offset: 0xDFF9C, size: 0x8, addend: 0x0, symName: __ZN12QHashPrivate4DataINS_4NodeIPKN5Tiled9MapObjectE7QStringEEE6Bucket12advance_implEPKS8_PNS_4SpanIS7_EE, symObjAddr: 0x3C460, symBinAddr: 0x44590, symSize: 0xC0 }
  - { offset: 0xDFFE0, size: 0x8, addend: 0x0, symName: __ZNK12QHashPrivate4SpanINS_4NodeIPKN5Tiled9MapObjectE7QStringEEE7hasNodeEm, symObjAddr: 0x3C520, symBinAddr: 0x44650, symSize: 0x30 }
  - { offset: 0xE0015, size: 0x8, addend: 0x0, symName: __ZN12QHashPrivate4DataINS_4NodeIPKN5Tiled9MapObjectE7QStringEEED1Ev, symObjAddr: 0x3C550, symBinAddr: 0x44680, symSize: 0x20 }
  - { offset: 0xE003F, size: 0x8, addend: 0x0, symName: __ZN12QHashPrivate4DataINS_4NodeIPKN5Tiled9MapObjectE7QStringEEED2Ev, symObjAddr: 0x3C570, symBinAddr: 0x446A0, symSize: 0x80 }
  - { offset: 0xE0069, size: 0x8, addend: 0x0, symName: __ZN12QHashPrivate4SpanINS_4NodeIPKN5Tiled9MapObjectE7QStringEEED1Ev, symObjAddr: 0x3C5F0, symBinAddr: 0x44720, symSize: 0x20 }
  - { offset: 0xE0093, size: 0x8, addend: 0x0, symName: __ZN12QHashPrivate4SpanINS_4NodeIPKN5Tiled9MapObjectE7QStringEEED2Ev, symObjAddr: 0x3C610, symBinAddr: 0x44740, symSize: 0x20 }
  - { offset: 0xE00BD, size: 0x8, addend: 0x0, symName: __ZN12QHashPrivate4SpanINS_4NodeIPKN5Tiled9MapObjectE7QStringEEE8freeDataEv, symObjAddr: 0x3C630, symBinAddr: 0x44760, symSize: 0xD0 }
  - { offset: 0xE0138, size: 0x8, addend: 0x0, symName: __ZN12QHashPrivate4NodeIPKN5Tiled9MapObjectE7QStringED1Ev, symObjAddr: 0x3C700, symBinAddr: 0x44830, symSize: 0x20 }
  - { offset: 0xE0164, size: 0x8, addend: 0x0, symName: __ZN12QHashPrivate4NodeIPKN5Tiled9MapObjectE7QStringED2Ev, symObjAddr: 0x3C720, symBinAddr: 0x44850, symSize: 0x20 }
  - { offset: 0xE0190, size: 0x8, addend: 0x0, symName: __ZN12QHashPrivate4DataINS_4NodeIPKN5Tiled9MapObjectE7QStringEEEC1Em, symObjAddr: 0x3C740, symBinAddr: 0x44870, symSize: 0x30 }
  - { offset: 0xE01C9, size: 0x8, addend: 0x0, symName: __ZN12QHashPrivate4DataINS_4NodeIPKN5Tiled9MapObjectE7QStringEEEC1ERKS8_m, symObjAddr: 0x3C770, symBinAddr: 0x448A0, symSize: 0x30 }
  - { offset: 0xE0211, size: 0x8, addend: 0x0, symName: __ZN12QHashPrivate4DataINS_4NodeIPKN5Tiled9MapObjectE7QStringEEEC2Em, symObjAddr: 0x3C7A0, symBinAddr: 0x448D0, symSize: 0xA0 }
  - { offset: 0xE024A, size: 0x8, addend: 0x0, symName: __ZN12QHashPrivate4DataINS_4NodeIPKN5Tiled9MapObjectE7QStringEEE13allocateSpansEm, symObjAddr: 0x3C840, symBinAddr: 0x44970, symSize: 0x100 }
  - { offset: 0xE029E, size: 0x8, addend: 0x0, symName: __ZN12QHashPrivate4SpanINS_4NodeIPKN5Tiled9MapObjectE7QStringEEEC1Ev, symObjAddr: 0x3C940, symBinAddr: 0x44A70, symSize: 0x20 }
  - { offset: 0xE02C8, size: 0x8, addend: 0x0, symName: __ZN12QHashPrivate4SpanINS_4NodeIPKN5Tiled9MapObjectE7QStringEEEC2Ev, symObjAddr: 0x3C960, symBinAddr: 0x44A90, symSize: 0x40 }
  - { offset: 0xE0388, size: 0x8, addend: 0x0, symName: __ZN12QHashPrivate4DataINS_4NodeIPKN5Tiled9MapObjectE7QStringEEEC2ERKS8_m, symObjAddr: 0x3C9A0, symBinAddr: 0x44AD0, symSize: 0x1C0 }
  - { offset: 0xE04A9, size: 0x8, addend: 0x0, symName: __ZNK12QHashPrivate4SpanINS_4NodeIPKN5Tiled9MapObjectE7QStringEEE2atEm, symObjAddr: 0x3CB60, symBinAddr: 0x44C90, symSize: 0x90 }
  - { offset: 0xE04DE, size: 0x8, addend: 0x0, symName: __ZNK12QHashPrivate4DataINS_4NodeIPKN5Tiled9MapObjectE7QStringEEE10findBucketIS5_EENS8_6BucketERKT_, symObjAddr: 0x3CBF0, symBinAddr: 0x44D20, symSize: 0x50 }
  - { offset: 0xE052C, size: 0x8, addend: 0x0, symName: __ZN12QHashPrivate4DataINS_4NodeIPKN5Tiled9MapObjectE7QStringEEE6BucketC1EPNS_4SpanIS7_EEm, symObjAddr: 0x3CC40, symBinAddr: 0x44D70, symSize: 0x30 }
  - { offset: 0xE0574, size: 0x8, addend: 0x0, symName: __ZN12QHashPrivate4NodeIPKN5Tiled9MapObjectE7QStringEC1ERKS6_, symObjAddr: 0x3CC70, symBinAddr: 0x44DA0, symSize: 0x30 }
  - { offset: 0xE05A9, size: 0x8, addend: 0x0, symName: __ZN12QHashPrivate4DataINS_4NodeIPKN5Tiled9MapObjectE7QStringEEE6BucketC2EPNS_4SpanIS7_EEm, symObjAddr: 0x3CCA0, symBinAddr: 0x44DD0, symSize: 0x30 }
  - { offset: 0xE05F1, size: 0x8, addend: 0x0, symName: __ZN12QHashPrivate4NodeIPKN5Tiled9MapObjectE7QStringEC2ERKS6_, symObjAddr: 0x3CCD0, symBinAddr: 0x44E00, symSize: 0x40 }
  - { offset: 0xE0626, size: 0x8, addend: 0x0, symName: __ZN12QHashPrivate4DataINS_4NodeIPKN5Tiled9MapObjectE7QStringEEEC1ERKS8_, symObjAddr: 0x3CD10, symBinAddr: 0x44E40, symSize: 0x30 }
  - { offset: 0xE06EB, size: 0x8, addend: 0x0, symName: __ZN12QHashPrivate4DataINS_4NodeIPKN5Tiled9MapObjectE7QStringEEEC2ERKS8_, symObjAddr: 0x3CD40, symBinAddr: 0x44E70, symSize: 0x190 }
  - { offset: 0xE07FC, size: 0x8, addend: 0x0, symName: __ZN12QHashPrivate4DataINS_4NodeIPKN5Tiled9MapObjectE7QStringEEE6BucketC2EPKS8_m, symObjAddr: 0x3CED0, symBinAddr: 0x45000, symSize: 0x40 }
  - { offset: 0xE0844, size: 0x8, addend: 0x0, symName: __ZN12QHashPrivate4SpanINS_4NodeIPKN5Tiled9MapObjectE7QStringEEE6insertEm, symObjAddr: 0x3CF10, symBinAddr: 0x45040, symSize: 0x110 }
  - { offset: 0xE0889, size: 0x8, addend: 0x0, symName: __ZN12QHashPrivate4SpanINS_4NodeIPKN5Tiled9MapObjectE7QStringEEE10addStorageEv, symObjAddr: 0x3D020, symBinAddr: 0x45150, symSize: 0x1A0 }
  - { offset: 0xE08EE, size: 0x8, addend: 0x0, symName: __ZN12QHashPrivate4SpanINS_4NodeIPKN5Tiled9MapObjectE7QStringEEE5Entry8nextFreeEv, symObjAddr: 0x3D1C0, symBinAddr: 0x452F0, symSize: 0x10 }
  - { offset: 0xE0914, size: 0x8, addend: 0x0, symName: __ZN5QHashIPKN5Tiled9MapObjectE7QStringE8iteratorC2EN12QHashPrivate8iteratorINS7_4NodeIS3_S4_EEEE, symObjAddr: 0x3D1D0, symBinAddr: 0x45300, symSize: 0x30 }
  - { offset: 0xE094D, size: 0x8, addend: 0x0, symName: __ZN5QHashIPKN5Tiled9MapObjectE7QStringE16TryEmplaceResultC2ENS5_8iteratorEb, symObjAddr: 0x3D200, symBinAddr: 0x45330, symSize: 0x40 }
  - { offset: 0xE0995, size: 0x8, addend: 0x0, symName: __ZN5QHashIPKN5Tiled9MapObjectE7QStringED2Ev, symObjAddr: 0x3D240, symBinAddr: 0x45370, symSize: 0x60 }
  - { offset: 0xE09BF, size: 0x8, addend: 0x0, symName: __ZNK12QHashPrivate8iteratorINS_4NodeIPKN5Tiled9MapObjectE7QStringEEE4nodeEv, symObjAddr: 0x3D2A0, symBinAddr: 0x453D0, symSize: 0x80 }
  - { offset: 0xE09E5, size: 0x8, addend: 0x0, symName: __ZNK12QHashPrivate8iteratorINS_4NodeIPKN5Tiled9MapObjectE7QStringEEE8isUnusedEv, symObjAddr: 0x3D320, symBinAddr: 0x45450, symSize: 0x60 }
  - { offset: 0xE0A0B, size: 0x8, addend: 0x0, symName: __ZNK12QHashPrivate8iteratorINS_4NodeIPKN5Tiled9MapObjectE7QStringEEE4spanEv, symObjAddr: 0x3D380, symBinAddr: 0x454B0, symSize: 0x20 }
  - { offset: 0xE0A31, size: 0x8, addend: 0x0, symName: __ZN12QHashPrivate4SpanINS_4NodeIPKN5Tiled9MapObjectE7QStringEEE2atEm, symObjAddr: 0x3D3A0, symBinAddr: 0x454D0, symSize: 0x90 }
  - { offset: 0xE0A66, size: 0x8, addend: 0x0, symName: __ZNK12QHashPrivate8iteratorINS_4NodeIPKN5Tiled9MapObjectE7QStringEEE5indexEv, symObjAddr: 0x3D430, symBinAddr: 0x45560, symSize: 0x20 }
  - { offset: 0xE0A8C, size: 0x8, addend: 0x0, symName: __ZNSt3__16vectorIN2Yy16InstanceCreationENS_9allocatorIS2_EEE30__emplace_back_assume_capacityB9nqe210106IJEEEvDpOT_, symObjAddr: 0x3D450, symBinAddr: 0x45580, symSize: 0x80 }
  - { offset: 0xE0AC8, size: 0x8, addend: 0x0, symName: __ZNSt3__16vectorIN2Yy16InstanceCreationENS_9allocatorIS2_EEE24__emplace_back_slow_pathIJEEEPS2_DpOT_, symObjAddr: 0x3D4D0, symBinAddr: 0x45600, symSize: 0xC0 }
  - { offset: 0xE0B1D, size: 0x8, addend: 0x0, symName: __ZNSt3__16vectorIN2Yy16InstanceCreationENS_9allocatorIS2_EEE21_ConstructTransactionC1B9nqe210106ERS5_m, symObjAddr: 0x3D590, symBinAddr: 0x456C0, symSize: 0x30 }
  - { offset: 0xE0B65, size: 0x8, addend: 0x0, symName: __ZNSt3__116allocator_traitsINS_9allocatorIN2Yy16InstanceCreationEEEE9constructB9nqe210106IS3_JELi0EEEvRS4_PT_DpOT0_, symObjAddr: 0x3D5C0, symBinAddr: 0x456F0, symSize: 0x30 }
  - { offset: 0xE0BAD, size: 0x8, addend: 0x0, symName: __ZNSt3__16vectorIN2Yy16InstanceCreationENS_9allocatorIS2_EEE21_ConstructTransactionD1B9nqe210106Ev, symObjAddr: 0x3D5F0, symBinAddr: 0x45720, symSize: 0x20 }
  - { offset: 0xE0BD7, size: 0x8, addend: 0x0, symName: __ZNSt3__16vectorIN2Yy16InstanceCreationENS_9allocatorIS2_EEE21_ConstructTransactionC2B9nqe210106ERS5_m, symObjAddr: 0x3D610, symBinAddr: 0x45740, symSize: 0x60 }
  - { offset: 0xE0C1F, size: 0x8, addend: 0x0, symName: __ZNKSt3__16vectorIN2Yy16InstanceCreationENS_9allocatorIS2_EEE19__annotate_increaseB9nqe210106Em, symObjAddr: 0x3D670, symBinAddr: 0x457A0, symSize: 0x90 }
  - { offset: 0xE0C54, size: 0x8, addend: 0x0, symName: __ZNSt3__19allocatorIN2Yy16InstanceCreationEE9constructB9nqe210106IS2_JEEEvPT_DpOT0_, symObjAddr: 0x3D700, symBinAddr: 0x45830, symSize: 0x40 }
  - { offset: 0xE0C97, size: 0x8, addend: 0x0, symName: __ZN2Yy16InstanceCreationC1Ev, symObjAddr: 0x3D740, symBinAddr: 0x45870, symSize: 0x20 }
  - { offset: 0xE0CC4, size: 0x8, addend: 0x0, symName: __ZN2Yy16InstanceCreationC2Ev, symObjAddr: 0x3D760, symBinAddr: 0x45890, symSize: 0x30 }
  - { offset: 0xE0CF1, size: 0x8, addend: 0x0, symName: __ZNSt3__16vectorIN2Yy16InstanceCreationENS_9allocatorIS2_EEE21_ConstructTransactionD2B9nqe210106Ev, symObjAddr: 0x3D790, symBinAddr: 0x458C0, symSize: 0x50 }
  - { offset: 0xE0D1B, size: 0x8, addend: 0x0, symName: __ZNKSt3__16vectorIN2Yy16InstanceCreationENS_9allocatorIS2_EEE11__recommendB9nqe210106Em, symObjAddr: 0x3D7E0, symBinAddr: 0x45910, symSize: 0x80 }
  - { offset: 0xE0D72, size: 0x8, addend: 0x0, symName: __ZNSt3__114__split_bufferIN2Yy16InstanceCreationERNS_9allocatorIS2_EEEC1EmmS5_, symObjAddr: 0x3D860, symBinAddr: 0x45990, symSize: 0x40 }
  - { offset: 0xE0DC8, size: 0x8, addend: 0x0, symName: __ZNSt3__16vectorIN2Yy16InstanceCreationENS_9allocatorIS2_EEE26__swap_out_circular_bufferERNS_14__split_bufferIS2_RS4_EE, symObjAddr: 0x3D8A0, symBinAddr: 0x459D0, symSize: 0x110 }
  - { offset: 0xE0E0F, size: 0x8, addend: 0x0, symName: __ZNSt3__114__split_bufferIN2Yy16InstanceCreationERNS_9allocatorIS2_EEED1Ev, symObjAddr: 0x3D9B0, symBinAddr: 0x45AE0, symSize: 0x20 }
  - { offset: 0xE0E3B, size: 0x8, addend: 0x0, symName: __ZNKSt3__16vectorIN2Yy16InstanceCreationENS_9allocatorIS2_EEE8max_sizeB9nqe210106Ev, symObjAddr: 0x3D9D0, symBinAddr: 0x45B00, symSize: 0x50 }
  - { offset: 0xE0E61, size: 0x8, addend: 0x0, symName: __ZNSt3__16vectorIN2Yy16InstanceCreationENS_9allocatorIS2_EEE20__throw_length_errorB9nqe210106Ev, symObjAddr: 0x3DA20, symBinAddr: 0x45B50, symSize: 0x10 }
  - { offset: 0xE0E7F, size: 0x8, addend: 0x0, symName: __ZNSt3__116allocator_traitsINS_9allocatorIN2Yy16InstanceCreationEEEE8max_sizeB9nqe210106IS4_Li0EEEmRKS4_, symObjAddr: 0x3DA30, symBinAddr: 0x45B60, symSize: 0x20 }
  - { offset: 0xE0EB2, size: 0x8, addend: 0x0, symName: __ZNKSt3__19allocatorIN2Yy16InstanceCreationEE8max_sizeB9nqe210106Ev, symObjAddr: 0x3DA50, symBinAddr: 0x45B80, symSize: 0x20 }
  - { offset: 0xE0ED8, size: 0x8, addend: 0x0, symName: __ZNSt3__114__split_bufferIN2Yy16InstanceCreationERNS_9allocatorIS2_EEEC2EmmS5_, symObjAddr: 0x3DA70, symBinAddr: 0x45BA0, symSize: 0xB0 }
  - { offset: 0xE0F4D, size: 0x8, addend: 0x0, symName: __ZNSt3__19allocatorIN2Yy16InstanceCreationEE8allocateB9nqe210106Em, symObjAddr: 0x3DB60, symBinAddr: 0x45C90, symSize: 0x50 }
  - { offset: 0xE0F81, size: 0x8, addend: 0x0, symName: __ZNKSt3__16vectorIN2Yy16InstanceCreationENS_9allocatorIS2_EEE14__annotate_newB9nqe210106Em, symObjAddr: 0x3DD50, symBinAddr: 0x45E80, symSize: 0x70 }
  - { offset: 0xE0FB6, size: 0x8, addend: 0x0, symName: __ZNSt3__129_AllocatorDestroyRangeReverseINS_9allocatorIN2Yy16InstanceCreationEEEPS3_EC1B9nqe210106ERS4_RS5_S8_, symObjAddr: 0x3DE20, symBinAddr: 0x45F50, symSize: 0x40 }
  - { offset: 0xE1012, size: 0x8, addend: 0x0, symName: __ZNSt3__116allocator_traitsINS_9allocatorIN2Yy16InstanceCreationEEEE9constructB9nqe210106IS3_JS3_ELi0EEEvRS4_PT_DpOT0_, symObjAddr: 0x3DE60, symBinAddr: 0x45F90, symSize: 0x30 }
  - { offset: 0xE106E, size: 0x8, addend: 0x0, symName: __ZNSt3__128__exception_guard_exceptionsINS_29_AllocatorDestroyRangeReverseINS_9allocatorIN2Yy16InstanceCreationEEEPS4_EEE10__completeB9nqe210106Ev, symObjAddr: 0x3DE90, symBinAddr: 0x45FC0, symSize: 0x20 }
  - { offset: 0xE1094, size: 0x8, addend: 0x0, symName: __ZNSt3__128__exception_guard_exceptionsINS_29_AllocatorDestroyRangeReverseINS_9allocatorIN2Yy16InstanceCreationEEEPS4_EEED1B9nqe210106Ev, symObjAddr: 0x3DEF0, symBinAddr: 0x46020, symSize: 0x20 }
  - { offset: 0xE10BE, size: 0x8, addend: 0x0, symName: __ZNSt3__128__exception_guard_exceptionsINS_29_AllocatorDestroyRangeReverseINS_9allocatorIN2Yy16InstanceCreationEEEPS4_EEEC1B9nqe210106ES7_, symObjAddr: 0x3DF10, symBinAddr: 0x46040, symSize: 0x40 }
  - { offset: 0xE10F6, size: 0x8, addend: 0x0, symName: __ZNSt3__128__exception_guard_exceptionsINS_29_AllocatorDestroyRangeReverseINS_9allocatorIN2Yy16InstanceCreationEEEPS4_EEEC2B9nqe210106ES7_, symObjAddr: 0x3DF50, symBinAddr: 0x46080, symSize: 0x30 }
  - { offset: 0xE112E, size: 0x8, addend: 0x0, symName: __ZNSt3__129_AllocatorDestroyRangeReverseINS_9allocatorIN2Yy16InstanceCreationEEEPS3_EC2B9nqe210106ERS4_RS5_S8_, symObjAddr: 0x3DF80, symBinAddr: 0x460B0, symSize: 0x40 }
  - { offset: 0xE1185, size: 0x8, addend: 0x0, symName: __ZNSt3__19allocatorIN2Yy16InstanceCreationEE9constructB9nqe210106IS2_JS2_EEEvPT_DpOT0_, symObjAddr: 0x3DFC0, symBinAddr: 0x460F0, symSize: 0x30 }
  - { offset: 0xE11DB, size: 0x8, addend: 0x0, symName: __ZN2Yy16InstanceCreationC1EOS0_, symObjAddr: 0x3DFF0, symBinAddr: 0x46120, symSize: 0x30 }
  - { offset: 0xE1211, size: 0x8, addend: 0x0, symName: __ZN2Yy16InstanceCreationC2EOS0_, symObjAddr: 0x3E020, symBinAddr: 0x46150, symSize: 0x40 }
  - { offset: 0xE1247, size: 0x8, addend: 0x0, symName: __ZNSt3__128__exception_guard_exceptionsINS_29_AllocatorDestroyRangeReverseINS_9allocatorIN2Yy16InstanceCreationEEEPS4_EEED2B9nqe210106Ev, symObjAddr: 0x3E060, symBinAddr: 0x46190, symSize: 0x40 }
