__Unwind_Resume U 0 0
__Z11qt_assert_xPKcS0_S0_i U 0 0
__Z13comparesEqualRK21QPersistentModelIndexS1_ U 0 0
__Z13comparesEqualRK4QUrlS1_ U 0 0
__Z13qFlagLocationPKc U 0 0
__Z15compareThreeWayRK21QPersistentModelIndexS1_ U 0 0
__Z15compareThreeWayRK4QUrlS1_ U 0 0
__Z15compareThreeWayRK9QDateTimeS1_ U 0 0
__Z21qRegisterResourceDataiPKhS0_S0_ U 0 0
__Z23qUnregisterResourceDataiPKhS0_S0_ U 0 0
__Z23qt_qFindChildren_helperPK7QObject14QAnyStringViewRK11QMetaObjectP5QListIPvE6QFlagsIN2Qt15FindChildOptionEE U 0 0
__Z26qt_QMetaEnum_debugOperatorR6QDebugxPK11QMetaObjectPKc U 0 0
__Z30qt_QMetaEnum_flagDebugOperatorR6QDebugmj U 0 0
__Z30qt_QMetaEnum_flagDebugOperatorR6QDebugyPK11QMetaObjectPKc U 0 0
__Z42qRegisterNormalizedMetaType_QItemSelectionRK10QByteArray U 0 0
__Z5qHash11QStringViewm U 0 0
__Z5qHash13QLatin1Stringm U 0 0
__Z5qHash14QByteArrayViewm U 0 0
__Z5qHash6QPointm U 0 0
__Z6qIsNaNd U 0 0
__Z9qBadAllocv U 0 0
__Z9qChecksum14QByteArrayViewN2Qt12ChecksumTypeE U 0 0
__Z9qIsFinited U 0 0
__Z9qjsEnginePK7QObject U 0 0
__Z9qt_assertPKcS0_i U 0 0
__ZN10QArrayData10deallocateEPS_xx U 0 0
__ZN10QArrayData19reallocateUnalignedEPS_PvxxNS_16AllocationOptionE U 0 0
__ZN10QArrayData8allocateEPPS_xxxNS_16AllocationOptionE U 0 0
__ZN10QArrayData9allocate1EPPS_xNS_16AllocationOptionE U 0 0
__ZN10QBoxLayout10addSpacingEi U 0 0
__ZN10QBoxLayout10addStretchEi U 0 0
__ZN10QBoxLayout12insertWidgetEiP7QWidgeti6QFlagsIN2Qt13AlignmentFlagEE U 0 0
__ZN10QBoxLayout13addSpacerItemEP11QSpacerItem U 0 0
__ZN10QBoxLayout9addLayoutEP7QLayouti U 0 0
__ZN10QBoxLayout9addWidgetEP7QWidgeti6QFlagsIN2Qt13AlignmentFlagEE U 0 0
__ZN10QByteArray10fromBase64ERKS_6QFlagsINS_12Base64OptionEE U 0 0
__ZN10QByteArray10setRawDataEPKcx U 0 0
__ZN10QByteArray11reallocDataExN10QArrayData16AllocationOptionE U 0 0
__ZN10QByteArray14toLower_helperERKS_ U 0 0
__ZN10QByteArray6_emptyE U 0 0
__ZN10QByteArray6appendEc U 0 0
__ZN10QByteArray6insertEx14QByteArrayView U 0 0
__ZN10QByteArray6resizeEx U 0 0
__ZN10QByteArray8truncateEx U 0 0
__ZN10QByteArrayC1EPKcx U 0 0
__ZN10QByteArrayC1ExN2Qt14InitializationE U 0 0
__ZN10QByteArrayaSERKS_ U 0 0
__ZN10QCborArray13fromJsonArrayERK10QJsonArray U 0 0
__ZN10QCborArrayD1Ev U 0 0
__ZN10QCborValue7disposeEv U 0 0
__ZN10QCborValue8fromCborERK10QByteArrayP16QCborParserError U 0 0
__ZN10QCborValueC1ERK10QCborArray U 0 0
__ZN10QClipboard11dataChangedEv U 0 0
__ZN10QClipboard11setMimeDataEP9QMimeDataNS_4ModeE U 0 0
__ZN10QClipboard16staticMetaObjectE U 0 0
__ZN10QClipboard7setTextERK7QStringNS_4ModeE U 0 0
__ZN10QJsonArray6appendERK10QJsonValue U 0 0
__ZN10QJsonArrayC1Ev U 0 0
__ZN10QJsonArrayD1Ev U 0 0
__ZN10QJsonValue11fromVariantERK8QVariant U 0 0
__ZN10QJsonValueC1EO11QJsonObject U 0 0
__ZN10QJsonValueC1ERK10QJsonArray U 0 0
__ZN10QJsonValueC1ERK11QJsonObject U 0 0
__ZN10QJsonValueC1ERK7QString U 0 0
__ZN10QJsonValueC1Ed U 0 0
__ZN10QJsonValueC1Ei U 0 0
__ZN10QJsonValueD1Ev U 0 0
__ZN10QQmlEngine16staticMetaObjectE U 0 0
__ZN10QQmlEngine32setOutputWarningsToStandardErrorEb U 0 0
__ZN10QQmlEngine8warningsERK5QListI9QQmlErrorE U 0 0
__ZN10QQmlEngineC1EP7QObject U 0 0
__ZN10QScrollBar10paintEventEP11QPaintEvent U 0 0
__ZN10QScrollBar10wheelEventEP11QWheelEvent U 0 0
__ZN10QScrollBar11qt_metacallEN11QMetaObject4CallEiPPv U 0 0
__ZN10QScrollBar11qt_metacastEPKc U 0 0
__ZN10QScrollBar12sliderChangeEN15QAbstractSlider12SliderChangeE U 0 0
__ZN10QScrollBar14mouseMoveEventEP11QMouseEvent U 0 0
__ZN10QScrollBar15mousePressEventEP11QMouseEvent U 0 0
__ZN10QScrollBar16contextMenuEventEP17QContextMenuEvent U 0 0
__ZN10QScrollBar16staticMetaObjectE U 0 0
__ZN10QScrollBar17mouseReleaseEventEP11QMouseEvent U 0 0
__ZN10QScrollBar5eventEP6QEvent U 0 0
__ZN10QScrollBar9hideEventEP10QHideEvent U 0 0
__ZN10QScrollBarC2EN2Qt11OrientationEP7QWidget U 0 0
__ZN10QScrollBarD2Ev U 0 0
__ZN10QStatusBar11showMessageERK7QStringi U 0 0
__ZN10QStatusBar12insertWidgetEiP7QWidgeti U 0 0
__ZN10QStatusBar12removeWidgetEP7QWidget U 0 0
__ZN10QStatusBar18addPermanentWidgetEP7QWidgeti U 0 0
__ZN10QStatusBar21insertPermanentWidgetEiP7QWidgeti U 0 0
__ZN10QStatusBar9addWidgetEP7QWidgeti U 0 0
__ZN10QTabWidget10setTabTextEiRK7QString U 0 0
__ZN10QTabWidget13setTabEnabledEib U 0 0
__ZN10QTabWidget15setCurrentIndexEi U 0 0
__ZN10QTabWidget15setDocumentModeEb U 0 0
__ZN10QTabWidget16setCurrentWidgetEP7QWidget U 0 0
__ZN10QTabWidget6addTabEP7QWidgetRK7QString U 0 0
__ZN10QTabWidgetC1EP7QWidget U 0 0
__ZN10QTableView10moveCursorEN17QAbstractItemView12CursorActionE6QFlagsIN2Qt16KeyboardModifierEE U 0 0
__ZN10QTableView10paintEventEP11QPaintEvent U 0 0
__ZN10QTableView10timerEventEP11QTimerEvent U 0 0
__ZN10QTableView11qt_metacallEN11QMetaObject4CallEiPPv U 0 0
__ZN10QTableView11qt_metacastEPKc U 0 0
__ZN10QTableView11setShowGridEb U 0 0
__ZN10QTableView12setRootIndexERK11QModelIndex U 0 0
__ZN10QTableView12setSelectionERK5QRect6QFlagsIN19QItemSelectionModel13SelectionFlagEE U 0 0
__ZN10QTableView13doItemsLayoutEv U 0 0
__ZN10QTableView14currentChangedERK11QModelIndexS2_ U 0 0
__ZN10QTableView16scrollContentsByEii U 0 0
__ZN10QTableView16selectionChangedERK14QItemSelectionS2_ U 0 0
__ZN10QTableView16staticMetaObjectE U 0 0
__ZN10QTableView16updateGeometriesEv U 0 0
__ZN10QTableView17setSelectionModelEP19QItemSelectionModel U 0 0
__ZN10QTableView23verticalScrollbarActionEi U 0 0
__ZN10QTableView25horizontalScrollbarActionEi U 0 0
__ZN10QTableView8scrollToERK11QModelIndexN17QAbstractItemView10ScrollHintE U 0 0
__ZN10QTableView8setModelEP18QAbstractItemModel U 0 0
__ZN10QTableView9dropEventEP10QDropEvent U 0 0
__ZN10QTableViewC2EP7QWidget U 0 0
__ZN10QTableViewD2Ev U 0 0
__ZN10QTransform13fromTranslateEdd U 0 0
__ZN10QTransform5scaleEdd U 0 0
__ZN10QTransform6rotateEdN2Qt4AxisE U 0 0
__ZN10QTransform9fromScaleEdd U 0 0
__ZN10QTransform9translateEdd U 0 0
__ZN10QTransformmLERKS_ U 0 0
__ZN10QUndoGroup11removeStackEP10QUndoStack U 0 0
__ZN10QUndoGroup14setActiveStackEP10QUndoStack U 0 0
__ZN10QUndoGroup8addStackEP10QUndoStack U 0 0
__ZN10QUndoGroupC1EP7QObject U 0 0
__ZN10QUndoStack10beginMacroERK7QString U 0 0
__ZN10QUndoStack12cleanChangedEb U 0 0
__ZN10QUndoStack12indexChangedEi U 0 0
__ZN10QUndoStack16staticMetaObjectE U 0 0
__ZN10QUndoStack4pushEP12QUndoCommand U 0 0
__ZN10QUndoStack4redoEv U 0 0
__ZN10QUndoStack4undoEv U 0 0
__ZN10QUndoStack5clearEv U 0 0
__ZN10QUndoStack8endMacroEv U 0 0
__ZN10QUndoStack8setCleanEv U 0 0
__ZN10QUndoStackC1EP7QObject U 0 0
__ZN10QValidator11qt_metacallEN11QMetaObject4CallEiPPv U 0 0
__ZN10QValidator11qt_metacastEPKc U 0 0
__ZN10QValidator16staticMetaObjectE U 0 0
__ZN10QValidatorC2EP7QObject U 0 0
__ZN10QValidatorD2Ev U 0 0
__ZN11QBasicMutex12lockInternalEv U 0 0
__ZN11QBasicMutex14unlockInternalEPv U 0 0
__ZN11QBasicMutex15destroyInternalEPv U 0 0
__ZN11QBasicTimer4stopEv U 0 0
__ZN11QBasicTimer5startENSt3__16chrono8durationIxNS0_5ratioILl1ELl1000000000EEEEEN2Qt9TimerTypeEP7QObject U 0 0
__ZN11QDataStream10writeBytesEPKcx U 0 0
__ZN11QDataStream11readRawDataEPcx U 0 0
__ZN11QDataStream11resetStatusEv U 0 0
__ZN11QDataStream9setStatusENS_6StatusE U 0 0
__ZN11QDataStreamC1EP10QByteArray6QFlagsIN13QIODeviceBase12OpenModeFlagEE U 0 0
__ZN11QDataStreamC1EP9QIODevice U 0 0
__ZN11QDataStreamC1ERK10QByteArray U 0 0
__ZN11QDataStreamD1Ev U 0 0
__ZN11QDataStreamlsEi U 0 0
__ZN11QDataStreamlsEx U 0 0
__ZN11QDataStreamrsERi U 0 0
__ZN11QDataStreamrsERx U 0 0
__ZN11QDockWidget10closeEventEP11QCloseEvent U 0 0
__ZN11QDockWidget10paintEventEP11QPaintEvent U 0 0
__ZN11QDockWidget11changeEventEP6QEvent U 0 0
__ZN11QDockWidget11qt_metacallEN11QMetaObject4CallEiPPv U 0 0
__ZN11QDockWidget11qt_metacastEPKc U 0 0
__ZN11QDockWidget11setFeaturesE6QFlagsINS_17DockWidgetFeatureEE U 0 0
__ZN11QDockWidget11setFloatingEb U 0 0
__ZN11QDockWidget16staticMetaObjectE U 0 0
__ZN11QDockWidget17visibilityChangedEb U 0 0
__ZN11QDockWidget5eventEP6QEvent U 0 0
__ZN11QDockWidget9setWidgetEP7QWidget U 0 0
__ZN11QDockWidgetC2EP7QWidget6QFlagsIN2Qt10WindowTypeEE U 0 0
__ZN11QDockWidgetD2Ev U 0 0
__ZN11QFileDevice5closeEv U 0 0
__ZN11QFileDevice5flushEv U 0 0
__ZN11QFileDialog13setAcceptModeENS_10AcceptModeE U 0 0
__ZN11QFileDialog14getOpenFileUrlEP7QWidgetRK7QStringRK4QUrlS4_PS2_6QFlagsINS_6OptionEERK5QListIS2_E U 0 0
__ZN11QFileDialog15getOpenFileNameEP7QWidgetRK7QStringS4_S4_PS2_6QFlagsINS_6OptionEE U 0 0
__ZN11QFileDialog15getOpenFileUrlsEP7QWidgetRK7QStringRK4QUrlS4_PS2_6QFlagsINS_6OptionEERK5QListIS2_E U 0 0
__ZN11QFileDialog15getSaveFileNameEP7QWidgetRK7QStringS4_S4_PS2_6QFlagsINS_6OptionEE U 0 0
__ZN11QFileDialog16getOpenFileNamesEP7QWidgetRK7QStringS4_S4_PS2_6QFlagsINS_6OptionEE U 0 0
__ZN11QFileDialog16selectNameFilterERK7QString U 0 0
__ZN11QFileDialog16setDefaultSuffixERK7QString U 0 0
__ZN11QFileDialog20getExistingDirectoryEP7QWidgetRK7QStringS4_6QFlagsINS_6OptionEE U 0 0
__ZN11QFileDialog23getExistingDirectoryUrlEP7QWidgetRK7QStringRK4QUrl6QFlagsINS_6OptionEERK5QListIS2_E U 0 0
__ZN11QFileDialogC1EP7QWidgetRK7QStringS4_S4_ U 0 0
__ZN11QFileDialogD1Ev U 0 0
__ZN11QFormLayout20setFieldGrowthPolicyENS_17FieldGrowthPolicyE U 0 0
__ZN11QFormLayout6addRowERK7QStringP7QLayout U 0 0
__ZN11QFormLayout6addRowERK7QStringP7QWidget U 0 0
__ZN11QFormLayout9removeRowEi U 0 0
__ZN11QFormLayoutC1EP7QWidget U 0 0
__ZN11QGridLayout16setColumnStretchEii U 0 0
__ZN11QGridLayout7addItemEP11QLayoutItemiiii6QFlagsIN2Qt13AlignmentFlagEE U 0 0
__ZN11QGridLayout9addLayoutEP7QLayoutiiii6QFlagsIN2Qt13AlignmentFlagEE U 0 0
__ZN11QGridLayout9addWidgetEP7QWidgetii6QFlagsIN2Qt13AlignmentFlagEE U 0 0
__ZN11QGridLayout9addWidgetEP7QWidgetiiii6QFlagsIN2Qt13AlignmentFlagEE U 0 0
__ZN11QGridLayoutC1EP7QWidget U 0 0
__ZN11QHBoxLayoutC1EP7QWidget U 0 0
__ZN11QHBoxLayoutC1Ev U 0 0
__ZN11QHeaderView10moveCursorEN17QAbstractItemView12CursorActionE6QFlagsIN2Qt16KeyboardModifierEE U 0 0
__ZN11QHeaderView10paintEventEP11QPaintEvent U 0 0
__ZN11QHeaderView10setVisibleEb U 0 0
__ZN11QHeaderView11dataChangedERK11QModelIndexS2_RK5QListIiE U 0 0
__ZN11QHeaderView11qt_metacallEN11QMetaObject4CallEiPPv U 0 0
__ZN11QHeaderView11qt_metacastEPKc U 0 0
__ZN11QHeaderView12rowsInsertedERK11QModelIndexii U 0 0
__ZN11QHeaderView12setSelectionERK5QRect6QFlagsIN19QItemSelectionModel13SelectionFlagEE U 0 0
__ZN11QHeaderView13doItemsLayoutEv U 0 0
__ZN11QHeaderView13resizeSectionEii U 0 0
__ZN11QHeaderView13viewportEventEP6QEvent U 0 0
__ZN11QHeaderView14currentChangedERK11QModelIndexS2_ U 0 0
__ZN11QHeaderView14mouseMoveEventEP11QMouseEvent U 0 0
__ZN11QHeaderView14sectionResizedEiii U 0 0
__ZN11QHeaderView15mousePressEventEP11QMouseEvent U 0 0
__ZN11QHeaderView16scrollContentsByEii U 0 0
__ZN11QHeaderView16staticMetaObjectE U 0 0
__ZN11QHeaderView16updateGeometriesEv U 0 0
__ZN11QHeaderView17mouseReleaseEventEP11QMouseEvent U 0 0
__ZN11QHeaderView20setSectionResizeModeENS_10ResizeModeE U 0 0
__ZN11QHeaderView20setSectionResizeModeEiNS_10ResizeModeE U 0 0
__ZN11QHeaderView21mouseDoubleClickEventEP11QMouseEvent U 0 0
__ZN11QHeaderView21setMinimumSectionSizeEi U 0 0
__ZN11QHeaderView21setStretchLastSectionEb U 0 0
__ZN11QHeaderView5eventEP6QEvent U 0 0
__ZN11QHeaderView5resetEv U 0 0
__ZN11QHeaderView8scrollToERK11QModelIndexN17QAbstractItemView10ScrollHintE U 0 0
__ZN11QHeaderView8setModelEP18QAbstractItemModel U 0 0
__ZN11QHeaderViewC2EN2Qt11OrientationEP7QWidget U 0 0
__ZN11QHeaderViewD2Ev U 0 0
__ZN11QJsonObject14fromVariantMapERK4QMapI7QString8QVariantE U 0 0
__ZN11QJsonObject15fromVariantHashERK5QHashI7QString8QVariantE U 0 0
__ZN11QJsonObject6insertE13QLatin1StringRK10QJsonValue U 0 0
__ZN11QJsonObjectC1ESt16initializer_listINSt3__14pairI7QString10QJsonValueEEE U 0 0
__ZN11QJsonObjectC1Ev U 0 0
__ZN11QJsonObjectD1Ev U 0 0
__ZN11QJsonObjectixERK7QString U 0 0
__ZN11QLayoutItem10spacerItemEv U 0 0
__ZN11QMainWindow10addToolBarEP8QToolBar U 0 0
__ZN11QMainWindow10addToolBarERK7QString U 0 0
__ZN11QMainWindow10setMenuBarEP8QMenuBar U 0 0
__ZN11QMainWindow11qt_metacallEN11QMetaObject4CallEiPPv U 0 0
__ZN11QMainWindow11qt_metacastEPKc U 0 0
__ZN11QMainWindow12restoreStateERK10QByteArrayi U 0 0
__ZN11QMainWindow13addDockWidgetEN2Qt14DockWidgetAreaEP11QDockWidget U 0 0
__ZN11QMainWindow14setDockOptionsE6QFlagsINS_10DockOptionEE U 0 0
__ZN11QMainWindow15createPopupMenuEv U 0 0
__ZN11QMainWindow16contextMenuEventEP17QContextMenuEvent U 0 0
__ZN11QMainWindow16removeDockWidgetEP11QDockWidget U 0 0
__ZN11QMainWindow16setCentralWidgetEP7QWidget U 0 0
__ZN11QMainWindow16staticMetaObjectE U 0 0
__ZN11QMainWindow16tabifyDockWidgetEP11QDockWidgetS1_ U 0 0
__ZN11QMainWindow21setDockNestingEnabledEb U 0 0
__ZN11QMainWindow5eventEP6QEvent U 0 0
__ZN11QMainWindowC1EP7QWidget6QFlagsIN2Qt10WindowTypeEE U 0 0
__ZN11QMainWindowC2EP7QWidget6QFlagsIN2Qt10WindowTypeEE U 0 0
__ZN11QMainWindowD2Ev U 0 0
__ZN11QMessageBox11informationEP7QWidgetRK7QStringS4_6QFlagsINS_14StandardButtonEES6_ U 0 0
__ZN11QMessageBox11setCheckBoxEP9QCheckBox U 0 0
__ZN11QMessageBox15setEscapeButtonENS_14StandardButtonE U 0 0
__ZN11QMessageBox16setDefaultButtonENS_14StandardButtonE U 0 0
__ZN11QMessageBox18setInformativeTextERK7QString U 0 0
__ZN11QMessageBox7warningEP7QWidgetRK7QStringS4_6QFlagsINS_14StandardButtonEES6_ U 0 0
__ZN11QMessageBox8criticalEP7QWidgetRK7QStringS4_6QFlagsINS_14StandardButtonEES6_ U 0 0
__ZN11QMessageBox8questionEP7QWidgetRK7QStringS4_6QFlagsINS_14StandardButtonEES6_ U 0 0
__ZN11QMessageBox9addButtonERK7QStringNS_10ButtonRoleE U 0 0
__ZN11QMessageBoxC1ENS_4IconERK7QStringS3_6QFlagsINS_14StandardButtonEEP7QWidgetS4_IN2Qt10WindowTypeEE U 0 0
__ZN11QMessageBoxD1Ev U 0 0
__ZN11QMetaObject10ConnectionD1Ev U 0 0
__ZN11QMetaObject14normalizedTypeEPKc U 0 0
__ZN11QMetaObject16invokeMethodImplEP7QObjectPN9QtPrivate15QSlotObjectBaseEN2Qt14ConnectionTypeExPKPKvPKPKcPKPKNS2_18QMetaTypeInterfaceE U 0 0
__ZN11QMetaObject18connectSlotsByNameEP7QObject U 0 0
__ZN11QMetaObject8activateEP7QObjectPKS_iPPv U 0 0
__ZN11QProxyStyle11qt_metacallEN11QMetaObject4CallEiPPv U 0 0
__ZN11QProxyStyle11qt_metacastEPKc U 0 0
__ZN11QProxyStyle16staticMetaObjectE U 0 0
__ZN11QProxyStyle5eventEP6QEvent U 0 0
__ZN11QProxyStyle6polishEP12QApplication U 0 0
__ZN11QProxyStyle6polishEP7QWidget U 0 0
__ZN11QProxyStyle6polishER8QPalette U 0 0
__ZN11QProxyStyle8unpolishEP12QApplication U 0 0
__ZN11QProxyStyle8unpolishEP7QWidget U 0 0
__ZN11QProxyStyleC2EP6QStyle U 0 0
__ZN11QProxyStyleD2Ev U 0 0
__ZN11QPushButton10paintEventEP11QPaintEvent U 0 0
__ZN11QPushButton10setDefaultEb U 0 0
__ZN11QPushButton11qt_metacallEN11QMetaObject4CallEiPPv U 0 0
__ZN11QPushButton11qt_metacastEPKc U 0 0
__ZN11QPushButton12focusInEventEP11QFocusEvent U 0 0
__ZN11QPushButton13focusOutEventEP11QFocusEvent U 0 0
__ZN11QPushButton13keyPressEventEP9QKeyEvent U 0 0
__ZN11QPushButton14mouseMoveEventEP11QMouseEvent U 0 0
__ZN11QPushButton14setAutoDefaultEb U 0 0
__ZN11QPushButton5eventEP6QEvent U 0 0
__ZN11QPushButton7setMenuEP5QMenu U 0 0
__ZN11QPushButtonC1EP7QWidget U 0 0
__ZN11QPushButtonC1ERK7QStringP7QWidget U 0 0
__ZN11QPushButtonC2ERK7QStringP7QWidget U 0 0
__ZN11QPushButtonD2Ev U 0 0
__ZN11QScrollArea11eventFilterEP7QObjectP6QEvent U 0 0
__ZN11QScrollArea11qt_metacallEN11QMetaObject4CallEiPPv U 0 0
__ZN11QScrollArea11qt_metacastEPKc U 0 0
__ZN11QScrollArea11resizeEventEP12QResizeEvent U 0 0
__ZN11QScrollArea16scrollContentsByEii U 0 0
__ZN11QScrollArea16staticMetaObjectE U 0 0
__ZN11QScrollArea18focusNextPrevChildEb U 0 0
__ZN11QScrollArea18setWidgetResizableEb U 0 0
__ZN11QScrollArea19ensureWidgetVisibleEP7QWidgetii U 0 0
__ZN11QScrollArea5eventEP6QEvent U 0 0
__ZN11QScrollArea9setWidgetEP7QWidget U 0 0
__ZN11QScrollAreaC2EP7QWidget U 0 0
__ZN11QScrollAreaD2Ev U 0 0
__ZN11QSpacerItem10changeSizeEiiN11QSizePolicy6PolicyES1_ U 0 0
__ZN11QStaticText13setTextFormatEN2Qt10TextFormatE U 0 0
__ZN11QStaticText13setTextOptionERK11QTextOption U 0 0
__ZN11QStaticText7prepareERK10QTransformRK5QFont U 0 0
__ZN11QStaticText7setTextERK7QString U 0 0
__ZN11QStaticTextC1ERK7QString U 0 0
__ZN11QStaticTextD1Ev U 0 0
__ZN11QStyleHints30setShowShortcutsInContextMenusEb U 0 0
__ZN11QTextOptionC1E6QFlagsIN2Qt13AlignmentFlagEE U 0 0
__ZN11QTextOptionC1Ev U 0 0
__ZN11QTextOptionD1Ev U 0 0
__ZN11QTextStream11setEncodingEN16QStringConverter8EncodingE U 0 0
__ZN11QTextStream5flushEv U 0 0
__ZN11QTextStream5resetEv U 0 0
__ZN11QTextStream7readAllEv U 0 0
__ZN11QTextStream8readLineEx U 0 0
__ZN11QTextStreamC1EP9QIODevice U 0 0
__ZN11QTextStreamD1Ev U 0 0
__ZN11QTextStreamlsEPKc U 0 0
__ZN11QTextStreamlsEPKv U 0 0
__ZN11QTextStreamlsERK7QString U 0 0
__ZN11QTextStreamlsEc U 0 0
__ZN11QTextStreamlsEi U 0 0
__ZN11QThreadPool14globalInstanceEv U 0 0
__ZN11QThreadPool5startEP9QRunnablei U 0 0
__ZN11QToolButton10enterEventEP11QEnterEvent U 0 0
__ZN11QToolButton10leaveEventEP6QEvent U 0 0
__ZN11QToolButton10paintEventEP11QPaintEvent U 0 0
__ZN11QToolButton10timerEventEP11QTimerEvent U 0 0
__ZN11QToolButton11actionEventEP12QActionEvent U 0 0
__ZN11QToolButton11changeEventEP6QEvent U 0 0
__ZN11QToolButton11qt_metacallEN11QMetaObject4CallEiPPv U 0 0
__ZN11QToolButton11qt_metacastEPKc U 0 0
__ZN11QToolButton12setArrowTypeEN2Qt9ArrowTypeE U 0 0
__ZN11QToolButton12setAutoRaiseEb U 0 0
__ZN11QToolButton12setPopupModeENS_19ToolButtonPopupModeE U 0 0
__ZN11QToolButton13checkStateSetEv U 0 0
__ZN11QToolButton14nextCheckStateEv U 0 0
__ZN11QToolButton15mousePressEventEP11QMouseEvent U 0 0
__ZN11QToolButton16setDefaultActionEP7QAction U 0 0
__ZN11QToolButton16staticMetaObjectE U 0 0
__ZN11QToolButton17mouseReleaseEventEP11QMouseEvent U 0 0
__ZN11QToolButton18setToolButtonStyleEN2Qt15ToolButtonStyleE U 0 0
__ZN11QToolButton5eventEP6QEvent U 0 0
__ZN11QToolButton7setMenuEP5QMenu U 0 0
__ZN11QToolButton8showMenuEv U 0 0
__ZN11QToolButtonC1EP7QWidget U 0 0
__ZN11QToolButtonC2EP7QWidget U 0 0
__ZN11QToolButtonD2Ev U 0 0
__ZN11QTranslator4loadERK7QLocaleRK7QStringS5_S5_S5_ U 0 0
__ZN11QTranslatorC1EP7QObject U 0 0
__ZN11QVBoxLayoutC1EP7QWidget U 0 0
__ZN11QVBoxLayoutC1Ev U 0 0
__ZN12QActionGroup12setExclusiveEb U 0 0
__ZN12QActionGroup16staticMetaObjectE U 0 0
__ZN12QActionGroup9addActionEP7QAction U 0 0
__ZN12QActionGroup9triggeredEP7QAction U 0 0
__ZN12QActionGroupC1EP7QObject U 0 0
__ZN12QApplication10setPaletteERK8QPalettePKc U 0 0
__ZN12QApplication11focusWidgetEv U 0 0
__ZN12QApplication11qt_metacallEN11QMetaObject4CallEiPPv U 0 0
__ZN12QApplication11qt_metacastEPKc U 0 0
__ZN12QApplication12activeWindowEv U 0 0
__ZN12QApplication12focusChangedEP7QWidgetS1_ U 0 0
__ZN12QApplication13compressEventEP6QEventP7QObjectP14QPostEventList U 0 0
__ZN12QApplication16staticMetaObjectE U 0 0
__ZN12QApplication16wheelScrollLinesEv U 0 0
__ZN12QApplication17activePopupWidgetEv U 0 0
__ZN12QApplication17startDragDistanceEv U 0 0
__ZN12QApplication4fontEv U 0 0
__ZN12QApplication5eventEP6QEvent U 0 0
__ZN12QApplication5styleEv U 0 0
__ZN12QApplication6notifyEP7QObjectP6QEvent U 0 0
__ZN12QApplication7aboutQtEv U 0 0
__ZN12QApplication7setFontERK5QFontPKc U 0 0
__ZN12QApplication8setStyleEP6QStyle U 0 0
__ZN12QApplicationC2ERiPPci U 0 0
__ZN12QApplicationD2Ev U 0 0
__ZN12QButtonGroup11qt_metacallEN11QMetaObject4CallEiPPv U 0 0
__ZN12QButtonGroup11qt_metacastEPKc U 0 0
__ZN12QButtonGroup16staticMetaObjectE U 0 0
__ZN12QButtonGroup9addButtonEP15QAbstractButtoni U 0 0
__ZN12QButtonGroupC2EP7QObject U 0 0
__ZN12QButtonGroupD2Ev U 0 0
__ZN12QColorDialog13colorSelectedERK6QColor U 0 0
__ZN12QColorDialog15setCurrentColorERK6QColor U 0 0
__ZN12QColorDialog16staticMetaObjectE U 0 0
__ZN12QColorDialog8getColorERK6QColorP7QWidgetRK7QString6QFlagsINS_17ColorDialogOptionEE U 0 0
__ZN12QColorDialogC1EP7QWidget U 0 0
__ZN12QDirIterator4nextEv U 0 0
__ZN12QDirIteratorC1ERK4QDir6QFlagsINS_12IteratorFlagEE U 0 0
__ZN12QDirIteratorC1ERK7QStringRK5QListIS0_E6QFlagsIN4QDir6FilterEES7_INS_12IteratorFlagEE U 0 0
__ZN12QDirIteratorD1Ev U 0 0
__ZN12QEasingCurveC1ENS_4TypeE U 0 0
__ZN12QEasingCurveD1Ev U 0 0
__ZN12QFontMetricsC1ERK5QFont U 0 0
__ZN12QFontMetricsD1Ev U 0 0
__ZN12QImageReader21supportedImageFormatsEv U 0 0
__ZN12QImageReader4readEv U 0 0
__ZN12QImageReaderC1ERK7QStringRK10QByteArray U 0 0
__ZN12QImageReaderD1Ev U 0 0
__ZN12QImageWriter21supportedImageFormatsEv U 0 0
__ZN12QImageWriter5writeERK6QImage U 0 0
__ZN12QImageWriterC1ERK7QStringRK10QByteArray U 0 0
__ZN12QImageWriterD1Ev U 0 0
__ZN12QInputDialog12setInputModeENS_9InputModeE U 0 0
__ZN12QInputDialog12setLabelTextERK7QString U 0 0
__ZN12QInputDialog12setTextValueERK7QString U 0 0
__ZN12QInputDialog16staticMetaObjectE U 0 0
__ZN12QInputDialog17textValueSelectedERK7QString U 0 0
__ZN12QInputDialog7getTextEP7QWidgetRK7QStringS4_N9QLineEdit8EchoModeES4_Pb6QFlagsIN2Qt10WindowTypeEES8_INS9_15InputMethodHintEE U 0 0
__ZN12QInputDialogC1EP7QWidget6QFlagsIN2Qt10WindowTypeEE U 0 0
__ZN12QKeySequence10fromStringERK7QStringNS_14SequenceFormatE U 0 0
__ZN12QKeySequence11keyBindingsENS_11StandardKeyE U 0 0
__ZN12QKeySequence16staticMetaObjectE U 0 0
__ZN12QKeySequenceC1E15QKeyCombinationS0_S0_S0_ U 0 0
__ZN12QKeySequenceC1ERK7QStringNS_14SequenceFormatE U 0 0
__ZN12QKeySequenceC1ERKS_ U 0 0
__ZN12QKeySequenceC1Eiiii U 0 0
__ZN12QKeySequenceC1Ev U 0 0
__ZN12QKeySequenceD1Ev U 0 0
__ZN12QKeySequenceaSERKS_ U 0 0
__ZN12QLibraryInfo4pathENS_11LibraryPathE U 0 0
__ZN12QLocalServer6listenERK7QString U 0 0
__ZN12QLocalServerC1EP7QObject U 0 0
__ZN12QLocalSocket15connectToServerERK7QString6QFlagsIN13QIODeviceBase12OpenModeFlagEE U 0 0
__ZN12QLocalSocket16waitForConnectedEi U 0 0
__ZN12QLocalSocket16waitForReadyReadEi U 0 0
__ZN12QLocalSocket19waitForBytesWrittenEi U 0 0
__ZN12QLocalSocket19waitForDisconnectedEi U 0 0
__ZN12QLocalSocketC1EP7QObject U 0 0
__ZN12QLocalSocketD1Ev U 0 0
__ZN12QPaintDeviceC2Ev U 0 0
__ZN12QPainterPath12closeSubpathEv U 0 0
__ZN12QPainterPath5arcToERK6QRectFdd U 0 0
__ZN12QPainterPath6lineToERK7QPointF U 0 0
__ZN12QPainterPath6moveToERK7QPointF U 0 0
__ZN12QPainterPath7addRectERK6QRectF U 0 0
__ZN12QPainterPath9translateEdd U 0 0
__ZN12QPainterPathC1ERK7QPointF U 0 0
__ZN12QPainterPathC1ERKS_ U 0 0
__ZN12QPainterPathC1Ev U 0 0
__ZN12QPainterPathD1Ev U 0 0
__ZN12QPainterPathoRERKS_ U 0 0
__ZN12QPixmapCache4findERK7QStringP7QPixmap U 0 0
__ZN12QPixmapCache5clearEv U 0 0
__ZN12QPixmapCache6insertERK7QStringRK7QPixmap U 0 0
__ZN12QRadioButtonC1EP7QWidget U 0 0
__ZN12QStyleOption8initFromEPK7QWidget U 0 0
__ZN12QStyleOptionC1ERKS_ U 0 0
__ZN12QStyleOptionC1Eii U 0 0
__ZN12QStyleOptionC2Eii U 0 0
__ZN12QStyleOptionD1Ev U 0 0
__ZN12QStyleOptionD2Ev U 0 0
__ZN12QStyleOptionaSERKS_ U 0 0
__ZN12QTextBrowser20setOpenExternalLinksEb U 0 0
__ZN12QTextBrowserC1EP7QWidget U 0 0
__ZN12QUndoCommand11setObsoleteEb U 0 0
__ZN12QUndoCommand4redoEv U 0 0
__ZN12QUndoCommand4undoEv U 0 0
__ZN12QUndoCommand7setTextERK7QString U 0 0
__ZN12QUndoCommand9mergeWithEPKS_ U 0 0
__ZN12QUndoCommandC1ERK7QStringPS_ U 0 0
__ZN12QUndoCommandC2EPS_ U 0 0
__ZN12QUndoCommandC2ERK7QStringPS_ U 0 0
__ZN12QUndoCommandD2Ev U 0 0
__ZN12QtConcurrent16BlockSizeManager13timeAfterUserEv U 0 0
__ZN12QtConcurrent16BlockSizeManager14timeBeforeUserEv U 0 0
__ZN12QtConcurrent16BlockSizeManager9blockSizeEv U 0 0
__ZN12QtConcurrent16BlockSizeManagerC1EP11QThreadPooli U 0 0
__ZN12QtConcurrent16ThreadEngineBase10isCanceledEv U 0 0
__ZN12QtConcurrent16ThreadEngineBase11startThreadEv U 0 0
__ZN12QtConcurrent16ThreadEngineBase13waitForResumeEv U 0 0
__ZN12QtConcurrent16ThreadEngineBase16setProgressRangeEii U 0 0
__ZN12QtConcurrent16ThreadEngineBase16setProgressValueEi U 0 0
__ZN12QtConcurrent16ThreadEngineBase23acquireBarrierSemaphoreEv U 0 0
__ZN12QtConcurrent16ThreadEngineBase26isProgressReportingEnabledEv U 0 0
__ZN12QtConcurrent16ThreadEngineBase3runEv U 0 0
__ZN12QtConcurrent16ThreadEngineBaseC2EP11QThreadPool U 0 0
__ZN12QtConcurrent16ThreadEngineBaseD2Ev U 0 0
__ZN13QElapsedTimer5startEv U 0 0
__ZN13QFontComboBox14setCurrentFontERK5QFont U 0 0
__ZN13QFontComboBox16staticMetaObjectE U 0 0
__ZN13QFontComboBox18currentFontChangedERK5QFont U 0 0
__ZN13QFontComboBoxC1EP7QWidget U 0 0
__ZN13QFontDatabase10systemFontENS_10SystemFontE U 0 0
__ZN13QFontMetricsFC1ERK5QFont U 0 0
__ZN13QFontMetricsFD1Ev U 0 0
__ZN13QGraphicsItem10itemChangeENS_18GraphicsItemChangeERK8QVariant U 0 0
__ZN13QGraphicsItem10sceneEventEP6QEvent U 0 0
__ZN13QGraphicsItem10setEnabledEb U 0 0
__ZN13QGraphicsItem10setOpacityEd U 0 0
__ZN13QGraphicsItem10setToolTipERK7QString U 0 0
__ZN13QGraphicsItem10setVisibleEb U 0 0
__ZN13QGraphicsItem10wheelEventEP24QGraphicsSceneWheelEvent U 0 0
__ZN13QGraphicsItem11setRotationEd U 0 0
__ZN13QGraphicsItem11unsetCursorEv U 0 0
__ZN13QGraphicsItem12focusInEventEP11QFocusEvent U 0 0
__ZN13QGraphicsItem12setExtensionENS_9ExtensionERK8QVariant U 0 0
__ZN13QGraphicsItem13dragMoveEventEP27QGraphicsSceneDragDropEvent U 0 0
__ZN13QGraphicsItem13focusOutEventEP11QFocusEvent U 0 0
__ZN13QGraphicsItem13keyPressEventEP9QKeyEvent U 0 0
__ZN13QGraphicsItem13setParentItemEPS_ U 0 0
__ZN13QGraphicsItem14dragEnterEventEP27QGraphicsSceneDragDropEvent U 0 0
__ZN13QGraphicsItem14dragLeaveEventEP27QGraphicsSceneDragDropEvent U 0 0
__ZN13QGraphicsItem14hoverMoveEventEP24QGraphicsSceneHoverEvent U 0 0
__ZN13QGraphicsItem14mouseMoveEventEP24QGraphicsSceneMouseEvent U 0 0
__ZN13QGraphicsItem15hoverEnterEventEP24QGraphicsSceneHoverEvent U 0 0
__ZN13QGraphicsItem15hoverLeaveEventEP24QGraphicsSceneHoverEvent U 0 0
__ZN13QGraphicsItem15keyReleaseEventEP9QKeyEvent U 0 0
__ZN13QGraphicsItem15mousePressEventEP24QGraphicsSceneMouseEvent U 0 0
__ZN13QGraphicsItem16contextMenuEventEP30QGraphicsSceneContextMenuEvent U 0 0
__ZN13QGraphicsItem16inputMethodEventEP17QInputMethodEvent U 0 0
__ZN13QGraphicsItem16sceneEventFilterEPS_P6QEvent U 0 0
__ZN13QGraphicsItem17mouseReleaseEventEP24QGraphicsSceneMouseEvent U 0 0
__ZN13QGraphicsItem20setAcceptHoverEventsEb U 0 0
__ZN13QGraphicsItem21mouseDoubleClickEventEP24QGraphicsSceneMouseEvent U 0 0
__ZN13QGraphicsItem21prepareGeometryChangeEv U 0 0
__ZN13QGraphicsItem23setAcceptedMouseButtonsE6QFlagsIN2Qt11MouseButtonEE U 0 0
__ZN13QGraphicsItem6setPosERK7QPointF U 0 0
__ZN13QGraphicsItem6updateERK6QRectF U 0 0
__ZN13QGraphicsItem7advanceEi U 0 0
__ZN13QGraphicsItem7setFlagENS_16GraphicsItemFlagEb U 0 0
__ZN13QGraphicsItem8setFlagsE6QFlagsINS_16GraphicsItemFlagEE U 0 0
__ZN13QGraphicsItem9dropEventEP27QGraphicsSceneDragDropEvent U 0 0
__ZN13QGraphicsItem9setCursorERK7QCursor U 0 0
__ZN13QGraphicsItem9setZValueEd U 0 0
__ZN13QGraphicsItemC2EPS_ U 0 0
__ZN13QGraphicsItemD2Ev U 0 0
__ZN13QGraphicsView10paintEventEP11QPaintEvent U 0 0
__ZN13QGraphicsView11qt_metacallEN11QMetaObject4CallEiPPv U 0 0
__ZN13QGraphicsView11qt_metacastEPKc U 0 0
__ZN13QGraphicsView11resizeEventEP12QResizeEvent U 0 0
__ZN13QGraphicsView12setSceneRectERK6QRectF U 0 0
__ZN13QGraphicsView12setTransformERK10QTransformb U 0 0
__ZN13QGraphicsView13dragMoveEventEP14QDragMoveEvent U 0 0
__ZN13QGraphicsView13focusOutEventEP11QFocusEvent U 0 0
__ZN13QGraphicsView13setRenderHintEN8QPainter10RenderHintEb U 0 0
__ZN13QGraphicsView13setupViewportEP7QWidget U 0 0
__ZN13QGraphicsView13viewportEventEP6QEvent U 0 0
__ZN13QGraphicsView14dragEnterEventEP15QDragEnterEvent U 0 0
__ZN13QGraphicsView14dragLeaveEventEP15QDragLeaveEvent U 0 0
__ZN13QGraphicsView14drawBackgroundEP8QPainterRK6QRectF U 0 0
__ZN13QGraphicsView14drawForegroundEP8QPainterRK6QRectF U 0 0
__ZN13QGraphicsView14mouseMoveEventEP11QMouseEvent U 0 0
__ZN13QGraphicsView14setInteractiveEb U 0 0
__ZN13QGraphicsView15keyReleaseEventEP9QKeyEvent U 0 0
__ZN13QGraphicsView15mousePressEventEP11QMouseEvent U 0 0
__ZN13QGraphicsView15setResizeAnchorENS_14ViewportAnchorE U 0 0
__ZN13QGraphicsView16contextMenuEventEP17QContextMenuEvent U 0 0
__ZN13QGraphicsView16inputMethodEventEP17QInputMethodEvent U 0 0
__ZN13QGraphicsView16scrollContentsByEii U 0 0
__ZN13QGraphicsView16staticMetaObjectE U 0 0
__ZN13QGraphicsView17mouseReleaseEventEP11QMouseEvent U 0 0
__ZN13QGraphicsView18focusNextPrevChildEb U 0 0
__ZN13QGraphicsView20setOptimizationFlagsE6QFlagsINS_16OptimizationFlagEE U 0 0
__ZN13QGraphicsView21mouseDoubleClickEventEP11QMouseEvent U 0 0
__ZN13QGraphicsView23setTransformationAnchorENS_14ViewportAnchorE U 0 0
__ZN13QGraphicsView5eventEP6QEvent U 0 0
__ZN13QGraphicsView8centerOnERK7QPointF U 0 0
__ZN13QGraphicsView8setSceneEP14QGraphicsScene U 0 0
__ZN13QGraphicsView9drawItemsEP8QPainteriPP13QGraphicsItemPK24QStyleOptionGraphicsItem U 0 0
__ZN13QGraphicsView9dropEventEP10QDropEvent U 0 0
__ZN13QGraphicsView9showEventEP10QShowEvent U 0 0
__ZN13QGraphicsViewC2EP7QWidget U 0 0
__ZN13QGraphicsViewD2Ev U 0 0
__ZN13QIntValidatorC1EiiP7QObject U 0 0
__ZN13QItemDelegate11editorEventEP6QEventP18QAbstractItemModelRK20QStyleOptionViewItemRK11QModelIndex U 0 0
__ZN13QItemDelegate11eventFilterEP7QObjectP6QEvent U 0 0
__ZN13QItemDelegate11qt_metacallEN11QMetaObject4CallEiPPv U 0 0
__ZN13QItemDelegate11qt_metacastEPKc U 0 0
__ZN13QItemDelegate11setClippingEb U 0 0
__ZN13QItemDelegateC2EP7QObject U 0 0
__ZN13QItemDelegateD2Ev U 0 0
__ZN13QJsonDocument8fromJsonERK10QByteArrayP15QJsonParseError U 0 0
__ZN13QJsonDocumentC1ERK10QJsonArray U 0 0
__ZN13QJsonDocumentC1ERK11QJsonObject U 0 0
__ZN13QJsonDocumentD1Ev U 0 0
__ZN13QJsonValueRefaSERK10QJsonValue U 0 0
__ZN13QNetworkReply16staticMetaObjectE U 0 0
__ZN13QOpenGLWidget16staticMetaObjectE U 0 0
__ZN13QOpenGLWidget9setFormatERK14QSurfaceFormat U 0 0
__ZN13QOpenGLWidgetC1EP7QWidget6QFlagsIN2Qt10WindowTypeEE U 0 0
__ZN13QStyleFactory6createERK7QString U 0 0
__ZN14QDoubleSpinBox10setMinimumEd U 0 0
__ZN14QDoubleSpinBox11qt_metacallEN11QMetaObject4CallEiPPv U 0 0
__ZN14QDoubleSpinBox11qt_metacastEPKc U 0 0
__ZN14QDoubleSpinBox11setDecimalsEi U 0 0
__ZN14QDoubleSpinBox12valueChangedEd U 0 0
__ZN14QDoubleSpinBox13setSingleStepEd U 0 0
__ZN14QDoubleSpinBox16staticMetaObjectE U 0 0
__ZN14QDoubleSpinBox8setRangeEdd U 0 0
__ZN14QDoubleSpinBox8setValueEd U 0 0
__ZN14QDoubleSpinBox9setPrefixERK7QString U 0 0
__ZN14QDoubleSpinBox9setSuffixERK7QString U 0 0
__ZN14QDoubleSpinBoxC2EP7QWidget U 0 0
__ZN14QDoubleSpinBoxD2Ev U 0 0
__ZN14QGraphicsScene10removeItemEP13QGraphicsItem U 0 0
__ZN14QGraphicsScene10wheelEventEP24QGraphicsSceneWheelEvent U 0 0
__ZN14QGraphicsScene11qt_metacallEN11QMetaObject4CallEiPPv U 0 0
__ZN14QGraphicsScene11qt_metacastEPKc U 0 0
__ZN14QGraphicsScene12focusInEventEP11QFocusEvent U 0 0
__ZN14QGraphicsScene12setSceneRectERK6QRectF U 0 0
__ZN14QGraphicsScene13focusOutEventEP11QFocusEvent U 0 0
__ZN14QGraphicsScene13keyPressEventEP9QKeyEvent U 0 0
__ZN14QGraphicsScene14dragEnterEventEP27QGraphicsSceneDragDropEvent U 0 0
__ZN14QGraphicsScene14drawBackgroundEP8QPainterRK6QRectF U 0 0
__ZN14QGraphicsScene14drawForegroundEP8QPainterRK6QRectF U 0 0
__ZN14QGraphicsScene14mouseMoveEventEP24QGraphicsSceneMouseEvent U 0 0
__ZN14QGraphicsScene15keyReleaseEventEP9QKeyEvent U 0 0
__ZN14QGraphicsScene15mousePressEventEP24QGraphicsSceneMouseEvent U 0 0
__ZN14QGraphicsScene16contextMenuEventEP30QGraphicsSceneContextMenuEvent U 0 0
__ZN14QGraphicsScene16inputMethodEventEP17QInputMethodEvent U 0 0
__ZN14QGraphicsScene16staticMetaObjectE U 0 0
__ZN14QGraphicsScene17mouseReleaseEventEP24QGraphicsSceneMouseEvent U 0 0
__ZN14QGraphicsScene18focusNextPrevChildEb U 0 0
__ZN14QGraphicsScene18setBackgroundBrushERK6QBrush U 0 0
__ZN14QGraphicsScene21mouseDoubleClickEventEP24QGraphicsSceneMouseEvent U 0 0
__ZN14QGraphicsScene5eventEP6QEvent U 0 0
__ZN14QGraphicsScene6updateERK6QRectF U 0 0
__ZN14QGraphicsScene7addItemEP13QGraphicsItem U 0 0
__ZN14QGraphicsScene9drawItemsEP8QPainteriPP13QGraphicsItemPK24QStyleOptionGraphicsItemP7QWidget U 0 0
__ZN14QGraphicsScene9helpEventEP23QGraphicsSceneHelpEvent U 0 0
__ZN14QGraphicsSceneC2EP7QObject U 0 0
__ZN14QGraphicsSceneD2Ev U 0 0
__ZN14QItemSelection6selectERK11QModelIndexS2_ U 0 0
__ZN14QPlainTextEdit10appendHtmlERK7QString U 0 0
__ZN14QPlainTextEdit10paintEventEP11QPaintEvent U 0 0
__ZN14QPlainTextEdit10timerEventEP11QTimerEvent U 0 0
__ZN14QPlainTextEdit10wheelEventEP11QWheelEvent U 0 0
__ZN14QPlainTextEdit11changeEventEP6QEvent U 0 0
__ZN14QPlainTextEdit11qt_metacallEN11QMetaObject4CallEiPPv U 0 0
__ZN14QPlainTextEdit11qt_metacastEPKc U 0 0
__ZN14QPlainTextEdit11resizeEventEP12QResizeEvent U 0 0
__ZN14QPlainTextEdit11setReadOnlyEb U 0 0
__ZN14QPlainTextEdit12focusInEventEP11QFocusEvent U 0 0
__ZN14QPlainTextEdit12loadResourceEiRK4QUrl U 0 0
__ZN14QPlainTextEdit12setPlainTextERK7QString U 0 0
__ZN14QPlainTextEdit13dragMoveEventEP14QDragMoveEvent U 0 0
__ZN14QPlainTextEdit13focusOutEventEP11QFocusEvent U 0 0
__ZN14QPlainTextEdit13keyPressEventEP9QKeyEvent U 0 0
__ZN14QPlainTextEdit14dragEnterEventEP15QDragEnterEvent U 0 0
__ZN14QPlainTextEdit14dragLeaveEventEP15QDragLeaveEvent U 0 0
__ZN14QPlainTextEdit14mouseMoveEventEP11QMouseEvent U 0 0
__ZN14QPlainTextEdit15doSetTextCursorERK11QTextCursor U 0 0
__ZN14QPlainTextEdit15keyReleaseEventEP9QKeyEvent U 0 0
__ZN14QPlainTextEdit15mousePressEventEP11QMouseEvent U 0 0
__ZN14QPlainTextEdit16inputMethodEventEP17QInputMethodEvent U 0 0
__ZN14QPlainTextEdit16scrollContentsByEii U 0 0
__ZN14QPlainTextEdit16staticMetaObjectE U 0 0
__ZN14QPlainTextEdit17mouseReleaseEventEP11QMouseEvent U 0 0
__ZN14QPlainTextEdit18focusNextPrevChildEb U 0 0
__ZN14QPlainTextEdit18insertFromMimeDataEPK9QMimeData U 0 0
__ZN14QPlainTextEdit21mouseDoubleClickEventEP11QMouseEvent U 0 0
__ZN14QPlainTextEdit25createStandardContextMenuERK6QPoint U 0 0
__ZN14QPlainTextEdit5clearEv U 0 0
__ZN14QPlainTextEdit5eventEP6QEvent U 0 0
__ZN14QPlainTextEdit9dropEventEP10QDropEvent U 0 0
__ZN14QPlainTextEdit9showEventEP10QShowEvent U 0 0
__ZN14QPlainTextEditC1EP7QWidget U 0 0
__ZN14QPlainTextEditC2EP7QWidget U 0 0
__ZN14QPlainTextEditD2Ev U 0 0
__ZN14QStackedLayout16setCurrentWidgetEP7QWidget U 0 0
__ZN14QStackedLayout9addWidgetEP7QWidget U 0 0
__ZN14QStackedLayoutC1Ev U 0 0
__ZN14QStackedWidget12insertWidgetEiP7QWidget U 0 0
__ZN14QStackedWidget12removeWidgetEP7QWidget U 0 0
__ZN14QStackedWidget14currentChangedEi U 0 0
__ZN14QStackedWidget15setCurrentIndexEi U 0 0
__ZN14QStackedWidget16setCurrentWidgetEP7QWidget U 0 0
__ZN14QStackedWidget16staticMetaObjectE U 0 0
__ZN14QStackedWidget9addWidgetEP7QWidget U 0 0
__ZN14QStackedWidgetC1EP7QWidget U 0 0
__ZN14QStandardPaths14findExecutableERK7QStringRK5QListIS0_E U 0 0
__ZN14QStandardPaths16writableLocationENS_16StandardLocationE U 0 0
__ZN14QSurfaceFormat10setSamplesEi U 0 0
__ZN14QSurfaceFormat13defaultFormatEv U 0 0
__ZN14QSurfaceFormat18setDepthBufferSizeEi U 0 0
__ZN14QSurfaceFormatD1Ev U 0 0
__ZN14QTemporaryFileC1ERK7QString U 0 0
__ZN14QTemporaryFileD1Ev U 0 0
__ZN14QVersionNumber10fromStringE14QAnyStringViewPx U 0 0
__ZN14QVersionNumber7compareERKS_S1_ U 0 0
__ZN15QAbstractButton10setCheckedEb U 0 0
__ZN15QAbstractButton10timerEventEP11QTimerEvent U 0 0
__ZN15QAbstractButton11changeEventEP6QEvent U 0 0
__ZN15QAbstractButton11setIconSizeERK5QSize U 0 0
__ZN15QAbstractButton12focusInEventEP11QFocusEvent U 0 0
__ZN15QAbstractButton12setCheckableEb U 0 0
__ZN15QAbstractButton13checkStateSetEv U 0 0
__ZN15QAbstractButton13focusOutEventEP11QFocusEvent U 0 0
__ZN15QAbstractButton13keyPressEventEP9QKeyEvent U 0 0
__ZN15QAbstractButton14mouseMoveEventEP11QMouseEvent U 0 0
__ZN15QAbstractButton14nextCheckStateEv U 0 0
__ZN15QAbstractButton15keyReleaseEventEP9QKeyEvent U 0 0
__ZN15QAbstractButton15mousePressEventEP11QMouseEvent U 0 0
__ZN15QAbstractButton16setAutoExclusiveEb U 0 0
__ZN15QAbstractButton16staticMetaObjectE U 0 0
__ZN15QAbstractButton17mouseReleaseEventEP11QMouseEvent U 0 0
__ZN15QAbstractButton7clickedEb U 0 0
__ZN15QAbstractButton7pressedEv U 0 0
__ZN15QAbstractButton7setDownEb U 0 0
__ZN15QAbstractButton7setIconERK5QIcon U 0 0
__ZN15QAbstractButton7setTextERK7QString U 0 0
__ZN15QAbstractButton7toggledEb U 0 0
__ZN15QAbstractSlider10setMaximumEi U 0 0
__ZN15QAbstractSlider10timerEventEP11QTimerEvent U 0 0
__ZN15QAbstractSlider10wheelEventEP11QWheelEvent U 0 0
__ZN15QAbstractSlider11changeEventEP6QEvent U 0 0
__ZN15QAbstractSlider12rangeChangedEii U 0 0
__ZN15QAbstractSlider12sliderChangeENS_12SliderChangeE U 0 0
__ZN15QAbstractSlider12valueChangedEi U 0 0
__ZN15QAbstractSlider13keyPressEventEP9QKeyEvent U 0 0
__ZN15QAbstractSlider13setSingleStepEi U 0 0
__ZN15QAbstractSlider13triggerActionENS_12SliderActionE U 0 0
__ZN15QAbstractSlider14setOrientationEN2Qt11OrientationE U 0 0
__ZN15QAbstractSlider16staticMetaObjectE U 0 0
__ZN15QAbstractSlider8setRangeEii U 0 0
__ZN15QAbstractSlider8setValueEi U 0 0
__ZN15QAnimationGroup12addAnimationEP18QAbstractAnimation U 0 0
__ZN15QGraphicsObject11qt_metacallEN11QMetaObject4CallEiPPv U 0 0
__ZN15QGraphicsObject11qt_metacastEPKc U 0 0
__ZN15QGraphicsObject16staticMetaObjectE U 0 0
__ZN15QGraphicsObject5eventEP6QEvent U 0 0
__ZN15QGraphicsObjectC2EP13QGraphicsItem U 0 0
__ZN15QGraphicsObjectD2Ev U 0 0
__ZN15QGuiApplication10styleHintsEv U 0 0
__ZN15QGuiApplication12mouseButtonsEv U 0 0
__ZN15QGuiApplication13primaryScreenEv U 0 0
__ZN15QGuiApplication16staticMetaObjectE U 0 0
__ZN15QGuiApplication17commitDataRequestER15QSessionManager U 0 0
__ZN15QGuiApplication17keyboardModifiersEv U 0 0
__ZN15QGuiApplication18setDesktopFileNameERK7QString U 0 0
__ZN15QGuiApplication22applicationDisplayNameEv U 0 0
__ZN15QGuiApplication25setApplicationDisplayNameERK7QString U 0 0
__ZN15QGuiApplication4fontEv U 0 0
__ZN15QGuiApplication7paletteEv U 0 0
__ZN15QGuiApplication9clipboardEv U 0 0
__ZN15QLinearGradient12setFinalStopERK7QPointF U 0 0
__ZN15QLinearGradient8setStartERK7QPointF U 0 0
__ZN15QLinearGradientC1ERK7QPointFS2_ U 0 0
__ZN15QLinearGradientC1Edddd U 0 0
__ZN15QLinearGradientC1Ev U 0 0
__ZN15QLinearGradientD1Ev U 0 0
__ZN15QNetworkRequestC1ERK4QUrl U 0 0
__ZN15QNetworkRequestD1Ev U 0 0
__ZN15QSessionManager17allowsInteractionEv U 0 0
__ZN15QSessionManager6cancelEv U 0 0
__ZN15QStyleOptionTabC1Ev U 0 0
__ZN15QtSharedPointer20ExternalRefCountData16setQObjectSharedEPK7QObjectb U 0 0
__ZN15QtSharedPointer20ExternalRefCountData9getAndRefEPK7QObject U 0 0
__ZN16QAbstractSpinBox10closeEventEP11QCloseEvent U 0 0
__ZN16QAbstractSpinBox10paintEventEP11QPaintEvent U 0 0
__ZN16QAbstractSpinBox10timerEventEP11QTimerEvent U 0 0
__ZN16QAbstractSpinBox10wheelEventEP11QWheelEvent U 0 0
__ZN16QAbstractSpinBox11changeEventEP6QEvent U 0 0
__ZN16QAbstractSpinBox11resizeEventEP12QResizeEvent U 0 0
__ZN16QAbstractSpinBox12focusInEventEP11QFocusEvent U 0 0
__ZN16QAbstractSpinBox13focusOutEventEP11QFocusEvent U 0 0
__ZN16QAbstractSpinBox13keyPressEventEP9QKeyEvent U 0 0
__ZN16QAbstractSpinBox14mouseMoveEventEP11QMouseEvent U 0 0
__ZN16QAbstractSpinBox15keyReleaseEventEP9QKeyEvent U 0 0
__ZN16QAbstractSpinBox15mousePressEventEP11QMouseEvent U 0 0
__ZN16QAbstractSpinBox16contextMenuEventEP17QContextMenuEvent U 0 0
__ZN16QAbstractSpinBox17mouseReleaseEventEP11QMouseEvent U 0 0
__ZN16QAbstractSpinBox19setKeyboardTrackingEb U 0 0
__ZN16QAbstractSpinBox5clearEv U 0 0
__ZN16QAbstractSpinBox5eventEP6QEvent U 0 0
__ZN16QAbstractSpinBox6stepByEi U 0 0
__ZN16QAbstractSpinBox9hideEventEP10QHideEvent U 0 0
__ZN16QAbstractSpinBox9showEventEP10QShowEvent U 0 0
__ZN16QCoreApplication17installTranslatorEP11QTranslator U 0 0
__ZN16QCoreApplication18applicationDirPathEv U 0 0
__ZN16QCoreApplication18applicationVersionEv U 0 0
__ZN16QCoreApplication18setApplicationNameERK7QString U 0 0
__ZN16QCoreApplication19applicationFilePathEv U 0 0
__ZN16QCoreApplication21setApplicationVersionERK7QString U 0 0
__ZN16QCoreApplication21setOrganizationDomainERK7QString U 0 0
__ZN16QCoreApplication4selfE U 0 0
__ZN16QCoreApplication9sendEventEP7QObjectP6QEvent U 0 0
__ZN16QCoreApplication9translateEPKcS1_S1_i U 0 0
__ZN16QDebugStateSaverC1ER6QDebug U 0 0
__ZN16QDebugStateSaverD1Ev U 0 0
__ZN16QDesktopServices7openUrlERK4QUrl U 0 0
__ZN16QDialogButtonBox14setOrientationEN2Qt11OrientationE U 0 0
__ZN16QDialogButtonBox16staticMetaObjectE U 0 0
__ZN16QDialogButtonBox18setStandardButtonsE6QFlagsINS_14StandardButtonEE U 0 0
__ZN16QDialogButtonBox7clickedEP15QAbstractButton U 0 0
__ZN16QDialogButtonBox8acceptedEv U 0 0
__ZN16QDialogButtonBox8rejectedEv U 0 0
__ZN16QDialogButtonBox9addButtonERK7QStringNS_10ButtonRoleE U 0 0
__ZN16QDialogButtonBoxC1E6QFlagsINS_14StandardButtonEEN2Qt11OrientationEP7QWidget U 0 0
__ZN16QDialogButtonBoxC1EP7QWidget U 0 0
__ZN16QJSValueIterator4nextEv U 0 0
__ZN16QJSValueIteratorC1ERK8QJSValue U 0 0
__ZN16QJSValueIteratorD1Ev U 0 0
__ZN16QKeySequenceEdit14setKeySequenceERK12QKeySequence U 0 0
__ZN16QKeySequenceEdit15editingFinishedEv U 0 0
__ZN16QKeySequenceEdit16staticMetaObjectE U 0 0
__ZN16QKeySequenceEdit18keySequenceChangedERK12QKeySequence U 0 0
__ZN16QKeySequenceEdit5clearEv U 0 0
__ZN16QKeySequenceEditC1EP7QWidget U 0 0
__ZN16QStringConverter15encodingForDataE14QByteArrayViewDs U 0 0
__ZN16QStringConverter15encodingForNameE14QAnyStringView U 0 0
__ZN16QStringConverter15nameForEncodingENS_8EncodingE U 0 0
__ZN16QStringConverter18encodingInterfacesE U 0 0
__ZN16QStringListModel13setStringListERK5QListI7QStringE U 0 0
__ZN16QStringListModelC1EP7QObject U 0 0
__ZN16QXmlStreamReader15readElementTextENS_24ReadElementTextBehaviourE U 0 0
__ZN16QXmlStreamReader18skipCurrentElementEv U 0 0
__ZN16QXmlStreamReader20readNextStartElementEv U 0 0
__ZN16QXmlStreamReaderC1EP9QIODevice U 0 0
__ZN16QXmlStreamReaderD1Ev U 0 0
__ZN16QXmlStreamWriter12writeCommentE14QAnyStringView U 0 0
__ZN16QXmlStreamWriter14writeAttributeE14QAnyStringViewS0_ U 0 0
__ZN16QXmlStreamWriter15writeEndElementEv U 0 0
__ZN16QXmlStreamWriter16writeEndDocumentEv U 0 0
__ZN16QXmlStreamWriter17setAutoFormattingEb U 0 0
__ZN16QXmlStreamWriter17writeEmptyElementE14QAnyStringView U 0 0
__ZN16QXmlStreamWriter17writeStartElementE14QAnyStringView U 0 0
__ZN16QXmlStreamWriter18writeStartDocumentEv U 0 0
__ZN16QXmlStreamWriter23setAutoFormattingIndentEi U 0 0
__ZN16QXmlStreamWriter8writeDTDE14QAnyStringView U 0 0
__ZN16QXmlStreamWriterC1EP9QIODevice U 0 0
__ZN16QXmlStreamWriterD1Ev U 0 0
__ZN17QAbstractItemView10commitDataEP7QWidget U 0 0
__ZN17QAbstractItemView10timerEventEP11QTimerEvent U 0 0
__ZN17QAbstractItemView11closeEditorEP7QWidgetN21QAbstractItemDelegate11EndEditHintE U 0 0
__ZN17QAbstractItemView11dataChangedERK11QModelIndexS2_RK5QListIiE U 0 0
__ZN17QAbstractItemView11eventFilterEP7QObjectP6QEvent U 0 0
__ZN17QAbstractItemView11resizeEventEP12QResizeEvent U 0 0
__ZN17QAbstractItemView11setIconSizeERK5QSize U 0 0
__ZN17QAbstractItemView12focusInEventEP11QFocusEvent U 0 0
__ZN17QAbstractItemView12rowsInsertedERK11QModelIndexii U 0 0
__ZN17QAbstractItemView12setRootIndexERK11QModelIndex U 0 0
__ZN17QAbstractItemView13doubleClickedERK11QModelIndex U 0 0
__ZN17QAbstractItemView13dragMoveEventEP14QDragMoveEvent U 0 0
__ZN17QAbstractItemView13focusOutEventEP11QFocusEvent U 0 0
__ZN17QAbstractItemView13keyPressEventEP9QKeyEvent U 0 0
__ZN17QAbstractItemView13viewportEventEP6QEvent U 0 0
__ZN17QAbstractItemView14dragEnterEventEP15QDragEnterEvent U 0 0
__ZN17QAbstractItemView14dragLeaveEventEP15QDragLeaveEvent U 0 0
__ZN17QAbstractItemView14keyboardSearchERK7QString U 0 0
__ZN17QAbstractItemView14mouseMoveEventEP11QMouseEvent U 0 0
__ZN17QAbstractItemView14setDragEnabledEb U 0 0
__ZN17QAbstractItemView15editorDestroyedEP7QObject U 0 0
__ZN17QAbstractItemView15mousePressEventEP11QMouseEvent U 0 0
__ZN17QAbstractItemView15setCurrentIndexERK11QModelIndex U 0 0
__ZN17QAbstractItemView15setDragDropModeENS_12DragDropModeE U 0 0
__ZN17QAbstractItemView15setEditTriggersE6QFlagsINS_11EditTriggerEE U 0 0
__ZN17QAbstractItemView15setItemDelegateEP21QAbstractItemDelegate U 0 0
__ZN17QAbstractItemView16inputMethodEventEP17QInputMethodEvent U 0 0
__ZN17QAbstractItemView16selectionChangedERK14QItemSelectionS2_ U 0 0
__ZN17QAbstractItemView16setSelectionModeENS_13SelectionModeE U 0 0
__ZN17QAbstractItemView16staticMetaObjectE U 0 0
__ZN17QAbstractItemView16updateEditorDataEv U 0 0
__ZN17QAbstractItemView17mouseReleaseEventEP11QMouseEvent U 0 0
__ZN17QAbstractItemView17setSelectionModelEP19QItemSelectionModel U 0 0
__ZN17QAbstractItemView18focusNextPrevChildEb U 0 0
__ZN17QAbstractItemView19setTabKeyNavigationEb U 0 0
__ZN17QAbstractItemView20rowsAboutToBeRemovedERK11QModelIndexii U 0 0
__ZN17QAbstractItemView20setDefaultDropActionEN2Qt10DropActionE U 0 0
__ZN17QAbstractItemView20setSelectionBehaviorENS_17SelectionBehaviorE U 0 0
__ZN17QAbstractItemView21closePersistentEditorERK11QModelIndex U 0 0
__ZN17QAbstractItemView21mouseDoubleClickEventEP11QMouseEvent U 0 0
__ZN17QAbstractItemView21setDropIndicatorShownEb U 0 0
__ZN17QAbstractItemView21setVerticalScrollModeENS_10ScrollModeE U 0 0
__ZN17QAbstractItemView22updateEditorGeometriesEv U 0 0
__ZN17QAbstractItemView23setAlternatingRowColorsEb U 0 0
__ZN17QAbstractItemView23setHorizontalScrollModeENS_10ScrollModeE U 0 0
__ZN17QAbstractItemView23verticalScrollbarActionEi U 0 0
__ZN17QAbstractItemView24setItemDelegateForColumnEiP21QAbstractItemDelegate U 0 0
__ZN17QAbstractItemView25executeDelayedItemsLayoutEv U 0 0
__ZN17QAbstractItemView25horizontalScrollbarActionEi U 0 0
__ZN17QAbstractItemView26scheduleDelayedItemsLayoutEv U 0 0
__ZN17QAbstractItemView29verticalScrollbarValueChangedEi U 0 0
__ZN17QAbstractItemView31horizontalScrollbarValueChangedEi U 0 0
__ZN17QAbstractItemView4editERK11QModelIndex U 0 0
__ZN17QAbstractItemView4editERK11QModelIndexNS_11EditTriggerEP6QEvent U 0 0
__ZN17QAbstractItemView5eventEP6QEvent U 0 0
__ZN17QAbstractItemView5resetEv U 0 0
__ZN17QAbstractItemView6updateERK11QModelIndex U 0 0
__ZN17QAbstractItemView7clickedERK11QModelIndex U 0 0
__ZN17QAbstractItemView7pressedERK11QModelIndex U 0 0
__ZN17QAbstractItemView8setModelEP18QAbstractItemModel U 0 0
__ZN17QAbstractItemView9activatedERK11QModelIndex U 0 0
__ZN17QAbstractItemView9dropEventEP10QDropEvent U 0 0
__ZN17QAbstractItemView9selectAllEv U 0 0
__ZN17QAbstractItemView9startDragE6QFlagsIN2Qt10DropActionEE U 0 0
__ZN17QFileIconProviderC1Ev U 0 0
__ZN17QFileIconProviderD1Ev U 0 0
__ZN17QGraphicsRectItem7setRectERK6QRectF U 0 0
__ZN17QGraphicsRectItemC1EP13QGraphicsItem U 0 0
__ZN17QStyleOptionFrameC1Ev U 0 0
__ZN17QVariantAnimation11setDurationEi U 0 0
__ZN17QVariantAnimation11setEndValueERK8QVariant U 0 0
__ZN17QVariantAnimation12valueChangedERK8QVariant U 0 0
__ZN17QVariantAnimation13setStartValueERK8QVariant U 0 0
__ZN17QVariantAnimation14setEasingCurveERK12QEasingCurve U 0 0
__ZN17QVariantAnimation16staticMetaObjectE U 0 0
__ZN17QVariantAnimationC1EP7QObject U 0 0
__ZN18QAbstractAnimation16staticMetaObjectE U 0 0
__ZN18QAbstractAnimation4stopEv U 0 0
__ZN18QAbstractAnimation5startENS_14DeletionPolicyE U 0 0
__ZN18QAbstractAnimation8finishedEv U 0 0
__ZN18QAbstractItemModel10insertRowsEiiRK11QModelIndex U 0 0
__ZN18QAbstractItemModel10modelResetENS_14QPrivateSignalE U 0 0
__ZN18QAbstractItemModel10removeRowsEiiRK11QModelIndex U 0 0
__ZN18QAbstractItemModel11dataChangedERK11QModelIndexS2_RK5QListIiE U 0 0
__ZN18QAbstractItemModel11endMoveRowsEv U 0 0
__ZN18QAbstractItemModel11moveColumnsERK11QModelIndexiiS2_i U 0 0
__ZN18QAbstractItemModel11qt_metacallEN11QMetaObject4CallEiPPv U 0 0
__ZN18QAbstractItemModel11qt_metacastEPKc U 0 0
__ZN18QAbstractItemModel11rowsRemovedERK11QModelIndexiiNS_14QPrivateSignalE U 0 0
__ZN18QAbstractItemModel11setItemDataERK11QModelIndexRK4QMapIi8QVariantE U 0 0
__ZN18QAbstractItemModel12dropMimeDataEPK9QMimeDataN2Qt10DropActionEiiRK11QModelIndex U 0 0
__ZN18QAbstractItemModel12rowsInsertedERK11QModelIndexiiNS_14QPrivateSignalE U 0 0
__ZN18QAbstractItemModel13beginMoveRowsERK11QModelIndexiiS2_i U 0 0
__ZN18QAbstractItemModel13clearItemDataERK11QModelIndex U 0 0
__ZN18QAbstractItemModel13endInsertRowsEv U 0 0
__ZN18QAbstractItemModel13endRemoveRowsEv U 0 0
__ZN18QAbstractItemModel13endResetModelEv U 0 0
__ZN18QAbstractItemModel13insertColumnsEiiRK11QModelIndex U 0 0
__ZN18QAbstractItemModel13layoutChangedERK5QListI21QPersistentModelIndexENS_16LayoutChangeHintE U 0 0
__ZN18QAbstractItemModel13removeColumnsEiiRK11QModelIndex U 0 0
__ZN18QAbstractItemModel13setHeaderDataEiN2Qt11OrientationERK8QVarianti U 0 0
__ZN18QAbstractItemModel15beginInsertRowsERK11QModelIndexii U 0 0
__ZN18QAbstractItemModel15beginRemoveRowsERK11QModelIndexii U 0 0
__ZN18QAbstractItemModel15beginResetModelEv U 0 0
__ZN18QAbstractItemModel16staticMetaObjectE U 0 0
__ZN18QAbstractItemModel17headerDataChangedEN2Qt11OrientationEii U 0 0
__ZN18QAbstractItemModel17resetInternalDataEv U 0 0
__ZN18QAbstractItemModel20rowsAboutToBeRemovedERK11QModelIndexiiNS_14QPrivateSignalE U 0 0
__ZN18QAbstractItemModel22layoutAboutToBeChangedERK5QListI21QPersistentModelIndexENS_16LayoutChangeHintE U 0 0
__ZN18QAbstractItemModel25changePersistentIndexListERK5QListI11QModelIndexES4_ U 0 0
__ZN18QAbstractItemModel4sortEiN2Qt9SortOrderE U 0 0
__ZN18QAbstractItemModel6revertEv U 0 0
__ZN18QAbstractItemModel6submitEv U 0 0
__ZN18QAbstractItemModel7setDataERK11QModelIndexRK8QVarianti U 0 0
__ZN18QAbstractItemModel8moveRowsERK11QModelIndexiiS2_i U 0 0
__ZN18QAbstractItemModel9fetchMoreERK11QModelIndex U 0 0
__ZN18QAbstractItemModel9rowsMovedERK11QModelIndexiiS2_iNS_14QPrivateSignalE U 0 0
__ZN18QAbstractItemModelC2EP7QObject U 0 0
__ZN18QAbstractItemModelD2Ev U 0 0
__ZN18QAbstractListModel11qt_metacallEN11QMetaObject4CallEiPPv U 0 0
__ZN18QAbstractListModel11qt_metacastEPKc U 0 0
__ZN18QAbstractListModel12dropMimeDataEPK9QMimeDataN2Qt10DropActionEiiRK11QModelIndex U 0 0
__ZN18QAbstractListModel16staticMetaObjectE U 0 0
__ZN18QAbstractListModelC2EP7QObject U 0 0
__ZN18QAbstractListModelD2Ev U 0 0
__ZN18QFileSystemWatcher10removePathERK7QString U 0 0
__ZN18QFileSystemWatcher11fileChangedERK7QStringNS_14QPrivateSignalE U 0 0
__ZN18QFileSystemWatcher16staticMetaObjectE U 0 0
__ZN18QFileSystemWatcher7addPathERK7QString U 0 0
__ZN18QFileSystemWatcherC1EP7QObject U 0 0
__ZN18QFileSystemWatcherD1Ev U 0 0
__ZN18QItemEditorFactory14registerEditorEiP22QItemEditorCreatorBase U 0 0
__ZN18QJsonValueConstRef8concreteES_ U 0 0
__ZN18QPropertyAnimationC1EP7QObjectRK10QByteArrayS1_ U 0 0
__ZN18QRegularExpression10setPatternERK7QString U 0 0
__ZN18QRegularExpression17setPatternOptionsE6QFlagsINS_13PatternOptionEE U 0 0
__ZN18QRegularExpression27wildcardToRegularExpressionE11QStringView6QFlagsINS_24WildcardConversionOptionEE U 0 0
__ZN18QRegularExpressionC1ERK7QString6QFlagsINS_13PatternOptionEE U 0 0
__ZN18QRegularExpressionC1ERKS_ U 0 0
__ZN18QRegularExpressionC1Ev U 0 0
__ZN18QRegularExpressionD1Ev U 0 0
__ZN18QRegularExpressionaSERKS_ U 0 0
__ZN18QStyleOptionButtonC1Ev U 0 0
__ZN19QAbstractProxyModel11setItemDataERK11QModelIndexRK4QMapIi8QVariantE U 0 0
__ZN19QAbstractProxyModel13clearItemDataERK11QModelIndex U 0 0
__ZN19QAbstractProxyModel13setHeaderDataEiN2Qt11OrientationERK8QVarianti U 0 0
__ZN19QAbstractProxyModel4sortEiN2Qt9SortOrderE U 0 0
__ZN19QAbstractProxyModel6revertEv U 0 0
__ZN19QAbstractProxyModel6submitEv U 0 0
__ZN19QAbstractProxyModel7setDataERK11QModelIndexRK8QVarianti U 0 0
__ZN19QAbstractProxyModel9fetchMoreERK11QModelIndex U 0 0
__ZN19QAbstractScrollArea10paintEventEP11QPaintEvent U 0 0
__ZN19QAbstractScrollArea10wheelEventEP11QWheelEvent U 0 0
__ZN19QAbstractScrollArea11eventFilterEP7QObjectP6QEvent U 0 0
__ZN19QAbstractScrollArea11setViewportEP7QWidget U 0 0
__ZN19QAbstractScrollArea13dragMoveEventEP14QDragMoveEvent U 0 0
__ZN19QAbstractScrollArea13keyPressEventEP9QKeyEvent U 0 0
__ZN19QAbstractScrollArea13setupViewportEP7QWidget U 0 0
__ZN19QAbstractScrollArea13viewportEventEP6QEvent U 0 0
__ZN19QAbstractScrollArea14dragEnterEventEP15QDragEnterEvent U 0 0
__ZN19QAbstractScrollArea14dragLeaveEventEP15QDragLeaveEvent U 0 0
__ZN19QAbstractScrollArea14mouseMoveEventEP11QMouseEvent U 0 0
__ZN19QAbstractScrollArea15mousePressEventEP11QMouseEvent U 0 0
__ZN19QAbstractScrollArea16contextMenuEventEP17QContextMenuEvent U 0 0
__ZN19QAbstractScrollArea17mouseReleaseEventEP11QMouseEvent U 0 0
__ZN19QAbstractScrollArea20setVerticalScrollBarEP10QScrollBar U 0 0
__ZN19QAbstractScrollArea21mouseDoubleClickEventEP11QMouseEvent U 0 0
__ZN19QAbstractScrollArea22setHorizontalScrollBarEP10QScrollBar U 0 0
__ZN19QAbstractScrollArea26setVerticalScrollBarPolicyEN2Qt15ScrollBarPolicyE U 0 0
__ZN19QAbstractScrollArea28setHorizontalScrollBarPolicyEN2Qt15ScrollBarPolicyE U 0 0
__ZN19QAbstractScrollArea9dropEventEP10QDropEvent U 0 0
__ZN19QAbstractTableModel11qt_metacallEN11QMetaObject4CallEiPPv U 0 0
__ZN19QAbstractTableModel11qt_metacastEPKc U 0 0
__ZN19QAbstractTableModel16staticMetaObjectE U 0 0
__ZN19QAbstractTableModelC2EP7QObject U 0 0
__ZN19QAbstractTableModelD2Ev U 0 0
__ZN19QIdentityProxyModel10insertRowsEiiRK11QModelIndex U 0 0
__ZN19QIdentityProxyModel10removeRowsEiiRK11QModelIndex U 0 0
__ZN19QIdentityProxyModel11moveColumnsERK11QModelIndexiiS2_i U 0 0
__ZN19QIdentityProxyModel11qt_metacallEN11QMetaObject4CallEiPPv U 0 0
__ZN19QIdentityProxyModel11qt_metacastEPKc U 0 0
__ZN19QIdentityProxyModel12dropMimeDataEPK9QMimeDataN2Qt10DropActionEiiRK11QModelIndex U 0 0
__ZN19QIdentityProxyModel13insertColumnsEiiRK11QModelIndex U 0 0
__ZN19QIdentityProxyModel13removeColumnsEiiRK11QModelIndex U 0 0
__ZN19QIdentityProxyModel14setSourceModelEP18QAbstractItemModel U 0 0
__ZN19QIdentityProxyModel8moveRowsERK11QModelIndexiiS2_i U 0 0
__ZN19QIdentityProxyModelC2EP7QObject U 0 0
__ZN19QIdentityProxyModelD2Ev U 0 0
__ZN19QItemSelectionModel14clearSelectionEv U 0 0
__ZN19QItemSelectionModel14currentChangedERK11QModelIndexS2_ U 0 0
__ZN19QItemSelectionModel16selectionChangedERK14QItemSelectionS2_ U 0 0
__ZN19QItemSelectionModel16staticMetaObjectE U 0 0
__ZN19QItemSelectionModel17currentRowChangedERK11QModelIndexS2_ U 0 0
__ZN19QProcessEnvironment17systemEnvironmentEv U 0 0
__ZN19QProcessEnvironment6insertERK7QStringS2_ U 0 0
__ZN19QProcessEnvironmentD1Ev U 0 0
__ZN19QStyledItemDelegate11editorEventEP6QEventP18QAbstractItemModelRK20QStyleOptionViewItemRK11QModelIndex U 0 0
__ZN19QStyledItemDelegate11eventFilterEP7QObjectP6QEvent U 0 0
__ZN19QStyledItemDelegate11qt_metacallEN11QMetaObject4CallEiPPv U 0 0
__ZN19QStyledItemDelegate11qt_metacastEPKc U 0 0
__ZN19QStyledItemDelegate16staticMetaObjectE U 0 0
__ZN19QStyledItemDelegate20setItemEditorFactoryEP18QItemEditorFactory U 0 0
__ZN19QStyledItemDelegateC1EP7QObject U 0 0
__ZN19QStyledItemDelegateC2EP7QObject U 0 0
__ZN19QStyledItemDelegateD2Ev U 0 0
__ZN20QFutureInterfaceBase13reportStartedEv U 0 0
__ZN20QFutureInterfaceBase13waitForResultEi U 0 0
__ZN20QFutureInterfaceBase14reportFinishedEv U 0 0
__ZN20QFutureInterfaceBase15resultStoreBaseEv U 0 0
__ZN20QFutureInterfaceBase18reportResultsReadyEii U 0 0
__ZN20QFutureInterfaceBase5resetEv U 0 0
__ZN20QFutureInterfaceBaseC2ENS_5StateE U 0 0
__ZN20QFutureInterfaceBaseC2ERKS_ U 0 0
__ZN20QFutureInterfaceBaseD2Ev U 0 0
__ZN20QStringConverterBase5State5clearEv U 0 0
__ZN21QAbstractItemDelegate10commitDataEP7QWidget U 0 0
__ZN21QAbstractItemDelegate11closeEditorEP7QWidgetNS_11EndEditHintE U 0 0
__ZN21QAbstractItemDelegate11editorEventEP6QEventP18QAbstractItemModelRK20QStyleOptionViewItemRK11QModelIndex U 0 0
__ZN21QAbstractItemDelegate11qt_metacallEN11QMetaObject4CallEiPPv U 0 0
__ZN21QAbstractItemDelegate11qt_metacastEPKc U 0 0
__ZN21QAbstractItemDelegate9helpEventEP10QHelpEventP17QAbstractItemViewRK20QStyleOptionViewItemRK11QModelIndex U 0 0
__ZN21QAbstractItemDelegateC2EP7QObject U 0 0
__ZN21QAbstractItemDelegateD2Ev U 0 0
__ZN21QNetworkAccessManager16staticMetaObjectE U 0 0
__ZN21QNetworkAccessManager3getERK15QNetworkRequest U 0 0
__ZN21QNetworkAccessManager8finishedEP13QNetworkReply U 0 0
__ZN21QNetworkAccessManagerC1EP7QObject U 0 0
__ZN21QPersistentModelIndexC1ERK11QModelIndex U 0 0
__ZN21QPersistentModelIndexC1ERKS_ U 0 0
__ZN21QPersistentModelIndexD1Ev U 0 0
__ZN21QPersistentModelIndexaSERKS_ U 0 0
__ZN21QSortFilterProxyModel10insertRowsEiiRK11QModelIndex U 0 0
__ZN21QSortFilterProxyModel10invalidateEv U 0 0
__ZN21QSortFilterProxyModel10removeRowsEiiRK11QModelIndex U 0 0
__ZN21QSortFilterProxyModel11qt_metacallEN11QMetaObject4CallEiPPv U 0 0
__ZN21QSortFilterProxyModel11qt_metacastEPKc U 0 0
__ZN21QSortFilterProxyModel12dropMimeDataEPK9QMimeDataN2Qt10DropActionEiiRK11QModelIndex U 0 0
__ZN21QSortFilterProxyModel13insertColumnsEiiRK11QModelIndex U 0 0
__ZN21QSortFilterProxyModel13removeColumnsEiiRK11QModelIndex U 0 0
__ZN21QSortFilterProxyModel13setHeaderDataEiN2Qt11OrientationERK8QVarianti U 0 0
__ZN21QSortFilterProxyModel14setSourceModelEP18QAbstractItemModel U 0 0
__ZN21QSortFilterProxyModel16invalidateFilterEv U 0 0
__ZN21QSortFilterProxyModel16staticMetaObjectE U 0 0
__ZN21QSortFilterProxyModel17beginFilterChangeEv U 0 0
__ZN21QSortFilterProxyModel18setFilterKeyColumnEi U 0 0
__ZN21QSortFilterProxyModel18setSortLocaleAwareEb U 0 0
__ZN21QSortFilterProxyModel20setDynamicSortFilterEb U 0 0
__ZN21QSortFilterProxyModel20setFilterFixedStringERK7QString U 0 0
__ZN21QSortFilterProxyModel22setSortCaseSensitivityEN2Qt15CaseSensitivityE U 0 0
__ZN21QSortFilterProxyModel24setFilterCaseSensitivityEN2Qt15CaseSensitivityE U 0 0
__ZN21QSortFilterProxyModel28setRecursiveFilteringEnabledEb U 0 0
__ZN21QSortFilterProxyModel4sortEiN2Qt9SortOrderE U 0 0
__ZN21QSortFilterProxyModel7setDataERK11QModelIndexRK8QVarianti U 0 0
__ZN21QSortFilterProxyModel9fetchMoreERK11QModelIndex U 0 0
__ZN21QSortFilterProxyModelC1EP7QObject U 0 0
__ZN21QSortFilterProxyModelC2EP7QObject U 0 0
__ZN21QSortFilterProxyModelD2Ev U 0 0
__ZN21QStyleOptionFocusRectC1Ev U 0 0
__ZN22QGraphicsOpacityEffect10setOpacityEd U 0 0
__ZN22QGraphicsOpacityEffectC1EP7QObject U 0 0
__ZN22QItemEditorCreatorBaseD2Ev U 0 0
__ZN22QStyleOptionToolButtonC1Ev U 0 0
__ZN23QRegularExpressionMatchD1Ev U 0 0
__ZN25QAbstractFileIconProvider10setOptionsE6QFlagsINS_6OptionEE U 0 0
__ZN25QGraphicsDropShadowEffect13setBlurRadiusEd U 0 0
__ZN25QGraphicsDropShadowEffect8setColorERK6QColor U 0 0
__ZN25QGraphicsDropShadowEffect9setOffsetERK7QPointF U 0 0
__ZN25QGraphicsDropShadowEffectC1EP7QObject U 0 0
__ZN25QSequentialAnimationGroupC1EP7QObject U 0 0
__ZN26QAbstractGraphicsShapeItem6setPenERK4QPen U 0 0
__ZN26QAbstractGraphicsShapeItem8setBrushERK6QBrush U 0 0
__ZN27QAbstractTextDocumentLayout16staticMetaObjectE U 0 0
__ZN27QAbstractTextDocumentLayout19documentSizeChangedERK6QSizeF U 0 0
__ZN27QRegularExpressionValidatorC1ERK18QRegularExpressionP7QObject U 0 0
__ZN2Qt16staticMetaObjectE U 0 0
__ZN4QDir14setSearchPathsERK7QStringRK5QListIS0_E U 0 0
__ZN4QDir18toNativeSeparatorsERK7QString U 0 0
__ZN4QDir20fromNativeSeparatorsERK7QString U 0 0
__ZN4QDir8rootPathEv U 0 0
__ZN4QDir8tempPathEv U 0 0
__ZN4QDir9cleanPathERK7QString U 0 0
__ZN4QDirC1ERK7QString U 0 0
__ZN4QDirC1ERK7QStringS2_6QFlagsINS_8SortFlagEES3_INS_6FilterEE U 0 0
__ZN4QDirD1Ev U 0 0
__ZN4QPen11setCapStyleEN2Qt11PenCapStyleE U 0 0
__ZN4QPen11setCosmeticEb U 0 0
__ZN4QPen12setJoinStyleEN2Qt12PenJoinStyleE U 0 0
__ZN4QPen13setDashOffsetEd U 0 0
__ZN4QPen14setDashPatternERK5QListIdE U 0 0
__ZN4QPen8setColorERK6QColor U 0 0
__ZN4QPen8setStyleEN2Qt8PenStyleE U 0 0
__ZN4QPen9setWidthFEd U 0 0
__ZN4QPenC1EN2Qt8PenStyleE U 0 0
__ZN4QPenC1ERK6QBrushdN2Qt8PenStyleENS3_11PenCapStyleENS3_12PenJoinStyleE U 0 0
__ZN4QPenC1ERK6QColor U 0 0
__ZN4QPenC1ERKS_ U 0 0
__ZN4QPenD1Ev U 0 0
__ZN4QUrl13fromLocalFileERK7QString U 0 0
__ZN4QUrlC1ERK7QStringNS_11ParsingModeE U 0 0
__ZN4QUrlC1ERKS_ U 0 0
__ZN4QUrlC1Ev U 0 0
__ZN4QUrlD1Ev U 0 0
__ZN4QUrlaSERKS_ U 0 0
__ZN5QChar7toUpperEDi U 0 0
__ZN5QChar8categoryEDi U 0 0
__ZN5QDate11currentDateEv U 0 0
__ZN5QFile14setPermissionsE6QFlagsIN11QFileDevice10PermissionEE U 0 0
__ZN5QFile4copyERK7QString U 0 0
__ZN5QFile4openE6QFlagsIN13QIODeviceBase12OpenModeFlagEE U 0 0
__ZN5QFile6existsERK7QString U 0 0
__ZN5QFile6removeERK7QString U 0 0
__ZN5QFile6removeEv U 0 0
__ZN5QFile6renameERK7QString U 0 0
__ZN5QFile6renameERK7QStringS2_ U 0 0
__ZN5QFileC1ERK7QString U 0 0
__ZN5QFileD1Ev U 0 0
__ZN5QFont10setKerningEb U 0 0
__ZN5QFont12setPixelSizeEi U 0 0
__ZN5QFont12setPointSizeEi U 0 0
__ZN5QFont12setStrikeOutEb U 0 0
__ZN5QFont12setUnderlineEb U 0 0
__ZN5QFont13setPointSizeFEd U 0 0
__ZN5QFont16staticMetaObjectE U 0 0
__ZN5QFont8setStyleENS_5StyleE U 0 0
__ZN5QFont9setFamilyERK7QString U 0 0
__ZN5QFont9setWeightENS_6WeightE U 0 0
__ZN5QFontC1ERKS_ U 0 0
__ZN5QFontC1Ev U 0 0
__ZN5QFontC2ERKS_ U 0 0
__ZN5QFontC2Ev U 0 0
__ZN5QFontD1Ev U 0 0
__ZN5QFontD2Ev U 0 0
__ZN5QFontaSERKS_ U 0 0
__ZN5QIcon16staticMetaObjectE U 0 0
__ZN5QIcon7addFileERK7QStringRK5QSizeNS_4ModeENS_5StateE U 0 0
__ZN5QIcon9addPixmapERK7QPixmapNS_4ModeENS_5StateE U 0 0
__ZN5QIcon9fromThemeERK7QString U 0 0
__ZN5QIcon9fromThemeERK7QStringRKS_ U 0 0
__ZN5QIconC1ERK7QPixmap U 0 0
__ZN5QIconC1ERK7QString U 0 0
__ZN5QIconC1ERKS_ U 0 0
__ZN5QIconC1Ev U 0 0
__ZN5QIconD1Ev U 0 0
__ZN5QIconaSERKS_ U 0 0
__ZN5QMenu11aboutToShowEv U 0 0
__ZN5QMenu12addSeparatorEv U 0 0
__ZN5QMenu15insertSeparatorEP7QAction U 0 0
__ZN5QMenu16staticMetaObjectE U 0 0
__ZN5QMenu18setToolTipsVisibleEb U 0 0
__ZN5QMenu4execERK6QPointP7QAction U 0 0
__ZN5QMenu4execEv U 0 0
__ZN5QMenu5clearEv U 0 0
__ZN5QMenu7addMenuEPS_ U 0 0
__ZN5QMenu7addMenuERK7QString U 0 0
__ZN5QMenu7setIconERK5QIcon U 0 0
__ZN5QMenu8setTitleERK7QString U 0 0
__ZN5QMenu9triggeredEP7QAction U 0 0
__ZN5QMenuC1EP7QWidget U 0 0
__ZN5QMenuC1ERK7QStringP7QWidget U 0 0
__ZN5QMenuD1Ev U 0 0
__ZN5Tiled10AutoMapper10addWarningERK7QStringNSt3__18functionIFvvEEE T 9e3d0 0
__ZN5Tiled10AutoMapper10setupRulesEv T 9ced0 0
__ZN5Tiled10AutoMapper18setupRuleMapLayersEv T 9b360 0
__ZN5Tiled10AutoMapper20setupRuleOptionsAreaERNS_15RuleOptionsAreaEPKNS_9MapObjectE T 9f5a0 0
__ZN5Tiled10AutoMapper22setupRuleMapPropertiesEv T 9ac30 0
__ZN5Tiled10AutoMapper24setupOutputSetPropertiesERNS_9OutputSetERNS_12RuleMapSetupE T 9f0c0 0
__ZN5Tiled10AutoMapper25setupInputLayerPropertiesERNS_10InputLayerE T 9e7e0 0
__ZN5Tiled10AutoMapperC1ENSt3__110unique_ptrINS_3MapENS1_14default_deleteIS3_EEEE T 9dc30 0
__ZN5Tiled10AutoMapperC2ENSt3__110unique_ptrINS_3MapENS1_14default_deleteIS3_EEEE T 9a9b0 0
__ZN5Tiled10AutoMapperD1Ev T 9dcd0 0
__ZN5Tiled10AutoMapperD2Ev T 9dc50 0
__ZN5Tiled10FileFormat23setCompatibilityVersionENS_20CompatibilityVersionE U 0 0
__ZN5Tiled10FileFormatC2EP7QObject U 0 0
__ZN5Tiled10GroupLayer11insertLayerEiPNS_5LayerE U 0 0
__ZN5Tiled10GroupLayer11takeLayerAtEi U 0 0
__ZN5Tiled10GroupLayerC1ERK7QStringii U 0 0
__ZN5Tiled10ImageCache10loadPixmapERK7QString U 0 0
__ZN5Tiled10ImageLayer10resetImageEv U 0 0
__ZN5Tiled10ImageLayer13loadFromImageERK4QUrl U 0 0
__ZN5Tiled10ImageLayer13loadFromImageERK7QPixmapRK4QUrl U 0 0
__ZN5Tiled10ImageLayerC1ERK7QStringii U 0 0
__ZN5Tiled10MainWindow10aboutTiledEv T 2bc020 0
__ZN5Tiled10MainWindow10closeEventEP11QCloseEvent T 2befd0 0
__ZN5Tiled10MainWindow10commitDataER15QSessionManager T 2be0f0 0
__ZN5Tiled10MainWindow10newProjectEv T 2bb450 0
__ZN5Tiled10MainWindow10newTilesetERK7QString T 2c7c30 0
__ZN5Tiled10MainWindow10saveFileAsEv T 2b8a20 0
__ZN5Tiled10MainWindow10zoomNormalEv T 2b9430 0
__ZN5Tiled10MainWindow11changeEventEP6QEvent T 2bf150 0
__ZN5Tiled10MainWindow11confirmSaveEPNS_8DocumentE T 2c3cf0 0
__ZN5Tiled10MainWindow11exportMapAsEPNS_11MapDocumentE T 2c5280 0
__ZN5Tiled10MainWindow11qt_metacallEN11QMetaObject4CallEiPPv T 2cadf0 0
__ZN5Tiled10MainWindow11qt_metacastEPKc T 2cad80 0
__ZN5Tiled10MainWindow11reloadErrorERK7QString T 2bd680 0
__ZN5Tiled10MainWindow11resizeEventEP12QResizeEvent T 2c2c20 0
__ZN5Tiled10MainWindow12closeProjectEv T 2bbaf0 0
__ZN5Tiled10MainWindow12pasteInPlaceEv T 2b9150 0
__ZN5Tiled10MainWindow12readSettingsEv T 2be370 0
__ZN5Tiled10MainWindow13closeAllFilesEv T 2b8f60 0
__ZN5Tiled10MainWindow13closeDocumentEi T 2bd530 0
__ZN5Tiled10MainWindow13documentSavedEPNS_8DocumentE T 2bd720 0
__ZN5Tiled10MainWindow13exportAsImageEv T 2b8d60 0
__ZN5Tiled10MainWindow13restoreLayoutEv T 2c2c80 0
__ZN5Tiled10MainWindow13retranslateUiEv T 2c1ef0 0
__ZN5Tiled10MainWindow13searchActionsEv T 2b85c0 0
__ZN5Tiled10MainWindow13setFullScreenEb T 2b9580 0
__ZN5Tiled10MainWindow13switchProjectENSt3__110unique_ptrINS_7ProjectENS1_14default_deleteIS3_EEEE T 2c61c0 0
__ZN5Tiled10MainWindow13updateActionsEv T 2b6ab0 0
__ZN5Tiled10MainWindow13writeSettingsEv T 2bf030 0
__ZN5Tiled10MainWindow14confirmAllSaveEv T 2bee60 0
__ZN5Tiled10MainWindow14createNewWorldERK7QString T 2c4060 0
__ZN5Tiled10MainWindow14dragEnterEventEP15QDragEnterEvent T 2c2240 0
__ZN5Tiled10MainWindow14exportDocumentEPNS_8DocumentE T 2c4b80 0
__ZN5Tiled10MainWindow14openFileDialogEv T 2b7ef0 0
__ZN5Tiled10MainWindow14openRecentFileEv T 2bc1a0 0
__ZN5Tiled10MainWindow14restoreSessionEv T 2c3490 0
__ZN5Tiled10MainWindow14updateZoomableEv T 2c8a40 0
__ZN5Tiled10MainWindow15documentChangedEPNS_8DocumentE T 2bd0f0 0
__ZN5Tiled10MainWindow15exportTilesetAsEPNS_15TilesetDocumentE T 2c5be0 0
__ZN5Tiled10MainWindow15openPreferencesEv T 2b91d0 0
__ZN5Tiled10MainWindow15openProjectFileERK7QString T 2c3680 0
__ZN5Tiled10MainWindow15setLayoutLockedEb T 2bdca0 0
__ZN5Tiled10MainWindow15toggleClearViewEb T 2b9620 0
__ZN5Tiled10MainWindow16autoMappingErrorEb T 2be670 0
__ZN5Tiled10MainWindow16confirmSaveWorldEPNS_13WorldDocumentE T 2c3e80 0
__ZN5Tiled10MainWindow16reopenClosedFileEv T 2b86a0 0
__ZN5Tiled10MainWindow16staticMetaObjectE S 793030 0
__ZN5Tiled10MainWindow17editMapPropertiesEv T 2bb090 0
__ZN5Tiled10MainWindow17initializeSessionEv T 2c2e80 0
__ZN5Tiled10MainWindow17openDocumentationEv T 2bbdd0 0
__ZN5Tiled10MainWindow17openFileInProjectEv T 2b8550 0
__ZN5Tiled10MainWindow17openRecentProjectEv T 2c84f0 0
__ZN5Tiled10MainWindow17projectPropertiesEv T 2bbc80 0
__ZN5Tiled10MainWindow17showDonationPopupEv T 2c8fd0 0
__ZN5Tiled10MainWindow17showLocatorWidgetEPNS_13LocatorSourceE T 2c38e0 0
__ZN5Tiled10MainWindow17updateWindowTitleEv T 2c30d0 0
__ZN5Tiled10MainWindow17updateZoomActionsEv T 2be220 0
__ZN5Tiled10MainWindow18addExternalTilesetEv T 2b9c10 0
__ZN5Tiled10MainWindow18autoMappingWarningEb T 2be570 0
__ZN5Tiled10MainWindow19editWorldPropertiesEv T 2bb150 0
__ZN5Tiled10MainWindow19reloadTilesetImagesEv T 2b7940 0
__ZN5Tiled10MainWindow19updatePopupGeometryE5QSize T 2c2d30 0
__ZN5Tiled10MainWindow20currentEditorChangedEPNS_6EditorE T 2bd840 0
__ZN5Tiled10MainWindow20resetToDefaultLayoutEv T 2bdba0 0
__ZN5Tiled10MainWindow21editTilesetPropertiesEv T 2bb0f0 0
__ZN5Tiled10MainWindow21updateRecentFilesMenuEv T 2be850 0
__ZN5Tiled10MainWindow21updateSnappingActionsENS_8SnapModeE T 2c8420 0
__ZN5Tiled10MainWindow22openCrashReporterPopupEv T 2c6b00 0
__ZN5Tiled10MainWindow24updateRecentProjectsMenuEv T 2beb30 0
__ZN5Tiled10MainWindow26addAutomappingRulesTilesetEv T 2ba0c0 0
__ZN5Tiled10MainWindow26openProjectExtensionsPopupEv T 2c64c0 0
__ZN5Tiled10MainWindow26updateViewsAndToolbarsMenuEv T 2bc710 0
__ZN5Tiled10MainWindow27ensureHasBorderInFullScreenEv T 2c84c0 0
__ZN5Tiled10MainWindow27onPropertyTypesEditorClosedEv T 2bcc30 0
__ZN5Tiled10MainWindow30labelVisibilityActionTriggeredEP7QAction T 2b7710 0
__ZN5Tiled10MainWindow3cutEv T 2b9090 0
__ZN5Tiled10MainWindow4copyEv T 2b90d0 0
__ZN5Tiled10MainWindow5eventEP6QEvent T 2befa0 0
__ZN5Tiled10MainWindow5pasteEv T 2b9110 0
__ZN5Tiled10MainWindow6newMapEv T 2b7cb0 0
__ZN5Tiled10MainWindow6reloadEv T 2b8ec0 0
__ZN5Tiled10MainWindow6zoomInEv T 2b93d0 0
__ZN5Tiled10MainWindow7delete_Ev T 2b9190 0
__ZN5Tiled10MainWindow7export_Ev T 2b8e20 0
__ZN5Tiled10MainWindow7saveAllEv T 2b8a90 0
__ZN5Tiled10MainWindow7zoomOutEv T 2b9400 0
__ZN5Tiled10MainWindow8exportAsEv T 2b8e50 0
__ZN5Tiled10MainWindow8goToTileEv T 2b8630 0
__ZN5Tiled10MainWindow8openFileERK7QStringPNS_10FileFormatE T 2c2550 0
__ZN5Tiled10MainWindow8saveFileEv T 2b8910 0
__ZN5Tiled10MainWindow9closeFileEv T 2b8f10 0
__ZN5Tiled10MainWindow9dropEventEP10QDropEvent T 2c23f0 0
__ZN5Tiled10MainWindow9fitInViewEv T 2b9460 0
__ZN5Tiled10MainWindow9mInstanceE S 7c48a8 0
__ZN5Tiled10MainWindow9offsetMapEv T 2badb0 0
__ZN5Tiled10MainWindow9openForumEv T 2bbe70 0
__ZN5Tiled10MainWindow9resizeMapEv T 2baa70 0
__ZN5Tiled10MainWindow9showPopupEP7QWidget T 2c6d00 0
__ZN5Tiled10MainWindowC1EP7QWidget6QFlagsIN2Qt10WindowTypeEE T 2bec70 0
__ZN5Tiled10MainWindowC2EP7QWidget6QFlagsIN2Qt10WindowTypeEE T 2a5090 0
__ZN5Tiled10MainWindowD0Ev T 2bee10 0
__ZN5Tiled10MainWindowD1Ev T 2bedd0 0
__ZN5Tiled10MainWindowD2Ev T 2beca0 0
__ZN5Tiled10decompressERK10QByteArrayiNS_17CompressionMethodE U 0 0
__ZN5Tiled10typeToNameEi U 0 0
__ZN5Tiled11MapDocument10layerAddedEPNS_5LayerE T 2f4de0 0
__ZN5Tiled11MapDocument10mapResizedEv T 2f8780 0
__ZN5Tiled11MapDocument11autocropMapEv T 2edef0 0
__ZN5Tiled11MapDocument11checkIssuesEv T 2f4f90 0
__ZN5Tiled11MapDocument11groupLayersERK5QListIPNS_5LayerEE T 2ef000 0
__ZN5Tiled11MapDocument11qt_metacallEN11QMetaObject4CallEiPPv T 2f9340 0
__ZN5Tiled11MapDocument11qt_metacastEPKc T 2f92d0 0
__ZN5Tiled11MapDocument12layerRemovedEPNS_5LayerE T 2f4f50 0
__ZN5Tiled11MapDocument12moveLayersUpERK5QListIPNS_5LayerEE T 2f06e0 0
__ZN5Tiled11MapDocument12onLayerAddedEPNS_5LayerE T 2eadf0 0
__ZN5Tiled11MapDocument12regionEditedERK7QRegionPNS_9TileLayerE T 2f2c40 0
__ZN5Tiled11MapDocument12removeLayersERK5QListIPNS_5LayerEE T 2f0d70 0
__ZN5Tiled11MapDocument12tilesetAddedEiPNS_7TilesetE T 2f11f0 0
__ZN5Tiled11MapDocument12toggleLayersE5QListIPNS_5LayerEE T 2f1000 0
__ZN5Tiled11MapDocument13detachObjectsERK5QListIPNS_9MapObjectEE T 2f79e0 0
__ZN5Tiled11MapDocument13insertTilesetEiRK14QSharedPointerINS_7TilesetEE T 2f1140 0
__ZN5Tiled11MapDocument13moveObjectsUpERK5QListIPNS_9MapObjectEE T 2f6e80 0
__ZN5Tiled11MapDocument13regionChangedERK7QRegionPNS_9TileLayerE T 2f87b0 0
__ZN5Tiled11MapDocument13removeObjectsERK5QListIPNS_9MapObjectEE T 2f6b40 0
__ZN5Tiled11MapDocument13ungroupLayersERK5QListIPNS_5LayerEE T 2ef430 0
__ZN5Tiled11MapDocument13unifyTilesetsERNS_3MapE T 2f4200 0
__ZN5Tiled11MapDocument14createEditableEv T 2eca70 0
__ZN5Tiled11MapDocument14createRendererEv T 2eacc0 0
__ZN5Tiled11MapDocument14moveLayersDownERK5QListIPNS_5LayerEE T 2f09d0 0
__ZN5Tiled11MapDocument14onLayerRemovedEPNS_5LayerE T 2eb070 0
__ZN5Tiled11MapDocument14onObjectsMovedERK11QModelIndexiiS3_i T 2eb5c0 0
__ZN5Tiled11MapDocument14replaceTilesetEiRK14QSharedPointerINS_7TilesetEE T 2f1360 0
__ZN5Tiled11MapDocument14tilesetRemovedEPNS_7TilesetE T 2f1320 0
__ZN5Tiled11MapDocument15deselectObjectsERK5QListIPNS_9MapObjectEE T 2f4be0 0
__ZN5Tiled11MapDocument15duplicateLayersERK5QListIPNS_5LayerEE T 2ef820 0
__ZN5Tiled11MapDocument15eraseTileLayersERK7QRegionbbRK7QString T 2f2d10 0
__ZN5Tiled11MapDocument15mapObjectPickedEPNS_9MapObjectE T 2f8740 0
__ZN5Tiled11MapDocument15mergeLayersDownERK5QListIPNS_5LayerEE T 2f00c0 0
__ZN5Tiled11MapDocument15moveObjectsDownERK5QListIPNS_9MapObjectEE T 2f75f0 0
__ZN5Tiled11MapDocument15objectsInsertedEPNS_11ObjectGroupEii T 2f4d40 0
__ZN5Tiled11MapDocument15paintTileLayersERKNS_3MapEbP5QListI14QSharedPointerINS_7TilesetEEEP5QHashIPNS_9TileLayerE7QRegionE T 2f1c50 0
__ZN5Tiled11MapDocument15removeTilesetAtEi T 2f1230 0
__ZN5Tiled11MapDocument15setCurrentLayerEPNS_5LayerE T 2ecbe0 0
__ZN5Tiled11MapDocument15setExportFormatEPNS_10FileFormatE T 2ec8e0 0
__ZN5Tiled11MapDocument15setReaderFormatEPNS_9MapFormatE T 2ec6c0 0
__ZN5Tiled11MapDocument15setSelectedAreaERK7QRegion T 2f37c0 0
__ZN5Tiled11MapDocument15setWriterFormatEPNS_9MapFormatE T 2ec750 0
__ZN5Tiled11MapDocument15tilesetReplacedEiPNS_7TilesetES2_ T 2f1490 0
__ZN5Tiled11MapDocument16duplicateObjectsERK5QListIPNS_9MapObjectEE T 2f66b0 0
__ZN5Tiled11MapDocument16staticMetaObjectE S 793618 0
__ZN5Tiled11MapDocument16tileLayerChangedEPNS_9TileLayerE6QFlagsINS0_19TileLayerChangeFlagEE T 2f87f0 0
__ZN5Tiled11MapDocument16toggleLockLayersE5QListIPNS_5LayerEE T 2f1070 0
__ZN5Tiled11MapDocument17setSelectedLayersERK5QListIPNS_5LayerEE T 2ecca0 0
__ZN5Tiled11MapDocument17toggleOtherLayersERK5QListIPNS_5LayerEE T 2f10e0 0
__ZN5Tiled11MapDocument18moveObjectsToGroupERK5QListIPNS_9MapObjectEEPNS_11ObjectGroupE T 2f6c40 0
__ZN5Tiled11MapDocument18selectAllInstancesEPKNS_14ObjectTemplateE T 2f6450 0
__ZN5Tiled11MapDocument18setSelectedObjectsERK5QListIPNS_9MapObjectEE T 2f3ba0 0
__ZN5Tiled11MapDocument18switchCurrentLayerEPNS_5LayerE T 2ecd60 0
__ZN5Tiled11MapDocument18tilesetNameChangedEPNS_7TilesetE T 2f8830 0
__ZN5Tiled11MapDocument19currentLayerChangedEPNS_5LayerE T 2ecc60 0
__ZN5Tiled11MapDocument19flipSelectedObjectsENS_13FlipDirectionE T 2ee2d0 0
__ZN5Tiled11MapDocument19objectsIndexChangedEPNS_11ObjectGroupEii T 2f4d90 0
__ZN5Tiled11MapDocument19selectedAreaChangedERK7QRegionS3_ T 2f3860 0
__ZN5Tiled11MapDocument19setHoveredMapObjectEPNS_9MapObjectE T 2f4160 0
__ZN5Tiled11MapDocument20mapObjectPickRequestEv T 2f86e0 0
__ZN5Tiled11MapDocument20switchSelectedLayersERK5QListIPNS_5LayerEE T 2ece60 0
__ZN5Tiled11MapDocument21layerAboutToBeRemovedEPNS_10GroupLayerEi T 2f4f10 0
__ZN5Tiled11MapDocument21replaceObjectTemplateEPKNS_14ObjectTemplateES3_ T 2f3650 0
__ZN5Tiled11MapDocument21rotateSelectedObjectsENS_15RotateDirectionE T 2ee4f0 0
__ZN5Tiled11MapDocument21selectedLayersChangedEv T 2ecd30 0
__ZN5Tiled11MapDocument21setLastExportFileNameERK7QString T 2ec860 0
__ZN5Tiled11MapDocument21tilesetAboutToBeAddedEi T 2f11b0 0
__ZN5Tiled11MapDocument21toggleLockOtherLayersERK5QListIPNS_5LayerEE T 2f1110 0
__ZN5Tiled11MapDocument22editLayerNameRequestedEv T 2eefd0 0
__ZN5Tiled11MapDocument22objectTemplateReplacedEPKNS_14ObjectTemplateES3_ T 2f3780 0
__ZN5Tiled11MapDocument22selectedObjectsChangedEv T 2f3d30 0
__ZN5Tiled11MapDocument22tileImageSourceChangedEPNS_4TileE T 2f88b0 0
__ZN5Tiled11MapDocument22tileObjectGroupChangedEPNS_4TileE T 2f8930 0
__ZN5Tiled11MapDocument22tileProbabilityChangedEPNS_4TileE T 2f88f0 0
__ZN5Tiled11MapDocument23focusMapObjectRequestedEPNS_9MapObjectE T 2f86a0 0
__ZN5Tiled11MapDocument23hoveredMapObjectChangedEPNS_9MapObjectES2_ T 2f41c0 0
__ZN5Tiled11MapDocument23onLayerAboutToBeRemovedEPNS_10GroupLayerEi T 2eaf50 0
__ZN5Tiled11MapDocument23tilesetAboutToBeRemovedEi T 2f12e0 0
__ZN5Tiled11MapDocument23updateTemplateInstancesEPKNS_14ObjectTemplateE T 2eb740 0
__ZN5Tiled11MapDocument26cancelMapObjectPickRequestEv T 2f8710 0
__ZN5Tiled11MapDocument27setAboutToBeSelectedObjectsERK5QListIPNS_9MapObjectEE T 2f3d60 0
__ZN5Tiled11MapDocument28onMapObjectModelRowsInsertedERK11QModelIndexii T 2eb400 0
__ZN5Tiled11MapDocument29tilesetTilePositioningChangedEPNS_7TilesetE T 2f8870 0
__ZN5Tiled11MapDocument31aboutToBeSelectedObjectsChangedERK5QListIPNS_9MapObjectEE T 2f3e90 0
__ZN5Tiled11MapDocument37onMapObjectModelRowsInsertedOrRemovedERK11QModelIndexii T 2eb470 0
__ZN5Tiled11MapDocument4loadERK7QStringPNS_9MapFormatEPS1_ T 2ec520 0
__ZN5Tiled11MapDocument4saveERK7QStringPS1_ T 2ebba0 0
__ZN5Tiled11MapDocument6reloadEP7QString T 2ec020 0
__ZN5Tiled11MapDocument7swapMapERNSt3__110unique_ptrINS_3MapENS1_14default_deleteIS3_EEEE T 2f5b60 0
__ZN5Tiled11MapDocument8addLayerENS_5Layer8TypeFlagE T 2ee810 0
__ZN5Tiled11MapDocument9offsetMapERK5QListIPNS_5LayerEE6QPointRK5QRectbbb T 2ee0b0 0
__ZN5Tiled11MapDocument9onChangedERKNS_11ChangeEventE T 2eb270 0
__ZN5Tiled11MapDocument9resizeMapE5QSize6QPointb T 2ecf50 0
__ZN5Tiled11MapDocumentC1ENSt3__110unique_ptrINS_3MapENS1_14default_deleteIS3_EEEE T 2eba30 0
__ZN5Tiled11MapDocumentC2ENSt3__110unique_ptrINS_3MapENS1_14default_deleteIS3_EEEE T 2ea520 0
__ZN5Tiled11MapDocumentD0Ev T 2ebb70 0
__ZN5Tiled11MapDocumentD1Ev T 2ebb50 0
__ZN5Tiled11MapDocumentD2Ev T 2eba50 0
__ZN5Tiled11MapRenderer6createEPKNS_3MapE U 0 0
__ZN5Tiled11MapRenderer7setFlagENS_10RenderFlagEb U 0 0
__ZN5Tiled11ObjectGroup11moveObjectsEiii U 0 0
__ZN5Tiled11ObjectGroup12insertObjectEiPNS_9MapObjectE U 0 0
__ZN5Tiled11ObjectGroup12removeObjectEPNS_9MapObjectE U 0 0
__ZN5Tiled11ObjectGroup13offsetObjectsERK7QPointFRK6QRectFbbb U 0 0
__ZN5Tiled11ObjectGroup14removeObjectAtEi U 0 0
__ZN5Tiled11ObjectGroup9addObjectEPNS_9MapObjectE U 0 0
__ZN5Tiled11ObjectGroupC1ERK7QString U 0 0
__ZN5Tiled11ObjectGroupC1ERK7QStringii U 0 0
__ZN5Tiled11Preferences10initializeEv T 3c4e20 0
__ZN5Tiled11Preferences11qt_metacallEN11QMetaObject4CallEiPPv T 3cd3c0 0
__ZN5Tiled11Preferences11qt_metacastEPKc T 3cd350 0
__ZN5Tiled11Preferences11setGridFineEi T 3c88a0 0
__ZN5Tiled11Preferences11setLanguageERK7QString T 3c9b10 0
__ZN5Tiled11Preferences11setShowGridEb T 3c7990 0
__ZN5Tiled11Preferences11setSnapModeENS_8SnapModeE T 3c8430 0
__ZN5Tiled11Preferences12homeLocationEv T 3ca710 0
__ZN5Tiled11Preferences12setBaseColorERK6QColor T 3c7190 0
__ZN5Tiled11Preferences12setGridColorE6QColor T 3c8580 0
__ZN5Tiled11Preferences12setGridMajorE5QSize T 3c6620 0
__ZN5Tiled11Preferences12setUseOpenGLEb T 3c9db0 0
__ZN5Tiled11Preferences13addRecentFileERK7QString T 3ca4b0 0
__ZN5Tiled11Preferences13setCustomFontERK5QFont T 3c7850 0
__ZN5Tiled11Preferences13setGridMajorXEi T 3c8a20 0
__ZN5Tiled11Preferences13setGridMajorYEi T 3c8a70 0
__ZN5Tiled11Preferences14deleteInstanceEv T 3c4d60 0
__ZN5Tiled11Preferences14setDisplayNewsEb T 3cb3f0 0
__ZN5Tiled11Preferences14setLastSessionERK7QString T 3cac60 0
__ZN5Tiled11Preferences14startupProjectEv T 3cac00 0
__ZN5Tiled11Preferences15gridFineChangedEi T 3c89a0 0
__ZN5Tiled11Preferences15isPatronChangedEv T 3ca260 0
__ZN5Tiled11Preferences15languageChangedEv T 3c9c30 0
__ZN5Tiled11Preferences15mStartupProjectE S 7c4910 0
__ZN5Tiled11Preferences15mStartupSessionE S 7c4928 0
__ZN5Tiled11Preferences15setExportOnSaveEb T 3c9310 0
__ZN5Tiled11Preferences15setExportOptionENS0_12ExportOptionEb T 3c9510 0
__ZN5Tiled11Preferences15showGridChangedEb T 3c7aa0 0
__ZN5Tiled11Preferences15snapModeChangedENS_8SnapModeE T 3c8540 0
__ZN5Tiled11Preferences16addRecentProjectERK7QString T 3ca740 0
__ZN5Tiled11Preferences16baseColorChangedERK6QColor T 3c72d0 0
__ZN5Tiled11Preferences16clearRecentFilesEv T 3cb1b0 0
__ZN5Tiled11Preferences16gridColorChangedE6QColor T 3c86d0 0
__ZN5Tiled11Preferences16gridMajorChangedE5QSize T 3c89e0 0
__ZN5Tiled11Preferences16setPluginEnabledERK7QStringb T 3cb650 0
__ZN5Tiled11Preferences16setPropertyTypesERK14QSharedPointerINS_13PropertyTypesEE T 3c9f00 0
__ZN5Tiled11Preferences16setShowWorldGridEb T 3c7ae0 0
__ZN5Tiled11Preferences16setUseCustomFontEb T 3c7530 0
__ZN5Tiled11Preferences16staticMetaObjectE S 799078 0
__ZN5Tiled11Preferences16useOpenGLChangedEb T 3c9ec0 0
__ZN5Tiled11Preferences17setMapRenderOrderENS_3Map11RenderOrderE T 3c9100 0
__ZN5Tiled11Preferences17setNaturalSortingEb T 3caeb0 0
__ZN5Tiled11Preferences17setSelectionColorERK6QColor T 3c7380 0
__ZN5Tiled11Preferences17setStartupProjectERK7QString T 3cbd50 0
__ZN5Tiled11Preferences17setStartupSessionERK7QString T 3cbd80 0
__ZN5Tiled11Preferences18displayNewsChangedEb T 3cb500 0
__ZN5Tiled11Preferences18recentFilesChangedEv T 3ca4f0 0
__ZN5Tiled11Preferences18setCheckForUpdatesEb T 3cb270 0
__ZN5Tiled11Preferences18setLayerDataFormatENS_3Map15LayerDataFormatE T 3c8ff0 0
__ZN5Tiled11Preferences18setObjectLineWidthEd T 3c8ac0 0
__ZN5Tiled11Preferences18setObjectTypesFileERK7QString T 3c6250 0
__ZN5Tiled11Preferences18setParallaxEnabledEb T 3c82e0 0
__ZN5Tiled11Preferences18setShowTilesetGridEb T 3c8ea0 0
__ZN5Tiled11Preferences18setSnapToWorldGridEb T 3c7c30 0
__ZN5Tiled11Preferences19addToRecentFileListERK7QStringR5QListIS1_E T 3ca8e0 0
__ZN5Tiled11Preferences19clearRecentProjectsEv T 3cb1e0 0
__ZN5Tiled11Preferences19setApplicationStyleENS0_16ApplicationStyleE T 3c6150 0
__ZN5Tiled11Preferences19setDonationReminderERK5QDate T 3ca360 0
__ZN5Tiled11Preferences20aboutToSwitchSessionEv T 3ccd20 0
__ZN5Tiled11Preferences20propertyTypesChangedEv T 3cbd20 0
__ZN5Tiled11Preferences20setSafeSavingEnabledEb T 3c91e0 0
__ZN5Tiled11Preferences20showWorldGridChangedEb T 3c7bf0 0
__ZN5Tiled11Preferences21naturalSortingChangedEb T 3cafc0 0
__ZN5Tiled11Preferences21recentProjectsChangedEv T 3ca9f0 0
__ZN5Tiled11Preferences21selectionColorChangedERK6QColor T 3c74c0 0
__ZN5Tiled11Preferences21setShowTileAnimationsEb T 3c7ed0 0
__ZN5Tiled11Preferences22applicationFontChangedEv T 3c7630 0
__ZN5Tiled11Preferences22checkForUpdatesChangedEb T 3cb380 0
__ZN5Tiled11Preferences22objectLineWidthChangedEd T 3c8bc0 0
__ZN5Tiled11Preferences22parallaxEnabledChangedEb T 3c83f0 0
__ZN5Tiled11Preferences22setBackgroundFadeColorE6QColor T 3c8710 0
__ZN5Tiled11Preferences22setWheelZoomsByDefaultEb T 3cbb80 0
__ZN5Tiled11Preferences22showTilesetGridChangedEb T 3c8fb0 0
__ZN5Tiled11Preferences22snapToWorldGridChangedEb T 3c7d40 0
__ZN5Tiled11Preferences23applicationStyleChangedENS0_16ApplicationStyleE T 3c70f0 0
__ZN5Tiled11Preferences23setShowObjectReferencesEb T 3c8190 0
__ZN5Tiled11Preferences24emitPropertyTypesChangedEv T 3c9f30 0
__ZN5Tiled11Preferences24setHighlightCurrentLayerEb T 3c8c00 0
__ZN5Tiled11Preferences24setLabelForHoveredObjectEb T 3c6fa0 0
__ZN5Tiled11Preferences24setObjectLabelVisibilityENS0_20ObjectLabelVisiblityE T 3c6e30 0
__ZN5Tiled11Preferences25setHighlightHoveredObjectEb T 3c8d50 0
__ZN5Tiled11Preferences25setShowTileObjectOutlinesEb T 3c7d80 0
__ZN5Tiled11Preferences25showTileAnimationsChangedEb T 3c8000 0
__ZN5Tiled11Preferences26backgroundFadeColorChangedE6QColor T 3c8860 0
__ZN5Tiled11Preferences26setReloadTilesetsOnChangedEb T 3c9c60 0
__ZN5Tiled11Preferences26setRestoreSessionOnStartupEb T 3cb570 0
__ZN5Tiled11Preferences26setShowTileCollisionShapesEb T 3c8040 0
__ZN5Tiled11Preferences27showObjectReferencesChangedEb T 3c82a0 0
__ZN5Tiled11Preferences28highlightCurrentLayerChangedEb T 3c8d10 0
__ZN5Tiled11Preferences28labelForHoveredObjectChangedEb T 3c70b0 0
__ZN5Tiled11Preferences28objectLabelVisibilityChangedENS0_20ObjectLabelVisiblityE T 3c6f30 0
__ZN5Tiled11Preferences29highlightHoveredObjectChangedEb T 3c8e60 0
__ZN5Tiled11Preferences29showTileObjectOutlinesChangedEb T 3c7e90 0
__ZN5Tiled11Preferences30showTileCollisionShapesChangedEb T 3c8150 0
__ZN5Tiled11Preferences32setRepeatShortcutForPreviousToolEb T 3cb030 0
__ZN5Tiled11Preferences8instanceEv T 3c4a60 0
__ZN5Tiled11Preferences9mInstanceE S 7c4908 0
__ZN5Tiled11Preferences9setPatronEb T 3ca160 0
__ZN5Tiled11PreferencesC1ERK7QString T 3c4d10 0
__ZN5Tiled11PreferencesC1Ev T 3c4d40 0
__ZN5Tiled11PreferencesC2ERK7QString T 3c5e10 0
__ZN5Tiled11PreferencesC2Ev T 3c4da0 0
__ZN5Tiled11PreferencesD0Ev T 3c5f00 0
__ZN5Tiled11PreferencesD1Ev T 3c5ee0 0
__ZN5Tiled11PreferencesD2Ev T 3c5ea0 0
__ZN5Tiled11SelectLayerC1EPKNS_5LayerE U 0 0
__ZN5Tiled11StyleHelper10initializeEv T 565ee0 0
__ZN5Tiled11StyleHelper11qt_metacallEN11QMetaObject4CallEiPPv T 567560 0
__ZN5Tiled11StyleHelper11qt_metacastEPKc T 5674f0 0
__ZN5Tiled11StyleHelper12styleAppliedEv T 5672b0 0
__ZN5Tiled11StyleHelper16staticMetaObjectE S 7ade58 0
__ZN5Tiled11StyleHelper5applyEv T 5662b0 0
__ZN5Tiled11StyleHelper9applyFontEv T 566850 0
__ZN5Tiled11StyleHelper9mInstanceE S 7c4968 0
__ZN5Tiled11StyleHelperC1Ev T 565f60 0
__ZN5Tiled11StyleHelperC2Ev T 565f80 0
__ZN5Tiled11globalIndexEPKNS_5LayerE U 0 0
__ZN5Tiled11readTilesetERK7QStringPS0_ U 0 0
__ZN5Tiled12JumpToObjectC1EPKNS_9MapObjectE U 0 0
__ZN5Tiled12TmxMapFormat11toByteArrayEPKNS_3MapE U 0 0
__ZN5Tiled12TmxMapFormat13fromByteArrayERK10QByteArray U 0 0
__ZN5Tiled12TmxMapFormat16staticMetaObjectE U 0 0
__ZN5Tiled12TmxMapFormatC1EP7QObject U 0 0
__ZN5Tiled12WorldManager10loadWorldsERK5QListI7QStringE T 670d00 0
__ZN5Tiled12WorldManager11qt_metacallEN11QMetaObject4CallEiPPv T 6715f0 0
__ZN5Tiled12WorldManager11qt_metacastEPKc T 671580 0
__ZN5Tiled12WorldManager11unloadWorldERK14QSharedPointerINS_13WorldDocumentEE T 670ed0 0
__ZN5Tiled12WorldManager11worldLoadedEPNS_13WorldDocumentE T 670960 0
__ZN5Tiled12WorldManager13addEmptyWorldERK7QStringPS1_ T 670560 0
__ZN5Tiled12WorldManager13worldUnloadedEPNS_13WorldDocumentE T 670f70 0
__ZN5Tiled12WorldManager13worldsChangedEv T 6709a0 0
__ZN5Tiled12WorldManager14deleteInstanceEv T 670370 0
__ZN5Tiled12WorldManager15unloadAllWorldsEv T 670fb0 0
__ZN5Tiled12WorldManager16staticMetaObjectE S 7b6910 0
__ZN5Tiled12WorldManager17loadAndStoreWorldERK7QStringPS1_ T 670aa0 0
__ZN5Tiled12WorldManager8instanceEv T 670300 0
__ZN5Tiled12WorldManager9loadWorldERK7QStringPS1_ T 6709d0 0
__ZN5Tiled12WorldManager9mInstanceE S 7c4990 0
__ZN5Tiled12WorldManagerC1Ev T 670230 0
__ZN5Tiled12WorldManagerC2Ev T 6701d0 0
__ZN5Tiled12WorldManagerD0Ev T 6702d0 0
__ZN5Tiled12WorldManagerD1Ev T 6702b0 0
__ZN5Tiled12WorldManagerD2Ev T 670250 0
__ZN5Tiled12WorldPattern16staticMetaObjectE U 0 0
__ZN5Tiled12pathToStringERK5QListINSt3__17variantIJ7QStringiEEEE U 0 0
__ZN5Tiled12userTypeNameERK8QVariant U 0 0
__ZN5Tiled12valuesToJsonERK5QListI8QVariantERK7QString U 0 0
__ZN5Tiled13ExportContextC1ERK7QString U 0 0
__ZN5Tiled13LayerIterator4nextEv U 0 0
__ZN5Tiled13LayerIterator6toBackEv U 0 0
__ZN5Tiled13LayerIterator7toFrontEv U 0 0
__ZN5Tiled13LayerIterator8previousEv U 0 0
__ZN5Tiled13PluginManager11objectAddedEP7QObject U 0 0
__ZN5Tiled13PluginManager12removeObjectEP7QObject U 0 0
__ZN5Tiled13PluginManager13objectRemovedEP7QObject U 0 0
__ZN5Tiled13PluginManager14deleteInstanceEv U 0 0
__ZN5Tiled13PluginManager14setPluginStateERK7QStringNS_11PluginStateE U 0 0
__ZN5Tiled13PluginManager16staticMetaObjectE U 0 0
__ZN5Tiled13PluginManager8instanceEv U 0 0
__ZN5Tiled13PluginManager9addObjectEP7QObject U 0 0
__ZN5Tiled13PluginManager9mInstanceE U 0 0
__ZN5Tiled13PropertyTypes12loadFromJsonERK10QJsonArrayRK7QString U 0 0
__ZN5Tiled13PropertyTypes16mergeObjectTypesERK5QListINS_10ObjectTypeEE U 0 0
__ZN5Tiled13PropertyTypes5mergeES0_ U 0 0
__ZN5Tiled13PropertyTypesD1Ev U 0 0
__ZN5Tiled13PropertyValue16staticMetaObjectE U 0 0
__ZN5Tiled13ScriptManager10checkErrorE8QJSValueRK7QString T 51c070 0
__ZN5Tiled13ScriptManager10initializeEv T 51a9d0 0
__ZN5Tiled13ScriptManager10throwErrorERK7QString T 51e110 0
__ZN5Tiled13ScriptManager11qt_metacallEN11QMetaObject4CallEiPPv T 51ecc0 0
__ZN5Tiled13ScriptManager11qt_metacastEPKc T 51ec50 0
__ZN5Tiled13ScriptManager12evaluateFileERK7QString T 51cda0 0
__ZN5Tiled13ScriptManager13loadExtensionERK7QString T 51dac0 0
__ZN5Tiled13ScriptManager14deleteInstanceEv T 519640 0
__ZN5Tiled13ScriptManager14loadExtensionsEv T 51d6d0 0
__ZN5Tiled13ScriptManager15createTempValueERK8QJSValue T 51d5a0 0
__ZN5Tiled13ScriptManager16onScriptWarningsERK5QListI9QQmlErrorE T 51e2f0 0
__ZN5Tiled13ScriptManager16staticMetaObjectE S 7ab9d0 0
__ZN5Tiled13ScriptManager17ensureInitializedEv T 51a980 0
__ZN5Tiled13ScriptManager17throwNullArgErrorEi T 51e140 0
__ZN5Tiled13ScriptManager18scriptFilesChangedERK5QListI7QStringE T 51a3d0 0
__ZN5Tiled13ScriptManager18setScriptArgumentsERK5QListI7QStringE T 51bd00 0
__ZN5Tiled13ScriptManager22refreshExtensionsPathsEv T 51a5d0 0
__ZN5Tiled13ScriptManager23enableProjectExtensionsEv T 51e980 0
__ZN5Tiled13ScriptManager24evaluateFileOrLoadModuleERK7QString T 51c8b0 0
__ZN5Tiled13ScriptManager34projectExtensionsSuppressedChangedEb T 51e910 0
__ZN5Tiled13ScriptManager5resetEv T 519d60 0
__ZN5Tiled13ScriptManager8evaluateERK7QStringS3_i T 51bd50 0
__ZN5Tiled13ScriptManager8instanceEv T 5195a0 0
__ZN5Tiled13ScriptManager9mInstanceE S 7c4950 0
__ZN5Tiled13ScriptManagerC1EP7QObject T 519610 0
__ZN5Tiled13ScriptManagerC2EP7QObject T 519680 0
__ZN5Tiled13TilesetFormat11qt_metacallEN11QMetaObject4CallEiPPv U 0 0
__ZN5Tiled13TilesetFormat11qt_metacastEPKc U 0 0
__ZN5Tiled13TilesetFormat16staticMetaObjectE U 0 0
__ZN5Tiled13WorldMapEntry16staticMetaObjectE U 0 0
__ZN5Tiled13toObjectTypesERKNS_13PropertyTypesE U 0 0
__ZN5Tiled14ObjectTemplate4saveEv U 0 0
__ZN5Tiled14ObjectTemplate9setObjectEPKNS_9MapObjectE U 0 0
__ZN5Tiled14ObjectTemplateC1Ev U 0 0
__ZN5Tiled14ObjectTemplateD1Ev U 0 0
__ZN5Tiled14ProjectManager10setProjectENSt3__110unique_ptrINS_7ProjectENS1_14default_deleteIS3_EEEE T 3ed710 0
__ZN5Tiled14ProjectManager11ourInstanceE S 7c4940 0
__ZN5Tiled14ProjectManager11qt_metacallEN11QMetaObject4CallEiPPv T 3edc70 0
__ZN5Tiled14ProjectManager11qt_metacastEPKc T 3edc00 0
__ZN5Tiled14ProjectManager14projectChangedEv T 3eda20 0
__ZN5Tiled14ProjectManager15editableProjectEv T 3eda70 0
__ZN5Tiled14ProjectManager16staticMetaObjectE S 799b80 0
__ZN5Tiled14ProjectManager7projectEv T 3eda50 0
__ZN5Tiled14ProjectManagerC1EP7QObject T 3ed650 0
__ZN5Tiled14ProjectManagerC2EP7QObject T 3ed580 0
__ZN5Tiled14ProjectManagerD0Ev T 3ed6e0 0
__ZN5Tiled14ProjectManagerD1Ev T 3ed6c0 0
__ZN5Tiled14ProjectManagerD2Ev T 3ed680 0
__ZN5Tiled14TilesetManager11loadTilesetERK7QStringPS1_ U 0 0
__ZN5Tiled14TilesetManager12reloadImagesEPNS_7TilesetE U 0 0
__ZN5Tiled14TilesetManager14deleteInstanceEv U 0 0
__ZN5Tiled14TilesetManager14repaintTilesetEPNS_7TilesetE U 0 0
__ZN5Tiled14TilesetManager15setAnimateTilesEb U 0 0
__ZN5Tiled14TilesetManager16staticMetaObjectE U 0 0
__ZN5Tiled14TilesetManager19resetTileAnimationsEv U 0 0
__ZN5Tiled14TilesetManager20tilesetImagesChangedEPNS_7TilesetE U 0 0
__ZN5Tiled14TilesetManager25setReloadTilesetsOnChangeEb U 0 0
__ZN5Tiled14TilesetManager8instanceEv U 0 0
__ZN5Tiled14toPropertyPathERK5QListI7QStringE U 0 0
__ZN5Tiled14valuesFromJsonERK10QJsonArrayRK7QString U 0 0
__ZN5Tiled15MiniMapRendererC1EPKNS_3MapE U 0 0
__ZN5Tiled15MiniMapRendererD1Ev U 0 0
__ZN5Tiled15TemplateManager14deleteInstanceEv U 0 0
__ZN5Tiled15TemplateManager16staticMetaObjectE U 0 0
__ZN5Tiled15TemplateManager18loadObjectTemplateERK7QStringPS1_ U 0 0
__ZN5Tiled15TemplateManager21objectTemplateChangedEPNS_14ObjectTemplateE U 0 0
__ZN5Tiled15TemplateManager8instanceEv U 0 0
__ZN5Tiled15alignmentOffsetERK6QSizeFNS_9AlignmentE U 0 0
__ZN5Tiled15mergePropertiesER4QMapI7QString8QVariantERKS3_ U 0 0
__ZN5Tiled16LoggingInterface16staticMetaObjectE U 0 0
__ZN5Tiled16LoggingInterface23removeIssuesWithContextEPKv U 0 0
__ZN5Tiled16LoggingInterface3logENS0_10OutputTypeERK7QString U 0 0
__ZN5Tiled16LoggingInterface4infoERK7QString U 0 0
__ZN5Tiled16LoggingInterface5errorERK7QString U 0 0
__ZN5Tiled16LoggingInterface5issueERKNS_5IssueE U 0 0
__ZN5Tiled16LoggingInterface6reportERKNS_5IssueE U 0 0
__ZN5Tiled16LoggingInterface7warningERK7QString U 0 0
__ZN5Tiled16LoggingInterface8instanceEv U 0 0
__ZN5Tiled16TiledApplication11qt_metacallEN11QMetaObject4CallEiPPv T 58a360 0
__ZN5Tiled16TiledApplication11qt_metacastEPKc T 58a2f0 0
__ZN5Tiled16TiledApplication15fileOpenRequestERK7QString T 58a120 0
__ZN5Tiled16TiledApplication16staticMetaObjectE S 7af2b0 0
__ZN5Tiled16TiledApplication17newVersionCheckerEv T 589eb0 0
__ZN5Tiled16TiledApplication17onMessageReceivedERK7QString T 589b40 0
__ZN5Tiled16TiledApplication5eventEP6QEvent T 58a080 0
__ZN5Tiled16TiledApplication8newsFeedEv T 589f30 0
__ZN5Tiled16TiledApplicationC1ERiPPc T 589db0 0
__ZN5Tiled16TiledApplicationC2ERiPPc T 589720 0
__ZN5Tiled16TiledApplicationD0Ev T 589e80 0
__ZN5Tiled16TiledApplicationD1Ev T 589e60 0
__ZN5Tiled16TiledApplicationD2Ev T 589de0 0
__ZN5Tiled16TsxTilesetFormat16staticMetaObjectE U 0 0
__ZN5Tiled16TsxTilesetFormatC1EP7QObject U 0 0
__ZN5Tiled16propertiesToJsonERK4QMapI7QString8QVariantERKNS_13ExportContextE U 0 0
__ZN5Tiled16propertiesToJsonERK4QMapI7QString8QVariantERKS1_ U 0 0
__ZN5Tiled17ClassPropertyType13setUsageFlagsEib U 0 0
__ZN5Tiled17FileSystemWatcher11removePathsERK5QListI7QStringE U 0 0
__ZN5Tiled17FileSystemWatcher12pathsChangedERK5QListI7QStringE U 0 0
__ZN5Tiled17FileSystemWatcher16staticMetaObjectE U 0 0
__ZN5Tiled17FileSystemWatcher5clearEv U 0 0
__ZN5Tiled17FileSystemWatcher8addPathsERK5QListI7QStringE U 0 0
__ZN5Tiled17FileSystemWatcherC1EP7QObject U 0 0
__ZN5Tiled18AutoMappingContextC1EPNS_11MapDocumentE T 9a980 0
__ZN5Tiled18AutoMappingContextC2EPNS_11MapDocumentE T 9a7c0 0
__ZN5Tiled18layerAtGlobalIndexEPKNS_3MapEi U 0 0
__ZN5Tiled18propertiesFromJsonERK10QJsonArrayRK7QString U 0 0
__ZN5Tiled18propertiesFromJsonERK10QJsonArrayRKNS_13ExportContextE U 0 0
__ZN5Tiled19TileAnimationDriver16staticMetaObjectE U 0 0
__ZN5Tiled19TileAnimationDriver6updateEi U 0 0
__ZN5Tiled19TileAnimationDriverC1EP7QObject U 0 0
__ZN5Tiled20SelectCustomPropertyC1E7QStringS1_PKNS_6ObjectE U 0 0
__ZN5Tiled20compressionSupportedENS_17CompressionMethodE U 0 0
__ZN5Tiled21MapToVariantConverter9toVariantERKNS_3MapERK4QDir U 0 0
__ZN5Tiled21ObjectTypesSerializer15readObjectTypesERK7QStringR5QListINS_10ObjectTypeEERKNS_13ExportContextE U 0 0
__ZN5Tiled21ObjectTypesSerializer16writeObjectTypesERK7QStringRK5QListINS_10ObjectTypeEE U 0 0
__ZN5Tiled21ObjectTypesSerializerC1ENS0_6FormatE U 0 0
__ZN5Tiled21VariantToMapConverter5toMapERK8QVariantRK4QDir U 0 0
__ZN5Tiled22possiblePropertyValuesEPKNS_17ClassPropertyTypeE U 0 0
__ZN5Tiled22setNestedPropertyValueER8QVariantiRK5QListINSt3__17variantIJ7QStringiEEEERKS0_b U 0 0
__ZN5Tiled22setPropertyMemberValueER4QMapI7QString8QVariantERK5QListINSt3__17variantIJS1_iEEEERKS2_ U 0 0
__ZN5Tiled23XmlObjectTemplateFormat16staticMetaObjectE U 0 0
__ZN5Tiled23XmlObjectTemplateFormatC1EP7QObject U 0 0
__ZN5Tiled27findSupportingTilesetFormatERK7QString U 0 0
__ZN5Tiled3Map10addTilesetERK14QSharedPointerINS_7TilesetEE U 0 0
__ZN5Tiled3Map11addTilesetsERK4QSetI14QSharedPointerINS_7TilesetEEE U 0 0
__ZN5Tiled3Map11insertLayerEiPNS_5LayerE U 0 0
__ZN5Tiled3Map11takeLayerAtEi U 0 0
__ZN5Tiled3Map13insertTilesetEiRK14QSharedPointerINS_7TilesetEE U 0 0
__ZN5Tiled3Map14replaceTilesetERK14QSharedPointerINS_7TilesetEES5_ U 0 0
__ZN5Tiled3Map15removeTilesetAtEi U 0 0
__ZN5Tiled3Map21replaceObjectTemplateEPKNS_14ObjectTemplateES3_ U 0 0
__ZN5Tiled3Map37normalizeTileLayerPositionsAndMapSizeEv U 0 0
__ZN5Tiled3Map8addLayerEPNS_5LayerE U 0 0
__ZN5Tiled3MapC1ERKNS0_10ParametersE U 0 0
__ZN5Tiled3MapC1Ev U 0 0
__ZN5Tiled3MapD1Ev U 0 0
__ZN5Tiled4Cell16staticMetaObjectE U 0 0
__ZN5Tiled4Cell5emptyE U 0 0
__ZN5Tiled4Tile12setImageRectERK5QRect U 0 0
__ZN5Tiled4Tile14setObjectGroupENSt3__110unique_ptrINS_11ObjectGroupENS1_14default_deleteIS3_EEEE U 0 0
__ZN5Tiled4Tile15swapObjectGroupERNSt3__110unique_ptrINS_11ObjectGroupENS1_14default_deleteIS3_EEEE U 0 0
__ZN5Tiled4Tile8setImageERK7QPixmap U 0 0
__ZN5Tiled4Tile9setFramesERK5QListINS_5FrameEE U 0 0
__ZN5Tiled4TileC1EiPNS_7TilesetE U 0 0
__ZN5Tiled5Issue11setCallbackENSt3__18functionIFvvEEE U 0 0
__ZN5Tiled5Issue13addOccurrenceERKS0_ U 0 0
__ZN5Tiled5IssueC1ENS0_8SeverityERK7QStringNSt3__18functionIFvvEEEPKv U 0 0
__ZN5Tiled5IssueC1Ev U 0 0
__ZN5Tiled5Layer11asTileLayerEv U 0 0
__ZN5Tiled5Layer12asGroupLayerEv U 0 0
__ZN5Tiled5Layer13asObjectGroupEv U 0 0
__ZN5Tiled5World10setMapRectEiRK5QRect U 0 0
__ZN5Tiled5World11setGridSizeE5QSize U 0 0
__ZN5Tiled5World4loadERK7QStringPS1_ U 0 0
__ZN5Tiled5World4saveERS0_P7QString U 0 0
__ZN5Tiled5World6addMapERK7QStringRK5QRect U 0 0
__ZN5Tiled5World9removeMapEi U 0 0
__ZN5Tiled5toUrlERK7QStringS2_ U 0 0
__ZN5Tiled6Object11setPropertyERK5QListINSt3__17variantIJ7QStringiEEEERK8QVariant U 0 0
__ZN5Tiled6Object13propertyTypesEv U 0 0
__ZN5Tiled6Object16setPropertyTypesERK14QSharedPointerINS_13PropertyTypesEE U 0 0
__ZN5Tiled6ObjectD2Ev U 0 0
__ZN5Tiled6WangId11indexByGridEii U 0 0
__ZN5Tiled6WangId12setEdgeColorEij U 0 0
__ZN5Tiled6WangId13setIndexColorEij U 0 0
__ZN5Tiled6WangId14flipVerticallyEv U 0 0
__ZN5Tiled6WangId14setCornerColorEij U 0 0
__ZN5Tiled6WangId16flipHorizontallyEv U 0 0
__ZN5Tiled6WangId6rotateEi U 0 0
__ZN5Tiled7Project12removeFolderEi T 3e43b0 0
__ZN5Tiled7Project4loadERK7QString T 3e3240 0
__ZN5Tiled7Project4saveERK7QString T 3e1cc0 0
__ZN5Tiled7Project4saveEv T 3e1c70 0
__ZN5Tiled7Project9addFolderERK7QString T 3e4380 0
__ZN5Tiled7ProjectC1Ev T 3e1c50 0
__ZN5Tiled7ProjectC2Ev T 3e1970 0
__ZN5Tiled7Session10initializeEv T 53e040 0
__ZN5Tiled7Session10setProjectERK7QString T 53d020 0
__ZN5Tiled7Session11setFileNameERK7QString T 53cd10 0
__ZN5Tiled7Session11setLastPathENS0_8FileTypeERK7QString T 53dc70 0
__ZN5Tiled7Session12deinitializeEv T 53f1f0 0
__ZN5Tiled7Session12setFileStateERK7QStringRK4QMapIS1_8QVariantE T 53d3b0 0
__ZN5Tiled7Session12setOpenFilesERK5QListI7QStringE T 53d1d0 0
__ZN5Tiled7Session13addRecentFileERK7QString T 53d060 0
__ZN5Tiled7Session13setActiveFileERK7QString T 53d210 0
__ZN5Tiled7Session13switchCurrentERK7QString T 53e260 0
__ZN5Tiled7Session15defaultFileNameEv T 53dda0 0
__ZN5Tiled7Session16clearRecentFilesEv T 53d1a0 0
__ZN5Tiled7Session17mChangedCallbacksE S 7c4958 0
__ZN5Tiled7Session17setFileStateValueERK7QStringS3_RK8QVariant T 53d400 0
__ZN5Tiled7Session25defaultFileNameForProjectERK7QString T 53de50 0
__ZN5Tiled7Session4saveEv T 53ccb0 0
__ZN5Tiled7Session4syncEv T 53c440 0
__ZN5Tiled7Session7currentEv T 53e4c0 0
__ZN5Tiled7Session8mCurrentE S 7c4960 0
__ZN5Tiled7SessionC1ERK7QString T 53c350 0
__ZN5Tiled7SessionC2ERK7QString T 53b8e0 0
__ZN5Tiled7SessionD1Ev T 53c860 0
__ZN5Tiled7SessionD2Ev T 53c380 0
__ZN5Tiled7Tileset10addWangSetENSt3__110unique_ptrINS_7WangSetENS1_14default_deleteIS3_EEEE U 0 0
__ZN5Tiled7Tileset11removeTilesERK5QListIPNS_4TileEE U 0 0
__ZN5Tiled7Tileset11setTileSizeE5QSize U 0 0
__ZN5Tiled7Tileset12setTileImageEPNS_4TileERK7QPixmapRK4QUrl U 0 0
__ZN5Tiled7Tileset13insertWangSetEiNSt3__110unique_ptrINS_7WangSetENS1_14default_deleteIS3_EEEE U 0 0
__ZN5Tiled7Tileset13loadFromImageERK6QImageRK7QString U 0 0
__ZN5Tiled7Tileset13loadFromImageERK7QString U 0 0
__ZN5Tiled7Tileset13relocateTilesERK5QListIPNS_4TileEEi U 0 0
__ZN5Tiled7Tileset13takeWangSetAtEi U 0 0
__ZN5Tiled7Tileset14setImageSourceERK4QUrl U 0 0
__ZN5Tiled7Tileset14setImageSourceERK7QString U 0 0
__ZN5Tiled7Tileset14setTileSpacingEi U 0 0
__ZN5Tiled7Tileset15originalTilesetEv U 0 0
__ZN5Tiled7Tileset16setTileImageRectEPNS_4TileERK5QRect U 0 0
__ZN5Tiled7Tileset18setOriginalTilesetERK14QSharedPointerIS0_E U 0 0
__ZN5Tiled7Tileset19setTransparentColorERK6QColor U 0 0
__ZN5Tiled7Tileset22initializeTilesetTilesEv U 0 0
__ZN5Tiled7Tileset4swapERS0_ U 0 0
__ZN5Tiled7Tileset7addTileERK7QPixmapRK4QUrlRK5QRect U 0 0
__ZN5Tiled7Tileset8addTilesERK5QListIPNS_4TileEE U 0 0
__ZN5Tiled7Tileset9loadImageEv U 0 0
__ZN5Tiled7Tileset9setFormatERK7QString U 0 0
__ZN5Tiled7Tileset9setMarginEi U 0 0
__ZN5Tiled7TilesetC1E7QStringiiii U 0 0
__ZN5Tiled7TilesetD1Ev U 0 0
__ZN5Tiled7WangSet13setColorCountEi U 0 0
__ZN5Tiled7WangSet15insertWangColorERK14QSharedPointerINS_9WangColorEE U 0 0
__ZN5Tiled7WangSet15takeWangColorAtEi U 0 0
__ZN5Tiled7WangSet7setTypeENS0_4TypeE U 0 0
__ZN5Tiled7WangSet9setWangIdEiNS_6WangIdE U 0 0
__ZN5Tiled7WangSetC1EPNS_7TilesetERK7QStringNS0_4TypeEi U 0 0
__ZN5Tiled7WangSetD1Ev U 0 0
__ZN5Tiled7readMapERK7QStringPS0_ U 0 0
__ZN5Tiled8FilePath16staticMetaObjectE U 0 0
__ZN5Tiled8SaveFile17safeSavingEnabledEv U 0 0
__ZN5Tiled8SaveFile20setSafeSavingEnabledEb U 0 0
__ZN5Tiled8SaveFile6commitEv U 0 0
__ZN5Tiled8SaveFileC1ERK7QString U 0 0
__ZN5Tiled8TextDataC1Ev U 0 0
__ZN5Tiled8compressERK10QByteArrayNS_17CompressionMethodEi U 0 0
__ZN5Tiled8fromJsonERK10QJsonArrayR5QListINS_10ObjectTypeEERKNS_13ExportContextE U 0 0
__ZN5Tiled9GidMapperC1Ev U 0 0
__ZN5Tiled9MapFormat11qt_metacallEN11QMetaObject4CallEiPPv U 0 0
__ZN5Tiled9MapFormat11qt_metacastEPKc U 0 0
__ZN5Tiled9MapFormat16staticMetaObjectE U 0 0
__ZN5Tiled9MapObject11setTextDataERKNS_8TextDataE U 0 0
__ZN5Tiled9MapObject16syncWithTemplateEv U 0 0
__ZN5Tiled9MapObject18copyPropertiesFromEPKS0_ U 0 0
__ZN5Tiled9MapObject18detachFromTemplateEv U 0 0
__ZN5Tiled9MapObject20setMapObjectPropertyENS0_8PropertyERK8QVariant U 0 0
__ZN5Tiled9MapObject4flipENS_13FlipDirectionERK7QPointF U 0 0
__ZN5Tiled9MapObjectC1ERK7QStringS3_RK7QPointFRK6QSizeF U 0 0
__ZN5Tiled9ObjectRef16staticMetaObjectE U 0 0
__ZN5Tiled9TileLayer11offsetTilesE6QPoint U 0 0
__ZN5Tiled9TileLayer11offsetTilesE6QPoint5QRectbb U 0 0
__ZN5Tiled9TileLayer13flipHexagonalENS_13FlipDirectionE U 0 0
__ZN5Tiled9TileLayer15rotateHexagonalENS_15RotateDirectionEPNS_3MapE U 0 0
__ZN5Tiled9TileLayer25removeReferencesToTilesetEPNS_7TilesetE U 0 0
__ZN5Tiled9TileLayer4flipENS_13FlipDirectionE U 0 0
__ZN5Tiled9TileLayer5clearEv U 0 0
__ZN5Tiled9TileLayer5eraseERK7QRegion U 0 0
__ZN5Tiled9TileLayer5mergeE6QPointPKS0_ U 0 0
__ZN5Tiled9TileLayer6resizeE5QSize6QPoint U 0 0
__ZN5Tiled9TileLayer6rotateENS_15RotateDirectionE U 0 0
__ZN5Tiled9TileLayer7setCellEiiRKNS_4CellE U 0 0
__ZN5Tiled9TileLayer8setCellsEiiPKS0_RK7QRegion U 0 0
__ZN5Tiled9TileLayer8setTilesERK7QRegionPNS_4TileE U 0 0
__ZN5Tiled9TileLayerC1ERK7QString6QPoint5QSize U 0 0
__ZN5Tiled9TileLayerC1ERK7QStringiiii U 0 0
__ZN5TiledlsE6QDebugNS_6WangIdE U 0 0
__ZN6QBrushC1EN2Qt10BrushStyleE U 0 0
__ZN6QBrushC1EN2Qt11GlobalColorENS0_10BrushStyleE U 0 0
__ZN6QBrushC1ERK6QColorN2Qt10BrushStyleE U 0 0
__ZN6QBrushC1ERK9QGradient U 0 0
__ZN6QBrushC1ERKS_ U 0 0
__ZN6QBrushC1Ev U 0 0
__ZN6QBrushD1Ev U 0 0
__ZN6QBrushaSERKS_ U 0 0
__ZN6QColor10fromStringE14QAnyStringView U 0 0
__ZN6QColor12isValidColorERK7QString U 0 0
__ZN6QColor16isValidColorNameE14QAnyStringView U 0 0
__ZN6QColor6setHslEiiii U 0 0
__ZN6QColor6setHsvEiiii U 0 0
__ZN6QColor6setRedEi U 0 0
__ZN6QColor7fromHsvEiiii U 0 0
__ZN6QColor7setBlueEi U 0 0
__ZN6QColor8fromRgbFEffff U 0 0
__ZN6QColor8setAlphaEi U 0 0
__ZN6QColor8setGreenEi U 0 0
__ZN6QColorC1EN2Qt11GlobalColorE U 0 0
__ZN6QColorC1Ej U 0 0
__ZN6QDebug20putTupleLikeImplImplEPKcS1_mPPFvRS_PKvEPS4_ U 0 0
__ZN6QDebug9putStringEPK5QCharm U 0 0
__ZN6QDebugD1Ev U 0 0
__ZN6QFrame10paintEventEP11QPaintEvent U 0 0
__ZN6QFrame11changeEventEP6QEvent U 0 0
__ZN6QFrame11qt_metacallEN11QMetaObject4CallEiPPv U 0 0
__ZN6QFrame11qt_metacastEPKc U 0 0
__ZN6QFrame13setFrameShapeENS_5ShapeE U 0 0
__ZN6QFrame13setFrameStyleEi U 0 0
__ZN6QFrame14setFrameShadowENS_6ShadowE U 0 0
__ZN6QFrame16staticMetaObjectE U 0 0
__ZN6QFrame5eventEP6QEvent U 0 0
__ZN6QFrameC1EP7QWidget6QFlagsIN2Qt10WindowTypeEE U 0 0
__ZN6QFrameC2EP7QWidget6QFlagsIN2Qt10WindowTypeEE U 0 0
__ZN6QFrameD2Ev U 0 0
__ZN6QImage12loadFromDataE14QByteArrayViewPKc U 0 0
__ZN6QImage13setColorTableERK5QListIjE U 0 0
__ZN6QImage13setPixelColorEiiRK6QColor U 0 0
__ZN6QImage4fillERK6QColor U 0 0
__ZN6QImage4fillEj U 0 0
__ZN6QImage4loadERK7QStringPKc U 0 0
__ZN6QImage8setColorEij U 0 0
__ZN6QImage8setPixelEiij U 0 0
__ZN6QImageC1EPKhiiNS_6FormatEPFvPvES3_ U 0 0
__ZN6QImageC1EPKhiixNS_6FormatEPFvPvES3_ U 0 0
__ZN6QImageC1ERK5QSizeNS_6FormatE U 0 0
__ZN6QImageC1ERK7QStringPKc U 0 0
__ZN6QImageC1EiiNS_6FormatE U 0 0
__ZN6QImageC1Ev U 0 0
__ZN6QImageD1Ev U 0 0
__ZN6QLabel10paintEventEP11QPaintEvent U 0 0
__ZN6QLabel11changeEventEP6QEvent U 0 0
__ZN6QLabel11qt_metacallEN11QMetaObject4CallEiPPv U 0 0
__ZN6QLabel11qt_metacastEPKc U 0 0
__ZN6QLabel11setWordWrapEb U 0 0
__ZN6QLabel12focusInEventEP11QFocusEvent U 0 0
__ZN6QLabel12setAlignmentE6QFlagsIN2Qt13AlignmentFlagEE U 0 0
__ZN6QLabel13focusOutEventEP11QFocusEvent U 0 0
__ZN6QLabel13keyPressEventEP9QKeyEvent U 0 0
__ZN6QLabel13linkActivatedERK7QString U 0 0
__ZN6QLabel13setTextFormatEN2Qt10TextFormatE U 0 0
__ZN6QLabel14mouseMoveEventEP11QMouseEvent U 0 0
__ZN6QLabel15mousePressEventEP11QMouseEvent U 0 0
__ZN6QLabel16contextMenuEventEP17QContextMenuEvent U 0 0
__ZN6QLabel16staticMetaObjectE U 0 0
__ZN6QLabel17mouseReleaseEventEP11QMouseEvent U 0 0
__ZN6QLabel17setScaledContentsEb U 0 0
__ZN6QLabel18focusNextPrevChildEb U 0 0
__ZN6QLabel20setOpenExternalLinksEb U 0 0
__ZN6QLabel23setTextInteractionFlagsE6QFlagsIN2Qt19TextInteractionFlagEE U 0 0
__ZN6QLabel5clearEv U 0 0
__ZN6QLabel5eventEP6QEvent U 0 0
__ZN6QLabel7setTextERK7QString U 0 0
__ZN6QLabel8setBuddyEP7QWidget U 0 0
__ZN6QLabel9setPixmapERK7QPixmap U 0 0
__ZN6QLabelC1EP7QWidget6QFlagsIN2Qt10WindowTypeEE U 0 0
__ZN6QLabelC1ERK7QStringP7QWidget6QFlagsIN2Qt10WindowTypeEE U 0 0
__ZN6QLabelC2EP7QWidget6QFlagsIN2Qt10WindowTypeEE U 0 0
__ZN6QLabelC2ERK7QStringP7QWidget6QFlagsIN2Qt10WindowTypeEE U 0 0
__ZN6QLabelD2Ev U 0 0
__ZN6QStyle10visualRectEN2Qt15LayoutDirectionERK5QRectS4_ U 0 0
__ZN6QStyle15visualAlignmentEN2Qt15LayoutDirectionE6QFlagsINS0_13AlignmentFlagEE U 0 0
__ZN6QTimer11setIntervalEi U 0 0
__ZN6QTimer13setSingleShotEb U 0 0
__ZN6QTimer14singleShotImplENSt3__16chrono8durationIxNS0_5ratioILl1ELl1000000000EEEEEN2Qt9TimerTypeEPK7QObjectPN9QtPrivate15QSlotObjectBaseE U 0 0
__ZN6QTimer16staticMetaObjectE U 0 0
__ZN6QTimer4stopEv U 0 0
__ZN6QTimer5startEi U 0 0
__ZN6QTimer5startEv U 0 0
__ZN6QTimer7timeoutENS_14QPrivateSignalE U 0 0
__ZN6QTimerC1EP7QObject U 0 0
__ZN6QTimerD1Ev U 0 0
__ZN7QAction10setCheckedEb U 0 0
__ZN7QAction10setEnabledEb U 0 0
__ZN7QAction10setToolTipERK7QString U 0 0
__ZN7QAction10setVisibleEb U 0 0
__ZN7QAction11qt_metacallEN11QMetaObject4CallEiPPv U 0 0
__ZN7QAction11qt_metacastEPKc U 0 0
__ZN7QAction11setIconTextERK7QString U 0 0
__ZN7QAction11setMenuRoleENS_8MenuRoleE U 0 0
__ZN7QAction11setPriorityENS_8PriorityE U 0 0
__ZN7QAction11setShortcutERK12QKeySequence U 0 0
__ZN7QAction12setCheckableEb U 0 0
__ZN7QAction12setSeparatorEb U 0 0
__ZN7QAction12setShortcutsEN12QKeySequence11StandardKeyE U 0 0
__ZN7QAction12setShortcutsERK5QListI12QKeySequenceE U 0 0
__ZN7QAction13setMenuObjectEP7QObject U 0 0
__ZN7QAction14setActionGroupEP12QActionGroup U 0 0
__ZN7QAction16staticMetaObjectE U 0 0
__ZN7QAction18setShortcutContextEN2Qt15ShortcutContextE U 0 0
__ZN7QAction20setIconVisibleInMenuEb U 0 0
__ZN7QAction5eventEP6QEvent U 0 0
__ZN7QAction7changedEv U 0 0
__ZN7QAction7setDataERK8QVariant U 0 0
__ZN7QAction7setFontERK5QFont U 0 0
__ZN7QAction7setIconERK5QIcon U 0 0
__ZN7QAction7setTextERK7QString U 0 0
__ZN7QAction7toggledEb U 0 0
__ZN7QAction8activateENS_11ActionEventE U 0 0
__ZN7QAction9triggeredEb U 0 0
__ZN7QActionC1EP7QObject U 0 0
__ZN7QActionC1ERK5QIconRK7QStringP7QObject U 0 0
__ZN7QActionC1ERK7QStringP7QObject U 0 0
__ZN7QActionC2EP7QObject U 0 0
__ZN7QActionD2Ev U 0 0
__ZN7QBitmapD1Ev U 0 0
__ZN7QBuffer4openE6QFlagsIN13QIODeviceBase12OpenModeFlagEE U 0 0
__ZN7QBufferC1EP10QByteArrayP7QObject U 0 0
__ZN7QBufferD1Ev U 0 0
__ZN7QCursor3posEv U 0 0
__ZN7QCursorC1EN2Qt11CursorShapeE U 0 0
__ZN7QCursorC1ERK7QPixmapii U 0 0
__ZN7QCursorC1ERKS_ U 0 0
__ZN7QCursorC1Ev U 0 0
__ZN7QCursorD1Ev U 0 0
__ZN7QCursoraSERKS_ U 0 0
__ZN7QDialog10closeEventEP11QCloseEvent U 0 0
__ZN7QDialog10setVisibleEb U 0 0
__ZN7QDialog11eventFilterEP7QObjectP6QEvent U 0 0
__ZN7QDialog11qt_metacallEN11QMetaObject4CallEiPPv U 0 0
__ZN7QDialog11qt_metacastEPKc U 0 0
__ZN7QDialog11resizeEventEP12QResizeEvent U 0 0
__ZN7QDialog13keyPressEventEP9QKeyEvent U 0 0
__ZN7QDialog16contextMenuEventEP17QContextMenuEvent U 0 0
__ZN7QDialog16staticMetaObjectE U 0 0
__ZN7QDialog18setSizeGripEnabledEb U 0 0
__ZN7QDialog4doneEi U 0 0
__ZN7QDialog4execEv U 0 0
__ZN7QDialog4openEv U 0 0
__ZN7QDialog6acceptEv U 0 0
__ZN7QDialog6rejectEv U 0 0
__ZN7QDialog9showEventEP10QShowEvent U 0 0
__ZN7QDialogC2EP7QWidget6QFlagsIN2Qt10WindowTypeEE U 0 0
__ZN7QDialogD2Ev U 0 0
__ZN7QLayout10childEventEP11QChildEvent U 0 0
__ZN7QLayout10invalidateEv U 0 0
__ZN7QLayout10setSpacingEi U 0 0
__ZN7QLayout11qt_metacallEN11QMetaObject4CallEiPPv U 0 0
__ZN7QLayout11qt_metacastEPKc U 0 0
__ZN7QLayout11setGeometryERK5QRect U 0 0
__ZN7QLayout12removeWidgetEP7QWidget U 0 0
__ZN7QLayout13replaceWidgetEP7QWidgetS1_6QFlagsIN2Qt15FindChildOptionEE U 0 0
__ZN7QLayout16staticMetaObjectE U 0 0
__ZN7QLayout17setSizeConstraintENS_14SizeConstraintE U 0 0
__ZN7QLayout18setContentsMarginsERK8QMargins U 0 0
__ZN7QLayout18setContentsMarginsEiiii U 0 0
__ZN7QLayout6layoutEv U 0 0
__ZN7QLayout8activateEv U 0 0
__ZN7QLayout9addWidgetEP7QWidget U 0 0
__ZN7QLayoutC2EP7QWidget U 0 0
__ZN7QLayoutD2Ev U 0 0
__ZN7QLocale15countryToStringENS_7CountryE U 0 0
__ZN7QLocale16languageToStringENS_8LanguageE U 0 0
__ZN7QLocale6systemEv U 0 0
__ZN7QLocaleC1E11QStringView U 0 0
__ZN7QLocaleC1Ev U 0 0
__ZN7QLocaleD1Ev U 0 0
__ZN7QLocaleaSERKS_ U 0 0
__ZN7QObject10childEventEP11QChildEvent U 0 0
__ZN7QObject10disconnectEPKS_PKcS1_S3_ U 0 0
__ZN7QObject10startTimerEiN2Qt9TimerTypeE U 0 0
__ZN7QObject10timerEventEP11QTimerEvent U 0 0
__ZN7QObject11connectImplEPKS_PPvS1_S3_PN9QtPrivate15QSlotObjectBaseEN2Qt14ConnectionTypeEPKiPK11QMetaObject U 0 0
__ZN7QObject11customEventEP6QEvent U 0 0
__ZN7QObject11deleteLaterEv U 0 0
__ZN7QObject11eventFilterEPS_P6QEvent U 0 0
__ZN7QObject11qt_metacallEN11QMetaObject4CallEiPPv U 0 0
__ZN7QObject11qt_metacastEPKc U 0 0
__ZN7QObject12blockSignalsEb U 0 0
__ZN7QObject12moveToThreadEP7QThreadN2Qt15Disambiguated_tE U 0 0
__ZN7QObject13connectNotifyERK11QMetaMethod U 0 0
__ZN7QObject13setObjectNameE14QAnyStringView U 0 0
__ZN7QObject14disconnectImplEPKS_PPvS1_S3_PK11QMetaObject U 0 0
__ZN7QObject15doSetObjectNameERK7QString U 0 0
__ZN7QObject16disconnectNotifyERK11QMetaMethod U 0 0
__ZN7QObject16staticMetaObjectE U 0 0
__ZN7QObject17removeEventFilterEPS_ U 0 0
__ZN7QObject18installEventFilterEPS_ U 0 0
__ZN7QObject5eventEP6QEvent U 0 0
__ZN7QObject7connectEPKS_PKcS1_S3_N2Qt14ConnectionTypeE U 0 0
__ZN7QObject7connectEPKS_RK11QMetaMethodS1_S4_N2Qt14ConnectionTypeE U 0 0
__ZN7QObject9destroyedEPS_ U 0 0
__ZN7QObject9setParentEPS_ U 0 0
__ZN7QObjectC1EPS_ U 0 0
__ZN7QObjectC2EPS_ U 0 0
__ZN7QObjectD2Ev U 0 0
__ZN7QPixmap16fromImageInPlaceER6QImage6QFlagsIN2Qt19ImageConversionFlagEE U 0 0
__ZN7QPixmap19setDevicePixelRatioEd U 0 0
__ZN7QPixmap4fillERK6QColor U 0 0
__ZN7QPixmap9fromImageERK6QImage6QFlagsIN2Qt19ImageConversionFlagEE U 0 0
__ZN7QPixmapC1ERK5QSize U 0 0
__ZN7QPixmapC1ERK7QStringPKc6QFlagsIN2Qt19ImageConversionFlagEE U 0 0
__ZN7QPixmapC1ERKS_ U 0 0
__ZN7QPixmapC1Ev U 0 0
__ZN7QPixmapD1Ev U 0 0
__ZN7QRegion12shared_emptyE U 0 0
__ZN7QRegion9translateEii U 0 0
__ZN7QRegionC1ERK5QRectNS_10RegionTypeE U 0 0
__ZN7QRegionC1ERK7QBitmap U 0 0
__ZN7QRegionC1ERKS_ U 0 0
__ZN7QRegionC1EiiiiNS_10RegionTypeE U 0 0
__ZN7QRegionC1Ev U 0 0
__ZN7QRegionD1Ev U 0 0
__ZN7QRegionaNERK5QRect U 0 0
__ZN7QRegionaNERKS_ U 0 0
__ZN7QRegionaSERKS_ U 0 0
__ZN7QRegionmIERKS_ U 0 0
__ZN7QRegionoRERKS_ U 0 0
__ZN7QRegionpLERK5QRect U 0 0
__ZN7QRegionpLERKS_ U 0 0
__ZN7QScreen16virtualSiblingAtE6QPoint U 0 0
__ZN7QSlider10paintEventEP11QPaintEvent U 0 0
__ZN7QSlider11qt_metacallEN11QMetaObject4CallEiPPv U 0 0
__ZN7QSlider11qt_metacastEPKc U 0 0
__ZN7QSlider14mouseMoveEventEP11QMouseEvent U 0 0
__ZN7QSlider15mousePressEventEP11QMouseEvent U 0 0
__ZN7QSlider16staticMetaObjectE U 0 0
__ZN7QSlider17mouseReleaseEventEP11QMouseEvent U 0 0
__ZN7QSlider5eventEP6QEvent U 0 0
__ZN7QSliderC1EP7QWidget U 0 0
__ZN7QSliderC2EN2Qt11OrientationEP7QWidget U 0 0
__ZN7QSliderC2EP7QWidget U 0 0
__ZN7QSliderD2Ev U 0 0
__ZN7QString10fromLatin1E14QByteArrayView U 0 0
__ZN7QString11reallocDataExN10QArrayData16AllocationOptionE U 0 0
__ZN7QString13fromLocal8BitE14QByteArrayView U 0 0
__ZN7QString13toUtf8_helperERKS_ U 0 0
__ZN7QString14toLower_helperERKS_ U 0 0
__ZN7QString14trimmed_helperERKS_ U 0 0
__ZN7QString14trimmed_helperERS_ U 0 0
__ZN7QString15toLatin1_helperERKS_ U 0 0
__ZN7QString17toIntegral_helperE11QStringViewPbi U 0 0
__ZN7QString18toLocal8Bit_helperEPK5QCharx U 0 0
__ZN7QString23toLatin1_helper_inplaceERS_ U 0 0
__ZN7QString4chopEx U 0 0
__ZN7QString6_emptyE U 0 0
__ZN7QString6appendE13QLatin1String U 0 0
__ZN7QString6appendE5QChar U 0 0
__ZN7QString6appendEPK5QCharx U 0 0
__ZN7QString6appendERKS_ U 0 0
__ZN7QString6insertEx5QChar U 0 0
__ZN7QString6insertExPK5QCharx U 0 0
__ZN7QString6numberEdci U 0 0
__ZN7QString6numberEii U 0 0
__ZN7QString6numberEji U 0 0
__ZN7QString6numberEmi U 0 0
__ZN7QString6removeE13QLatin1StringN2Qt15CaseSensitivityE U 0 0
__ZN7QString6removeE5QCharN2Qt15CaseSensitivityE U 0 0
__ZN7QString6removeExx U 0 0
__ZN7QString7replaceE13QLatin1StringRKS_N2Qt15CaseSensitivityE U 0 0
__ZN7QString7replaceE5QCharRKS_N2Qt15CaseSensitivityE U 0 0
__ZN7QString7replaceERK18QRegularExpressionRKS_ U 0 0
__ZN7QString7replaceERKS_S1_N2Qt15CaseSensitivityE U 0 0
__ZN7QString8asprintfEPKcz U 0 0
__ZN7QString8fromUtf8E14QByteArrayView U 0 0
__ZN7QString8truncateEx U 0 0
__ZN7QStringC1E5QChar U 0 0
__ZN7QStringC1EPK5QCharx U 0 0
__ZN7QStringC1ExN2Qt14InitializationE U 0 0
__ZN7QStringaSE13QLatin1String U 0 0
__ZN7QStringaSERKS_ U 0 0
__ZN7QTabBar10paintEventEP11QPaintEvent U 0 0
__ZN7QTabBar10setMovableEb U 0 0
__ZN7QTabBar10setTabIconEiRK5QIcon U 0 0
__ZN7QTabBar10setTabTextEiRK7QString U 0 0
__ZN7QTabBar10tabRemovedEi U 0 0
__ZN7QTabBar10timerEventEP11QTimerEvent U 0 0
__ZN7QTabBar11changeEventEP6QEvent U 0 0
__ZN7QTabBar11qt_metacallEN11QMetaObject4CallEiPPv U 0 0
__ZN7QTabBar11qt_metacastEPKc U 0 0
__ZN7QTabBar11resizeEventEP12QResizeEvent U 0 0
__ZN7QTabBar11tabInsertedEi U 0 0
__ZN7QTabBar12setExpandingEb U 0 0
__ZN7QTabBar13keyPressEventEP9QKeyEvent U 0 0
__ZN7QTabBar13setTabToolTipEiRK7QString U 0 0
__ZN7QTabBar14currentChangedEi U 0 0
__ZN7QTabBar14mouseMoveEventEP11QMouseEvent U 0 0
__ZN7QTabBar15mousePressEventEP11QMouseEvent U 0 0
__ZN7QTabBar15setCurrentIndexEi U 0 0
__ZN7QTabBar15setDocumentModeEb U 0 0
__ZN7QTabBar15setTabsClosableEb U 0 0
__ZN7QTabBar15tabLayoutChangeEv U 0 0
__ZN7QTabBar16staticMetaObjectE U 0 0
__ZN7QTabBar17mouseReleaseEventEP11QMouseEvent U 0 0
__ZN7QTabBar17tabCloseRequestedEi U 0 0
__ZN7QTabBar20setUsesScrollButtonsEb U 0 0
__ZN7QTabBar21mouseDoubleClickEventEP11QMouseEvent U 0 0
__ZN7QTabBar5eventEP6QEvent U 0 0
__ZN7QTabBar7moveTabEii U 0 0
__ZN7QTabBar8tabMovedEii U 0 0
__ZN7QTabBar9hideEventEP10QHideEvent U 0 0
__ZN7QTabBar9insertTabEiRK7QString U 0 0
__ZN7QTabBar9removeTabEi U 0 0
__ZN7QTabBar9showEventEP10QShowEvent U 0 0
__ZN7QTabBarC2EP7QWidget U 0 0
__ZN7QTabBarD2Ev U 0 0
__ZN7QThread13currentThreadEv U 0 0
__ZN7QThread16staticMetaObjectE U 0 0
__ZN7QThread19requestInterruptionEv U 0 0
__ZN7QThread4quitEv U 0 0
__ZN7QThread4waitE14QDeadlineTimer U 0 0
__ZN7QThread5startENS_8PriorityE U 0 0
__ZN7QThread8finishedENS_14QPrivateSignalE U 0 0
__ZN7QThreadC1EP7QObject U 0 0
__ZN7QThreadD1Ev U 0 0
__ZN7QWidget10addActionsERK5QListIP7QActionE U 0 0
__ZN7QWidget10adjustSizeEv U 0 0
__ZN7QWidget10closeEventEP11QCloseEvent U 0 0
__ZN7QWidget10enterEventEP11QEnterEvent U 0 0
__ZN7QWidget10leaveEventEP6QEvent U 0 0
__ZN7QWidget10paintEventEP11QPaintEvent U 0 0
__ZN7QWidget10setEnabledEb U 0 0
__ZN7QWidget10setPaletteERK8QPalette U 0 0
__ZN7QWidget10setToolTipERK7QString U 0 0
__ZN7QWidget10setVisibleEb U 0 0
__ZN7QWidget10wheelEventEP11QWheelEvent U 0 0
__ZN7QWidget11actionEventEP12QActionEvent U 0 0
__ZN7QWidget11changeEventEP6QEvent U 0 0
__ZN7QWidget11grabGestureEN2Qt11GestureTypeE6QFlagsINS0_11GestureFlagEE U 0 0
__ZN7QWidget11nativeEventERK10QByteArrayPvPx U 0 0
__ZN7QWidget11qt_metacallEN11QMetaObject4CallEiPPv U 0 0
__ZN7QWidget11qt_metacastEPKc U 0 0
__ZN7QWidget11resizeEventEP12QResizeEvent U 0 0
__ZN7QWidget11setGeometryERK5QRect U 0 0
__ZN7QWidget11setTabOrderEPS_S0_ U 0 0
__ZN7QWidget11tabletEventEP12QTabletEvent U 0 0
__ZN7QWidget11unsetCursorEv U 0 0
__ZN7QWidget12focusInEventEP11QFocusEvent U 0 0
__ZN7QWidget12insertActionEP7QActionS1_ U 0 0
__ZN7QWidget12removeActionEP7QAction U 0 0
__ZN7QWidget12setAttributeEN2Qt15WidgetAttributeEb U 0 0
__ZN7QWidget12setFixedSizeERK5QSize U 0 0
__ZN7QWidget13dragMoveEventEP14QDragMoveEvent U 0 0
__ZN7QWidget13focusOutEventEP11QFocusEvent U 0 0
__ZN7QWidget13keyPressEventEP9QKeyEvent U 0 0
__ZN7QWidget13setFixedWidthEi U 0 0
__ZN7QWidget13setFocusProxyEPS_ U 0 0
__ZN7QWidget13setSizePolicyE11QSizePolicy U 0 0
__ZN7QWidget14activateWindowEv U 0 0
__ZN7QWidget14dragEnterEventEP15QDragEnterEvent U 0 0
__ZN7QWidget14dragLeaveEventEP15QDragLeaveEvent U 0 0
__ZN7QWidget14mouseMoveEventEP11QMouseEvent U 0 0
__ZN7QWidget14setAcceptDropsEb U 0 0
__ZN7QWidget14setFocusPolicyEN2Qt11FocusPolicyE U 0 0
__ZN7QWidget14setMaximumSizeEii U 0 0
__ZN7QWidget14setMinimumSizeEii U 0 0
__ZN7QWidget14setWindowStateE6QFlagsIN2Qt11WindowStateEE U 0 0
__ZN7QWidget14setWindowTitleERK7QString U 0 0
__ZN7QWidget14updateGeometryEv U 0 0
__ZN7QWidget15keyReleaseEventEP9QKeyEvent U 0 0
__ZN7QWidget15mousePressEventEP11QMouseEvent U 0 0
__ZN7QWidget15restoreGeometryERK10QByteArray U 0 0
__ZN7QWidget15setMaximumWidthEi U 0 0
__ZN7QWidget15setMinimumWidthEi U 0 0
__ZN7QWidget16contextMenuEventEP17QContextMenuEvent U 0 0
__ZN7QWidget16inputMethodEventEP17QInputMethodEvent U 0 0
__ZN7QWidget16setMaximumHeightEi U 0 0
__ZN7QWidget16setMinimumHeightEi U 0 0
__ZN7QWidget16staticMetaObjectE U 0 0
__ZN7QWidget17mouseReleaseEventEP11QMouseEvent U 0 0
__ZN7QWidget17setBackgroundRoleEN8QPalette9ColorRoleE U 0 0
__ZN7QWidget17setForegroundRoleEN8QPalette9ColorRoleE U 0 0
__ZN7QWidget17setGraphicsEffectEP15QGraphicsEffect U 0 0
__ZN7QWidget17setUpdatesEnabledEb U 0 0
__ZN7QWidget17setWindowFilePathERK7QString U 0 0
__ZN7QWidget17setWindowModalityEN2Qt14WindowModalityE U 0 0
__ZN7QWidget17setWindowModifiedEb U 0 0
__ZN7QWidget18focusNextPrevChildEb U 0 0
__ZN7QWidget18setContentsMarginsERK8QMargins U 0 0
__ZN7QWidget18setContentsMarginsEiiii U 0 0
__ZN7QWidget18setLayoutDirectionEN2Qt15LayoutDirectionE U 0 0
__ZN7QWidget20setContextMenuPolicyEN2Qt17ContextMenuPolicyE U 0 0
__ZN7QWidget21mouseDoubleClickEventEP11QMouseEvent U 0 0
__ZN7QWidget21setAutoFillBackgroundEb U 0 0
__ZN7QWidget26customContextMenuRequestedERK6QPoint U 0 0
__ZN7QWidget4hideEv U 0 0
__ZN7QWidget4moveERK6QPoint U 0 0
__ZN7QWidget4showEv U 0 0
__ZN7QWidget5closeEv U 0 0
__ZN7QWidget5eventEP6QEvent U 0 0
__ZN7QWidget5raiseEv U 0 0
__ZN7QWidget6resizeERK5QSize U 0 0
__ZN7QWidget6updateERK5QRect U 0 0
__ZN7QWidget6updateEv U 0 0
__ZN7QWidget7setFontERK5QFont U 0 0
__ZN7QWidget8setFocusEN2Qt11FocusReasonE U 0 0
__ZN7QWidget9addActionEP7QAction U 0 0
__ZN7QWidget9addActionERK5QIconRK7QString U 0 0
__ZN7QWidget9addActionERK7QString U 0 0
__ZN7QWidget9addActionERK7QStringRK12QKeySequence U 0 0
__ZN7QWidget9dropEventEP10QDropEvent U 0 0
__ZN7QWidget9hideEventEP10QHideEvent U 0 0
__ZN7QWidget9moveEventEP10QMoveEvent U 0 0
__ZN7QWidget9setCursorERK7QCursor U 0 0
__ZN7QWidget9setLayoutEP7QLayout U 0 0
__ZN7QWidget9showEventEP10QShowEvent U 0 0
__ZN7QWidgetC1EPS_6QFlagsIN2Qt10WindowTypeEE U 0 0
__ZN7QWidgetC2EPS_6QFlagsIN2Qt10WindowTypeEE U 0 0
__ZN7QWidgetD2Ev U 0 0
__ZN7QWindow14setSurfaceTypeEN8QSurface11SurfaceTypeE U 0 0
__ZN7QWindow4showEv U 0 0
__ZN7QWindow7destroyEv U 0 0
__ZN8QJSValue11setPropertyERK7QStringRKS_ U 0 0
__ZN8QJSValue11setPropertyEjRKS_ U 0 0
__ZN8QJSValue12setPrototypeERKS_ U 0 0
__ZN8QJSValue14deletePropertyERK7QString U 0 0
__ZN8QJSValueC1ENS_12SpecialValueE U 0 0
__ZN8QJSValueC1ERK7QString U 0 0
__ZN8QJSValueC1ERKS_ U 0 0
__ZN8QJSValueC1Ed U 0 0
__ZN8QJSValueC1Ei U 0 0
__ZN8QJSValueC1Ej U 0 0
__ZN8QJSValueD1Ev U 0 0
__ZN8QJSValueaSERKS_ U 0 0
__ZN8QMenuBar10insertMenuEP7QActionP5QMenu U 0 0
__ZN8QMenuBarC1EP7QWidget U 0 0
__ZN8QPainter10doSetBrushERK6QBrushPS0_ U 0 0
__ZN8QPainter10drawPixmapERK6QRectFRK7QPixmapS2_ U 0 0
__ZN8QPainter10drawPixmapERK7QPointFRK7QPixmap U 0 0
__ZN8QPainter10drawPointsEPK6QPointi U 0 0
__ZN8QPainter10setOpacityEd U 0 0
__ZN8QPainter11drawEllipseERK5QRect U 0 0
__ZN8QPainter11drawEllipseERK6QRectF U 0 0
__ZN8QPainter11drawPolygonEPK7QPointFiN2Qt8FillRuleE U 0 0
__ZN8QPainter11setClipRectERK5QRectN2Qt13ClipOperationE U 0 0
__ZN8QPainter12setTransformERK10QTransformb U 0 0
__ZN8QPainter13setRenderHintENS_10RenderHintEb U 0 0
__ZN8QPainter14drawStaticTextERK7QPointFRK11QStaticText U 0 0
__ZN8QPainter14setRenderHintsE6QFlagsINS_10RenderHintEEb U 0 0
__ZN8QPainter15drawRoundedRectERK6QRectFddN2Qt8SizeModeE U 0 0
__ZN8QPainter18setCompositionModeENS_15CompositionModeE U 0 0
__ZN8QPainter3endEv U 0 0
__ZN8QPainter4saveEv U 0 0
__ZN8QPainter5beginEP12QPaintDevice U 0 0
__ZN8QPainter5scaleEdd U 0 0
__ZN8QPainter6rotateEd U 0 0
__ZN8QPainter6setPenEN2Qt8PenStyleE U 0 0
__ZN8QPainter6setPenERK6QColor U 0 0
__ZN8QPainter7restoreEv U 0 0
__ZN8QPainter7setFontERK5QFont U 0 0
__ZN8QPainter8doSetPenERK4QPenPS0_ U 0 0
__ZN8QPainter8drawPathERK12QPainterPath U 0 0
__ZN8QPainter8drawTextERK5QRectiRK7QStringPS0_ U 0 0
__ZN8QPainter8drawTextERK6QRectFRK7QStringRK11QTextOption U 0 0
__ZN8QPainter8drawTextERK7QPointFRK7QString U 0 0
__ZN8QPainter8fillRectERK5QRectRK6QBrush U 0 0
__ZN8QPainter8fillRectERK5QRectRK6QColor U 0 0
__ZN8QPainter8fillRectERK6QRectFRK6QColor U 0 0
__ZN8QPainter8setBrushE6QColor U 0 0
__ZN8QPainter8setBrushEN2Qt10BrushStyleE U 0 0
__ZN8QPainter9drawImageERK6QRectFRK6QImageS2_6QFlagsIN2Qt19ImageConversionFlagEE U 0 0
__ZN8QPainter9drawLinesEPK5QLinei U 0 0
__ZN8QPainter9drawLinesEPK6QLineFi U 0 0
__ZN8QPainter9drawLinesEPK6QPointi U 0 0
__ZN8QPainter9drawRectsEPK5QRecti U 0 0
__ZN8QPainter9drawRectsEPK6QRectFi U 0 0
__ZN8QPainter9translateERK7QPointF U 0 0
__ZN8QPainterC1EP12QPaintDevice U 0 0
__ZN8QPainterC2Ev U 0 0
__ZN8QPainterD1Ev U 0 0
__ZN8QPainterD2Ev U 0 0
__ZN8QPalette8setBrushENS_10ColorGroupENS_9ColorRoleERK6QBrush U 0 0
__ZN8QPaletteC1ERK6QColor U 0 0
__ZN8QPaletteC1ERKS_ U 0 0
__ZN8QPaletteC1Ev U 0 0
__ZN8QPaletteD1Ev U 0 0
__ZN8QPaletteaSERKS_ U 0 0
__ZN8QPicture4playEP8QPainter U 0 0
__ZN8QPictureC1ERKS_ U 0 0
__ZN8QPictureC1Ei U 0 0
__ZN8QPictureD1Ev U 0 0
__ZN8QProcess11qt_metacallEN11QMetaObject4CallEiPPv U 0 0
__ZN8QProcess11qt_metacastEPKc U 0 0
__ZN8QProcess12startCommandERK7QString6QFlagsIN13QIODeviceBase12OpenModeFlagEE U 0 0
__ZN8QProcess13errorOccurredENS_12ProcessErrorE U 0 0
__ZN8QProcess14waitForStartedEi U 0 0
__ZN8QProcess15waitForFinishedEi U 0 0
__ZN8QProcess16staticMetaObjectE U 0 0
__ZN8QProcess16waitForReadyReadEi U 0 0
__ZN8QProcess17closeWriteChannelEv U 0 0
__ZN8QProcess17setupChildProcessEv U 0 0
__ZN8QProcess19setWorkingDirectoryERK7QString U 0 0
__ZN8QProcess19waitForBytesWrittenEi U 0 0
__ZN8QProcess20readAllStandardErrorEv U 0 0
__ZN8QProcess21readAllStandardOutputEv U 0 0
__ZN8QProcess21setProcessEnvironmentERK19QProcessEnvironment U 0 0
__ZN8QProcess22readyReadStandardErrorENS_14QPrivateSignalE U 0 0
__ZN8QProcess23readyReadStandardOutputENS_14QPrivateSignalE U 0 0
__ZN8QProcess4killEv U 0 0
__ZN8QProcess4openE6QFlagsIN13QIODeviceBase12OpenModeFlagEE U 0 0
__ZN8QProcess5closeEv U 0 0
__ZN8QProcess5startERK7QStringRK5QListIS0_E6QFlagsIN13QIODeviceBase12OpenModeFlagEE U 0 0
__ZN8QProcess7executeERK7QStringRK5QListIS0_E U 0 0
__ZN8QProcess8finishedEiNS_10ExitStatusE U 0 0
__ZN8QProcess8readDataEPcx U 0 0
__ZN8QProcess9terminateEv U 0 0
__ZN8QProcess9writeDataEPKcx U 0 0
__ZN8QProcessC1EP7QObject U 0 0
__ZN8QProcessC2EP7QObject U 0 0
__ZN8QProcessD2Ev U 0 0
__ZN8QSpinBox10setMaximumEi U 0 0
__ZN8QSpinBox10setMinimumEi U 0 0
__ZN8QSpinBox11qt_metacallEN11QMetaObject4CallEiPPv U 0 0
__ZN8QSpinBox11qt_metacastEPKc U 0 0
__ZN8QSpinBox12valueChangedEi U 0 0
__ZN8QSpinBox13setSingleStepEi U 0 0
__ZN8QSpinBox16staticMetaObjectE U 0 0
__ZN8QSpinBox5eventEP6QEvent U 0 0
__ZN8QSpinBox8setRangeEii U 0 0
__ZN8QSpinBox8setValueEi U 0 0
__ZN8QSpinBox9setPrefixERK7QString U 0 0
__ZN8QSpinBox9setSuffixERK7QString U 0 0
__ZN8QSpinBoxC2EP7QWidget U 0 0
__ZN8QSpinBoxD2Ev U 0 0
__ZN8QToolBar10paintEventEP11QPaintEvent U 0 0
__ZN8QToolBar10setMovableEb U 0 0
__ZN8QToolBar11actionEventEP12QActionEvent U 0 0
__ZN8QToolBar11changeEventEP6QEvent U 0 0
__ZN8QToolBar11qt_metacallEN11QMetaObject4CallEiPPv U 0 0
__ZN8QToolBar11qt_metacastEPKc U 0 0
__ZN8QToolBar11setIconSizeERK5QSize U 0 0
__ZN8QToolBar12addSeparatorEv U 0 0
__ZN8QToolBar12setFloatableEb U 0 0
__ZN8QToolBar16staticMetaObjectE U 0 0
__ZN8QToolBar18orientationChangedEN2Qt11OrientationE U 0 0
__ZN8QToolBar18setToolButtonStyleEN2Qt15ToolButtonStyleE U 0 0
__ZN8QToolBar5clearEv U 0 0
__ZN8QToolBar5eventEP6QEvent U 0 0
__ZN8QToolBar9addWidgetEP7QWidget U 0 0
__ZN8QToolBarC1EP7QWidget U 0 0
__ZN8QToolBarC2EP7QWidget U 0 0
__ZN8QToolBarD2Ev U 0 0
__ZN8QVariant13moveConstructE9QMetaTypePv U 0 0
__ZN8QVariant7convertE9QMetaType U 0 0
__ZN8QVariantC1E5QDate U 0 0
__ZN8QVariantC1E5QSize U 0 0
__ZN8QVariantC1E6QSizeF U 0 0
__ZN8QVariantC1E7QPointF U 0 0
__ZN8QVariantC1E9QMetaTypePKv U 0 0
__ZN8QVariantC1ERK10QByteArray U 0 0
__ZN8QVariantC1ERK4QMapI7QStringS_E U 0 0
__ZN8QVariantC1ERK5QHashI7QStringS_E U 0 0
__ZN8QVariantC1ERK5QListI7QStringE U 0 0
__ZN8QVariantC1ERK5QListIS_E U 0 0
__ZN8QVariantC1ERK7QString U 0 0
__ZN8QVariantC1ERK9QDateTime U 0 0
__ZN8QVariantC1ERKS_ U 0 0
__ZN8QVariantC1Eb U 0 0
__ZN8QVariantC1Ed U 0 0
__ZN8QVariantC1Ei U 0 0
__ZN8QVariantD1Ev U 0 0
__ZN8QVariantaSERKS_ U 0 0
__ZN9QCheckBox12stateChangedEi U 0 0
__ZN9QCheckBox13setCheckStateEN2Qt10CheckStateE U 0 0
__ZN9QCheckBox16staticMetaObjectE U 0 0
__ZN9QCheckBoxC1EP7QWidget U 0 0
__ZN9QCheckBoxC1ERK7QStringP7QWidget U 0 0
__ZN9QCollator14setNumericModeEb U 0 0
__ZN9QCollator18setCaseSensitivityEN2Qt15CaseSensitivityE U 0 0
__ZN9QCollatorC1Ev U 0 0
__ZN9QCollatorD1Ev U 0 0
__ZN9QComboBox10insertItemEiRK5QIconRK7QStringRK8QVariant U 0 0
__ZN9QComboBox10paintEventEP11QPaintEvent U 0 0
__ZN9QComboBox10wheelEventEP11QWheelEvent U 0 0
__ZN9QComboBox11changeEventEP6QEvent U 0 0
__ZN9QComboBox11insertItemsEiRK5QListI7QStringE U 0 0
__ZN9QComboBox11qt_metacallEN11QMetaObject4CallEiPPv U 0 0
__ZN9QComboBox11qt_metacastEPKc U 0 0
__ZN9QComboBox11resizeEventEP12QResizeEvent U 0 0
__ZN9QComboBox11setEditTextERK7QString U 0 0
__ZN9QComboBox11setEditableEb U 0 0
__ZN9QComboBox11setItemDataEiRK8QVarianti U 0 0
__ZN9QComboBox11setItemTextEiRK7QString U 0 0
__ZN9QComboBox12focusInEventEP11QFocusEvent U 0 0
__ZN9QComboBox12setValidatorEPK10QValidator U 0 0
__ZN9QComboBox13focusOutEventEP11QFocusEvent U 0 0
__ZN9QComboBox13keyPressEventEP9QKeyEvent U 0 0
__ZN9QComboBox14setCurrentTextERK7QString U 0 0
__ZN9QComboBox15keyReleaseEventEP9QKeyEvent U 0 0
__ZN9QComboBox15mousePressEventEP11QMouseEvent U 0 0
__ZN9QComboBox15setCurrentIndexEi U 0 0
__ZN9QComboBox15setInsertPolicyENS_12InsertPolicyE U 0 0
__ZN9QComboBox16contextMenuEventEP17QContextMenuEvent U 0 0
__ZN9QComboBox16inputMethodEventEP17QInputMethodEvent U 0 0
__ZN9QComboBox16staticMetaObjectE U 0 0
__ZN9QComboBox17mouseReleaseEventEP11QMouseEvent U 0 0
__ZN9QComboBox17setRootModelIndexERK11QModelIndex U 0 0
__ZN9QComboBox18currentTextChangedERK7QString U 0 0
__ZN9QComboBox19currentIndexChangedEi U 0 0
__ZN9QComboBox19setSizeAdjustPolicyENS_16SizeAdjustPolicyE U 0 0
__ZN9QComboBox24setMinimumContentsLengthEi U 0 0
__ZN9QComboBox5clearEv U 0 0
__ZN9QComboBox5eventEP6QEvent U 0 0
__ZN9QComboBox7setViewEP17QAbstractItemView U 0 0
__ZN9QComboBox8setModelEP18QAbstractItemModel U 0 0
__ZN9QComboBox9activatedEi U 0 0
__ZN9QComboBox9hideEventEP10QHideEvent U 0 0
__ZN9QComboBox9hidePopupEv U 0 0
__ZN9QComboBox9showEventEP10QShowEvent U 0 0
__ZN9QComboBox9showPopupEv U 0 0
__ZN9QComboBoxC1EP7QWidget U 0 0
__ZN9QComboBoxC2EP7QWidget U 0 0
__ZN9QComboBoxD2Ev U 0 0
__ZN9QDateTime10fromStringE11QStringViewN2Qt10DateFormatE U 0 0
__ZN9QDateTime15currentDateTimeEv U 0 0
__ZN9QDateTimeC1EOS_ U 0 0
__ZN9QDateTimeC1ERKS_ U 0 0
__ZN9QDateTimeC1Ev U 0 0
__ZN9QDateTimeD1Ev U 0 0
__ZN9QDateTimeaSERKS_ U 0 0
__ZN9QFileInfo6existsERK7QString U 0 0
__ZN9QFileInfoC1ERK7QString U 0 0
__ZN9QFileInfoD1Ev U 0 0
__ZN9QFontInfoC1ERK5QFont U 0 0
__ZN9QFontInfoD1Ev U 0 0
__ZN9QGradient10setColorAtEdRK6QColor U 0 0
__ZN9QGradient8setStopsERK5QListINSt3__14pairId6QColorEEE U 0 0
__ZN9QGroupBox10setCheckedEb U 0 0
__ZN9QGroupBox12setCheckableEb U 0 0
__ZN9QGroupBox16staticMetaObjectE U 0 0
__ZN9QGroupBox7toggledEb U 0 0
__ZN9QGroupBox8setTitleERK7QString U 0 0
__ZN9QGroupBoxC1EP7QWidget U 0 0
__ZN9QGroupBoxC1ERK7QStringP7QWidget U 0 0
__ZN9QHashSeed10globalSeedEv U 0 0
__ZN9QIODevice12readLineDataEPcx U 0 0
__ZN9QIODevice4readEx U 0 0
__ZN9QIODevice4seekEx U 0 0
__ZN9QIODevice5resetEv U 0 0
__ZN9QIODevice5writeEPKcx U 0 0
__ZN9QIODevice5writeERK10QByteArray U 0 0
__ZN9QIODevice7putCharEc U 0 0
__ZN9QIODevice7readAllEv U 0 0
__ZN9QIODevice8readLineEx U 0 0
__ZN9QIODevice8skipDataEx U 0 0
__ZN9QJSEngine10catchErrorEv U 0 0
__ZN9QJSEngine10newQObjectEP7QObject U 0 0
__ZN9QJSEngine10throwErrorERK7QString U 0 0
__ZN9QJSEngine12importModuleERK7QString U 0 0
__ZN9QJSEngine14newQMetaObjectEPK11QMetaObject U 0 0
__ZN9QJSEngine18setObjectOwnershipEP7QObjectNS_15ObjectOwnershipE U 0 0
__ZN9QJSEngine8evaluateERK7QStringS2_iP5QListIS0_E U 0 0
__ZN9QJSEngine8newArrayEj U 0 0
__ZN9QJSEngine9newObjectEv U 0 0
__ZN9QJSEngineC1Ev U 0 0
__ZN9QLineEdit10paintEventEP11QPaintEvent U 0 0
__ZN9QLineEdit10textEditedERK7QString U 0 0
__ZN9QLineEdit10timerEventEP11QTimerEvent U 0 0
__ZN9QLineEdit11changeEventEP6QEvent U 0 0
__ZN9QLineEdit11qt_metacallEN11QMetaObject4CallEiPPv U 0 0
__ZN9QLineEdit11qt_metacastEPKc U 0 0
__ZN9QLineEdit11setReadOnlyEb U 0 0
__ZN9QLineEdit11textChangedERK7QString U 0 0
__ZN9QLineEdit12focusInEventEP11QFocusEvent U 0 0
__ZN9QLineEdit12setInputMaskERK7QString U 0 0
__ZN9QLineEdit12setValidatorEPK10QValidator U 0 0
__ZN9QLineEdit13dragMoveEventEP14QDragMoveEvent U 0 0
__ZN9QLineEdit13focusOutEventEP11QFocusEvent U 0 0
__ZN9QLineEdit13keyPressEventEP9QKeyEvent U 0 0
__ZN9QLineEdit13returnPressedEv U 0 0
__ZN9QLineEdit14dragEnterEventEP15QDragEnterEvent U 0 0
__ZN9QLineEdit14dragLeaveEventEP15QDragLeaveEvent U 0 0
__ZN9QLineEdit14mouseMoveEventEP11QMouseEvent U 0 0
__ZN9QLineEdit15editingFinishedEv U 0 0
__ZN9QLineEdit15keyReleaseEventEP9QKeyEvent U 0 0
__ZN9QLineEdit15mousePressEventEP11QMouseEvent U 0 0
__ZN9QLineEdit16contextMenuEventEP17QContextMenuEvent U 0 0
__ZN9QLineEdit16inputMethodEventEP17QInputMethodEvent U 0 0
__ZN9QLineEdit16staticMetaObjectE U 0 0
__ZN9QLineEdit17mouseReleaseEventEP11QMouseEvent U 0 0
__ZN9QLineEdit18setPlaceholderTextERK7QString U 0 0
__ZN9QLineEdit21mouseDoubleClickEventEP11QMouseEvent U 0 0
__ZN9QLineEdit21setClearButtonEnabledEb U 0 0
__ZN9QLineEdit25createStandardContextMenuEv U 0 0
__ZN9QLineEdit5clearEv U 0 0
__ZN9QLineEdit5eventEP6QEvent U 0 0
__ZN9QLineEdit7setTextERK7QString U 0 0
__ZN9QLineEdit9addActionERK5QIconNS_14ActionPositionE U 0 0
__ZN9QLineEdit9dropEventEP10QDropEvent U 0 0
__ZN9QLineEdit9selectAllEv U 0 0
__ZN9QLineEditC1EP7QWidget U 0 0
__ZN9QLineEditC1ERK7QStringP7QWidget U 0 0
__ZN9QLineEditC2EP7QWidget U 0 0
__ZN9QLineEditD2Ev U 0 0
__ZN9QListView10moveCursorEN17QAbstractItemView12CursorActionE6QFlagsIN2Qt16KeyboardModifierEE U 0 0
__ZN9QListView10paintEventEP11QPaintEvent U 0 0
__ZN9QListView10timerEventEP11QTimerEvent U 0 0
__ZN9QListView10wheelEventEP11QWheelEvent U 0 0
__ZN9QListView11dataChangedERK11QModelIndexS2_RK5QListIiE U 0 0
__ZN9QListView11qt_metacallEN11QMetaObject4CallEiPPv U 0 0
__ZN9QListView11qt_metacastEPKc U 0 0
__ZN9QListView11resizeEventEP12QResizeEvent U 0 0
__ZN9QListView11setViewModeENS_8ViewModeE U 0 0
__ZN9QListView11setWrappingEb U 0 0
__ZN9QListView12rowsInsertedERK11QModelIndexii U 0 0
__ZN9QListView12setRootIndexERK11QModelIndex U 0 0
__ZN9QListView12setSelectionERK5QRect6QFlagsIN19QItemSelectionModel13SelectionFlagEE U 0 0
__ZN9QListView13doItemsLayoutEv U 0 0
__ZN9QListView13dragMoveEventEP14QDragMoveEvent U 0 0
__ZN9QListView13setResizeModeENS_10ResizeModeE U 0 0
__ZN9QListView14currentChangedERK11QModelIndexS2_ U 0 0
__ZN9QListView14dragLeaveEventEP15QDragLeaveEvent U 0 0
__ZN9QListView14mouseMoveEventEP11QMouseEvent U 0 0
__ZN9QListView16scrollContentsByEii U 0 0
__ZN9QListView16selectionChangedERK14QItemSelectionS2_ U 0 0
__ZN9QListView16staticMetaObjectE U 0 0
__ZN9QListView16updateGeometriesEv U 0 0
__ZN9QListView17mouseReleaseEventEP11QMouseEvent U 0 0
__ZN9QListView19setUniformItemSizesEb U 0 0
__ZN9QListView20rowsAboutToBeRemovedERK11QModelIndexii U 0 0
__ZN9QListView5eventEP6QEvent U 0 0
__ZN9QListView5resetEv U 0 0
__ZN9QListView7setFlowENS_4FlowE U 0 0
__ZN9QListView8scrollToERK11QModelIndexN17QAbstractItemView10ScrollHintE U 0 0
__ZN9QListView9dropEventEP10QDropEvent U 0 0
__ZN9QListView9startDragE6QFlagsIN2Qt10DropActionEE U 0 0
__ZN9QListViewC1EP7QWidget U 0 0
__ZN9QListViewC2EP7QWidget U 0 0
__ZN9QListViewD2Ev U 0 0
__ZN9QLockFile7tryLockENSt3__16chrono8durationIxNS0_5ratioILl1ELl1000EEEEE U 0 0
__ZN9QLockFileC1ERK7QString U 0 0
__ZN9QLockFileD1Ev U 0 0
__ZN9QMetaType10canConvertES_S_ U 0 0
__ZN9QMetaType14registerHelperEPKN9QtPrivate18QMetaTypeInterfaceE U 0 0
__ZN9QMetaType25registerConverterFunctionERKNSt3__18functionIFbPKvPvEEES_S_ U 0 0
__ZN9QMetaType25registerNormalizedTypedefERK10QByteArrayS_ U 0 0
__ZN9QMetaType27registerMutableViewFunctionERKNSt3__18functionIFbPvS2_EEES_S_ U 0 0
__ZN9QMetaType27unregisterConverterFunctionES_S_ U 0 0
__ZN9QMetaType29unregisterMutableViewFunctionES_S_ U 0 0
__ZN9QMetaType7convertES_PKvS_Pv U 0 0
__ZN9QMetaTypeC1Ei U 0 0
__ZN9QMimeData7setDataERK7QStringRK10QByteArray U 0 0
__ZN9QMimeData7setTextERK7QString U 0 0
__ZN9QMimeData7setUrlsERK5QListI4QUrlE U 0 0
__ZN9QMimeDataC1Ev U 0 0
__ZN9QPolygonF9translateERK7QPointF U 0 0
__ZN9QPolygonFC1ERK6QRectF U 0 0
__ZN9QSaveFile16staticMetaObjectE U 0 0
__ZN9QSaveFile6commitEv U 0 0
__ZN9QSaveFileC1ERK7QStringP7QObject U 0 0
__ZN9QSettings10beginGroupE14QAnyStringView U 0 0
__ZN9QSettings11qt_metacallEN11QMetaObject4CallEiPPv U 0 0
__ZN9QSettings11qt_metacastEPKc U 0 0
__ZN9QSettings14registerFormatERK7QStringPFbR9QIODeviceR4QMapIS0_8QVariantEEPFbS4_RKS7_EN2Qt15CaseSensitivityE U 0 0
__ZN9QSettings16staticMetaObjectE U 0 0
__ZN9QSettings4syncEv U 0 0
__ZN9QSettings5eventEP6QEvent U 0 0
__ZN9QSettings6removeE14QAnyStringView U 0 0
__ZN9QSettings8endGroupEv U 0 0
__ZN9QSettings8setValueE14QAnyStringViewRK8QVariant U 0 0
__ZN9QSettingsC1ERK7QStringNS_6FormatEP7QObject U 0 0
__ZN9QSettingsC2EP7QObject U 0 0
__ZN9QSettingsC2ERK7QStringNS_6FormatEP7QObject U 0 0
__ZN9QSettingsD2Ev U 0 0
__ZN9QShortcut10setContextEN2Qt15ShortcutContextE U 0 0
__ZN9QShortcut10setEnabledEb U 0 0
__ZN9QShortcut16staticMetaObjectE U 0 0
__ZN9QShortcut6setKeyERK12QKeySequence U 0 0
__ZN9QShortcut9activatedEv U 0 0
__ZN9QShortcutC1EN12QKeySequence11StandardKeyEP7QObjectPKcS5_N2Qt15ShortcutContextE U 0 0
__ZN9QShortcutC1ERK12QKeySequenceP7QObjectPKcS6_N2Qt15ShortcutContextE U 0 0
__ZN9QSplitter12restoreStateERK10QByteArray U 0 0
__ZN9QSplitter14setCollapsibleEib U 0 0
__ZN9QSplitter14setOrientationEN2Qt11OrientationE U 0 0
__ZN9QSplitter22setChildrenCollapsibleEb U 0 0
__ZN9QSplitter8setSizesERK5QListIiE U 0 0
__ZN9QSplitter9addWidgetEP7QWidget U 0 0
__ZN9QSplitterC1EP7QWidget U 0 0
__ZN9QTextEdit23setTextInteractionFlagsE6QFlagsIN2Qt19TextInteractionFlagEE U 0 0
__ZN9QTextEdit7setHtmlERK7QString U 0 0
__ZN9QTextEditC1ERK7QStringP7QWidget U 0 0
__ZN9QTreeView10hideColumnEi U 0 0
__ZN9QTreeView10moveCursorEN17QAbstractItemView12CursorActionE6QFlagsIN2Qt16KeyboardModifierEE U 0 0
__ZN9QTreeView10paintEventEP11QPaintEvent U 0 0
__ZN9QTreeView10timerEventEP11QTimerEvent U 0 0
__ZN9QTreeView11changeEventEP6QEvent U 0 0
__ZN9QTreeView11collapseAllEv U 0 0
__ZN9QTreeView11dataChangedERK11QModelIndexS2_RK5QListIiE U 0 0
__ZN9QTreeView11qt_metacallEN11QMetaObject4CallEiPPv U 0 0
__ZN9QTreeView11qt_metacastEPKc U 0 0
__ZN9QTreeView11setExpandedERK11QModelIndexb U 0 0
__ZN9QTreeView12rowsInsertedERK11QModelIndexii U 0 0
__ZN9QTreeView12setRootIndexERK11QModelIndex U 0 0
__ZN9QTreeView12setSelectionERK5QRect6QFlagsIN19QItemSelectionModel13SelectionFlagEE U 0 0
__ZN9QTreeView12sortByColumnEiN2Qt9SortOrderE U 0 0
__ZN9QTreeView13doItemsLayoutEv U 0 0
__ZN9QTreeView13dragMoveEventEP14QDragMoveEvent U 0 0
__ZN9QTreeView13keyPressEventEP9QKeyEvent U 0 0
__ZN9QTreeView13viewportEventEP6QEvent U 0 0
__ZN9QTreeView14currentChangedERK11QModelIndexS2_ U 0 0
__ZN9QTreeView14keyboardSearchERK7QString U 0 0
__ZN9QTreeView14mouseMoveEventEP11QMouseEvent U 0 0
__ZN9QTreeView14setColumnWidthEii U 0 0
__ZN9QTreeView14setIndentationEi U 0 0
__ZN9QTreeView15mousePressEventEP11QMouseEvent U 0 0
__ZN9QTreeView15setColumnHiddenEib U 0 0
__ZN9QTreeView15setHeaderHiddenEb U 0 0
__ZN9QTreeView16scrollContentsByEii U 0 0
__ZN9QTreeView16selectionChangedERK14QItemSelectionS2_ U 0 0
__ZN9QTreeView16staticMetaObjectE U 0 0
__ZN9QTreeView16updateGeometriesEv U 0 0
__ZN9QTreeView17mouseReleaseEventEP11QMouseEvent U 0 0
__ZN9QTreeView17setSelectionModelEP19QItemSelectionModel U 0 0
__ZN9QTreeView17setSortingEnabledEb U 0 0
__ZN9QTreeView18setItemsExpandableEb U 0 0
__ZN9QTreeView18setRootIsDecoratedEb U 0 0
__ZN9QTreeView20rowsAboutToBeRemovedERK11QModelIndexii U 0 0
__ZN9QTreeView20setUniformRowHeightsEb U 0 0
__ZN9QTreeView21mouseDoubleClickEventEP11QMouseEvent U 0 0
__ZN9QTreeView25horizontalScrollbarActionEi U 0 0
__ZN9QTreeView29verticalScrollbarValueChangedEi U 0 0
__ZN9QTreeView5resetEv U 0 0
__ZN9QTreeView6expandERK11QModelIndex U 0 0
__ZN9QTreeView8expandedERK11QModelIndex U 0 0
__ZN9QTreeView8scrollToERK11QModelIndexN17QAbstractItemView10ScrollHintE U 0 0
__ZN9QTreeView8setModelEP18QAbstractItemModel U 0 0
__ZN9QTreeView9collapsedERK11QModelIndex U 0 0
__ZN9QTreeView9expandAllEv U 0 0
__ZN9QTreeView9selectAllEv U 0 0
__ZN9QTreeView9setHeaderEP11QHeaderView U 0 0
__ZN9QTreeViewC1EP7QWidget U 0 0
__ZN9QTreeViewC2EP7QWidget U 0 0
__ZN9QTreeViewD2Ev U 0 0
__ZN9QUndoView12setCleanIconERK5QIcon U 0 0
__ZN9QUndoView13setEmptyLabelERK7QString U 0 0
__ZN9QUndoView8setStackEP10QUndoStack U 0 0
__ZN9QUndoViewC1EP7QWidget U 0 0
__ZN9QtPrivate10startsWithE11QStringView13QLatin1StringN2Qt15CaseSensitivityE U 0 0
__ZN9QtPrivate10startsWithE11QStringViewS0_N2Qt15CaseSensitivityE U 0 0
__ZN9QtPrivate11lastIndexOfE11QStringViewxDsN2Qt15CaseSensitivityE U 0 0
__ZN9QtPrivate12argToQStringE14QAnyStringViewmPPKNS_7ArgBaseE U 0 0
__ZN9QtPrivate12equalStringsE11QStringView13QLatin1String U 0 0
__ZN9QtPrivate12equalStringsE11QStringViewS0_ U 0 0
__ZN9QtPrivate12equalStringsE13QLatin1String11QStringView U 0 0
__ZN9QtPrivate12equalStringsE13QLatin1StringS0_ U 0 0
__ZN9QtPrivate12qustrcasechrE11QStringViewDs U 0 0
__ZN9QtPrivate13compareMemoryE14QByteArrayViewS0_ U 0 0
__ZN9QtPrivate13convertToUtf8E11QStringView U 0 0
__ZN9QtPrivate14compareStringsE11QStringViewS0_N2Qt15CaseSensitivityE U 0 0
__ZN9QtPrivate15ResultStoreBase10addResultsEiPKvii U 0 0
__ZN9QtPrivate15ResultStoreBase9addResultEiPKv U 0 0
__ZN9QtPrivate16QStringList_joinEPK5QListI7QStringE11QStringView U 0 0
__ZN9QtPrivate16QStringList_joinEPK5QListI7QStringEPK5QCharx U 0 0
__ZN9QtPrivate16QStringList_joinERK5QListI7QStringE13QLatin1String U 0 0
__ZN9QtPrivate16QStringList_sortEP5QListI7QStringEN2Qt15CaseSensitivityE U 0 0
__ZN9QtPrivate17expectedAllocSizeEmm U 0 0
__ZN9QtPrivate20QStringList_containsEPK5QListI7QStringE11QStringViewN2Qt15CaseSensitivityE U 0 0
__ZN9QtPrivate25QMetaTypeInterfaceWrapperI10QByteArrayE8metaTypeE U 0 0
__ZN9QtPrivate25QMetaTypeInterfaceWrapperI11QModelIndexE8metaTypeE U 0 0
__ZN9QtPrivate25QMetaTypeInterfaceWrapperI21QPersistentModelIndexE8metaTypeE U 0 0
__ZN9QtPrivate25QMetaTypeInterfaceWrapperI4QMapI7QString8QVariantEE8metaTypeE U 0 0
__ZN9QtPrivate25QMetaTypeInterfaceWrapperI4QUrlE8metaTypeE U 0 0
__ZN9QtPrivate25QMetaTypeInterfaceWrapperI5QDateE8metaTypeE U 0 0
__ZN9QtPrivate25QMetaTypeInterfaceWrapperI5QListI7QStringEE8metaTypeE U 0 0
__ZN9QtPrivate25QMetaTypeInterfaceWrapperI5QListI8QVariantEE8metaTypeE U 0 0
__ZN9QtPrivate25QMetaTypeInterfaceWrapperI5QRectE8metaTypeE U 0 0
__ZN9QtPrivate25QMetaTypeInterfaceWrapperI5QSizeE8metaTypeE U 0 0
__ZN9QtPrivate25QMetaTypeInterfaceWrapperI6QPointE8metaTypeE U 0 0
__ZN9QtPrivate25QMetaTypeInterfaceWrapperI6QRectFE8metaTypeE U 0 0
__ZN9QtPrivate25QMetaTypeInterfaceWrapperI6QSizeFE8metaTypeE U 0 0
__ZN9QtPrivate25QMetaTypeInterfaceWrapperI7QPointFE8metaTypeE U 0 0
__ZN9QtPrivate25QMetaTypeInterfaceWrapperI7QStringE8metaTypeE U 0 0
__ZN9QtPrivate25QMetaTypeInterfaceWrapperI8QVariantE8metaTypeE U 0 0
__ZN9QtPrivate25QMetaTypeInterfaceWrapperI9QDateTimeE8metaTypeE U 0 0
__ZN9QtPrivate25QMetaTypeInterfaceWrapperIP7QObjectE8metaTypeE U 0 0
__ZN9QtPrivate25QMetaTypeInterfaceWrapperIbE8metaTypeE U 0 0
__ZN9QtPrivate25QMetaTypeInterfaceWrapperIdE8metaTypeE U 0 0
__ZN9QtPrivate25QMetaTypeInterfaceWrapperIfE8metaTypeE U 0 0
__ZN9QtPrivate25QMetaTypeInterfaceWrapperIiE8metaTypeE U 0 0
__ZN9QtPrivate25QMetaTypeInterfaceWrapperIjE8metaTypeE U 0 0
__ZN9QtPrivate25QMetaTypeInterfaceWrapperIxE8metaTypeE U 0 0
__ZN9QtPrivate28QStringList_removeDuplicatesEP5QListI7QStringE U 0 0
__ZN9QtPrivate52hasRegisteredConverterFunctionToIterableMetaSequenceE9QMetaType U 0 0
__ZN9QtPrivate54hasRegisteredMutableViewFunctionToIterableMetaSequenceE9QMetaType U 0 0
__ZN9QtPrivate7trimmedE11QStringView U 0 0
__ZN9QtPrivate8qustrchrE11QStringViewDs U 0 0
__ZN9QtPrivate9sizedFreeEPvm U 0 0
__ZNK10QByteArray8toBase64E6QFlagsINS_12Base64OptionEE U 0 0
__ZNK10QCborArray11toJsonArrayEv U 0 0
__ZNK10QCborValue6toCborE6QFlagsINS_14EncodingOptionEE U 0 0
__ZNK10QCborValue7toArrayEv U 0 0
__ZNK10QClipboard8mimeDataENS_4ModeE U 0 0
__ZNK10QJsonArray4sizeEv U 0 0
__ZNK10QJsonArray5firstEv U 0 0
__ZNK10QJsonValue4typeEv U 0 0
__ZNK10QJsonValue5toIntEi U 0 0
__ZNK10QJsonValue7toArrayEv U 0 0
__ZNK10QJsonValue8toDoubleEd U 0 0
__ZNK10QJsonValue8toObjectEv U 0 0
__ZNK10QJsonValue8toStringERK7QString U 0 0
__ZNK10QJsonValue8toStringEv U 0 0
__ZNK10QJsonValue9toVariantEv U 0 0
__ZNK10QScrollBar15initStyleOptionEP18QStyleOptionSlider U 0 0
__ZNK10QScrollBar8sizeHintEv U 0 0
__ZNK10QTabWidget6tabBarEv U 0 0
__ZNK10QTabWidget7indexOfEPK7QWidget U 0 0
__ZNK10QTableView10visualRectERK11QModelIndex U 0 0
__ZNK10QTableView13isIndexHiddenERK11QModelIndex U 0 0
__ZNK10QTableView14sizeHintForRowEi U 0 0
__ZNK10QTableView14verticalHeaderEv U 0 0
__ZNK10QTableView14verticalOffsetEv U 0 0
__ZNK10QTableView15selectedIndexesEv U 0 0
__ZNK10QTableView16horizontalHeaderEv U 0 0
__ZNK10QTableView16horizontalOffsetEv U 0 0
__ZNK10QTableView16viewportSizeHintEv U 0 0
__ZNK10QTableView17sizeHintForColumnEi U 0 0
__ZNK10QTableView18initViewItemOptionEP20QStyleOptionViewItem U 0 0
__ZNK10QTableView24visualRegionForSelectionERK14QItemSelection U 0 0
__ZNK10QTableView7indexAtERK6QPoint U 0 0
__ZNK10QTransform3mapERK12QPainterPath U 0 0
__ZNK10QTransform3mapERK6QPoint U 0 0
__ZNK10QTransform3mapERK7QPointF U 0 0
__ZNK10QTransform3mapERK9QPolygonF U 0 0
__ZNK10QTransform7mapRectERK6QRectF U 0 0
__ZNK10QTransform8invertedEPb U 0 0
__ZNK10QUndoGroup11activeStackEv U 0 0
__ZNK10QUndoGroup16createRedoActionEP7QObjectRK7QString U 0 0
__ZNK10QUndoGroup16createUndoActionEP7QObjectRK7QString U 0 0
__ZNK10QUndoStack10cleanIndexEv U 0 0
__ZNK10QUndoStack5indexEv U 0 0
__ZNK10QUndoStack7canRedoEv U 0 0
__ZNK10QUndoStack7canUndoEv U 0 0
__ZNK10QUndoStack7commandEi U 0 0
__ZNK10QUndoStack7isCleanEv U 0 0
__ZNK10QValidator10metaObjectEv U 0 0
__ZNK11QDataStream26isDeviceTransactionStartedEv U 0 0
__ZNK11QDataStream5atEndEv U 0 0
__ZNK11QDockWidget15initStyleOptionEP22QStyleOptionDockWidget U 0 0
__ZNK11QDockWidget16toggleViewActionEv U 0 0
__ZNK11QEventPoint14globalPositionEv U 0 0
__ZNK11QEventPoint8positionEv U 0 0
__ZNK11QFileDevice5errorEv U 0 0
__ZNK11QFileDialog13selectedFilesEv U 0 0
__ZNK11QFocusEvent6reasonEv U 0 0
__ZNK11QFormLayout8rowCountEv U 0 0
__ZNK11QHeaderView10visualRectERK11QModelIndex U 0 0
__ZNK11QHeaderView11sectionSizeEi U 0 0
__ZNK11QHeaderView12paintSectionEP8QPainterRK5QRecti U 0 0
__ZNK11QHeaderView13isIndexHiddenERK11QModelIndex U 0 0
__ZNK11QHeaderView14verticalOffsetEv U 0 0
__ZNK11QHeaderView15initStyleOptionEP17QStyleOptionFrame U 0 0
__ZNK11QHeaderView15initStyleOptionEP18QStyleOptionHeader U 0 0
__ZNK11QHeaderView16horizontalOffsetEv U 0 0
__ZNK11QHeaderView17sectionResizeModeEi U 0 0
__ZNK11QHeaderView23initStyleOptionForIndexEP18QStyleOptionHeaderi U 0 0
__ZNK11QHeaderView23sectionSizeFromContentsEi U 0 0
__ZNK11QHeaderView24visualRegionForSelectionERK14QItemSelection U 0 0
__ZNK11QHeaderView5countEv U 0 0
__ZNK11QHeaderView7indexAtERK6QPoint U 0 0
__ZNK11QHeaderView8sizeHintEv U 0 0
__ZNK11QJsonObject5valueE13QLatin1String U 0 0
__ZNK11QJsonObject5valueERK7QString U 0 0
__ZNK11QJsonObject7isEmptyEv U 0 0
__ZNK11QJsonObject8containsERK7QString U 0 0
__ZNK11QLayoutItem21minimumHeightForWidthEi U 0 0
__ZNK11QLayoutItem6widgetEv U 0 0
__ZNK11QMainWindow11dockOptionsEv U 0 0
__ZNK11QMainWindow19tabifiedDockWidgetsEP11QDockWidget U 0 0
__ZNK11QMainWindow7menuBarEv U 0 0
__ZNK11QMainWindow9saveStateEi U 0 0
__ZNK11QMainWindow9statusBarEv U 0 0
__ZNK11QMetaObject12userPropertyEv U 0 0
__ZNK11QMetaObject15indexOfPropertyEPKc U 0 0
__ZNK11QMetaObject2trEPKcS1_i U 0 0
__ZNK11QMetaObject4castEPK7QObject U 0 0
__ZNK11QMetaObject8propertyEi U 0 0
__ZNK11QMetaObject9classNameEv U 0 0
__ZNK11QObjectData17dynamicMetaObjectEv U 0 0
__ZNK11QProxyStyle11drawControlEN6QStyle14ControlElementEPK12QStyleOptionP8QPainterPK7QWidget U 0 0
__ZNK11QProxyStyle11pixelMetricEN6QStyle11PixelMetricEPK12QStyleOptionPK7QWidget U 0 0
__ZNK11QProxyStyle12drawItemTextEP8QPainterRK5QRectiRK8QPalettebRK7QStringNS5_9ColorRoleE U 0 0
__ZNK11QProxyStyle12itemTextRectERK12QFontMetricsRK5QRectibRK7QString U 0 0
__ZNK11QProxyStyle12standardIconEN6QStyle14StandardPixmapEPK12QStyleOptionPK7QWidget U 0 0
__ZNK11QProxyStyle13drawPrimitiveEN6QStyle16PrimitiveElementEPK12QStyleOptionP8QPainterPK7QWidget U 0 0
__ZNK11QProxyStyle13layoutSpacingEN11QSizePolicy11ControlTypeES1_N2Qt11OrientationEPK12QStyleOptionPK7QWidget U 0 0
__ZNK11QProxyStyle14drawItemPixmapEP8QPainterRK5QRectiRK7QPixmap U 0 0
__ZNK11QProxyStyle14itemPixmapRectERK5QRectiRK7QPixmap U 0 0
__ZNK11QProxyStyle14standardPixmapEN6QStyle14StandardPixmapEPK12QStyleOptionPK7QWidget U 0 0
__ZNK11QProxyStyle14subControlRectEN6QStyle14ComplexControlEPK19QStyleOptionComplexNS0_10SubControlEPK7QWidget U 0 0
__ZNK11QProxyStyle14subElementRectEN6QStyle10SubElementEPK12QStyleOptionPK7QWidget U 0 0
__ZNK11QProxyStyle15standardPaletteEv U 0 0
__ZNK11QProxyStyle16sizeFromContentsEN6QStyle12ContentsTypeEPK12QStyleOptionRK5QSizePK7QWidget U 0 0
__ZNK11QProxyStyle18drawComplexControlEN6QStyle14ComplexControlEPK19QStyleOptionComplexP8QPainterPK7QWidget U 0 0
__ZNK11QProxyStyle19generatedIconPixmapEN5QIcon4ModeERK7QPixmapPK12QStyleOption U 0 0
__ZNK11QProxyStyle21hitTestComplexControlEN6QStyle14ComplexControlEPK19QStyleOptionComplexRK6QPointPK7QWidget U 0 0
__ZNK11QProxyStyle9styleHintEN6QStyle9StyleHintEPK12QStyleOptionPK7QWidgetP16QStyleHintReturn U 0 0
__ZNK11QPushButton10metaObjectEv U 0 0
__ZNK11QPushButton15initStyleOptionEP18QStyleOptionButton U 0 0
__ZNK11QPushButton15minimumSizeHintEv U 0 0
__ZNK11QPushButton8sizeHintEv U 0 0
__ZNK11QPushButton9hitButtonERK6QPoint U 0 0
__ZNK11QScrollArea16viewportSizeHintEv U 0 0
__ZNK11QScrollArea6widgetEv U 0 0
__ZNK11QScrollArea8sizeHintEv U 0 0
__ZNK11QStaticText4sizeEv U 0 0
__ZNK11QStringView5splitE5QChar6QFlagsIN2Qt18SplitBehaviorFlagsEENS2_15CaseSensitivityE U 0 0
__ZNK11QStyleHints27showShortcutsInContextMenusEv U 0 0
__ZNK11QTextStream5atEndEv U 0 0
__ZNK11QTextStream8encodingEv U 0 0
__ZNK11QThreadPool14maxThreadCountEv U 0 0
__ZNK11QToolButton10metaObjectEv U 0 0
__ZNK11QToolButton15initStyleOptionEP22QStyleOptionToolButton U 0 0
__ZNK11QToolButton15minimumSizeHintEv U 0 0
__ZNK11QToolButton4menuEv U 0 0
__ZNK11QToolButton8sizeHintEv U 0 0
__ZNK11QToolButton9hitButtonERK6QPoint U 0 0
__ZNK12QActionGroup7actionsEv U 0 0
__ZNK12QButtonGroup13checkedButtonEv U 0 0
__ZNK12QButtonGroup7buttonsEv U 0 0
__ZNK12QButtonGroup9checkedIdEv U 0 0
__ZNK12QCommonStyle11drawControlEN6QStyle14ControlElementEPK12QStyleOptionP8QPainterPK7QWidget U 0 0
__ZNK12QCommonStyle13drawPrimitiveEN6QStyle16PrimitiveElementEPK12QStyleOptionP8QPainterPK7QWidget U 0 0
__ZNK12QCommonStyle16sizeFromContentsEN6QStyle12ContentsTypeEPK12QStyleOptionRK5QSizePK7QWidget U 0 0
__ZNK12QDirIterator7hasNextEv U 0 0
__ZNK12QDirIterator8fileInfoEv U 0 0
__ZNK12QDirIterator8fileNameEv U 0 0
__ZNK12QFontMetrics10elidedTextERK7QStringN2Qt13TextElideModeEii U 0 0
__ZNK12QFontMetrics11lineSpacingEv U 0 0
__ZNK12QFontMetrics17horizontalAdvanceE5QChar U 0 0
__ZNK12QFontMetrics17horizontalAdvanceERK7QStringi U 0 0
__ZNK12QFontMetrics4sizeEiRK7QStringiPi U 0 0
__ZNK12QFontMetrics6heightEv U 0 0
__ZNK12QFontMetrics7fontDpiEv U 0 0
__ZNK12QImageReader11errorStringEv U 0 0
__ZNK12QImageWriter11errorStringEv U 0 0
__ZNK12QKeySequence7isEmptyEv U 0 0
__ZNK12QKeySequence7matchesERKS_ U 0 0
__ZNK12QKeySequence8toStringENS_14SequenceFormatE U 0 0
__ZNK12QKeySequencecv8QVariantEv U 0 0
__ZNK12QKeySequenceeqERKS_ U 0 0
__ZNK12QKeySequenceltERKS_ U 0 0
__ZNK12QLocalServer11errorStringEv U 0 0
__ZNK12QLocalServer11serverErrorEv U 0 0
__ZNK12QLocalSocket5stateEv U 0 0
__ZNK12QPaintDevice16devicePixelRatioEv U 0 0
__ZNK12QPainterPath10translatedEdd U 0 0
__ZNK12QPainterPath12boundingRectEv U 0 0
__ZNK12QUndoCommand10childCountEv U 0 0
__ZNK12QUndoCommand2idEv U 0 0
__ZNK12QUndoCommand4textEv U 0 0
__ZNK12QUndoCommand5childEi U 0 0
__ZNK13QFontComboBox11currentFontEv U 0 0
__ZNK13QFontMetricsF12boundingRectERK7QString U 0 0
__ZNK13QGestureEvent7gestureEN2Qt11GestureTypeE U 0 0
__ZNK13QGraphicsItem10opaqueAreaEv U 0 0
__ZNK13QGraphicsItem12isObscuredByEPKS_ U 0 0
__ZNK13QGraphicsItem12isUnderMouseEv U 0 0
__ZNK13QGraphicsItem16collidesWithItemEPKS_N2Qt17ItemSelectionModeE U 0 0
__ZNK13QGraphicsItem16collidesWithPathERK12QPainterPathN2Qt17ItemSelectionModeE U 0 0
__ZNK13QGraphicsItem16inputMethodQueryEN2Qt16InputMethodQueryE U 0 0
__ZNK13QGraphicsItem17supportsExtensionENS_9ExtensionE U 0 0
__ZNK13QGraphicsItem3posEv U 0 0
__ZNK13QGraphicsItem4typeEv U 0 0
__ZNK13QGraphicsItem5flagsEv U 0 0
__ZNK13QGraphicsItem5sceneEv U 0 0
__ZNK13QGraphicsItem5shapeEv U 0 0
__ZNK13QGraphicsItem8containsERK7QPointF U 0 0
__ZNK13QGraphicsItem9extensionERK8QVariant U 0 0
__ZNK13QGraphicsItem9isEnabledEv U 0 0
__ZNK13QGraphicsItem9isVisibleEv U 0 0
__ZNK13QGraphicsView10mapToSceneERK5QRect U 0 0
__ZNK13QGraphicsView10mapToSceneERK6QPoint U 0 0
__ZNK13QGraphicsView16inputMethodQueryEN2Qt16InputMethodQueryE U 0 0
__ZNK13QGraphicsView17viewportTransformEv U 0 0
__ZNK13QGraphicsView5sceneEv U 0 0
__ZNK13QGraphicsView8sizeHintEv U 0 0
__ZNK13QGraphicsView9transformEv U 0 0
__ZNK13QItemDelegate10metaObjectEv U 0 0
__ZNK13QItemDelegate11drawDisplayEP8QPainterRK20QStyleOptionViewItemRK5QRectRK7QString U 0 0
__ZNK13QItemDelegate12createEditorEP7QWidgetRK20QStyleOptionViewItemRK11QModelIndex U 0 0
__ZNK13QItemDelegate12setModelDataEP7QWidgetP18QAbstractItemModelRK11QModelIndex U 0 0
__ZNK13QItemDelegate13setEditorDataEP7QWidgetRK11QModelIndex U 0 0
__ZNK13QItemDelegate14drawDecorationEP8QPainterRK20QStyleOptionViewItemRK5QRectRK7QPixmap U 0 0
__ZNK13QItemDelegate20updateEditorGeometryEP7QWidgetRK20QStyleOptionViewItemRK11QModelIndex U 0 0
__ZNK13QItemDelegate5paintEP8QPainterRK20QStyleOptionViewItemRK11QModelIndex U 0 0
__ZNK13QItemDelegate8sizeHintERK20QStyleOptionViewItemRK11QModelIndex U 0 0
__ZNK13QItemDelegate9drawFocusEP8QPainterRK20QStyleOptionViewItemRK5QRect U 0 0
__ZNK13QJsonDocument5arrayEv U 0 0
__ZNK13QJsonDocument6isNullEv U 0 0
__ZNK13QJsonDocument6objectEv U 0 0
__ZNK13QJsonDocument6toJsonENS_10JsonFormatE U 0 0
__ZNK13QJsonDocument9toVariantEv U 0 0
__ZNK13QMetaProperty10isWritableEv U 0 0
__ZNK13QMetaProperty12notifySignalEv U 0 0
__ZNK13QMetaProperty4nameEv U 0 0
__ZNK13QMetaProperty4readEPK7QObject U 0 0
__ZNK13QMetaProperty5writeEP7QObjectRK8QVariant U 0 0
__ZNK13QNetworkReply5errorEv U 0 0
__ZNK13QPinchGesture11changeFlagsEv U 0 0
__ZNK13QPinchGesture16totalScaleFactorEv U 0 0
__ZNK13QTextDocument11toPlainTextEv U 0 0
__ZNK13QTextDocument14documentLayoutEv U 0 0
__ZNK13QTextDocument14documentMarginEv U 0 0
__ZNK14QDoubleSpinBox13textFromValueEd U 0 0
__ZNK14QDoubleSpinBox5fixupER7QString U 0 0
__ZNK14QDoubleSpinBox5valueEv U 0 0
__ZNK14QDoubleSpinBox6prefixEv U 0 0
__ZNK14QDoubleSpinBox6suffixEv U 0 0
__ZNK14QDoubleSpinBox8decimalsEv U 0 0
__ZNK14QGraphicsScene16inputMethodQueryEN2Qt16InputMethodQueryE U 0 0
__ZNK14QGraphicsScene4fontEv U 0 0
__ZNK14QGraphicsScene5itemsEN2Qt9SortOrderE U 0 0
__ZNK14QGraphicsScene5itemsERK12QPainterPathN2Qt17ItemSelectionModeENS3_9SortOrderERK10QTransform U 0 0
__ZNK14QGraphicsScene5itemsERK6QRectFN2Qt17ItemSelectionModeENS3_9SortOrderERK10QTransform U 0 0
__ZNK14QGraphicsScene5itemsERK7QPointFN2Qt17ItemSelectionModeENS3_9SortOrderERK10QTransform U 0 0
__ZNK14QGraphicsScene5viewsEv U 0 0
__ZNK14QGraphicsScene6itemAtERK7QPointFRK10QTransform U 0 0
__ZNK14QGraphicsScene9sceneRectEv U 0 0
__ZNK14QItemSelection7indexesEv U 0 0
__ZNK14QMessageLogger5debugEv U 0 0
__ZNK14QMessageLogger7warningEPKcz U 0 0
__ZNK14QMessageLogger7warningEv U 0 0
__ZNK14QPlainTextEdit10metaObjectEv U 0 0
__ZNK14QPlainTextEdit16inputMethodQueryEN2Qt16InputMethodQueryE U 0 0
__ZNK14QPlainTextEdit21canInsertFromMimeDataEPK9QMimeData U 0 0
__ZNK14QPlainTextEdit27createMimeDataFromSelectionEv U 0 0
__ZNK14QPlainTextEdit8documentEv U 0 0
__ZNK14QStackedLayout13currentWidgetEv U 0 0
__ZNK14QStackedWidget12currentIndexEv U 0 0
__ZNK14QStackedWidget13currentWidgetEv U 0 0
__ZNK14QStackedWidget6widgetEi U 0 0
__ZNK14QTemporaryFile8fileNameEv U 0 0
__ZNK15QAbstractButton6isDownEv U 0 0
__ZNK15QAbstractButton8iconSizeEv U 0 0
__ZNK15QAbstractButton9isCheckedEv U 0 0
__ZNK15QAbstractSlider10singleStepEv U 0 0
__ZNK15QAbstractSlider5valueEv U 0 0
__ZNK15QAbstractSlider7maximumEv U 0 0
__ZNK15QAbstractSlider7minimumEv U 0 0
__ZNK15QGraphicsObject10metaObjectEv U 0 0
__ZNK15QGuiApplication16devicePixelRatioEv U 0 0
__ZNK15QJsonParseError11errorStringEv U 0 0
__ZNK16QAbstractSpinBox11stepEnabledEv U 0 0
__ZNK16QAbstractSpinBox15initStyleOptionEP19QStyleOptionSpinBox U 0 0
__ZNK16QAbstractSpinBox15minimumSizeHintEv U 0 0
__ZNK16QAbstractSpinBox16inputMethodQueryEN2Qt16InputMethodQueryE U 0 0
__ZNK16QAbstractSpinBox8sizeHintEv U 0 0
__ZNK16QDialogButtonBox6buttonENS_14StandardButtonE U 0 0
__ZNK16QJSValueIterator5valueEv U 0 0
__ZNK16QKeySequenceEdit11keySequenceEv U 0 0
__ZNK16QStringListModel10stringListEv U 0 0
__ZNK16QXmlStreamReader10attributesEv U 0 0
__ZNK16QXmlStreamReader11errorStringEv U 0 0
__ZNK16QXmlStreamReader4nameEv U 0 0
__ZNK16QXmlStreamReader5errorEv U 0 0
__ZNK17QAbstractItemView11indexWidgetERK11QModelIndex U 0 0
__ZNK17QAbstractItemView12currentIndexEv U 0 0
__ZNK17QAbstractItemView12editTriggersEv U 0 0
__ZNK17QAbstractItemView14selectionModelEv U 0 0
__ZNK17QAbstractItemView14sizeHintForRowEi U 0 0
__ZNK17QAbstractItemView15selectedIndexesEv U 0 0
__ZNK17QAbstractItemView16inputMethodQueryEN2Qt16InputMethodQueryE U 0 0
__ZNK17QAbstractItemView16selectionCommandERK11QModelIndexPK6QEvent U 0 0
__ZNK17QAbstractItemView16viewportSizeHintEv U 0 0
__ZNK17QAbstractItemView17sizeHintForColumnEi U 0 0
__ZNK17QAbstractItemView18initViewItemOptionEP20QStyleOptionViewItem U 0 0
__ZNK17QAbstractItemView20itemDelegateForIndexERK11QModelIndex U 0 0
__ZNK17QAbstractItemView5modelEv U 0 0
__ZNK17QAbstractItemView9rootIndexEv U 0 0
__ZNK17QFileIconProvider4iconERK9QFileInfo U 0 0
__ZNK18QAbstractAnimation5stateEv U 0 0
__ZNK18QAbstractItemModel10headerDataEiN2Qt11OrientationEi U 0 0
__ZNK18QAbstractItemModel11hasChildrenERK11QModelIndex U 0 0
__ZNK18QAbstractItemModel12canFetchMoreERK11QModelIndex U 0 0
__ZNK18QAbstractItemModel15canDropMimeDataEPK9QMimeDataN2Qt10DropActionEiiRK11QModelIndex U 0 0
__ZNK18QAbstractItemModel19persistentIndexListEv U 0 0
__ZNK18QAbstractItemModel20supportedDragActionsEv U 0 0
__ZNK18QAbstractItemModel20supportedDropActionsEv U 0 0
__ZNK18QAbstractItemModel4spanERK11QModelIndex U 0 0
__ZNK18QAbstractItemModel5buddyERK11QModelIndex U 0 0
__ZNK18QAbstractItemModel5flagsERK11QModelIndex U 0 0
__ZNK18QAbstractItemModel5matchERK11QModelIndexiRK8QVarianti6QFlagsIN2Qt9MatchFlagEE U 0 0
__ZNK18QAbstractItemModel7siblingEiiRK11QModelIndex U 0 0
__ZNK18QAbstractItemModel8hasIndexEiiRK11QModelIndex U 0 0
__ZNK18QAbstractItemModel8itemDataERK11QModelIndex U 0 0
__ZNK18QAbstractItemModel8mimeDataERK5QListI11QModelIndexE U 0 0
__ZNK18QAbstractItemModel9mimeTypesEv U 0 0
__ZNK18QAbstractItemModel9multiDataERK11QModelIndex18QModelRoleDataSpan U 0 0
__ZNK18QAbstractItemModel9roleNamesEv U 0 0
__ZNK18QAbstractListModel10metaObjectEv U 0 0
__ZNK18QAbstractListModel11columnCountERK11QModelIndex U 0 0
__ZNK18QAbstractListModel11hasChildrenERK11QModelIndex U 0 0
__ZNK18QAbstractListModel5flagsERK11QModelIndex U 0 0
__ZNK18QAbstractListModel5indexEiiRK11QModelIndex U 0 0
__ZNK18QAbstractListModel6parentERK11QModelIndex U 0 0
__ZNK18QAbstractListModel7siblingEiiRK11QModelIndex U 0 0
__ZNK18QRegularExpression5matchERK7QStringxNS_9MatchTypeE6QFlagsINS_11MatchOptionEE U 0 0
__ZNK18QRegularExpression7isValidEv U 0 0
__ZNK19QAbstractProxyModel11hasChildrenERK11QModelIndex U 0 0
__ZNK19QAbstractProxyModel11sourceModelEv U 0 0
__ZNK19QAbstractProxyModel12canFetchMoreERK11QModelIndex U 0 0
__ZNK19QAbstractProxyModel15canDropMimeDataEPK9QMimeDataN2Qt10DropActionEiiRK11QModelIndex U 0 0
__ZNK19QAbstractProxyModel20supportedDragActionsEv U 0 0
__ZNK19QAbstractProxyModel20supportedDropActionsEv U 0 0
__ZNK19QAbstractProxyModel4dataERK11QModelIndexi U 0 0
__ZNK19QAbstractProxyModel4spanERK11QModelIndex U 0 0
__ZNK19QAbstractProxyModel5buddyERK11QModelIndex U 0 0
__ZNK19QAbstractProxyModel5flagsERK11QModelIndex U 0 0
__ZNK19QAbstractProxyModel8itemDataERK11QModelIndex U 0 0
__ZNK19QAbstractProxyModel8mimeDataERK5QListI11QModelIndexE U 0 0
__ZNK19QAbstractProxyModel9mimeTypesEv U 0 0
__ZNK19QAbstractProxyModel9roleNamesEv U 0 0
__ZNK19QAbstractScrollArea15minimumSizeHintEv U 0 0
__ZNK19QAbstractScrollArea16viewportSizeHintEv U 0 0
__ZNK19QAbstractScrollArea17verticalScrollBarEv U 0 0
__ZNK19QAbstractScrollArea19horizontalScrollBarEv U 0 0
__ZNK19QAbstractScrollArea19maximumViewportSizeEv U 0 0
__ZNK19QAbstractScrollArea8sizeHintEv U 0 0
__ZNK19QAbstractScrollArea8viewportEv U 0 0
__ZNK19QAbstractTableModel11hasChildrenERK11QModelIndex U 0 0
__ZNK19QAbstractTableModel5flagsERK11QModelIndex U 0 0
__ZNK19QAbstractTableModel5indexEiiRK11QModelIndex U 0 0
__ZNK19QAbstractTableModel6parentERK11QModelIndex U 0 0
__ZNK19QAbstractTableModel7siblingEiiRK11QModelIndex U 0 0
__ZNK19QGraphicsSceneEvent6widgetEv U 0 0
__ZNK19QIdentityProxyModel10headerDataEiN2Qt11OrientationEi U 0 0
__ZNK19QIdentityProxyModel10metaObjectEv U 0 0
__ZNK19QIdentityProxyModel11mapToSourceERK11QModelIndex U 0 0
__ZNK19QIdentityProxyModel13mapFromSourceERK11QModelIndex U 0 0
__ZNK19QIdentityProxyModel20mapSelectionToSourceERK14QItemSelection U 0 0
__ZNK19QIdentityProxyModel22mapSelectionFromSourceERK14QItemSelection U 0 0
__ZNK19QIdentityProxyModel5indexEiiRK11QModelIndex U 0 0
__ZNK19QIdentityProxyModel5matchERK11QModelIndexiRK8QVarianti6QFlagsIN2Qt9MatchFlagEE U 0 0
__ZNK19QIdentityProxyModel6parentERK11QModelIndex U 0 0
__ZNK19QIdentityProxyModel7siblingEiiRK11QModelIndex U 0 0
__ZNK19QIdentityProxyModel8rowCountERK11QModelIndex U 0 0
__ZNK19QItemSelectionModel12currentIndexEv U 0 0
__ZNK19QItemSelectionModel12hasSelectionEv U 0 0
__ZNK19QItemSelectionModel12selectedRowsEi U 0 0
__ZNK19QItemSelectionModel15selectedIndexesEv U 0 0
__ZNK19QItemSelectionModel9selectionEv U 0 0
__ZNK19QProcessEnvironment5valueERK7QStringS2_ U 0 0
__ZNK19QStyledItemDelegate10metaObjectEv U 0 0
__ZNK19QStyledItemDelegate11displayTextERK8QVariantRK7QLocale U 0 0
__ZNK19QStyledItemDelegate12createEditorEP7QWidgetRK20QStyleOptionViewItemRK11QModelIndex U 0 0
__ZNK19QStyledItemDelegate12setModelDataEP7QWidgetP18QAbstractItemModelRK11QModelIndex U 0 0
__ZNK19QStyledItemDelegate13setEditorDataEP7QWidgetRK11QModelIndex U 0 0
__ZNK19QStyledItemDelegate15initStyleOptionEP20QStyleOptionViewItemRK11QModelIndex U 0 0
__ZNK19QStyledItemDelegate20updateEditorGeometryEP7QWidgetRK20QStyleOptionViewItemRK11QModelIndex U 0 0
__ZNK19QStyledItemDelegate5paintEP8QPainterRK20QStyleOptionViewItemRK11QModelIndex U 0 0
__ZNK19QStyledItemDelegate8sizeHintERK20QStyleOptionViewItemRK11QModelIndex U 0 0
__ZNK20QFutureInterfaceBase10queryStateENS_5StateE U 0 0
__ZNK20QFutureInterfaceBase11isSuspendedEv U 0 0
__ZNK20QFutureInterfaceBase12hasExceptionEv U 0 0
__ZNK20QFutureInterfaceBase12isSuspendingEv U 0 0
__ZNK20QFutureInterfaceBase15runContinuationEv U 0 0
__ZNK20QFutureInterfaceBase29isAddResultsIfCanceledEnabledEv U 0 0
__ZNK20QFutureInterfaceBase4refTEv U 0 0
__ZNK20QFutureInterfaceBase5mutexEv U 0 0
__ZNK20QFutureInterfaceBase6derefTEv U 0 0
__ZNK20QFutureInterfaceBase7isValidEv U 0 0
__ZNK20QXmlStreamAttributes5valueE14QAnyStringView U 0 0
__ZNK21QAbstractItemDelegate10metaObjectEv U 0 0
__ZNK21QAbstractItemDelegate12createEditorEP7QWidgetRK20QStyleOptionViewItemRK11QModelIndex U 0 0
__ZNK21QAbstractItemDelegate12setModelDataEP7QWidgetP18QAbstractItemModelRK11QModelIndex U 0 0
__ZNK21QAbstractItemDelegate13destroyEditorEP7QWidgetRK11QModelIndex U 0 0
__ZNK21QAbstractItemDelegate13paintingRolesEv U 0 0
__ZNK21QAbstractItemDelegate13setEditorDataEP7QWidgetRK11QModelIndex U 0 0
__ZNK21QAbstractItemDelegate20updateEditorGeometryEP7QWidgetRK20QStyleOptionViewItemRK11QModelIndex U 0 0
__ZNK21QPersistentModelIndex3rowEv U 0 0
__ZNK21QPersistentModelIndex5modelEv U 0 0
__ZNK21QPersistentModelIndexcv11QModelIndexEv U 0 0
__ZNK21QSortFilterProxyModel10headerDataEiN2Qt11OrientationEi U 0 0
__ZNK21QSortFilterProxyModel10metaObjectEv U 0 0
__ZNK21QSortFilterProxyModel11columnCountERK11QModelIndex U 0 0
__ZNK21QSortFilterProxyModel11hasChildrenERK11QModelIndex U 0 0
__ZNK21QSortFilterProxyModel11mapToSourceERK11QModelIndex U 0 0
__ZNK21QSortFilterProxyModel12canFetchMoreERK11QModelIndex U 0 0
__ZNK21QSortFilterProxyModel13mapFromSourceERK11QModelIndex U 0 0
__ZNK21QSortFilterProxyModel16filterAcceptsRowEiRK11QModelIndex U 0 0
__ZNK21QSortFilterProxyModel19filterAcceptsColumnEiRK11QModelIndex U 0 0
__ZNK21QSortFilterProxyModel20mapSelectionToSourceERK14QItemSelection U 0 0
__ZNK21QSortFilterProxyModel20supportedDropActionsEv U 0 0
__ZNK21QSortFilterProxyModel22mapSelectionFromSourceERK14QItemSelection U 0 0
__ZNK21QSortFilterProxyModel4dataERK11QModelIndexi U 0 0
__ZNK21QSortFilterProxyModel4spanERK11QModelIndex U 0 0
__ZNK21QSortFilterProxyModel5buddyERK11QModelIndex U 0 0
__ZNK21QSortFilterProxyModel5flagsERK11QModelIndex U 0 0
__ZNK21QSortFilterProxyModel5indexEiiRK11QModelIndex U 0 0
__ZNK21QSortFilterProxyModel5matchERK11QModelIndexiRK8QVarianti6QFlagsIN2Qt9MatchFlagEE U 0 0
__ZNK21QSortFilterProxyModel6parentERK11QModelIndex U 0 0
__ZNK21QSortFilterProxyModel7siblingEiiRK11QModelIndex U 0 0
__ZNK21QSortFilterProxyModel8lessThanERK11QModelIndexS2_ U 0 0
__ZNK21QSortFilterProxyModel8mimeDataERK5QListI11QModelIndexE U 0 0
__ZNK21QSortFilterProxyModel8rowCountERK11QModelIndex U 0 0
__ZNK21QSortFilterProxyModel9mimeTypesEv U 0 0
__ZNK23QRegularExpressionMatch8capturedEi U 0 0
__ZNK23QRegularExpressionMatch8hasMatchEv U 0 0
__ZNK24QGraphicsSceneMouseEvent3posEv U 0 0
__ZNK24QGraphicsSceneMouseEvent6buttonEv U 0 0
__ZNK24QGraphicsSceneMouseEvent8scenePosEv U 0 0
__ZNK24QGraphicsSceneMouseEvent9modifiersEv U 0 0
__ZNK24QGraphicsSceneMouseEvent9screenPosEv U 0 0
__ZNK27QGraphicsSceneDragDropEvent8mimeDataEv U 0 0
__ZNK27QGraphicsSceneDragDropEvent8scenePosEv U 0 0
__ZNK27QGraphicsSceneDragDropEvent9modifiersEv U 0 0
__ZNK4QDir12absolutePathEv U 0 0
__ZNK4QDir13entryInfoListE6QFlagsINS_6FilterEES0_INS_8SortFlagEE U 0 0
__ZNK4QDir13entryInfoListERK5QListI7QStringE6QFlagsINS_6FilterEES5_INS_8SortFlagEE U 0 0
__ZNK4QDir16absoluteFilePathERK7QString U 0 0
__ZNK4QDir16relativeFilePathERK7QString U 0 0
__ZNK4QDir4pathEv U 0 0
__ZNK4QDir5rmdirERK7QString U 0 0
__ZNK4QDir6existsERK7QString U 0 0
__ZNK4QDir6existsEv U 0 0
__ZNK4QDir6mkpathERK7QStringNSt3__18optionalI6QFlagsIN11QFileDevice10PermissionEEEE U 0 0
__ZNK4QDir8filePathERK7QString U 0 0
__ZNK4QDir9entryListE6QFlagsINS_6FilterEES0_INS_8SortFlagEE U 0 0
__ZNK4QDir9entryListERK5QListI7QStringE6QFlagsINS_6FilterEES5_INS_8SortFlagEE U 0 0
__ZNK4QUrl11isLocalFileEv U 0 0
__ZNK4QUrl11toLocalFileEv U 0 0
__ZNK4QUrl7isEmptyEv U 0 0
__ZNK4QUrl8fileNameE6QFlagsINS_25ComponentFormattingOptionEE U 0 0
__ZNK4QUrl8toStringE12QUrlTwoFlagsINS_19UrlFormattingOptionENS_25ComponentFormattingOptionEE U 0 0
__ZNK5QDate6daysToES_ U 0 0
__ZNK5QDate7addDaysEx U 0 0
__ZNK5QDate8toStringEN2Qt10DateFormatE U 0 0
__ZNK5QDate9addMonthsEi U 0 0
__ZNK5QFile11permissionsEv U 0 0
__ZNK5QFile6existsEv U 0 0
__ZNK5QFont10pointSizeFEv U 0 0
__ZNK5QFont5styleEv U 0 0
__ZNK5QFont6familyEv U 0 0
__ZNK5QFont6weightEv U 0 0
__ZNK5QFont7kerningEv U 0 0
__ZNK5QFont9pixelSizeEv U 0 0
__ZNK5QFont9pointSizeEv U 0 0
__ZNK5QFont9strikeOutEv U 0 0
__ZNK5QFont9underlineEv U 0 0
__ZNK5QFontcv8QVariantEv U 0 0
__ZNK5QFonteqERKS_ U 0 0
__ZNK5QFontltERKS_ U 0 0
__ZNK5QIcon5paintEP8QPainterRK5QRect6QFlagsIN2Qt13AlignmentFlagEENS_4ModeENS_5StateE U 0 0
__ZNK5QIcon6isNullEv U 0 0
__ZNK5QIcon6pixmapERK5QSizeNS_4ModeENS_5StateE U 0 0
__ZNK5QIconcv8QVariantEv U 0 0
__ZNK5QMenu10menuActionEv U 0 0
__ZNK5QMenu4iconEv U 0 0
__ZNK5QMenu7isEmptyEv U 0 0
__ZNK5QRect10intersectsERKS_ U 0 0
__ZNK5QRect10normalizedEv U 0 0
__ZNK5QRect8containsERK6QPointb U 0 0
__ZNK5QRectanERKS_ U 0 0
__ZNK5QRectorERKS_ U 0 0
__ZNK5Tiled10AutoMapper11compileRuleER5QListINS_12RuleInputSetEERKNS0_4RuleERKNS_18AutoMappingContextE T a1dd0 0
__ZNK5Tiled10AutoMapper13copyMapRegionERKNS0_4RuleE6QPointRKNS_13RuleOutputSetERNS_18AutoMappingContextE T a4b40 0
__ZNK5Tiled10AutoMapper14copyTileRegionEPKNS_9TileLayerE5QRectPS1_iiRKNS_18AutoMappingContextE T a5510 0
__ZNK5Tiled10AutoMapper14prepareAutoMapERNS_18AutoMappingContextE T a1320 0
__ZNK5Tiled10AutoMapper15compileInputSetERNS_12RuleInputSetERKNS_8InputSetERK7QRegionRNS_14CompileContextERKNS_18AutoMappingContextE T a1f70 0
__ZNK5Tiled10AutoMapper16compileOutputSetERNS_13RuleOutputSetERKNS_9OutputSetERK7QRegion T a0d60 0
__ZNK5Tiled10AutoMapper16rulesMapFileNameEv T 9dcf0 0
__ZNK5Tiled10AutoMapper17ruleLayerNameUsedERK7QString T 9dd50 0
__ZNK5Tiled10AutoMapper18setupWorkMapLayersERNS_18AutoMappingContextE T a1370 0
__ZNK5Tiled10AutoMapper20applyLayerPropertiesEPKNS_5LayerEPS1_RNS_18AutoMappingContextE T a57a0 0
__ZNK5Tiled10AutoMapper25collectLayerOutputRegionsERKNS0_4RuleERKNS_13RuleOutputSetERNS_18AutoMappingContextER5QHashIPKNS_5LayerE7QRegionE T a4670 0
__ZNK5Tiled10AutoMapper7autoMapERK7QRegionPS1_RNS_18AutoMappingContextE T a27a0 0
__ZNK5Tiled10AutoMapper9applyRuleERKNS0_4RuleE6QPointRNS_12ApplyContextERNS_18AutoMappingContextE T a3d20 0
__ZNK5Tiled10AutoMapper9matchRuleERKNS0_4RuleERK7QRegionPFRKNS_4CellEiiRKNS_9TileLayerEERKNSt3__18functionIFv6QPointEEERKNS_18AutoMappingContextE T a3540 0
__ZNK5Tiled10FileFormat15hasCapabilitiesE6QFlagsINS0_10CapabilityEE U 0 0
__ZNK5Tiled10MainWindow10metaObjectEv T 2cad20 0
__ZNK5Tiled10MainWindow11allToolBarsEv T 2c7490 0
__ZNK5Tiled10MainWindow14allDockWidgetsEv T 2c7280 0
__ZNK5Tiled10MainWindow24addRecentProjectsActionsEP5QMenu T 2c8640 0
__ZNK5Tiled10PluginFile11errorStringEv U 0 0
__ZNK5Tiled10PluginFile8fileNameEv U 0 0
__ZNK5Tiled10PluginFile8hasErrorEv U 0 0
__ZNK5Tiled11MapDocument10layerIndexEPKNS_5LayerE T 2ecba0 0
__ZNK5Tiled11MapDocument10metaObjectEv T 2f9270 0
__ZNK5Tiled11MapDocument11displayNameEv T 2ec980 0
__ZNK5Tiled11MapDocument12exportFormatEv T 2ec8a0 0
__ZNK5Tiled11MapDocument12newLayerNameENS_5Layer8TypeFlagE T 2eec90 0
__ZNK5Tiled11MapDocument12readerFormatEv T 2ec7e0 0
__ZNK5Tiled11MapDocument12writerFormatEv T 2ebf50 0
__ZNK5Tiled11MapDocument13unifyTilesetsERNS_3MapER5QListI14QSharedPointerINS_7TilesetEEE T 2f48a0 0
__ZNK5Tiled11MapDocument14currentObjectsEv T 2f3ed0 0
__ZNK5Tiled11MapDocument15templateAllowedEPKNS_14ObjectTemplateE T 2f4b70 0
__ZNK5Tiled11MapDocument16findTargetLayersERK5QListIPKNS_9TileLayerEE T 2f14e0 0
__ZNK5Tiled11MapDocument18lastExportFileNameEv T 2ec820 0
__ZNK5Tiled11MapDocument21selectedLayersOrderedEv T 2f1b00 0
__ZNK5Tiled11MapDocument22selectedObjectsOrderedEv T 2f39a0 0
__ZNK5Tiled11MapDocument9canReloadEv T 2ebfd0 0
__ZNK5Tiled11MapRenderer12boundingRectEPKNS_10ImageLayerE U 0 0
__ZNK5Tiled11MapRenderer13drawTileLayerEP8QPainterPKNS_9TileLayerERK6QRectF U 0 0
__ZNK5Tiled11MapRenderer14drawImageLayerEP8QPainterPKNS_10ImageLayerERK6QRectF U 0 0
__ZNK5Tiled11MapRenderer15mapBoundingRectEv U 0 0
__ZNK5Tiled11ObjectGroup15highestObjectIdEv U 0 0
__ZNK5Tiled11ObjectGroup19objectsBoundingRectEv U 0 0
__ZNK5Tiled11Preferences10customFontEv T 3c7660 0
__ZNK5Tiled11Preferences10metaObjectEv T 3cd2f0 0
__ZNK5Tiled11Preferences11displayNewsEv T 3cb3c0 0
__ZNK5Tiled11Preferences12dataLocationEv T 3c5f30 0
__ZNK5Tiled11Preferences12exportOnSaveEv T 3c92e0 0
__ZNK5Tiled11Preferences12exportOptionENS0_12ExportOptionE T 3c9850 0
__ZNK5Tiled11Preferences13exportOptionsEv T 3c93f0 0
__ZNK5Tiled11Preferences13showWorldGridEv T 3c6770 0
__ZNK5Tiled11Preferences13useCustomFontEv T 3c7500 0
__ZNK5Tiled11Preferences14configLocationEv T 3cbc60 0
__ZNK5Tiled11Preferences14mapRenderOrderEv T 3c90d0 0
__ZNK5Tiled11Preferences14naturalSortingEv T 3cae80 0
__ZNK5Tiled11Preferences14recentProjectsEv T 3ca520 0
__ZNK5Tiled11Preferences14selectionColorEv T 3c7310 0
__ZNK5Tiled11Preferences14startupSessionEv T 3caa20 0
__ZNK5Tiled11Preferences15checkForUpdatesEv T 3cb240 0
__ZNK5Tiled11Preferences15layerDataFormatEv T 3c7960 0
__ZNK5Tiled11Preferences15objectLineWidthEv T 3c6bf0 0
__ZNK5Tiled11Preferences15parallaxEnabledEv T 3c6860 0
__ZNK5Tiled11Preferences15showTilesetGridEv T 3c6dd0 0
__ZNK5Tiled11Preferences15snapToWorldGridEv T 3c67a0 0
__ZNK5Tiled11Preferences16applicationStyleEv T 3c6120 0
__ZNK5Tiled11Preferences17recentProjectPathEv T 3ca5b0 0
__ZNK5Tiled11Preferences17safeSavingEnabledEv T 3c60f0 0
__ZNK5Tiled11Preferences18showTileAnimationsEv T 3c63d0 0
__ZNK5Tiled11Preferences19backgroundFadeColorEv T 3c6b10 0
__ZNK5Tiled11Preferences19wheelZoomsByDefaultEv T 3cb540 0
__ZNK5Tiled11Preferences20donationReminderTimeEv T 3ca320 0
__ZNK5Tiled11Preferences20showObjectReferencesEv T 3c6830 0
__ZNK5Tiled11Preferences21highlightCurrentLayerEv T 3c6d70 0
__ZNK5Tiled11Preferences21labelForHoveredObjectEv T 3c6f70 0
__ZNK5Tiled11Preferences21objectLabelVisibilityEv T 3c6e00 0
__ZNK5Tiled11Preferences22highlightHoveredObjectEv T 3c6da0 0
__ZNK5Tiled11Preferences22reloadTilesetsOnChangeEv T 3c63a0 0
__ZNK5Tiled11Preferences22showTileObjectOutlinesEv T 3c67d0 0
__ZNK5Tiled11Preferences23restoreSessionOnStartupEv T 3cac30 0
__ZNK5Tiled11Preferences23showTileCollisionShapesEv T 3c6800 0
__ZNK5Tiled11Preferences26shouldShowDonationReminderEv T 3ca290 0
__ZNK5Tiled11Preferences29repeatShortcutForPreviousToolEv T 3cb000 0
__ZNK5Tiled11Preferences8firstRunEv T 3c6550 0
__ZNK5Tiled11Preferences8gridFineEv T 3c6b70 0
__ZNK5Tiled11Preferences8isPatronEv T 3ca130 0
__ZNK5Tiled11Preferences8languageEv T 3c9940 0
__ZNK5Tiled11Preferences8runCountEv T 3c65f0 0
__ZNK5Tiled11Preferences8showGridEv T 3c6740 0
__ZNK5Tiled11Preferences8snapModeEv T 3c6890 0
__ZNK5Tiled11Preferences9baseColorEv T 3c7130 0
__ZNK5Tiled11Preferences9gridColorEv T 3c6900 0
__ZNK5Tiled11Preferences9gridMajorEv T 3c6ba0 0
__ZNK5Tiled11Preferences9useOpenGLEv T 3c9d80 0
__ZNK5Tiled11StyleHelper10metaObjectEv T 567490 0
__ZNK5Tiled12ExportHelper13formatOptionsEv T 2645d0 0
__ZNK5Tiled12ExportHelper16prepareExportMapEPKNS_3MapERNSt3__110unique_ptrIS1_NS4_14default_deleteIS1_EEEE T 265180 0
__ZNK5Tiled12ExportHelper17resolvePropertiesEPNS_6ObjectE T 264b90 0
__ZNK5Tiled12ExportHelper20prepareExportTilesetERK14QSharedPointerINS_7TilesetEEb T 2646a0 0
__ZNK5Tiled12PropertyType4wrapERK8QVariant U 0 0
__ZNK5Tiled12WorldManager10metaObjectEv T 671520 0
__ZNK5Tiled12WorldManager11worldForMapERK7QString T 671100 0
__ZNK5Tiled12WorldManager14worldFileNamesEv T 670dc0 0
__ZNK5Tiled12WorldManager9findWorldERK7QString T 6703b0 0
__ZNK5Tiled13LayerIteratoreqERKS0_ U 0 0
__ZNK5Tiled13PropertyTypes12findClassForERK7QStringRKNS_6ObjectE U 0 0
__ZNK5Tiled13PropertyTypes14findTypeByNameERK7QStringi U 0 0
__ZNK5Tiled13PropertyTypes15findIndexByNameERK7QString U 0 0
__ZNK5Tiled13PropertyTypes21findPropertyValueTypeERK7QString U 0 0
__ZNK5Tiled13PropertyTypes5countENS_12PropertyType4TypeE U 0 0
__ZNK5Tiled13PropertyTypes6toJsonERK7QString U 0 0
__ZNK5Tiled13PropertyValue4typeEv U 0 0
__ZNK5Tiled13ScriptManager10metaObjectEv T 51ebf0 0
__ZNK5Tiled14ProjectManager10metaObjectEv T 3edba0 0
__ZNK5Tiled14TilesetManager11findTilesetERK7QString U 0 0
__ZNK5Tiled15MiniMapRenderer13renderToImageER6QImage6QFlagsINS0_10RenderFlagEE U 0 0
__ZNK5Tiled15MiniMapRenderer6renderE5QSize6QFlagsINS0_10RenderFlagEE U 0 0
__ZNK5Tiled15MiniMapRenderer7mapSizeEv U 0 0
__ZNK5Tiled16TiledApplication10metaObjectEv T 58a290 0
__ZNK5Tiled17ClassPropertyType10isClassForERKNS_6ObjectE U 0 0
__ZNK5Tiled17HexagonalRenderer10bottomLeftEii U 0 0
__ZNK5Tiled17HexagonalRenderer11bottomRightEii U 0 0
__ZNK5Tiled17HexagonalRenderer7topLeftEii U 0 0
__ZNK5Tiled17HexagonalRenderer8topRightEii U 0 0
__ZNK5Tiled3Map10copyLayersERK5QListIPNS_5LayerEERK7QRegionRS0_ U 0 0
__ZNK5Tiled3Map10layerCountENS_5Layer8TypeFlagE U 0 0
__ZNK5Tiled3Map11drawMarginsEv U 0 0
__ZNK5Tiled3Map12usedTilesetsEv U 0 0
__ZNK5Tiled3Map13findLayerByIdEi U 0 0
__ZNK5Tiled3Map13isTilesetUsedEPKNS_7TilesetE U 0 0
__ZNK5Tiled3Map14findObjectByIdEi U 0 0
__ZNK5Tiled3Map14indexOfTilesetERK14QSharedPointerINS_7TilesetEE U 0 0
__ZNK5Tiled3Map16tileBoundingRectEv U 0 0
__ZNK5Tiled3Map18modifiedTileRegionEv U 0 0
__ZNK5Tiled3Map42adjustBoundingRectForOffsetsAndImageLayersER5QRect U 0 0
__ZNK5Tiled3Map5cloneEv U 0 0
__ZNK5Tiled3Map9findLayerERK7QStringi U 0 0
__ZNK5Tiled4Tile13sharedTilesetEv U 0 0
__ZNK5Tiled4Tile5cloneEPNS_7TilesetE U 0 0
__ZNK5Tiled4Tile5imageEv U 0 0
__ZNK5Tiled4Tile6offsetEv U 0 0
__ZNK5Tiled5Layer10isUnlockedEv U 0 0
__ZNK5Tiled5Layer11totalOffsetEv U 0 0
__ZNK5Tiled5Layer12canMergeDownEv U 0 0
__ZNK5Tiled5Layer12siblingIndexEv U 0 0
__ZNK5Tiled5Layer14isParentOrSelfEPKS0_ U 0 0
__ZNK5Tiled5Layer23effectiveParallaxFactorEv U 0 0
__ZNK5Tiled5Layer8isHiddenEv U 0 0
__ZNK5Tiled5Layer8siblingsEv U 0 0
__ZNK5Tiled5World10mapsInRectERK5QRect U 0 0
__ZNK5Tiled5World11containsMapERK7QString U 0 0
__ZNK5Tiled5World11contextMapsERK7QString U 0 0
__ZNK5Tiled5World13canBeModifiedEv U 0 0
__ZNK5Tiled5World22clearErrorsAndWarningsEv U 0 0
__ZNK5Tiled5World7allMapsEv U 0 0
__ZNK5Tiled5World7mapRectERK7QString U 0 0
__ZNK5Tiled5World8firstMapEv U 0 0
__ZNK5Tiled5World8mapIndexERK7QString U 0 0
__ZNK5Tiled6Object16resolvedPropertyERK7QString U 0 0
__ZNK5Tiled6Object18resolvedPropertiesEv U 0 0
__ZNK5Tiled6Object19inheritedPropertiesEv U 0 0
__ZNK5Tiled6WangId10indexColorEi U 0 0
__ZNK5Tiled6WangId11cornerColorEi U 0 0
__ZNK5Tiled6WangId12hasWildCardsEv U 0 0
__ZNK5Tiled6WangId16hasEdgeWildCardsEv U 0 0
__ZNK5Tiled6WangId18hasCornerWildCardsEv U 0 0
__ZNK5Tiled6WangId4maskEi U 0 0
__ZNK5Tiled6WangId7rotatedEi U 0 0
__ZNK5Tiled6WangId9edgeColorEi U 0 0
__ZNK5Tiled7Session8lastPathENS0_8FileTypeEN14QStandardPaths16StandardLocationE T 53d650 0
__ZNK5Tiled7Session9fileStateERK7QString T 53d250 0
__ZNK5Tiled7Tileset18findSimilarTilesetERK5QListI14QSharedPointerIS0_EE U 0 0
__ZNK5Tiled7Tileset5cloneEv U 0 0
__ZNK5Tiled7Tileset6formatEv U 0 0
__ZNK5Tiled7Tileset8rowCountEv U 0 0
__ZNK5Tiled7WangSet10isCompleteEv U 0 0
__ZNK5Tiled7WangSet12wangIdIsUsedENS_6WangIdES1_ U 0 0
__ZNK5Tiled7WangSet12wangIdOfCellERKNS_4CellE U 0 0
__ZNK5Tiled7WangSet12wangIdOfTileEPKNS_4TileE U 0 0
__ZNK5Tiled7WangSet13wangIdIsValidENS_6WangIdE U 0 0
__ZNK5Tiled7WangSet15completeSetSizeEv U 0 0
__ZNK5Tiled7WangSet15wangIdsAndCellsEv U 0 0
__ZNK5Tiled7WangSet16templateWangIdAtEj U 0 0
__ZNK5Tiled7WangSet17transitionPenaltyEii U 0 0
__ZNK5Tiled7WangSet17wangIdProbabilityENS_6WangIdE U 0 0
__ZNK5Tiled7WangSet20maximumColorDistanceEv U 0 0
__ZNK5Tiled7WangSet21effectiveTypeForColorEi U 0 0
__ZNK5Tiled7WangSet5cloneEPNS_7TilesetE U 0 0
__ZNK5Tiled8TextData8textSizeEv U 0 0
__ZNK5Tiled9MapObject12screenBoundsERKNS_11MapRendererE U 0 0
__ZNK5Tiled9MapObject13boundsUseTileEv U 0 0
__ZNK5Tiled9MapObject14templateObjectEv U 0 0
__ZNK5Tiled9MapObject15effectiveColorsEv U 0 0
__ZNK5Tiled9MapObject15tileObjectShapeEPKNS_3MapE U 0 0
__ZNK5Tiled9MapObject17mapObjectPropertyENS0_8PropertyE U 0 0
__ZNK5Tiled9MapObject18effectiveClassNameEv U 0 0
__ZNK5Tiled9MapObject3mapEv U 0 0
__ZNK5Tiled9MapObject5cloneEv U 0 0
__ZNK5Tiled9MapObject5indexEv U 0 0
__ZNK5Tiled9MapObject9alignmentEPKNS_3MapE U 0 0
__ZNK5Tiled9TileLayer11drawMarginsEv U 0 0
__ZNK5Tiled9TileLayer17computeDiffRegionERKS0_ U 0 0
__ZNK5Tiled9TileLayer6regionENSt3__18functionIFbRKNS_4CellEEEE U 0 0
__ZNK5Tiled9TileLayer7hasCellENSt3__18functionIFbRKNS_4CellEEEE U 0 0
__ZNK6QBrush8gradientEv U 0 0
__ZNK6QBrushcv8QVariantEv U 0 0
__ZNK6QColor10saturationEv U 0 0
__ZNK6QColor3hueEv U 0 0
__ZNK6QColor3redEv U 0 0
__ZNK6QColor3rgbEv U 0 0
__ZNK6QColor4blueEv U 0 0
__ZNK6QColor4nameENS_10NameFormatE U 0 0
__ZNK6QColor4rgbaEv U 0 0
__ZNK6QColor5alphaEv U 0 0
__ZNK6QColor5greenEv U 0 0
__ZNK6QColor5valueEv U 0 0
__ZNK6QColor6darkerEi U 0 0
__ZNK6QColor6getHsvEPiS0_S0_S0_ U 0 0
__ZNK6QColor7lighterEi U 0 0
__ZNK6QColorcv8QVariantEv U 0 0
__ZNK6QColoreqERKS_ U 0 0
__ZNK6QColorneERKS_ U 0 0
__ZNK6QFrame15initStyleOptionEP17QStyleOptionFrame U 0 0
__ZNK6QFrame8sizeHintEv U 0 0
__ZNK6QImage10colorTableEv U 0 0
__ZNK6QImage10pixelColorEii U 0 0
__ZNK6QImage15mirrored_helperEbb U 0 0
__ZNK6QImage4copyERK5QRect U 0 0
__ZNK6QImage4rectEv U 0 0
__ZNK6QImage4saveEP9QIODevicePKci U 0 0
__ZNK6QImage4saveERK7QStringPKci U 0 0
__ZNK6QImage4sizeEv U 0 0
__ZNK6QImage5colorEi U 0 0
__ZNK6QImage5depthEv U 0 0
__ZNK6QImage5pixelEii U 0 0
__ZNK6QImage5widthEv U 0 0
__ZNK6QImage6formatEv U 0 0
__ZNK6QImage6heightEv U 0 0
__ZNK6QImage6isNullEv U 0 0
__ZNK6QImage6scaledERK5QSizeN2Qt15AspectRatioModeENS3_18TransformationModeE U 0 0
__ZNK6QLabel14heightForWidthEi U 0 0
__ZNK6QLabel15minimumSizeHintEv U 0 0
__ZNK6QLabel4textEv U 0 0
__ZNK6QLabel6marginEv U 0 0
__ZNK6QLabel6pixmapEv U 0 0
__ZNK6QLabel8sizeHintEv U 0 0
__ZNK6QLabel9alignmentEv U 0 0
__ZNK6QLineF6lengthEv U 0 0
__ZNK6QRectF10normalizedEv U 0 0
__ZNK6QRectF13toAlignedRectEv U 0 0
__ZNK6QRectForERKS_ U 0 0
__ZNK6QStyle5proxyEv U 0 0
__ZNK6QTimer8isActiveEv U 0 0
__ZNK7QAction4dataEv U 0 0
__ZNK7QAction4fontEv U 0 0
__ZNK7QAction4iconEv U 0 0
__ZNK7QAction4textEv U 0 0
__ZNK7QAction7toolTipEv U 0 0
__ZNK7QAction8shortcutEv U 0 0
__ZNK7QAction9isCheckedEv U 0 0
__ZNK7QAction9isEnabledEv U 0 0
__ZNK7QAction9shortcutsEv U 0 0
__ZNK7QCursor5shapeEv U 0 0
__ZNK7QDialog15minimumSizeHintEv U 0 0
__ZNK7QDialog8sizeHintEv U 0 0
__ZNK7QLayout11maximumSizeEv U 0 0
__ZNK7QLayout12controlTypesEv U 0 0
__ZNK7QLayout12parentWidgetEv U 0 0
__ZNK7QLayout15contentsMarginsEv U 0 0
__ZNK7QLayout7indexOfEPK11QLayoutItem U 0 0
__ZNK7QLayout7indexOfEPK7QWidget U 0 0
__ZNK7QLayout7isEmptyEv U 0 0
__ZNK7QLayout7spacingEv U 0 0
__ZNK7QLayout8geometryEv U 0 0
__ZNK7QLocale12decimalPointEv U 0 0
__ZNK7QLocale5toIntE11QStringViewPb U 0 0
__ZNK7QLocale7countryEv U 0 0
__ZNK7QLocale8languageEv U 0 0
__ZNK7QLocale8toDoubleE11QStringViewPb U 0 0
__ZNK7QObject10objectNameEv U 0 0
__ZNK7QObject6senderEv U 0 0
__ZNK7QObject8propertyEPKc U 0 0
__ZNK7QPixmap15hasAlphaChannelEv U 0 0
__ZNK7QPixmap16devicePixelRatioEv U 0 0
__ZNK7QPixmap4copyERK5QRect U 0 0
__ZNK7QPixmap4maskEv U 0 0
__ZNK7QPixmap4rectEv U 0 0
__ZNK7QPixmap4sizeEv U 0 0
__ZNK7QPixmap5widthEv U 0 0
__ZNK7QPixmap6heightEv U 0 0
__ZNK7QPixmap6isNullEv U 0 0
__ZNK7QPixmap6scaledERK5QSizeN2Qt15AspectRatioModeENS3_18TransformationModeE U 0 0
__ZNK7QPixmap7toImageEv U 0 0
__ZNK7QPixmapcv8QVariantEv U 0 0
__ZNK7QRegion10intersectsERK5QRect U 0 0
__ZNK7QRegion10intersectsERKS_ U 0 0
__ZNK7QRegion10subtractedERKS_ U 0 0
__ZNK7QRegion10translatedEii U 0 0
__ZNK7QRegion11intersectedERK5QRect U 0 0
__ZNK7QRegion11intersectedERKS_ U 0 0
__ZNK7QRegion12boundingRectEv U 0 0
__ZNK7QRegion3endEv U 0 0
__ZNK7QRegion5beginEv U 0 0
__ZNK7QRegion5xoredERKS_ U 0 0
__ZNK7QRegion6unitedERK5QRect U 0 0
__ZNK7QRegion6unitedERKS_ U 0 0
__ZNK7QRegion7isEmptyEv U 0 0
__ZNK7QRegion8containsERK6QPoint U 0 0
__ZNK7QRegion9rectCountEv U 0 0
__ZNK7QRegionanERKS_ U 0 0
__ZNK7QRegioneqERKS_ U 0 0
__ZNK7QRegionmiERKS_ U 0 0
__ZNK7QRegionorERKS_ U 0 0
__ZNK7QRegionplERKS_ U 0 0
__ZNK7QScreen17availableGeometryEv U 0 0
__ZNK7QScreen19logicalDotsPerInchXEv U 0 0
__ZNK7QSlider15initStyleOptionEP18QStyleOptionSlider U 0 0
__ZNK7QSlider15minimumSizeHintEv U 0 0
__ZNK7QSlider8sizeHintEv U 0 0
__ZNK7QString10normalizedENS_17NormalizationFormEN5QChar14UnicodeVersionE U 0 0
__ZNK7QString10startsWithE13QLatin1StringN2Qt15CaseSensitivityE U 0 0
__ZNK7QString10startsWithE5QCharN2Qt15CaseSensitivityE U 0 0
__ZNK7QString10startsWithERKS_N2Qt15CaseSensitivityE U 0 0
__ZNK7QString11lastIndexOfERKS_xN2Qt15CaseSensitivityE U 0 0
__ZNK7QString13toHtmlEscapedEv U 0 0
__ZNK7QString18localeAwareCompareERKS_ U 0 0
__ZNK7QString5splitE5QChar6QFlagsIN2Qt18SplitBehaviorFlagsEENS2_15CaseSensitivityE U 0 0
__ZNK7QString7compareE13QLatin1StringN2Qt15CaseSensitivityE U 0 0
__ZNK7QString7compareERKS_N2Qt15CaseSensitivityE U 0 0
__ZNK7QString7indexOfE13QLatin1StringxN2Qt15CaseSensitivityE U 0 0
__ZNK7QString7indexOfERKS_xN2Qt15CaseSensitivityE U 0 0
__ZNK7QString7sectionERKS_xx6QFlagsINS_11SectionFlagEE U 0 0
__ZNK7QString8arg_implE14QAnyStringViewi5QChar U 0 0
__ZNK7QString8arg_implEdici5QChar U 0 0
__ZNK7QString8arg_implExii5QChar U 0 0
__ZNK7QString8endsWithE13QLatin1StringN2Qt15CaseSensitivityE U 0 0
__ZNK7QString8endsWithE5QCharN2Qt15CaseSensitivityE U 0 0
__ZNK7QString8endsWithERKS_N2Qt15CaseSensitivityE U 0 0
__ZNK7QString8toDoubleEPb U 0 0
__ZNK7QTabBar10metaObjectEv U 0 0
__ZNK7QTabBar11tabSizeHintEi U 0 0
__ZNK7QTabBar12currentIndexEv U 0 0
__ZNK7QTabBar12tabsClosableEv U 0 0
__ZNK7QTabBar15initStyleOptionEP15QStyleOptionTabi U 0 0
__ZNK7QTabBar15minimumSizeHintEv U 0 0
__ZNK7QTabBar18minimumTabSizeHintEi U 0 0
__ZNK7QTabBar5countEv U 0 0
__ZNK7QTabBar5tabAtERK6QPoint U 0 0
__ZNK7QTabBar7tabTextEi U 0 0
__ZNK7QTabBar8sizeHintEv U 0 0
__ZNK7QThread23isInterruptionRequestedEv U 0 0
__ZNK7QWidget10focusProxyEv U 0 0
__ZNK7QWidget10redirectedEP6QPoint U 0 0
__ZNK7QWidget10sizePolicyEv U 0 0
__ZNK7QWidget11focusPolicyEv U 0 0
__ZNK7QWidget11focusWidgetEv U 0 0
__ZNK7QWidget11initPainterEP8QPainter U 0 0
__ZNK7QWidget11mapToGlobalERK6QPoint U 0 0
__ZNK7QWidget11minimumSizeEv U 0 0
__ZNK7QWidget11paintEngineEv U 0 0
__ZNK7QWidget11windowStateEv U 0 0
__ZNK7QWidget12contentsRectEv U 0 0
__ZNK7QWidget12isAncestorOfEPKS_ U 0 0
__ZNK7QWidget12isFullScreenEv U 0 0
__ZNK7QWidget12saveGeometryEv U 0 0
__ZNK7QWidget12windowHandleEv U 0 0
__ZNK7QWidget13mapFromGlobalERK6QPoint U 0 0
__ZNK7QWidget13sharedPainterEv U 0 0
__ZNK7QWidget14backgroundRoleEv U 0 0
__ZNK7QWidget14foregroundRoleEv U 0 0
__ZNK7QWidget14heightForWidthEi U 0 0
__ZNK7QWidget14isActiveWindowEv U 0 0
__ZNK7QWidget15contentsMarginsEv U 0 0
__ZNK7QWidget15layoutDirectionEv U 0 0
__ZNK7QWidget15minimumSizeHintEv U 0 0
__ZNK7QWidget16inputMethodQueryEN2Qt16InputMethodQueryE U 0 0
__ZNK7QWidget17hasHeightForWidthEv U 0 0
__ZNK7QWidget20testAttribute_helperEN2Qt15WidgetAttributeE U 0 0
__ZNK7QWidget5styleEv U 0 0
__ZNK7QWidget6layoutEv U 0 0
__ZNK7QWidget6localeEv U 0 0
__ZNK7QWidget6metricEN12QPaintDevice17PaintDeviceMetricE U 0 0
__ZNK7QWidget6screenEv U 0 0
__ZNK7QWidget6windowEv U 0 0
__ZNK7QWidget7actionsEv U 0 0
__ZNK7QWidget7devTypeEv U 0 0
__ZNK7QWidget7paletteEv U 0 0
__ZNK7QWidget8hasFocusEv U 0 0
__ZNK7QWidget8sizeHintEv U 0 0
__ZNK7QWindow6handleEv U 0 0
__ZNK8QGesture5stateEv U 0 0
__ZNK8QGesture7hotSpotEv U 0 0
__ZNK8QJSValue10isCallableEv U 0 0
__ZNK8QJSValue11isUndefinedEv U 0 0
__ZNK8QJSValue16callWithInstanceERKS_RK5QListIS_E U 0 0
__ZNK8QJSValue4callERK5QListIS_E U 0 0
__ZNK8QJSValue5toIntEv U 0 0
__ZNK8QJSValue6isBoolEv U 0 0
__ZNK8QJSValue6toBoolEv U 0 0
__ZNK8QJSValue6toUIntEv U 0 0
__ZNK8QJSValue7isArrayEv U 0 0
__ZNK8QJSValue7isErrorEv U 0 0
__ZNK8QJSValue8isNumberEv U 0 0
__ZNK8QJSValue8isStringEv U 0 0
__ZNK8QJSValue8propertyERK7QString U 0 0
__ZNK8QJSValue8propertyEj U 0 0
__ZNK8QJSValue8toNumberEv U 0 0
__ZNK8QJSValue8toStringEv U 0 0
__ZNK8QJSValue9toQObjectEv U 0 0
__ZNK8QJSValue9toVariantEv U 0 0
__ZNK8QPainter3penEv U 0 0
__ZNK8QPainter4fontEv U 0 0
__ZNK8QPainter6deviceEv U 0 0
__ZNK8QPainter7opacityEv U 0 0
__ZNK8QPainter9transformEv U 0 0
__ZNK8QPalette5brushENS_10ColorGroupENS_9ColorRoleE U 0 0
__ZNK8QPalette8cacheKeyEv U 0 0
__ZNK8QPaletteeqERKS_ U 0 0
__ZNK8QPicture12boundingRectEv U 0 0
__ZNK8QPicture6isNullEv U 0 0
__ZNK8QProcess10exitStatusEv U 0 0
__ZNK8QProcess12bytesToWriteEv U 0 0
__ZNK8QProcess12isSequentialEv U 0 0
__ZNK8QProcess5errorEv U 0 0
__ZNK8QProcess8exitCodeEv U 0 0
__ZNK8QSpinBox13textFromValueEi U 0 0
__ZNK8QSpinBox5fixupER7QString U 0 0
__ZNK8QSpinBox5valueEv U 0 0
__ZNK8QSpinBox6prefixEv U 0 0
__ZNK8QSpinBox6suffixEv U 0 0
__ZNK8QToolBar15initStyleOptionEP19QStyleOptionToolBar U 0 0
__ZNK8QToolBar15widgetForActionEP7QAction U 0 0
__ZNK8QToolBar16toggleViewActionEv U 0 0
__ZNK8QVariant11toByteArrayEv U 0 0
__ZNK8QVariant5toIntEPb U 0 0
__ZNK8QVariant5toMapEv U 0 0
__ZNK8QVariant6equalsERKS_ U 0 0
__ZNK8QVariant6isNullEv U 0 0
__ZNK8QVariant6toBoolEv U 0 0
__ZNK8QVariant6toDateEv U 0 0
__ZNK8QVariant6toHashEv U 0 0
__ZNK8QVariant6toListEv U 0 0
__ZNK8QVariant6toRealEPb U 0 0
__ZNK8QVariant8toDoubleEPb U 0 0
__ZNK8QVariant8toPointFEv U 0 0
__ZNK8QVariant8toStringEv U 0 0
__ZNK9QCheckBox10checkStateEv U 0 0
__ZNK9QCollator7compareE11QStringViewS0_ U 0 0
__ZNK9QComboBox11currentDataEi U 0 0
__ZNK9QComboBox11currentTextEv U 0 0
__ZNK9QComboBox12currentIndexEv U 0 0
__ZNK9QComboBox15initStyleOptionEP20QStyleOptionComboBox U 0 0
__ZNK9QComboBox15minimumSizeHintEv U 0 0
__ZNK9QComboBox16inputMethodQueryEN2Qt16InputMethodQueryE U 0 0
__ZNK9QComboBox5countEv U 0 0
__ZNK9QComboBox5modelEv U 0 0
__ZNK9QComboBox8findDataERK8QVarianti6QFlagsIN2Qt9MatchFlagEE U 0 0
__ZNK9QComboBox8iconSizeEv U 0 0
__ZNK9QComboBox8itemDataEii U 0 0
__ZNK9QComboBox8lineEditEv U 0 0
__ZNK9QComboBox8sizeHintEv U 0 0
__ZNK9QDateTime6equalsERKS_ U 0 0
__ZNK9QDateTime8toStringEN2Qt10DateFormatE U 0 0
__ZNK9QFileInfo10isRelativeEv U 0 0
__ZNK9QFileInfo10isWritableEv U 0 0
__ZNK9QFileInfo11absoluteDirEv U 0 0
__ZNK9QFileInfo11permissionsEv U 0 0
__ZNK9QFileInfo12absolutePathEv U 0 0
__ZNK9QFileInfo14completeSuffixEv U 0 0
__ZNK9QFileInfo14isSymbolicLinkEv U 0 0
__ZNK9QFileInfo16absoluteFilePathEv U 0 0
__ZNK9QFileInfo16completeBaseNameEv U 0 0
__ZNK9QFileInfo17canonicalFilePathEv U 0 0
__ZNK9QFileInfo3dirEv U 0 0
__ZNK9QFileInfo4pathEv U 0 0
__ZNK9QFileInfo5isDirEv U 0 0
__ZNK9QFileInfo6existsEv U 0 0
__ZNK9QFileInfo6isFileEv U 0 0
__ZNK9QFileInfo6suffixEv U 0 0
__ZNK9QFileInfo8baseNameEv U 0 0
__ZNK9QFileInfo8fileNameEv U 0 0
__ZNK9QFileInfo8filePathEv U 0 0
__ZNK9QFileInfo8fileTimeEN11QFileDevice8FileTimeE U 0 0
__ZNK9QFileInfo9isSymLinkEv U 0 0
__ZNK9QFontInfo10pointSizeFEv U 0 0
__ZNK9QGradient5stopsEv U 0 0
__ZNK9QIODevice11canReadLineEv U 0 0
__ZNK9QIODevice11errorStringEv U 0 0
__ZNK9QIODevice14bytesAvailableEv U 0 0
__ZNK9QIODevice3posEv U 0 0
__ZNK9QIODevice4sizeEv U 0 0
__ZNK9QIODevice5atEndEv U 0 0
__ZNK9QJSEngine12globalObjectEv U 0 0
__ZNK9QKeyEvent7matchesEN12QKeySequence11StandardKeyE U 0 0
__ZNK9QKeyEvent9modifiersEv U 0 0
__ZNK9QLineEdit15initStyleOptionEP17QStyleOptionFrame U 0 0
__ZNK9QLineEdit15minimumSizeHintEv U 0 0
__ZNK9QLineEdit16inputMethodQueryEN2Qt16InputMethodQueryE U 0 0
__ZNK9QLineEdit4textEv U 0 0
__ZNK9QLineEdit8sizeHintEv U 0 0
__ZNK9QListView10visualRectERK11QModelIndex U 0 0
__ZNK9QListView13isIndexHiddenERK11QModelIndex U 0 0
__ZNK9QListView14verticalOffsetEv U 0 0
__ZNK9QListView15selectedIndexesEv U 0 0
__ZNK9QListView16horizontalOffsetEv U 0 0
__ZNK9QListView16viewportSizeHintEv U 0 0
__ZNK9QListView18initViewItemOptionEP20QStyleOptionViewItem U 0 0
__ZNK9QListView24visualRegionForSelectionERK14QItemSelection U 0 0
__ZNK9QListView7indexAtERK6QPoint U 0 0
__ZNK9QLockFile8isLockedEv U 0 0
__ZNK9QMimeData4dataERK7QString U 0 0
__ZNK9QMimeData4textEv U 0 0
__ZNK9QMimeData4urlsEv U 0 0
__ZNK9QMimeData7hasTextEv U 0 0
__ZNK9QPolygonF10translatedERK7QPointF U 0 0
__ZNK9QPolygonF12boundingRectEv U 0 0
__ZNK9QQmlError3urlEv U 0 0
__ZNK9QQmlError8toStringEv U 0 0
__ZNK9QSettings5valueE14QAnyStringView U 0 0
__ZNK9QSettings5valueE14QAnyStringViewRK8QVariant U 0 0
__ZNK9QSettings6statusEv U 0 0
__ZNK9QSettings7allKeysEv U 0 0
__ZNK9QSettings8containsE14QAnyStringView U 0 0
__ZNK9QSettings8fileNameEv U 0 0
__ZNK9QSettings9childKeysEv U 0 0
__ZNK9QSplitter9saveStateEv U 0 0
__ZNK9QTextEdit8documentEv U 0 0
__ZNK9QTreeView10indexAboveERK11QModelIndex U 0 0
__ZNK9QTreeView10indexBelowERK11QModelIndex U 0 0
__ZNK9QTreeView10isExpandedERK11QModelIndex U 0 0
__ZNK9QTreeView10metaObjectEv U 0 0
__ZNK9QTreeView10visualRectERK11QModelIndex U 0 0
__ZNK9QTreeView11columnWidthEi U 0 0
__ZNK9QTreeView12drawBranchesEP8QPainterRK5QRectRK11QModelIndex U 0 0
__ZNK9QTreeView13isIndexHiddenERK11QModelIndex U 0 0
__ZNK9QTreeView14isColumnHiddenEi U 0 0
__ZNK9QTreeView14verticalOffsetEv U 0 0
__ZNK9QTreeView15selectedIndexesEv U 0 0
__ZNK9QTreeView16horizontalOffsetEv U 0 0
__ZNK9QTreeView16indexRowSizeHintERK11QModelIndex U 0 0
__ZNK9QTreeView16viewportSizeHintEv U 0 0
__ZNK9QTreeView17sizeHintForColumnEi U 0 0
__ZNK9QTreeView24visualRegionForSelectionERK14QItemSelection U 0 0
__ZNK9QTreeView6headerEv U 0 0
__ZNK9QTreeView7drawRowEP8QPainterRK20QStyleOptionViewItemRK11QModelIndex U 0 0
__ZNK9QTreeView7indexAtERK6QPoint U 0 0
__ZNK9QtPrivate15ResultStoreBase10filterModeEv U 0 0
__ZNK9QtPrivate15ResultStoreBase23containsValidResultItemEi U 0 0
__ZNK9QtPrivate15ResultStoreBase5countEv U 0 0
__ZNK9QtPrivate15ResultStoreBase8resultAtEi U 0 0
__ZNKR7QString3midExx U 0 0
__ZNKSt9exception4whatEv U 0 0
__ZNSt11logic_errorC2EPKc U 0 0
__ZNSt12length_errorD1Ev U 0 0
__ZNSt12out_of_rangeD1Ev U 0 0
__ZNSt19bad_optional_accessD1Ev U 0 0
__ZNSt20bad_array_new_lengthC1Ev U 0 0
__ZNSt20bad_array_new_lengthD1Ev U 0 0
__ZNSt3__112__next_primeEm U 0 0
__ZNSt3__112basic_stringIcNS_11char_traitsIcEENS_9allocatorIcEEE6__initEPKcm U 0 0
__ZNSt3__112basic_stringIcNS_11char_traitsIcEENS_9allocatorIcEEED1Ev U 0 0
__ZNSt3__113random_deviceC1ERKNS_12basic_stringIcNS_11char_traitsIcEENS_9allocatorIcEEEE U 0 0
__ZNSt3__113random_deviceD1Ev U 0 0
__ZNSt3__113random_deviceclEv U 0 0
__ZNSt3__120__throw_system_errorEiPKc U 0 0
__ZNSt9exceptionD2Ev U 0 0
__ZSt7nothrow U 0 0
__ZSt9terminatev U 0 0
__ZTI10QScrollBar U 0 0
__ZTI10QTableView U 0 0
__ZTI10QValidator U 0 0
__ZTI11QDockWidget U 0 0
__ZTI11QHeaderView U 0 0
__ZTI11QMainWindow U 0 0
__ZTI11QProxyStyle U 0 0
__ZTI11QPushButton U 0 0
__ZTI11QScrollArea U 0 0
__ZTI11QToolButton U 0 0
__ZTI12QApplication U 0 0
__ZTI12QButtonGroup U 0 0
__ZTI12QUndoCommand U 0 0
__ZTI13QGraphicsItem U 0 0
__ZTI13QGraphicsView U 0 0
__ZTI13QItemDelegate U 0 0
__ZTI14QDoubleSpinBox U 0 0
__ZTI14QGraphicsScene U 0 0
__ZTI14QPlainTextEdit U 0 0
__ZTI15QGraphicsObject U 0 0
__ZTI16QKeySequenceEdit U 0 0
__ZTI17QAbstractItemView U 0 0
__ZTI18QAbstractItemModel U 0 0
__ZTI18QAbstractListModel U 0 0
__ZTI19QAbstractTableModel U 0 0
__ZTI19QIdentityProxyModel U 0 0
__ZTI19QStyledItemDelegate U 0 0
__ZTI20QFutureInterfaceBase U 0 0
__ZTI21QAbstractItemDelegate U 0 0
__ZTI21QSortFilterProxyModel U 0 0
__ZTI22QItemEditorCreatorBase U 0 0
__ZTI6QFrame U 0 0
__ZTI6QLabel U 0 0
__ZTI7QAction U 0 0
__ZTI7QDialog U 0 0
__ZTI7QLayout U 0 0
__ZTI7QObject U 0 0
__ZTI7QSlider U 0 0
__ZTI7QTabBar U 0 0
__ZTI7QWidget U 0 0
__ZTI8QProcess U 0 0
__ZTI8QSpinBox U 0 0
__ZTI8QToolBar U 0 0
__ZTI9QComboBox U 0 0
__ZTI9QLineEdit U 0 0
__ZTI9QListView U 0 0
__ZTI9QSettings U 0 0
__ZTI9QTreeView U 0 0
__ZTIN12QtConcurrent16ThreadEngineBaseE U 0 0
__ZTIN5Tiled10MainWindowE S 793068 0
__ZTIN5Tiled11MapDocumentE S 793650 0
__ZTIN5Tiled11MapRendererE U 0 0
__ZTIN5Tiled11ObjectGroupE U 0 0
__ZTIN5Tiled11PreferencesE S 7990b0 0
__ZTIN5Tiled11SelectLayerE S 785738 0
__ZTIN5Tiled11StyleHelperE S 7ade90 0
__ZTIN5Tiled12JumpToObjectE S 7857d0 0
__ZTIN5Tiled12WorldManagerE S 7b6948 0
__ZTIN5Tiled13ScriptManagerE S 7aba08 0
__ZTIN5Tiled13TilesetFormatE U 0 0
__ZTIN5Tiled14ProjectManagerE S 799bb8 0
__ZTIN5Tiled16TiledApplicationE S 7af2e8 0
__ZTIN5Tiled17HexagonalRendererE U 0 0
__ZTIN5Tiled20SelectCustomPropertyE S 7856a0 0
__ZTIN5Tiled4TileE U 0 0
__ZTIN5Tiled5LayerE S 7838a8 0
__ZTIN5Tiled5WorldE S 7b6980 0
__ZTIN5Tiled6ObjectE U 0 0
__ZTIN5Tiled7ProjectE S 799368 0
__ZTIN5Tiled9MapFormatE U 0 0
__ZTIN5Tiled9MapObjectE S 788368 0
__ZTIN5Tiled9TileLayerE U 0 0
__ZTINSt3__110__function6__baseIF4QUrlvEEE S 79a9a0 0
__ZTINSt3__110__function6__baseIF5QFontvEEE S 79d3a0 0
__ZTINSt3__110__function6__baseIF5QRectvEEE S 79d910 0
__ZTINSt3__110__function6__baseIF5QSizevEEE S 79dcb0 0
__ZTINSt3__110__function6__baseIF6QColorvEEE S 79d1d0 0
__ZTINSt3__110__function6__baseIF6QImage5QSizeEEE S 793258 0
__ZTINSt3__110__function6__baseIF6QRectFvEEE S 79dae0 0
__ZTINSt3__110__function6__baseIF6QSizeFvEEE S 79de80 0
__ZTINSt3__110__function6__baseIF7QStringvEEE S 79ca60 0
__ZTINSt3__110__function6__baseIF8QVariantvEEE S 79c890 0
__ZTINSt3__110__function6__baseIFN5Tiled11ObjectGroup9DrawOrderEvEEE S 7a0670 0
__ZTINSt3__110__function6__baseIFN5Tiled3Map11OrientationEvEEE S 7a16e8 0
__ZTINSt3__110__function6__baseIFN5Tiled3Map11RenderOrderEvEEE S 7a2c48 0
__ZTINSt3__110__function6__baseIFN5Tiled3Map11StaggerAxisEvEEE S 7a1de0 0
__ZTINSt3__110__function6__baseIFN5Tiled3Map12StaggerIndexEvEEE S 7a2158 0
__ZTINSt3__110__function6__baseIFN5Tiled3Map15LayerDataFormatEvEEE S 7a26d0 0
__ZTINSt3__110__function6__baseIFN5Tiled7Tileset11OrientationEvEEE S 7a3e28 0
__ZTINSt3__110__function6__baseIFN5Tiled7Tileset14TileRenderSizeEvEEE S 7a3638 0
__ZTINSt3__110__function6__baseIFN5Tiled7Tileset8FillModeEvEEE S 7a39b0 0
__ZTINSt3__110__function6__baseIFN5Tiled7WangSet4TypeEvEEE S 7a4d00 0
__ZTINSt3__110__function6__baseIFN5Tiled9ObjectRefEvEEE S 7b41c8 0
__ZTINSt3__110__function6__baseIFbPKvPvEEE S 78b8f8 0
__ZTINSt3__110__function6__baseIFbPN5Tiled10FileFormatEEEE S 78b290 0
__ZTINSt3__110__function6__baseIFbPN5Tiled13TilesetFormatEEEE S 7b0fa0 0
__ZTINSt3__110__function6__baseIFbPN5Tiled9MapFormatEEEE S 793908 0
__ZTINSt3__110__function6__baseIFbPvS2_EEE S 78bab8 0
__ZTINSt3__110__function6__baseIFbRKN5Tiled4CellEEEE S 785170 0
__ZTINSt3__110__function6__baseIFbvEEE S 79d000 0
__ZTINSt3__110__function6__baseIFdvEEE S 79ce30 0
__ZTINSt3__110__function6__baseIFivEEE S 79a728 0
__ZTINSt3__110__function6__baseIFvN5Tiled11ObjectGroup9DrawOrderEEEE S 7a0758 0
__ZTINSt3__110__function6__baseIFvN5Tiled3Map11OrientationEEEE S 7a17d0 0
__ZTINSt3__110__function6__baseIFvN5Tiled3Map11RenderOrderEEEE S 7a2d30 0
__ZTINSt3__110__function6__baseIFvN5Tiled3Map11StaggerAxisEEEE S 7a1ec8 0
__ZTINSt3__110__function6__baseIFvN5Tiled3Map12StaggerIndexEEEE S 7a2240 0
__ZTINSt3__110__function6__baseIFvN5Tiled3Map15LayerDataFormatEEEE S 7a27b8 0
__ZTINSt3__110__function6__baseIFvN5Tiled7Tileset11OrientationEEEE S 7a3f10 0
__ZTINSt3__110__function6__baseIFvN5Tiled7Tileset14TileRenderSizeEEEE S 7a3720 0
__ZTINSt3__110__function6__baseIFvN5Tiled7Tileset8FillModeEEEE S 7a3a98 0
__ZTINSt3__110__function6__baseIFvN5Tiled7WangSet4TypeEEEE S 7a4de8 0
__ZTINSt3__110__function6__baseIFvPN5Tiled10FileFormatEEEE S 793170 0
__ZTINSt3__110__function6__baseIFvPN5Tiled13TilesetFormatEEEE S 785e90 0
__ZTINSt3__110__function6__baseIFvPN5Tiled20ObjectTemplateFormatEEEE S 7839d0 0
__ZTINSt3__110__function6__baseIFvPN5Tiled9MapFormatEEEE S 7843d0 0
__ZTINSt3__110__function6__baseIFvR8QPainterPKN5Tiled9MapObjectERKNS4_11MapRendererEEEE S 78f148 0
__ZTINSt3__110__function6__baseIFvRK4QUrlEEE S 79aa88 0
__ZTINSt3__110__function6__baseIFvRK5QFontEEE S 79d488 0
__ZTINSt3__110__function6__baseIFvRK5QRectEEE S 79d9f8 0
__ZTINSt3__110__function6__baseIFvRK5QSizeEEE S 79dd98 0
__ZTINSt3__110__function6__baseIFvRK6QColorEEE S 79d2b8 0
__ZTINSt3__110__function6__baseIFvRK6QRectFEEE S 79dbc8 0
__ZTINSt3__110__function6__baseIFvRK6QSizeFEEE S 79df68 0
__ZTINSt3__110__function6__baseIFvRK7QStringEEE S 79cb48 0
__ZTINSt3__110__function6__baseIFvRK8QVariantEEE S 79c978 0
__ZTINSt3__110__function6__baseIFvRKN5Tiled10JumpToTileEEEE S 78ae08 0
__ZTINSt3__110__function6__baseIFvRKN5Tiled10SelectTileEEEE S 78b1a8 0
__ZTINSt3__110__function6__baseIFvRKN5Tiled11SelectLayerEEEE S 78afd8 0
__ZTINSt3__110__function6__baseIFvRKN5Tiled12JumpToObjectEEEE S 78aef0 0
__ZTINSt3__110__function6__baseIFvRKN5Tiled20SelectCustomPropertyEEEE S 78b0c0 0
__ZTINSt3__110__function6__baseIFvRKN5Tiled8OpenFileEEEE S 78ad20 0
__ZTINSt3__110__function6__baseIFvRKN5Tiled9ObjectRefEEEE S 7b42b0 0
__ZTINSt3__110__function6__baseIFvRKbEEE S 79d0e8 0
__ZTINSt3__110__function6__baseIFvRKdEEE S 79cf18 0
__ZTINSt3__110__function6__baseIFvRKiEEE S 79a810 0
__ZTINSt3__110__function6__baseIFvvEEE S 785638 0
__ZTINSt3__110__function6__funcIN5Tiled11SelectLayerEFvvEEE S 785720 0
__ZTINSt3__110__function6__funcIN5Tiled12JumpToObjectEFvvEEE S 7857b8 0
__ZTINSt3__110__function6__funcIN5Tiled20SelectCustomPropertyEFvvEEE S 785620 0
__ZTINSt3__117bad_function_callE S 783920 0
__ZTISt12length_error U 0 0
__ZTISt12out_of_range U 0 0
__ZTISt18bad_variant_access U 0 0
__ZTISt19bad_optional_access U 0 0
__ZTISt20bad_array_new_length U 0 0
__ZTISt9bad_alloc U 0 0
__ZTISt9exception U 0 0
__ZTSN5Tiled10MainWindowE S 6e5e18 0
__ZTSN5Tiled11MapDocumentE S 6e6d9c 0
__ZTSN5Tiled11PreferencesE S 6eaf94 0
__ZTSN5Tiled11SelectLayerE S 6d9a65 0
__ZTSN5Tiled11StyleHelperE S 75c79c 0
__ZTSN5Tiled12JumpToObjectE S 6d9adc 0
__ZTSN5Tiled12WorldManagerE S 762ff0 0
__ZTSN5Tiled13ScriptManagerE S 759144 0
__ZTSN5Tiled14ProjectManagerE S 6eb414 0
__ZTSN5Tiled16TiledApplicationE S 75d680 0
__ZTSN5Tiled20SelectCustomPropertyE S 6d9a0f 0
__ZTSN5Tiled5LayerE S 6d8300 0
__ZTSN5Tiled5WorldE S 763021 0
__ZTSN5Tiled7ProjectE S 6eb724 0
__ZTSN5Tiled9MapObjectE S 6daf95 0
__ZTSNSt3__110__function6__baseIF4QUrlvEEE S 6ebd82 0
__ZTSNSt3__110__function6__baseIF5QFontvEEE S 6edf9c 0
__ZTSNSt3__110__function6__baseIF5QRectvEEE S 6f6d1c 0
__ZTSNSt3__110__function6__baseIF5QSizevEEE S 6f2ffe 0
__ZTSNSt3__110__function6__baseIF6QColorvEEE S 6edcf3 0
__ZTSNSt3__110__function6__baseIF6QImage5QSizeEEE S 6e60fb 0
__ZTSNSt3__110__function6__baseIF6QRectFvEEE S 6ee973 0
__ZTSNSt3__110__function6__baseIF6QSizeFvEEE S 6eee96 0
__ZTSNSt3__110__function6__baseIF7QStringvEEE S 6ed07a 0
__ZTSNSt3__110__function6__baseIF8QVariantvEEE S 6ece9a 0
__ZTSNSt3__110__function6__baseIFN5Tiled11ObjectGroup9DrawOrderEvEEE S 6f1160 0
__ZTSNSt3__110__function6__baseIFN5Tiled3Map11OrientationEvEEE S 6f2bf0 0
__ZTSNSt3__110__function6__baseIFN5Tiled3Map11RenderOrderEvEEE S 6f4790 0
__ZTSNSt3__110__function6__baseIFN5Tiled3Map11StaggerAxisEvEEE S 6f34d2 0
__ZTSNSt3__110__function6__baseIFN5Tiled3Map12StaggerIndexEvEEE S 6f3921 0
__ZTSNSt3__110__function6__baseIFN5Tiled3Map15LayerDataFormatEvEEE S 6f4083 0
__ZTSNSt3__110__function6__baseIFN5Tiled7Tileset11OrientationEvEEE S 6f5e11 0
__ZTSNSt3__110__function6__baseIFN5Tiled7Tileset14TileRenderSizeEvEEE S 6f53ec 0
__ZTSNSt3__110__function6__baseIFN5Tiled7Tileset8FillModeEvEEE S 6f5865 0
__ZTSNSt3__110__function6__baseIFN5Tiled7WangSet4TypeEvEEE S 6f71db 0
__ZTSNSt3__110__function6__baseIFN5Tiled9ObjectRefEvEEE S 761520 0
__ZTSNSt3__110__function6__baseIFbPKvPvEEE S 6dd928 0
__ZTSNSt3__110__function6__baseIFbPN5Tiled10FileFormatEEEE S 6dd145 0
__ZTSNSt3__110__function6__baseIFbPN5Tiled13TilesetFormatEEEE S 75f0b3 0
__ZTSNSt3__110__function6__baseIFbPN5Tiled9MapFormatEEEE S 6e7142 0
__ZTSNSt3__110__function6__baseIFbPvS2_EEE S 75ff68 0
__ZTSNSt3__110__function6__baseIFbRKN5Tiled4CellEEEE S 75bce8 0
__ZTSNSt3__110__function6__baseIFbvEEE S 6eda66 0
__ZTSNSt3__110__function6__baseIFdvEEE S 6ed7dd 0
__ZTSNSt3__110__function6__baseIFivEEE S 763210 0
__ZTSNSt3__110__function6__baseIFvN5Tiled11ObjectGroup9DrawOrderEEEE S 6f1280 0
__ZTSNSt3__110__function6__baseIFvN5Tiled3Map11OrientationEEEE S 6f2cdb 0
__ZTSNSt3__110__function6__baseIFvN5Tiled3Map11RenderOrderEEEE S 6f487d 0
__ZTSNSt3__110__function6__baseIFvN5Tiled3Map11StaggerAxisEEEE S 6f35be 0
__ZTSNSt3__110__function6__baseIFvN5Tiled3Map12StaggerIndexEEEE S 6f3a0f 0
__ZTSNSt3__110__function6__baseIFvN5Tiled3Map15LayerDataFormatEEEE S 6f4177 0
__ZTSNSt3__110__function6__baseIFvN5Tiled7Tileset11OrientationEEEE S 6f5f15 0
__ZTSNSt3__110__function6__baseIFvN5Tiled7Tileset14TileRenderSizeEEEE S 6f54f6 0
__ZTSNSt3__110__function6__baseIFvN5Tiled7Tileset8FillModeEEEE S 6f5961 0
__ZTSNSt3__110__function6__baseIFvN5Tiled7WangSet4TypeEEEE S 6f72d2 0
__ZTSNSt3__110__function6__baseIFvPN5Tiled10FileFormatEEEE S 6e600f 0
__ZTSNSt3__110__function6__baseIFvPN5Tiled13TilesetFormatEEEE S 6d9fbe 0
__ZTSNSt3__110__function6__baseIFvPN5Tiled20ObjectTemplateFormatEEEE S 6d8437 0
__ZTSNSt3__110__function6__baseIFvPN5Tiled9MapFormatEEEE S 6d8f1d 0
__ZTSNSt3__110__function6__baseIFvR8QPainterPKN5Tiled9MapObjectERKNS4_11MapRendererEEEE S 6e4c85 0
__ZTSNSt3__110__function6__baseIFvRK4QUrlEEE S 6ebe50 0
__ZTSNSt3__110__function6__baseIFvRK5QFontEEE S 6ee0eb 0
__ZTSNSt3__110__function6__baseIFvRK5QRectEEE S 6f6df6 0
__ZTSNSt3__110__function6__baseIFvRK5QSizeEEE S 6eed42 0
__ZTSNSt3__110__function6__baseIFvRK6QColorEEE S 6ede47 0
__ZTSNSt3__110__function6__baseIFvRK6QRectFEEE S 6eeac4 0
__ZTSNSt3__110__function6__baseIFvRK6QSizeFEEE S 6eefe7 0
__ZTSNSt3__110__function6__baseIFvRK7QStringEEE S 6ed1db 0
__ZTSNSt3__110__function6__baseIFvRK8QVariantEEE S 6ecf67 0
__ZTSNSt3__110__function6__baseIFvRKN5Tiled10JumpToTileEEEE S 6dcd3c 0
__ZTSNSt3__110__function6__baseIFvRKN5Tiled10SelectTileEEEE S 6dd056 0
__ZTSNSt3__110__function6__baseIFvRKN5Tiled11SelectLayerEEEE S 6dcec1 0
__ZTSNSt3__110__function6__baseIFvRKN5Tiled12JumpToObjectEEEE S 6dcdfe 0
__ZTSNSt3__110__function6__baseIFvRKN5Tiled20SelectCustomPropertyEEEE S 6dcf8c 0
__ZTSNSt3__110__function6__baseIFvRKN5Tiled8OpenFileEEEE S 6dcc7f 0
__ZTSNSt3__110__function6__baseIFvRKN5Tiled9ObjectRefEEEE S 761669 0
__ZTSNSt3__110__function6__baseIFvRKbEEE S 6edba9 0
__ZTSNSt3__110__function6__baseIFvRKdEEE S 6ed922 0
__ZTSNSt3__110__function6__baseIFvRKiEEE S 6ed69a 0
__ZTSNSt3__110__function6__baseIFvvEEE S 6f8428 0
__ZTSNSt3__110__function6__funcIN5Tiled11SelectLayerEFvvEEE S 6d9a2e 0
__ZTSNSt3__110__function6__funcIN5Tiled12JumpToObjectEFvvEEE S 6d9aa4 0
__ZTSNSt3__110__function6__funcIN5Tiled20SelectCustomPropertyEFvvEEE S 6d99cf 0
__ZTSNSt3__117bad_function_callE S 6d8e7c 0
__ZTV11QLayoutItem U 0 0
__ZTV11QSpacerItem U 0 0
__ZTV18QItemEditorFactory U 0 0
__ZTV22QItemEditorCreatorBase U 0 0
__ZTV6QImage U 0 0
__ZTV7QPixmap U 0 0
__ZTVN10__cxxabiv117__class_type_infoE U 0 0
__ZTVN10__cxxabiv120__si_class_type_infoE U 0 0
__ZTVN10__cxxabiv121__vmi_class_type_infoE U 0 0
__ZTVN5Tiled10MainWindowE S 792e20 0
__ZTVN5Tiled11MapDocumentE S 7932d0 0
__ZTVN5Tiled11PreferencesE S 798cb0 0
__ZTVN5Tiled11StyleHelperE S 7addd8 0
__ZTVN5Tiled12PropertyTypeE U 0 0
__ZTVN5Tiled12TmxMapFormatE U 0 0
__ZTVN5Tiled12WorldManagerE S 7b6870 0
__ZTVN5Tiled13ScriptManagerE S 7ab940 0
__ZTVN5Tiled13TilesetFormatE U 0 0
__ZTVN5Tiled14ProjectManagerE S 799b00 0
__ZTVN5Tiled16EnumPropertyTypeE U 0 0
__ZTVN5Tiled16TiledApplicationE S 7af218 0
__ZTVN5Tiled16TsxTilesetFormatE U 0 0
__ZTVN5Tiled17ClassPropertyTypeE U 0 0
__ZTVN5Tiled17FileSystemWatcherE U 0 0
__ZTVN5Tiled23XmlObjectTemplateFormatE U 0 0
__ZTVN5Tiled6ObjectE U 0 0
__ZTVN5Tiled9MapFormatE U 0 0
__ZTVN5Tiled9TileLayerE U 0 0
__ZTVSt12length_error U 0 0
__ZTVSt12out_of_range U 0 0
__ZTVSt18bad_variant_access U 0 0
__ZTVSt19bad_optional_access U 0 0
__ZTVSt9exception U 0 0
__ZThn16_N5Tiled10MainWindowD0Ev T 2bee40 0
__ZThn16_N5Tiled10MainWindowD1Ev T 2bedf0 0
__ZThn16_N7QLayout10invalidateEv U 0 0
__ZThn16_N7QLayout6layoutEv U 0 0
__ZThn16_NK7QLayout11maximumSizeEv U 0 0
__ZThn16_NK7QLayout12controlTypesEv U 0 0
__ZThn16_NK7QLayout7isEmptyEv U 0 0
__ZThn16_NK7QLayout8geometryEv U 0 0
__ZThn16_NK7QWidget10redirectedEP6QPoint U 0 0
__ZThn16_NK7QWidget11initPainterEP8QPainter U 0 0
__ZThn16_NK7QWidget11paintEngineEv U 0 0
__ZThn16_NK7QWidget13sharedPainterEv U 0 0
__ZThn16_NK7QWidget6metricEN12QPaintDevice17PaintDeviceMetricE U 0 0
__ZThn16_NK7QWidget7devTypeEv U 0 0
__ZdaPv U 0 0
__ZdlPv U 0 0
__ZdlPvSt11align_val_t U 0 0
__ZeqRK7QCursorS1_ U 0 0
__Zls6QDebugPK7QObject U 0 0
__Zls6QDebugPK7QWidget U 0 0
__Zls6QDebugRK12QKeySequence U 0 0
__Zls6QDebugRK21QPersistentModelIndex U 0 0
__Zls6QDebugRK4QUrl U 0 0
__Zls6QDebugRK5QFont U 0 0
__Zls6QDebugRK5QIcon U 0 0
__Zls6QDebugRK6QColor U 0 0
__Zls6QDebugRK6QPoint U 0 0
__Zls6QDebugRK7QCursor U 0 0
__Zls6QDebugRK7QPixmap U 0 0
__Zls6QDebugRK7QRegion U 0 0
__Zls6QDebugRK9QPolygonF U 0 0
__ZlsR11QDataStreamRK12QKeySequence U 0 0
__ZlsR11QDataStreamRK4QUrl U 0 0
__ZlsR11QDataStreamRK5QFont U 0 0
__ZlsR11QDataStreamRK5QIcon U 0 0
__ZlsR11QDataStreamRK5QRect U 0 0
__ZlsR11QDataStreamRK6QColor U 0 0
__ZlsR11QDataStreamRK6QPoint U 0 0
__ZlsR11QDataStreamRK7QCursor U 0 0
__ZlsR11QDataStreamRK7QPixmap U 0 0
__ZlsR11QDataStreamRK7QRegion U 0 0
__ZlsR11QDataStreamRK8QJSValue U 0 0
__ZlsR11QDataStreamRK9QPolygonF U 0 0
__Znam U 0 0
__Znwm U 0 0
__ZnwmRKSt9nothrow_t U 0 0
__ZnwmSt11align_val_t U 0 0
__ZrsR11QDataStreamR12QKeySequence U 0 0
__ZrsR11QDataStreamR4QUrl U 0 0
__ZrsR11QDataStreamR5QFont U 0 0
__ZrsR11QDataStreamR5QIcon U 0 0
__ZrsR11QDataStreamR5QRect U 0 0
__ZrsR11QDataStreamR6QColor U 0 0
__ZrsR11QDataStreamR6QPoint U 0 0
__ZrsR11QDataStreamR7QCursor U 0 0
__ZrsR11QDataStreamR7QPixmap U 0 0
__ZrsR11QDataStreamR7QRegion U 0 0
__ZrsR11QDataStreamR8QJSValue U 0 0
__ZrsR11QDataStreamR9QPolygonF U 0 0
____chkstk_darwin U 0 0
___cxa_allocate_exception U 0 0
___cxa_atexit U 0 0
___cxa_begin_catch U 0 0
___cxa_end_catch U 0 0
___cxa_free_exception U 0 0
___cxa_guard_abort U 0 0
___cxa_guard_acquire U 0 0
___cxa_guard_release U 0 0
___cxa_pure_virtual U 0 0
___cxa_rethrow U 0 0
___cxa_throw U 0 0
___dynamic_cast U 0 0
___error U 0 0
___gxx_personality_v0 U 0 0
___stack_chk_fail U 0 0
___stack_chk_guard U 0 0
__tlv_bootstrap U 0 0
_atan2 U 0 0
_cos U 0 0
_fmod U 0 0
_free U 0 0
_getuid U 0 0
_hypotf U 0 0
_lstat$INODE64 U 0 0
_malloc U 0 0
_memchr U 0 0
_memcmp U 0 0
_memcpy U 0 0
_memmove U 0 0
_memset U 0 0
_nanosleep U 0 0
_qVersion U 0 0
_qt_resourceFeatureZstd U 0 0
_qt_version_tag_6_11 U 0 0
_readlink U 0 0
_sin U 0 0
_strcmp U 0 0
_strlen U 0 0
_symlink U 0 0
_unlink U 0 0
===
__ZN5Tiled10AutoMapper10addWarningERK7QStringNSt3__18functionIFvvEEE T 9e3d0 0
__ZN5Tiled10AutoMapper10setupRulesEv T 9ced0 0
__ZN5Tiled10AutoMapper18setupRuleMapLayersEv T 9b360 0
__ZN5Tiled10AutoMapper20setupRuleOptionsAreaERNS_15RuleOptionsAreaEPKNS_9MapObjectE T 9f5a0 0
__ZN5Tiled10AutoMapper22setupRuleMapPropertiesEv T 9ac30 0
__ZN5Tiled10AutoMapper24setupOutputSetPropertiesERNS_9OutputSetERNS_12RuleMapSetupE T 9f0c0 0
__ZN5Tiled10AutoMapper25setupInputLayerPropertiesERNS_10InputLayerE T 9e7e0 0
__ZN5Tiled10AutoMapperC1ENSt3__110unique_ptrINS_3MapENS1_14default_deleteIS3_EEEE T 9dc30 0
__ZN5Tiled10AutoMapperC2ENSt3__110unique_ptrINS_3MapENS1_14default_deleteIS3_EEEE T 9a9b0 0
__ZN5Tiled10AutoMapperD1Ev T 9dcd0 0
__ZN5Tiled10AutoMapperD2Ev T 9dc50 0
__ZN5Tiled10MainWindow10aboutTiledEv T 2bc020 0
__ZN5Tiled10MainWindow10closeEventEP11QCloseEvent T 2befd0 0
__ZN5Tiled10MainWindow10commitDataER15QSessionManager T 2be0f0 0
__ZN5Tiled10MainWindow10newProjectEv T 2bb450 0
__ZN5Tiled10MainWindow10newTilesetERK7QString T 2c7c30 0
__ZN5Tiled10MainWindow10saveFileAsEv T 2b8a20 0
__ZN5Tiled10MainWindow10zoomNormalEv T 2b9430 0
__ZN5Tiled10MainWindow11changeEventEP6QEvent T 2bf150 0
__ZN5Tiled10MainWindow11confirmSaveEPNS_8DocumentE T 2c3cf0 0
__ZN5Tiled10MainWindow11exportMapAsEPNS_11MapDocumentE T 2c5280 0
__ZN5Tiled10MainWindow11qt_metacallEN11QMetaObject4CallEiPPv T 2cadf0 0
__ZN5Tiled10MainWindow11qt_metacastEPKc T 2cad80 0
__ZN5Tiled10MainWindow11reloadErrorERK7QString T 2bd680 0
__ZN5Tiled10MainWindow11resizeEventEP12QResizeEvent T 2c2c20 0
__ZN5Tiled10MainWindow12closeProjectEv T 2bbaf0 0
__ZN5Tiled10MainWindow12pasteInPlaceEv T 2b9150 0
__ZN5Tiled10MainWindow12readSettingsEv T 2be370 0
__ZN5Tiled10MainWindow13closeAllFilesEv T 2b8f60 0
__ZN5Tiled10MainWindow13closeDocumentEi T 2bd530 0
__ZN5Tiled10MainWindow13documentSavedEPNS_8DocumentE T 2bd720 0
__ZN5Tiled10MainWindow13exportAsImageEv T 2b8d60 0
__ZN5Tiled10MainWindow13restoreLayoutEv T 2c2c80 0
__ZN5Tiled10MainWindow13retranslateUiEv T 2c1ef0 0
__ZN5Tiled10MainWindow13searchActionsEv T 2b85c0 0
__ZN5Tiled10MainWindow13setFullScreenEb T 2b9580 0
__ZN5Tiled10MainWindow13switchProjectENSt3__110unique_ptrINS_7ProjectENS1_14default_deleteIS3_EEEE T 2c61c0 0
__ZN5Tiled10MainWindow13updateActionsEv T 2b6ab0 0
__ZN5Tiled10MainWindow13writeSettingsEv T 2bf030 0
__ZN5Tiled10MainWindow14confirmAllSaveEv T 2bee60 0
__ZN5Tiled10MainWindow14createNewWorldERK7QString T 2c4060 0
__ZN5Tiled10MainWindow14dragEnterEventEP15QDragEnterEvent T 2c2240 0
__ZN5Tiled10MainWindow14exportDocumentEPNS_8DocumentE T 2c4b80 0
__ZN5Tiled10MainWindow14openFileDialogEv T 2b7ef0 0
__ZN5Tiled10MainWindow14openRecentFileEv T 2bc1a0 0
__ZN5Tiled10MainWindow14restoreSessionEv T 2c3490 0
__ZN5Tiled10MainWindow14updateZoomableEv T 2c8a40 0
__ZN5Tiled10MainWindow15documentChangedEPNS_8DocumentE T 2bd0f0 0
__ZN5Tiled10MainWindow15exportTilesetAsEPNS_15TilesetDocumentE T 2c5be0 0
__ZN5Tiled10MainWindow15openPreferencesEv T 2b91d0 0
__ZN5Tiled10MainWindow15openProjectFileERK7QString T 2c3680 0
__ZN5Tiled10MainWindow15setLayoutLockedEb T 2bdca0 0
__ZN5Tiled10MainWindow15toggleClearViewEb T 2b9620 0
__ZN5Tiled10MainWindow16autoMappingErrorEb T 2be670 0
__ZN5Tiled10MainWindow16confirmSaveWorldEPNS_13WorldDocumentE T 2c3e80 0
__ZN5Tiled10MainWindow16reopenClosedFileEv T 2b86a0 0
__ZN5Tiled10MainWindow16staticMetaObjectE S 793030 0
__ZN5Tiled10MainWindow17editMapPropertiesEv T 2bb090 0
__ZN5Tiled10MainWindow17initializeSessionEv T 2c2e80 0
__ZN5Tiled10MainWindow17openDocumentationEv T 2bbdd0 0
__ZN5Tiled10MainWindow17openFileInProjectEv T 2b8550 0
__ZN5Tiled10MainWindow17openRecentProjectEv T 2c84f0 0
__ZN5Tiled10MainWindow17projectPropertiesEv T 2bbc80 0
__ZN5Tiled10MainWindow17showDonationPopupEv T 2c8fd0 0
__ZN5Tiled10MainWindow17showLocatorWidgetEPNS_13LocatorSourceE T 2c38e0 0
__ZN5Tiled10MainWindow17updateWindowTitleEv T 2c30d0 0
__ZN5Tiled10MainWindow17updateZoomActionsEv T 2be220 0
__ZN5Tiled10MainWindow18addExternalTilesetEv T 2b9c10 0
__ZN5Tiled10MainWindow18autoMappingWarningEb T 2be570 0
__ZN5Tiled10MainWindow19editWorldPropertiesEv T 2bb150 0
__ZN5Tiled10MainWindow19reloadTilesetImagesEv T 2b7940 0
__ZN5Tiled10MainWindow19updatePopupGeometryE5QSize T 2c2d30 0
__ZN5Tiled10MainWindow20currentEditorChangedEPNS_6EditorE T 2bd840 0
__ZN5Tiled10MainWindow20resetToDefaultLayoutEv T 2bdba0 0
__ZN5Tiled10MainWindow21editTilesetPropertiesEv T 2bb0f0 0
__ZN5Tiled10MainWindow21updateRecentFilesMenuEv T 2be850 0
__ZN5Tiled10MainWindow21updateSnappingActionsENS_8SnapModeE T 2c8420 0
__ZN5Tiled10MainWindow22openCrashReporterPopupEv T 2c6b00 0
__ZN5Tiled10MainWindow24updateRecentProjectsMenuEv T 2beb30 0
__ZN5Tiled10MainWindow26addAutomappingRulesTilesetEv T 2ba0c0 0
__ZN5Tiled10MainWindow26openProjectExtensionsPopupEv T 2c64c0 0
__ZN5Tiled10MainWindow26updateViewsAndToolbarsMenuEv T 2bc710 0
__ZN5Tiled10MainWindow27ensureHasBorderInFullScreenEv T 2c84c0 0
__ZN5Tiled10MainWindow27onPropertyTypesEditorClosedEv T 2bcc30 0
__ZN5Tiled10MainWindow30labelVisibilityActionTriggeredEP7QAction T 2b7710 0
__ZN5Tiled10MainWindow3cutEv T 2b9090 0
__ZN5Tiled10MainWindow4copyEv T 2b90d0 0
__ZN5Tiled10MainWindow5eventEP6QEvent T 2befa0 0
__ZN5Tiled10MainWindow5pasteEv T 2b9110 0
__ZN5Tiled10MainWindow6newMapEv T 2b7cb0 0
__ZN5Tiled10MainWindow6reloadEv T 2b8ec0 0
__ZN5Tiled10MainWindow6zoomInEv T 2b93d0 0
__ZN5Tiled10MainWindow7delete_Ev T 2b9190 0
__ZN5Tiled10MainWindow7export_Ev T 2b8e20 0
__ZN5Tiled10MainWindow7saveAllEv T 2b8a90 0
__ZN5Tiled10MainWindow7zoomOutEv T 2b9400 0
__ZN5Tiled10MainWindow8exportAsEv T 2b8e50 0
__ZN5Tiled10MainWindow8goToTileEv T 2b8630 0
__ZN5Tiled10MainWindow8openFileERK7QStringPNS_10FileFormatE T 2c2550 0
__ZN5Tiled10MainWindow8saveFileEv T 2b8910 0
__ZN5Tiled10MainWindow9closeFileEv T 2b8f10 0
__ZN5Tiled10MainWindow9dropEventEP10QDropEvent T 2c23f0 0
__ZN5Tiled10MainWindow9fitInViewEv T 2b9460 0
__ZN5Tiled10MainWindow9mInstanceE S 7c48a8 0
__ZN5Tiled10MainWindow9offsetMapEv T 2badb0 0
__ZN5Tiled10MainWindow9openForumEv T 2bbe70 0
__ZN5Tiled10MainWindow9resizeMapEv T 2baa70 0
__ZN5Tiled10MainWindow9showPopupEP7QWidget T 2c6d00 0
__ZN5Tiled10MainWindowC1EP7QWidget6QFlagsIN2Qt10WindowTypeEE T 2bec70 0
__ZN5Tiled10MainWindowC2EP7QWidget6QFlagsIN2Qt10WindowTypeEE T 2a5090 0
__ZN5Tiled10MainWindowD0Ev T 2bee10 0
__ZN5Tiled10MainWindowD1Ev T 2bedd0 0
__ZN5Tiled10MainWindowD2Ev T 2beca0 0
__ZN5Tiled11MapDocument10layerAddedEPNS_5LayerE T 2f4de0 0
__ZN5Tiled11MapDocument10mapResizedEv T 2f8780 0
__ZN5Tiled11MapDocument11autocropMapEv T 2edef0 0
__ZN5Tiled11MapDocument11checkIssuesEv T 2f4f90 0
__ZN5Tiled11MapDocument11groupLayersERK5QListIPNS_5LayerEE T 2ef000 0
__ZN5Tiled11MapDocument11qt_metacallEN11QMetaObject4CallEiPPv T 2f9340 0
__ZN5Tiled11MapDocument11qt_metacastEPKc T 2f92d0 0
__ZN5Tiled11MapDocument12layerRemovedEPNS_5LayerE T 2f4f50 0
__ZN5Tiled11MapDocument12moveLayersUpERK5QListIPNS_5LayerEE T 2f06e0 0
__ZN5Tiled11MapDocument12onLayerAddedEPNS_5LayerE T 2eadf0 0
__ZN5Tiled11MapDocument12regionEditedERK7QRegionPNS_9TileLayerE T 2f2c40 0
__ZN5Tiled11MapDocument12removeLayersERK5QListIPNS_5LayerEE T 2f0d70 0
__ZN5Tiled11MapDocument12tilesetAddedEiPNS_7TilesetE T 2f11f0 0
__ZN5Tiled11MapDocument12toggleLayersE5QListIPNS_5LayerEE T 2f1000 0
__ZN5Tiled11MapDocument13detachObjectsERK5QListIPNS_9MapObjectEE T 2f79e0 0
__ZN5Tiled11MapDocument13insertTilesetEiRK14QSharedPointerINS_7TilesetEE T 2f1140 0
__ZN5Tiled11MapDocument13moveObjectsUpERK5QListIPNS_9MapObjectEE T 2f6e80 0
__ZN5Tiled11MapDocument13regionChangedERK7QRegionPNS_9TileLayerE T 2f87b0 0
__ZN5Tiled11MapDocument13removeObjectsERK5QListIPNS_9MapObjectEE T 2f6b40 0
__ZN5Tiled11MapDocument13ungroupLayersERK5QListIPNS_5LayerEE T 2ef430 0
__ZN5Tiled11MapDocument13unifyTilesetsERNS_3MapE T 2f4200 0
__ZN5Tiled11MapDocument14createEditableEv T 2eca70 0
__ZN5Tiled11MapDocument14createRendererEv T 2eacc0 0
__ZN5Tiled11MapDocument14moveLayersDownERK5QListIPNS_5LayerEE T 2f09d0 0
__ZN5Tiled11MapDocument14onLayerRemovedEPNS_5LayerE T 2eb070 0
__ZN5Tiled11MapDocument14onObjectsMovedERK11QModelIndexiiS3_i T 2eb5c0 0
__ZN5Tiled11MapDocument14replaceTilesetEiRK14QSharedPointerINS_7TilesetEE T 2f1360 0
__ZN5Tiled11MapDocument14tilesetRemovedEPNS_7TilesetE T 2f1320 0
__ZN5Tiled11MapDocument15deselectObjectsERK5QListIPNS_9MapObjectEE T 2f4be0 0
__ZN5Tiled11MapDocument15duplicateLayersERK5QListIPNS_5LayerEE T 2ef820 0
__ZN5Tiled11MapDocument15eraseTileLayersERK7QRegionbbRK7QString T 2f2d10 0
__ZN5Tiled11MapDocument15mapObjectPickedEPNS_9MapObjectE T 2f8740 0
__ZN5Tiled11MapDocument15mergeLayersDownERK5QListIPNS_5LayerEE T 2f00c0 0
__ZN5Tiled11MapDocument15moveObjectsDownERK5QListIPNS_9MapObjectEE T 2f75f0 0
__ZN5Tiled11MapDocument15objectsInsertedEPNS_11ObjectGroupEii T 2f4d40 0
__ZN5Tiled11MapDocument15paintTileLayersERKNS_3MapEbP5QListI14QSharedPointerINS_7TilesetEEEP5QHashIPNS_9TileLayerE7QRegionE T 2f1c50 0
__ZN5Tiled11MapDocument15removeTilesetAtEi T 2f1230 0
__ZN5Tiled11MapDocument15setCurrentLayerEPNS_5LayerE T 2ecbe0 0
__ZN5Tiled11MapDocument15setExportFormatEPNS_10FileFormatE T 2ec8e0 0
__ZN5Tiled11MapDocument15setReaderFormatEPNS_9MapFormatE T 2ec6c0 0
__ZN5Tiled11MapDocument15setSelectedAreaERK7QRegion T 2f37c0 0
__ZN5Tiled11MapDocument15setWriterFormatEPNS_9MapFormatE T 2ec750 0
__ZN5Tiled11MapDocument15tilesetReplacedEiPNS_7TilesetES2_ T 2f1490 0
__ZN5Tiled11MapDocument16duplicateObjectsERK5QListIPNS_9MapObjectEE T 2f66b0 0
__ZN5Tiled11MapDocument16staticMetaObjectE S 793618 0
__ZN5Tiled11MapDocument16tileLayerChangedEPNS_9TileLayerE6QFlagsINS0_19TileLayerChangeFlagEE T 2f87f0 0
__ZN5Tiled11MapDocument16toggleLockLayersE5QListIPNS_5LayerEE T 2f1070 0
__ZN5Tiled11MapDocument17setSelectedLayersERK5QListIPNS_5LayerEE T 2ecca0 0
__ZN5Tiled11MapDocument17toggleOtherLayersERK5QListIPNS_5LayerEE T 2f10e0 0
__ZN5Tiled11MapDocument18moveObjectsToGroupERK5QListIPNS_9MapObjectEEPNS_11ObjectGroupE T 2f6c40 0
__ZN5Tiled11MapDocument18selectAllInstancesEPKNS_14ObjectTemplateE T 2f6450 0
__ZN5Tiled11MapDocument18setSelectedObjectsERK5QListIPNS_9MapObjectEE T 2f3ba0 0
__ZN5Tiled11MapDocument18switchCurrentLayerEPNS_5LayerE T 2ecd60 0
__ZN5Tiled11MapDocument18tilesetNameChangedEPNS_7TilesetE T 2f8830 0
__ZN5Tiled11MapDocument19currentLayerChangedEPNS_5LayerE T 2ecc60 0
__ZN5Tiled11MapDocument19flipSelectedObjectsENS_13FlipDirectionE T 2ee2d0 0
__ZN5Tiled11MapDocument19objectsIndexChangedEPNS_11ObjectGroupEii T 2f4d90 0
__ZN5Tiled11MapDocument19selectedAreaChangedERK7QRegionS3_ T 2f3860 0
__ZN5Tiled11MapDocument19setHoveredMapObjectEPNS_9MapObjectE T 2f4160 0
__ZN5Tiled11MapDocument20mapObjectPickRequestEv T 2f86e0 0
__ZN5Tiled11MapDocument20switchSelectedLayersERK5QListIPNS_5LayerEE T 2ece60 0
__ZN5Tiled11MapDocument21layerAboutToBeRemovedEPNS_10GroupLayerEi T 2f4f10 0
__ZN5Tiled11MapDocument21replaceObjectTemplateEPKNS_14ObjectTemplateES3_ T 2f3650 0
__ZN5Tiled11MapDocument21rotateSelectedObjectsENS_15RotateDirectionE T 2ee4f0 0
__ZN5Tiled11MapDocument21selectedLayersChangedEv T 2ecd30 0
__ZN5Tiled11MapDocument21setLastExportFileNameERK7QString T 2ec860 0
__ZN5Tiled11MapDocument21tilesetAboutToBeAddedEi T 2f11b0 0
__ZN5Tiled11MapDocument21toggleLockOtherLayersERK5QListIPNS_5LayerEE T 2f1110 0
__ZN5Tiled11MapDocument22editLayerNameRequestedEv T 2eefd0 0
__ZN5Tiled11MapDocument22objectTemplateReplacedEPKNS_14ObjectTemplateES3_ T 2f3780 0
__ZN5Tiled11MapDocument22selectedObjectsChangedEv T 2f3d30 0
__ZN5Tiled11MapDocument22tileImageSourceChangedEPNS_4TileE T 2f88b0 0
__ZN5Tiled11MapDocument22tileObjectGroupChangedEPNS_4TileE T 2f8930 0
__ZN5Tiled11MapDocument22tileProbabilityChangedEPNS_4TileE T 2f88f0 0
__ZN5Tiled11MapDocument23focusMapObjectRequestedEPNS_9MapObjectE T 2f86a0 0
__ZN5Tiled11MapDocument23hoveredMapObjectChangedEPNS_9MapObjectES2_ T 2f41c0 0
__ZN5Tiled11MapDocument23onLayerAboutToBeRemovedEPNS_10GroupLayerEi T 2eaf50 0
__ZN5Tiled11MapDocument23tilesetAboutToBeRemovedEi T 2f12e0 0
__ZN5Tiled11MapDocument23updateTemplateInstancesEPKNS_14ObjectTemplateE T 2eb740 0
__ZN5Tiled11MapDocument26cancelMapObjectPickRequestEv T 2f8710 0
__ZN5Tiled11MapDocument27setAboutToBeSelectedObjectsERK5QListIPNS_9MapObjectEE T 2f3d60 0
__ZN5Tiled11MapDocument28onMapObjectModelRowsInsertedERK11QModelIndexii T 2eb400 0
__ZN5Tiled11MapDocument29tilesetTilePositioningChangedEPNS_7TilesetE T 2f8870 0
__ZN5Tiled11MapDocument31aboutToBeSelectedObjectsChangedERK5QListIPNS_9MapObjectEE T 2f3e90 0
__ZN5Tiled11MapDocument37onMapObjectModelRowsInsertedOrRemovedERK11QModelIndexii T 2eb470 0
__ZN5Tiled11MapDocument4loadERK7QStringPNS_9MapFormatEPS1_ T 2ec520 0
__ZN5Tiled11MapDocument4saveERK7QStringPS1_ T 2ebba0 0
__ZN5Tiled11MapDocument6reloadEP7QString T 2ec020 0
__ZN5Tiled11MapDocument7swapMapERNSt3__110unique_ptrINS_3MapENS1_14default_deleteIS3_EEEE T 2f5b60 0
__ZN5Tiled11MapDocument8addLayerENS_5Layer8TypeFlagE T 2ee810 0
__ZN5Tiled11MapDocument9offsetMapERK5QListIPNS_5LayerEE6QPointRK5QRectbbb T 2ee0b0 0
__ZN5Tiled11MapDocument9onChangedERKNS_11ChangeEventE T 2eb270 0
__ZN5Tiled11MapDocument9resizeMapE5QSize6QPointb T 2ecf50 0
__ZN5Tiled11MapDocumentC1ENSt3__110unique_ptrINS_3MapENS1_14default_deleteIS3_EEEE T 2eba30 0
__ZN5Tiled11MapDocumentC2ENSt3__110unique_ptrINS_3MapENS1_14default_deleteIS3_EEEE T 2ea520 0
__ZN5Tiled11MapDocumentD0Ev T 2ebb70 0
__ZN5Tiled11MapDocumentD1Ev T 2ebb50 0
__ZN5Tiled11MapDocumentD2Ev T 2eba50 0
__ZN5Tiled11Preferences10initializeEv T 3c4e20 0
__ZN5Tiled11Preferences11qt_metacallEN11QMetaObject4CallEiPPv T 3cd3c0 0
__ZN5Tiled11Preferences11qt_metacastEPKc T 3cd350 0
__ZN5Tiled11Preferences11setGridFineEi T 3c88a0 0
__ZN5Tiled11Preferences11setLanguageERK7QString T 3c9b10 0
__ZN5Tiled11Preferences11setShowGridEb T 3c7990 0
__ZN5Tiled11Preferences11setSnapModeENS_8SnapModeE T 3c8430 0
__ZN5Tiled11Preferences12homeLocationEv T 3ca710 0
__ZN5Tiled11Preferences12setBaseColorERK6QColor T 3c7190 0
__ZN5Tiled11Preferences12setGridColorE6QColor T 3c8580 0
__ZN5Tiled11Preferences12setGridMajorE5QSize T 3c6620 0
__ZN5Tiled11Preferences12setUseOpenGLEb T 3c9db0 0
__ZN5Tiled11Preferences13addRecentFileERK7QString T 3ca4b0 0
__ZN5Tiled11Preferences13setCustomFontERK5QFont T 3c7850 0
__ZN5Tiled11Preferences13setGridMajorXEi T 3c8a20 0
__ZN5Tiled11Preferences13setGridMajorYEi T 3c8a70 0
__ZN5Tiled11Preferences14deleteInstanceEv T 3c4d60 0
__ZN5Tiled11Preferences14setDisplayNewsEb T 3cb3f0 0
__ZN5Tiled11Preferences14setLastSessionERK7QString T 3cac60 0
__ZN5Tiled11Preferences14startupProjectEv T 3cac00 0
__ZN5Tiled11Preferences15gridFineChangedEi T 3c89a0 0
__ZN5Tiled11Preferences15isPatronChangedEv T 3ca260 0
__ZN5Tiled11Preferences15languageChangedEv T 3c9c30 0
__ZN5Tiled11Preferences15mStartupProjectE S 7c4910 0
__ZN5Tiled11Preferences15mStartupSessionE S 7c4928 0
__ZN5Tiled11Preferences15setExportOnSaveEb T 3c9310 0
__ZN5Tiled11Preferences15setExportOptionENS0_12ExportOptionEb T 3c9510 0
__ZN5Tiled11Preferences15showGridChangedEb T 3c7aa0 0
__ZN5Tiled11Preferences15snapModeChangedENS_8SnapModeE T 3c8540 0
__ZN5Tiled11Preferences16addRecentProjectERK7QString T 3ca740 0
__ZN5Tiled11Preferences16baseColorChangedERK6QColor T 3c72d0 0
__ZN5Tiled11Preferences16clearRecentFilesEv T 3cb1b0 0
__ZN5Tiled11Preferences16gridColorChangedE6QColor T 3c86d0 0
__ZN5Tiled11Preferences16gridMajorChangedE5QSize T 3c89e0 0
__ZN5Tiled11Preferences16setPluginEnabledERK7QStringb T 3cb650 0
__ZN5Tiled11Preferences16setPropertyTypesERK14QSharedPointerINS_13PropertyTypesEE T 3c9f00 0
__ZN5Tiled11Preferences16setShowWorldGridEb T 3c7ae0 0
__ZN5Tiled11Preferences16setUseCustomFontEb T 3c7530 0
__ZN5Tiled11Preferences16staticMetaObjectE S 799078 0
__ZN5Tiled11Preferences16useOpenGLChangedEb T 3c9ec0 0
__ZN5Tiled11Preferences17setMapRenderOrderENS_3Map11RenderOrderE T 3c9100 0
__ZN5Tiled11Preferences17setNaturalSortingEb T 3caeb0 0
__ZN5Tiled11Preferences17setSelectionColorERK6QColor T 3c7380 0
__ZN5Tiled11Preferences17setStartupProjectERK7QString T 3cbd50 0
__ZN5Tiled11Preferences17setStartupSessionERK7QString T 3cbd80 0
__ZN5Tiled11Preferences18displayNewsChangedEb T 3cb500 0
__ZN5Tiled11Preferences18recentFilesChangedEv T 3ca4f0 0
__ZN5Tiled11Preferences18setCheckForUpdatesEb T 3cb270 0
__ZN5Tiled11Preferences18setLayerDataFormatENS_3Map15LayerDataFormatE T 3c8ff0 0
__ZN5Tiled11Preferences18setObjectLineWidthEd T 3c8ac0 0
__ZN5Tiled11Preferences18setObjectTypesFileERK7QString T 3c6250 0
__ZN5Tiled11Preferences18setParallaxEnabledEb T 3c82e0 0
__ZN5Tiled11Preferences18setShowTilesetGridEb T 3c8ea0 0
__ZN5Tiled11Preferences18setSnapToWorldGridEb T 3c7c30 0
__ZN5Tiled11Preferences19addToRecentFileListERK7QStringR5QListIS1_E T 3ca8e0 0
__ZN5Tiled11Preferences19clearRecentProjectsEv T 3cb1e0 0
__ZN5Tiled11Preferences19setApplicationStyleENS0_16ApplicationStyleE T 3c6150 0
__ZN5Tiled11Preferences19setDonationReminderERK5QDate T 3ca360 0
__ZN5Tiled11Preferences20aboutToSwitchSessionEv T 3ccd20 0
__ZN5Tiled11Preferences20propertyTypesChangedEv T 3cbd20 0
__ZN5Tiled11Preferences20setSafeSavingEnabledEb T 3c91e0 0
__ZN5Tiled11Preferences20showWorldGridChangedEb T 3c7bf0 0
__ZN5Tiled11Preferences21naturalSortingChangedEb T 3cafc0 0
__ZN5Tiled11Preferences21recentProjectsChangedEv T 3ca9f0 0
__ZN5Tiled11Preferences21selectionColorChangedERK6QColor T 3c74c0 0
__ZN5Tiled11Preferences21setShowTileAnimationsEb T 3c7ed0 0
__ZN5Tiled11Preferences22applicationFontChangedEv T 3c7630 0
__ZN5Tiled11Preferences22checkForUpdatesChangedEb T 3cb380 0
__ZN5Tiled11Preferences22objectLineWidthChangedEd T 3c8bc0 0
__ZN5Tiled11Preferences22parallaxEnabledChangedEb T 3c83f0 0
__ZN5Tiled11Preferences22setBackgroundFadeColorE6QColor T 3c8710 0
__ZN5Tiled11Preferences22setWheelZoomsByDefaultEb T 3cbb80 0
__ZN5Tiled11Preferences22showTilesetGridChangedEb T 3c8fb0 0
__ZN5Tiled11Preferences22snapToWorldGridChangedEb T 3c7d40 0
__ZN5Tiled11Preferences23applicationStyleChangedENS0_16ApplicationStyleE T 3c70f0 0
__ZN5Tiled11Preferences23setShowObjectReferencesEb T 3c8190 0
__ZN5Tiled11Preferences24emitPropertyTypesChangedEv T 3c9f30 0
__ZN5Tiled11Preferences24setHighlightCurrentLayerEb T 3c8c00 0
__ZN5Tiled11Preferences24setLabelForHoveredObjectEb T 3c6fa0 0
__ZN5Tiled11Preferences24setObjectLabelVisibilityENS0_20ObjectLabelVisiblityE T 3c6e30 0
__ZN5Tiled11Preferences25setHighlightHoveredObjectEb T 3c8d50 0
__ZN5Tiled11Preferences25setShowTileObjectOutlinesEb T 3c7d80 0
__ZN5Tiled11Preferences25showTileAnimationsChangedEb T 3c8000 0
__ZN5Tiled11Preferences26backgroundFadeColorChangedE6QColor T 3c8860 0
__ZN5Tiled11Preferences26setReloadTilesetsOnChangedEb T 3c9c60 0
__ZN5Tiled11Preferences26setRestoreSessionOnStartupEb T 3cb570 0
__ZN5Tiled11Preferences26setShowTileCollisionShapesEb T 3c8040 0
__ZN5Tiled11Preferences27showObjectReferencesChangedEb T 3c82a0 0
__ZN5Tiled11Preferences28highlightCurrentLayerChangedEb T 3c8d10 0
__ZN5Tiled11Preferences28labelForHoveredObjectChangedEb T 3c70b0 0
__ZN5Tiled11Preferences28objectLabelVisibilityChangedENS0_20ObjectLabelVisiblityE T 3c6f30 0
__ZN5Tiled11Preferences29highlightHoveredObjectChangedEb T 3c8e60 0
__ZN5Tiled11Preferences29showTileObjectOutlinesChangedEb T 3c7e90 0
__ZN5Tiled11Preferences30showTileCollisionShapesChangedEb T 3c8150 0
__ZN5Tiled11Preferences32setRepeatShortcutForPreviousToolEb T 3cb030 0
__ZN5Tiled11Preferences8instanceEv T 3c4a60 0
__ZN5Tiled11Preferences9mInstanceE S 7c4908 0
__ZN5Tiled11Preferences9setPatronEb T 3ca160 0
__ZN5Tiled11PreferencesC1ERK7QString T 3c4d10 0
__ZN5Tiled11PreferencesC1Ev T 3c4d40 0
__ZN5Tiled11PreferencesC2ERK7QString T 3c5e10 0
__ZN5Tiled11PreferencesC2Ev T 3c4da0 0
__ZN5Tiled11PreferencesD0Ev T 3c5f00 0
__ZN5Tiled11PreferencesD1Ev T 3c5ee0 0
__ZN5Tiled11PreferencesD2Ev T 3c5ea0 0
__ZN5Tiled11StyleHelper10initializeEv T 565ee0 0
__ZN5Tiled11StyleHelper11qt_metacallEN11QMetaObject4CallEiPPv T 567560 0
__ZN5Tiled11StyleHelper11qt_metacastEPKc T 5674f0 0
__ZN5Tiled11StyleHelper12styleAppliedEv T 5672b0 0
__ZN5Tiled11StyleHelper16staticMetaObjectE S 7ade58 0
__ZN5Tiled11StyleHelper5applyEv T 5662b0 0
__ZN5Tiled11StyleHelper9applyFontEv T 566850 0
__ZN5Tiled11StyleHelper9mInstanceE S 7c4968 0
__ZN5Tiled11StyleHelperC1Ev T 565f60 0
__ZN5Tiled11StyleHelperC2Ev T 565f80 0
__ZN5Tiled12WorldManager10loadWorldsERK5QListI7QStringE T 670d00 0
__ZN5Tiled12WorldManager11qt_metacallEN11QMetaObject4CallEiPPv T 6715f0 0
__ZN5Tiled12WorldManager11qt_metacastEPKc T 671580 0
__ZN5Tiled12WorldManager11unloadWorldERK14QSharedPointerINS_13WorldDocumentEE T 670ed0 0
__ZN5Tiled12WorldManager11worldLoadedEPNS_13WorldDocumentE T 670960 0
__ZN5Tiled12WorldManager13addEmptyWorldERK7QStringPS1_ T 670560 0
__ZN5Tiled12WorldManager13worldUnloadedEPNS_13WorldDocumentE T 670f70 0
__ZN5Tiled12WorldManager13worldsChangedEv T 6709a0 0
__ZN5Tiled12WorldManager14deleteInstanceEv T 670370 0
__ZN5Tiled12WorldManager15unloadAllWorldsEv T 670fb0 0
__ZN5Tiled12WorldManager16staticMetaObjectE S 7b6910 0
__ZN5Tiled12WorldManager17loadAndStoreWorldERK7QStringPS1_ T 670aa0 0
__ZN5Tiled12WorldManager8instanceEv T 670300 0
__ZN5Tiled12WorldManager9loadWorldERK7QStringPS1_ T 6709d0 0
__ZN5Tiled12WorldManager9mInstanceE S 7c4990 0
__ZN5Tiled12WorldManagerC1Ev T 670230 0
__ZN5Tiled12WorldManagerC2Ev T 6701d0 0
__ZN5Tiled12WorldManagerD0Ev T 6702d0 0
__ZN5Tiled12WorldManagerD1Ev T 6702b0 0
__ZN5Tiled12WorldManagerD2Ev T 670250 0
__ZN5Tiled13ScriptManager10checkErrorE8QJSValueRK7QString T 51c070 0
__ZN5Tiled13ScriptManager10initializeEv T 51a9d0 0
__ZN5Tiled13ScriptManager10throwErrorERK7QString T 51e110 0
__ZN5Tiled13ScriptManager11qt_metacallEN11QMetaObject4CallEiPPv T 51ecc0 0
__ZN5Tiled13ScriptManager11qt_metacastEPKc T 51ec50 0
__ZN5Tiled13ScriptManager12evaluateFileERK7QString T 51cda0 0
__ZN5Tiled13ScriptManager13loadExtensionERK7QString T 51dac0 0
__ZN5Tiled13ScriptManager14deleteInstanceEv T 519640 0
__ZN5Tiled13ScriptManager14loadExtensionsEv T 51d6d0 0
__ZN5Tiled13ScriptManager15createTempValueERK8QJSValue T 51d5a0 0
__ZN5Tiled13ScriptManager16onScriptWarningsERK5QListI9QQmlErrorE T 51e2f0 0
__ZN5Tiled13ScriptManager16staticMetaObjectE S 7ab9d0 0
__ZN5Tiled13ScriptManager17ensureInitializedEv T 51a980 0
__ZN5Tiled13ScriptManager17throwNullArgErrorEi T 51e140 0
__ZN5Tiled13ScriptManager18scriptFilesChangedERK5QListI7QStringE T 51a3d0 0
__ZN5Tiled13ScriptManager18setScriptArgumentsERK5QListI7QStringE T 51bd00 0
__ZN5Tiled13ScriptManager22refreshExtensionsPathsEv T 51a5d0 0
__ZN5Tiled13ScriptManager23enableProjectExtensionsEv T 51e980 0
__ZN5Tiled13ScriptManager24evaluateFileOrLoadModuleERK7QString T 51c8b0 0
__ZN5Tiled13ScriptManager34projectExtensionsSuppressedChangedEb T 51e910 0
__ZN5Tiled13ScriptManager5resetEv T 519d60 0
__ZN5Tiled13ScriptManager8evaluateERK7QStringS3_i T 51bd50 0
__ZN5Tiled13ScriptManager8instanceEv T 5195a0 0
__ZN5Tiled13ScriptManager9mInstanceE S 7c4950 0
__ZN5Tiled13ScriptManagerC1EP7QObject T 519610 0
__ZN5Tiled13ScriptManagerC2EP7QObject T 519680 0
__ZN5Tiled14ProjectManager10setProjectENSt3__110unique_ptrINS_7ProjectENS1_14default_deleteIS3_EEEE T 3ed710 0
__ZN5Tiled14ProjectManager11ourInstanceE S 7c4940 0
__ZN5Tiled14ProjectManager11qt_metacallEN11QMetaObject4CallEiPPv T 3edc70 0
__ZN5Tiled14ProjectManager11qt_metacastEPKc T 3edc00 0
__ZN5Tiled14ProjectManager14projectChangedEv T 3eda20 0
__ZN5Tiled14ProjectManager15editableProjectEv T 3eda70 0
__ZN5Tiled14ProjectManager16staticMetaObjectE S 799b80 0
__ZN5Tiled14ProjectManager7projectEv T 3eda50 0
__ZN5Tiled14ProjectManagerC1EP7QObject T 3ed650 0
__ZN5Tiled14ProjectManagerC2EP7QObject T 3ed580 0
__ZN5Tiled14ProjectManagerD0Ev T 3ed6e0 0
__ZN5Tiled14ProjectManagerD1Ev T 3ed6c0 0
__ZN5Tiled14ProjectManagerD2Ev T 3ed680 0
__ZN5Tiled16TiledApplication11qt_metacallEN11QMetaObject4CallEiPPv T 58a360 0
__ZN5Tiled16TiledApplication11qt_metacastEPKc T 58a2f0 0
__ZN5Tiled16TiledApplication15fileOpenRequestERK7QString T 58a120 0
__ZN5Tiled16TiledApplication16staticMetaObjectE S 7af2b0 0
__ZN5Tiled16TiledApplication17newVersionCheckerEv T 589eb0 0
__ZN5Tiled16TiledApplication17onMessageReceivedERK7QString T 589b40 0
__ZN5Tiled16TiledApplication5eventEP6QEvent T 58a080 0
__ZN5Tiled16TiledApplication8newsFeedEv T 589f30 0
__ZN5Tiled16TiledApplicationC1ERiPPc T 589db0 0
__ZN5Tiled16TiledApplicationC2ERiPPc T 589720 0
__ZN5Tiled16TiledApplicationD0Ev T 589e80 0
__ZN5Tiled16TiledApplicationD1Ev T 589e60 0
__ZN5Tiled16TiledApplicationD2Ev T 589de0 0
__ZN5Tiled18AutoMappingContextC1EPNS_11MapDocumentE T 9a980 0
__ZN5Tiled18AutoMappingContextC2EPNS_11MapDocumentE T 9a7c0 0
__ZN5Tiled7Project12removeFolderEi T 3e43b0 0
__ZN5Tiled7Project4loadERK7QString T 3e3240 0
__ZN5Tiled7Project4saveERK7QString T 3e1cc0 0
__ZN5Tiled7Project4saveEv T 3e1c70 0
__ZN5Tiled7Project9addFolderERK7QString T 3e4380 0
__ZN5Tiled7ProjectC1Ev T 3e1c50 0
__ZN5Tiled7ProjectC2Ev T 3e1970 0
__ZN5Tiled7Session10initializeEv T 53e040 0
__ZN5Tiled7Session10setProjectERK7QString T 53d020 0
__ZN5Tiled7Session11setFileNameERK7QString T 53cd10 0
__ZN5Tiled7Session11setLastPathENS0_8FileTypeERK7QString T 53dc70 0
__ZN5Tiled7Session12deinitializeEv T 53f1f0 0
__ZN5Tiled7Session12setFileStateERK7QStringRK4QMapIS1_8QVariantE T 53d3b0 0
__ZN5Tiled7Session12setOpenFilesERK5QListI7QStringE T 53d1d0 0
__ZN5Tiled7Session13addRecentFileERK7QString T 53d060 0
__ZN5Tiled7Session13setActiveFileERK7QString T 53d210 0
__ZN5Tiled7Session13switchCurrentERK7QString T 53e260 0
__ZN5Tiled7Session15defaultFileNameEv T 53dda0 0
__ZN5Tiled7Session16clearRecentFilesEv T 53d1a0 0
__ZN5Tiled7Session17mChangedCallbacksE S 7c4958 0
__ZN5Tiled7Session17setFileStateValueERK7QStringS3_RK8QVariant T 53d400 0
__ZN5Tiled7Session25defaultFileNameForProjectERK7QString T 53de50 0
__ZN5Tiled7Session4saveEv T 53ccb0 0
__ZN5Tiled7Session4syncEv T 53c440 0
__ZN5Tiled7Session7currentEv T 53e4c0 0
__ZN5Tiled7Session8mCurrentE S 7c4960 0
__ZN5Tiled7SessionC1ERK7QString T 53c350 0
__ZN5Tiled7SessionC2ERK7QString T 53b8e0 0
__ZN5Tiled7SessionD1Ev T 53c860 0
__ZN5Tiled7SessionD2Ev T 53c380 0
__ZNK5Tiled10AutoMapper11compileRuleER5QListINS_12RuleInputSetEERKNS0_4RuleERKNS_18AutoMappingContextE T a1dd0 0
__ZNK5Tiled10AutoMapper13copyMapRegionERKNS0_4RuleE6QPointRKNS_13RuleOutputSetERNS_18AutoMappingContextE T a4b40 0
__ZNK5Tiled10AutoMapper14copyTileRegionEPKNS_9TileLayerE5QRectPS1_iiRKNS_18AutoMappingContextE T a5510 0
__ZNK5Tiled10AutoMapper14prepareAutoMapERNS_18AutoMappingContextE T a1320 0
__ZNK5Tiled10AutoMapper15compileInputSetERNS_12RuleInputSetERKNS_8InputSetERK7QRegionRNS_14CompileContextERKNS_18AutoMappingContextE T a1f70 0
__ZNK5Tiled10AutoMapper16compileOutputSetERNS_13RuleOutputSetERKNS_9OutputSetERK7QRegion T a0d60 0
__ZNK5Tiled10AutoMapper16rulesMapFileNameEv T 9dcf0 0
__ZNK5Tiled10AutoMapper17ruleLayerNameUsedERK7QString T 9dd50 0
__ZNK5Tiled10AutoMapper18setupWorkMapLayersERNS_18AutoMappingContextE T a1370 0
__ZNK5Tiled10AutoMapper20applyLayerPropertiesEPKNS_5LayerEPS1_RNS_18AutoMappingContextE T a57a0 0
__ZNK5Tiled10AutoMapper25collectLayerOutputRegionsERKNS0_4RuleERKNS_13RuleOutputSetERNS_18AutoMappingContextER5QHashIPKNS_5LayerE7QRegionE T a4670 0
__ZNK5Tiled10AutoMapper7autoMapERK7QRegionPS1_RNS_18AutoMappingContextE T a27a0 0
__ZNK5Tiled10AutoMapper9applyRuleERKNS0_4RuleE6QPointRNS_12ApplyContextERNS_18AutoMappingContextE T a3d20 0
__ZNK5Tiled10AutoMapper9matchRuleERKNS0_4RuleERK7QRegionPFRKNS_4CellEiiRKNS_9TileLayerEERKNSt3__18functionIFv6QPointEEERKNS_18AutoMappingContextE T a3540 0
__ZNK5Tiled10MainWindow10metaObjectEv T 2cad20 0
__ZNK5Tiled10MainWindow11allToolBarsEv T 2c7490 0
__ZNK5Tiled10MainWindow14allDockWidgetsEv T 2c7280 0
__ZNK5Tiled10MainWindow24addRecentProjectsActionsEP5QMenu T 2c8640 0
__ZNK5Tiled11MapDocument10layerIndexEPKNS_5LayerE T 2ecba0 0
__ZNK5Tiled11MapDocument10metaObjectEv T 2f9270 0
__ZNK5Tiled11MapDocument11displayNameEv T 2ec980 0
__ZNK5Tiled11MapDocument12exportFormatEv T 2ec8a0 0
__ZNK5Tiled11MapDocument12newLayerNameENS_5Layer8TypeFlagE T 2eec90 0
__ZNK5Tiled11MapDocument12readerFormatEv T 2ec7e0 0
__ZNK5Tiled11MapDocument12writerFormatEv T 2ebf50 0
__ZNK5Tiled11MapDocument13unifyTilesetsERNS_3MapER5QListI14QSharedPointerINS_7TilesetEEE T 2f48a0 0
__ZNK5Tiled11MapDocument14currentObjectsEv T 2f3ed0 0
__ZNK5Tiled11MapDocument15templateAllowedEPKNS_14ObjectTemplateE T 2f4b70 0
__ZNK5Tiled11MapDocument16findTargetLayersERK5QListIPKNS_9TileLayerEE T 2f14e0 0
__ZNK5Tiled11MapDocument18lastExportFileNameEv T 2ec820 0
__ZNK5Tiled11MapDocument21selectedLayersOrderedEv T 2f1b00 0
__ZNK5Tiled11MapDocument22selectedObjectsOrderedEv T 2f39a0 0
__ZNK5Tiled11MapDocument9canReloadEv T 2ebfd0 0
__ZNK5Tiled11Preferences10customFontEv T 3c7660 0
__ZNK5Tiled11Preferences10metaObjectEv T 3cd2f0 0
__ZNK5Tiled11Preferences11displayNewsEv T 3cb3c0 0
__ZNK5Tiled11Preferences12dataLocationEv T 3c5f30 0
__ZNK5Tiled11Preferences12exportOnSaveEv T 3c92e0 0
__ZNK5Tiled11Preferences12exportOptionENS0_12ExportOptionE T 3c9850 0
__ZNK5Tiled11Preferences13exportOptionsEv T 3c93f0 0
__ZNK5Tiled11Preferences13showWorldGridEv T 3c6770 0
__ZNK5Tiled11Preferences13useCustomFontEv T 3c7500 0
__ZNK5Tiled11Preferences14configLocationEv T 3cbc60 0
__ZNK5Tiled11Preferences14mapRenderOrderEv T 3c90d0 0
__ZNK5Tiled11Preferences14naturalSortingEv T 3cae80 0
__ZNK5Tiled11Preferences14recentProjectsEv T 3ca520 0
__ZNK5Tiled11Preferences14selectionColorEv T 3c7310 0
__ZNK5Tiled11Preferences14startupSessionEv T 3caa20 0
__ZNK5Tiled11Preferences15checkForUpdatesEv T 3cb240 0
__ZNK5Tiled11Preferences15layerDataFormatEv T 3c7960 0
__ZNK5Tiled11Preferences15objectLineWidthEv T 3c6bf0 0
__ZNK5Tiled11Preferences15parallaxEnabledEv T 3c6860 0
__ZNK5Tiled11Preferences15showTilesetGridEv T 3c6dd0 0
__ZNK5Tiled11Preferences15snapToWorldGridEv T 3c67a0 0
__ZNK5Tiled11Preferences16applicationStyleEv T 3c6120 0
__ZNK5Tiled11Preferences17recentProjectPathEv T 3ca5b0 0
__ZNK5Tiled11Preferences17safeSavingEnabledEv T 3c60f0 0
__ZNK5Tiled11Preferences18showTileAnimationsEv T 3c63d0 0
__ZNK5Tiled11Preferences19backgroundFadeColorEv T 3c6b10 0
__ZNK5Tiled11Preferences19wheelZoomsByDefaultEv T 3cb540 0
__ZNK5Tiled11Preferences20donationReminderTimeEv T 3ca320 0
__ZNK5Tiled11Preferences20showObjectReferencesEv T 3c6830 0
__ZNK5Tiled11Preferences21highlightCurrentLayerEv T 3c6d70 0
__ZNK5Tiled11Preferences21labelForHoveredObjectEv T 3c6f70 0
__ZNK5Tiled11Preferences21objectLabelVisibilityEv T 3c6e00 0
__ZNK5Tiled11Preferences22highlightHoveredObjectEv T 3c6da0 0
__ZNK5Tiled11Preferences22reloadTilesetsOnChangeEv T 3c63a0 0
__ZNK5Tiled11Preferences22showTileObjectOutlinesEv T 3c67d0 0
__ZNK5Tiled11Preferences23restoreSessionOnStartupEv T 3cac30 0
__ZNK5Tiled11Preferences23showTileCollisionShapesEv T 3c6800 0
__ZNK5Tiled11Preferences26shouldShowDonationReminderEv T 3ca290 0
__ZNK5Tiled11Preferences29repeatShortcutForPreviousToolEv T 3cb000 0
__ZNK5Tiled11Preferences8firstRunEv T 3c6550 0
__ZNK5Tiled11Preferences8gridFineEv T 3c6b70 0
__ZNK5Tiled11Preferences8isPatronEv T 3ca130 0
__ZNK5Tiled11Preferences8languageEv T 3c9940 0
__ZNK5Tiled11Preferences8runCountEv T 3c65f0 0
__ZNK5Tiled11Preferences8showGridEv T 3c6740 0
__ZNK5Tiled11Preferences8snapModeEv T 3c6890 0
__ZNK5Tiled11Preferences9baseColorEv T 3c7130 0
__ZNK5Tiled11Preferences9gridColorEv T 3c6900 0
__ZNK5Tiled11Preferences9gridMajorEv T 3c6ba0 0
__ZNK5Tiled11Preferences9useOpenGLEv T 3c9d80 0
__ZNK5Tiled11StyleHelper10metaObjectEv T 567490 0
__ZNK5Tiled12ExportHelper13formatOptionsEv T 2645d0 0
__ZNK5Tiled12ExportHelper16prepareExportMapEPKNS_3MapERNSt3__110unique_ptrIS1_NS4_14default_deleteIS1_EEEE T 265180 0
__ZNK5Tiled12ExportHelper17resolvePropertiesEPNS_6ObjectE T 264b90 0
__ZNK5Tiled12ExportHelper20prepareExportTilesetERK14QSharedPointerINS_7TilesetEEb T 2646a0 0
__ZNK5Tiled12WorldManager10metaObjectEv T 671520 0
__ZNK5Tiled12WorldManager11worldForMapERK7QString T 671100 0
__ZNK5Tiled12WorldManager14worldFileNamesEv T 670dc0 0
__ZNK5Tiled12WorldManager9findWorldERK7QString T 6703b0 0
__ZNK5Tiled13ScriptManager10metaObjectEv T 51ebf0 0
__ZNK5Tiled14ProjectManager10metaObjectEv T 3edba0 0
__ZNK5Tiled16TiledApplication10metaObjectEv T 58a290 0
__ZNK5Tiled7Session8lastPathENS0_8FileTypeEN14QStandardPaths16StandardLocationE T 53d650 0
__ZNK5Tiled7Session9fileStateERK7QString T 53d250 0
__ZTIN5Tiled10MainWindowE S 793068 0
__ZTIN5Tiled11MapDocumentE S 793650 0
__ZTIN5Tiled11PreferencesE S 7990b0 0
__ZTIN5Tiled11SelectLayerE S 785738 0
__ZTIN5Tiled11StyleHelperE S 7ade90 0
__ZTIN5Tiled12JumpToObjectE S 7857d0 0
__ZTIN5Tiled12WorldManagerE S 7b6948 0
__ZTIN5Tiled13ScriptManagerE S 7aba08 0
__ZTIN5Tiled14ProjectManagerE S 799bb8 0
__ZTIN5Tiled16TiledApplicationE S 7af2e8 0
__ZTIN5Tiled20SelectCustomPropertyE S 7856a0 0
__ZTIN5Tiled5LayerE S 7838a8 0
__ZTIN5Tiled5WorldE S 7b6980 0
__ZTIN5Tiled7ProjectE S 799368 0
__ZTIN5Tiled9MapObjectE S 788368 0
__ZTINSt3__110__function6__baseIF4QUrlvEEE S 79a9a0 0
__ZTINSt3__110__function6__baseIF5QFontvEEE S 79d3a0 0
__ZTINSt3__110__function6__baseIF5QRectvEEE S 79d910 0
__ZTINSt3__110__function6__baseIF5QSizevEEE S 79dcb0 0
__ZTINSt3__110__function6__baseIF6QColorvEEE S 79d1d0 0
__ZTINSt3__110__function6__baseIF6QImage5QSizeEEE S 793258 0
__ZTINSt3__110__function6__baseIF6QRectFvEEE S 79dae0 0
__ZTINSt3__110__function6__baseIF6QSizeFvEEE S 79de80 0
__ZTINSt3__110__function6__baseIF7QStringvEEE S 79ca60 0
__ZTINSt3__110__function6__baseIF8QVariantvEEE S 79c890 0
__ZTINSt3__110__function6__baseIFN5Tiled11ObjectGroup9DrawOrderEvEEE S 7a0670 0
__ZTINSt3__110__function6__baseIFN5Tiled3Map11OrientationEvEEE S 7a16e8 0
__ZTINSt3__110__function6__baseIFN5Tiled3Map11RenderOrderEvEEE S 7a2c48 0
__ZTINSt3__110__function6__baseIFN5Tiled3Map11StaggerAxisEvEEE S 7a1de0 0
__ZTINSt3__110__function6__baseIFN5Tiled3Map12StaggerIndexEvEEE S 7a2158 0
__ZTINSt3__110__function6__baseIFN5Tiled3Map15LayerDataFormatEvEEE S 7a26d0 0
__ZTINSt3__110__function6__baseIFN5Tiled7Tileset11OrientationEvEEE S 7a3e28 0
__ZTINSt3__110__function6__baseIFN5Tiled7Tileset14TileRenderSizeEvEEE S 7a3638 0
__ZTINSt3__110__function6__baseIFN5Tiled7Tileset8FillModeEvEEE S 7a39b0 0
__ZTINSt3__110__function6__baseIFN5Tiled7WangSet4TypeEvEEE S 7a4d00 0
__ZTINSt3__110__function6__baseIFN5Tiled9ObjectRefEvEEE S 7b41c8 0
__ZTINSt3__110__function6__baseIFbPKvPvEEE S 78b8f8 0
__ZTINSt3__110__function6__baseIFbPN5Tiled10FileFormatEEEE S 78b290 0
__ZTINSt3__110__function6__baseIFbPN5Tiled13TilesetFormatEEEE S 7b0fa0 0
__ZTINSt3__110__function6__baseIFbPN5Tiled9MapFormatEEEE S 793908 0
__ZTINSt3__110__function6__baseIFbPvS2_EEE S 78bab8 0
__ZTINSt3__110__function6__baseIFbRKN5Tiled4CellEEEE S 785170 0
__ZTINSt3__110__function6__baseIFbvEEE S 79d000 0
__ZTINSt3__110__function6__baseIFdvEEE S 79ce30 0
__ZTINSt3__110__function6__baseIFivEEE S 79a728 0
__ZTINSt3__110__function6__baseIFvN5Tiled11ObjectGroup9DrawOrderEEEE S 7a0758 0
__ZTINSt3__110__function6__baseIFvN5Tiled3Map11OrientationEEEE S 7a17d0 0
__ZTINSt3__110__function6__baseIFvN5Tiled3Map11RenderOrderEEEE S 7a2d30 0
__ZTINSt3__110__function6__baseIFvN5Tiled3Map11StaggerAxisEEEE S 7a1ec8 0
__ZTINSt3__110__function6__baseIFvN5Tiled3Map12StaggerIndexEEEE S 7a2240 0
__ZTINSt3__110__function6__baseIFvN5Tiled3Map15LayerDataFormatEEEE S 7a27b8 0
__ZTINSt3__110__function6__baseIFvN5Tiled7Tileset11OrientationEEEE S 7a3f10 0
__ZTINSt3__110__function6__baseIFvN5Tiled7Tileset14TileRenderSizeEEEE S 7a3720 0
__ZTINSt3__110__function6__baseIFvN5Tiled7Tileset8FillModeEEEE S 7a3a98 0
__ZTINSt3__110__function6__baseIFvN5Tiled7WangSet4TypeEEEE S 7a4de8 0
__ZTINSt3__110__function6__baseIFvPN5Tiled10FileFormatEEEE S 793170 0
__ZTINSt3__110__function6__baseIFvPN5Tiled13TilesetFormatEEEE S 785e90 0
__ZTINSt3__110__function6__baseIFvPN5Tiled20ObjectTemplateFormatEEEE S 7839d0 0
__ZTINSt3__110__function6__baseIFvPN5Tiled9MapFormatEEEE S 7843d0 0
__ZTINSt3__110__function6__baseIFvR8QPainterPKN5Tiled9MapObjectERKNS4_11MapRendererEEEE S 78f148 0
__ZTINSt3__110__function6__baseIFvRK4QUrlEEE S 79aa88 0
__ZTINSt3__110__function6__baseIFvRK5QFontEEE S 79d488 0
__ZTINSt3__110__function6__baseIFvRK5QRectEEE S 79d9f8 0
__ZTINSt3__110__function6__baseIFvRK5QSizeEEE S 79dd98 0
__ZTINSt3__110__function6__baseIFvRK6QColorEEE S 79d2b8 0
__ZTINSt3__110__function6__baseIFvRK6QRectFEEE S 79dbc8 0
__ZTINSt3__110__function6__baseIFvRK6QSizeFEEE S 79df68 0
__ZTINSt3__110__function6__baseIFvRK7QStringEEE S 79cb48 0
__ZTINSt3__110__function6__baseIFvRK8QVariantEEE S 79c978 0
__ZTINSt3__110__function6__baseIFvRKN5Tiled10JumpToTileEEEE S 78ae08 0
__ZTINSt3__110__function6__baseIFvRKN5Tiled10SelectTileEEEE S 78b1a8 0
__ZTINSt3__110__function6__baseIFvRKN5Tiled11SelectLayerEEEE S 78afd8 0
__ZTINSt3__110__function6__baseIFvRKN5Tiled12JumpToObjectEEEE S 78aef0 0
__ZTINSt3__110__function6__baseIFvRKN5Tiled20SelectCustomPropertyEEEE S 78b0c0 0
__ZTINSt3__110__function6__baseIFvRKN5Tiled8OpenFileEEEE S 78ad20 0
__ZTINSt3__110__function6__baseIFvRKN5Tiled9ObjectRefEEEE S 7b42b0 0
__ZTINSt3__110__function6__baseIFvRKbEEE S 79d0e8 0
__ZTINSt3__110__function6__baseIFvRKdEEE S 79cf18 0
__ZTINSt3__110__function6__baseIFvRKiEEE S 79a810 0
__ZTINSt3__110__function6__baseIFvvEEE S 785638 0
__ZTINSt3__110__function6__funcIN5Tiled11SelectLayerEFvvEEE S 785720 0
__ZTINSt3__110__function6__funcIN5Tiled12JumpToObjectEFvvEEE S 7857b8 0
__ZTINSt3__110__function6__funcIN5Tiled20SelectCustomPropertyEFvvEEE S 785620 0
__ZTINSt3__117bad_function_callE S 783920 0
__ZTSN5Tiled10MainWindowE S 6e5e18 0
__ZTSN5Tiled11MapDocumentE S 6e6d9c 0
__ZTSN5Tiled11PreferencesE S 6eaf94 0
__ZTSN5Tiled11SelectLayerE S 6d9a65 0
__ZTSN5Tiled11StyleHelperE S 75c79c 0
__ZTSN5Tiled12JumpToObjectE S 6d9adc 0
__ZTSN5Tiled12WorldManagerE S 762ff0 0
__ZTSN5Tiled13ScriptManagerE S 759144 0
__ZTSN5Tiled14ProjectManagerE S 6eb414 0
__ZTSN5Tiled16TiledApplicationE S 75d680 0
__ZTSN5Tiled20SelectCustomPropertyE S 6d9a0f 0
__ZTSN5Tiled5LayerE S 6d8300 0
__ZTSN5Tiled5WorldE S 763021 0
__ZTSN5Tiled7ProjectE S 6eb724 0
__ZTSN5Tiled9MapObjectE S 6daf95 0
__ZTSNSt3__110__function6__baseIF4QUrlvEEE S 6ebd82 0
__ZTSNSt3__110__function6__baseIF5QFontvEEE S 6edf9c 0
__ZTSNSt3__110__function6__baseIF5QRectvEEE S 6f6d1c 0
__ZTSNSt3__110__function6__baseIF5QSizevEEE S 6f2ffe 0
__ZTSNSt3__110__function6__baseIF6QColorvEEE S 6edcf3 0
__ZTSNSt3__110__function6__baseIF6QImage5QSizeEEE S 6e60fb 0
__ZTSNSt3__110__function6__baseIF6QRectFvEEE S 6ee973 0
__ZTSNSt3__110__function6__baseIF6QSizeFvEEE S 6eee96 0
__ZTSNSt3__110__function6__baseIF7QStringvEEE S 6ed07a 0
__ZTSNSt3__110__function6__baseIF8QVariantvEEE S 6ece9a 0
__ZTSNSt3__110__function6__baseIFN5Tiled11ObjectGroup9DrawOrderEvEEE S 6f1160 0
__ZTSNSt3__110__function6__baseIFN5Tiled3Map11OrientationEvEEE S 6f2bf0 0
__ZTSNSt3__110__function6__baseIFN5Tiled3Map11RenderOrderEvEEE S 6f4790 0
__ZTSNSt3__110__function6__baseIFN5Tiled3Map11StaggerAxisEvEEE S 6f34d2 0
__ZTSNSt3__110__function6__baseIFN5Tiled3Map12StaggerIndexEvEEE S 6f3921 0
__ZTSNSt3__110__function6__baseIFN5Tiled3Map15LayerDataFormatEvEEE S 6f4083 0
__ZTSNSt3__110__function6__baseIFN5Tiled7Tileset11OrientationEvEEE S 6f5e11 0
__ZTSNSt3__110__function6__baseIFN5Tiled7Tileset14TileRenderSizeEvEEE S 6f53ec 0
__ZTSNSt3__110__function6__baseIFN5Tiled7Tileset8FillModeEvEEE S 6f5865 0
__ZTSNSt3__110__function6__baseIFN5Tiled7WangSet4TypeEvEEE S 6f71db 0
__ZTSNSt3__110__function6__baseIFN5Tiled9ObjectRefEvEEE S 761520 0
__ZTSNSt3__110__function6__baseIFbPKvPvEEE S 6dd928 0
__ZTSNSt3__110__function6__baseIFbPN5Tiled10FileFormatEEEE S 6dd145 0
__ZTSNSt3__110__function6__baseIFbPN5Tiled13TilesetFormatEEEE S 75f0b3 0
__ZTSNSt3__110__function6__baseIFbPN5Tiled9MapFormatEEEE S 6e7142 0
__ZTSNSt3__110__function6__baseIFbPvS2_EEE S 75ff68 0
__ZTSNSt3__110__function6__baseIFbRKN5Tiled4CellEEEE S 75bce8 0
__ZTSNSt3__110__function6__baseIFbvEEE S 6eda66 0
__ZTSNSt3__110__function6__baseIFdvEEE S 6ed7dd 0
__ZTSNSt3__110__function6__baseIFivEEE S 763210 0
__ZTSNSt3__110__function6__baseIFvN5Tiled11ObjectGroup9DrawOrderEEEE S 6f1280 0
__ZTSNSt3__110__function6__baseIFvN5Tiled3Map11OrientationEEEE S 6f2cdb 0
__ZTSNSt3__110__function6__baseIFvN5Tiled3Map11RenderOrderEEEE S 6f487d 0
__ZTSNSt3__110__function6__baseIFvN5Tiled3Map11StaggerAxisEEEE S 6f35be 0
__ZTSNSt3__110__function6__baseIFvN5Tiled3Map12StaggerIndexEEEE S 6f3a0f 0
__ZTSNSt3__110__function6__baseIFvN5Tiled3Map15LayerDataFormatEEEE S 6f4177 0
__ZTSNSt3__110__function6__baseIFvN5Tiled7Tileset11OrientationEEEE S 6f5f15 0
__ZTSNSt3__110__function6__baseIFvN5Tiled7Tileset14TileRenderSizeEEEE S 6f54f6 0
__ZTSNSt3__110__function6__baseIFvN5Tiled7Tileset8FillModeEEEE S 6f5961 0
__ZTSNSt3__110__function6__baseIFvN5Tiled7WangSet4TypeEEEE S 6f72d2 0
__ZTSNSt3__110__function6__baseIFvPN5Tiled10FileFormatEEEE S 6e600f 0
__ZTSNSt3__110__function6__baseIFvPN5Tiled13TilesetFormatEEEE S 6d9fbe 0
__ZTSNSt3__110__function6__baseIFvPN5Tiled20ObjectTemplateFormatEEEE S 6d8437 0
__ZTSNSt3__110__function6__baseIFvPN5Tiled9MapFormatEEEE S 6d8f1d 0
__ZTSNSt3__110__function6__baseIFvR8QPainterPKN5Tiled9MapObjectERKNS4_11MapRendererEEEE S 6e4c85 0
__ZTSNSt3__110__function6__baseIFvRK4QUrlEEE S 6ebe50 0
__ZTSNSt3__110__function6__baseIFvRK5QFontEEE S 6ee0eb 0
__ZTSNSt3__110__function6__baseIFvRK5QRectEEE S 6f6df6 0
__ZTSNSt3__110__function6__baseIFvRK5QSizeEEE S 6eed42 0
__ZTSNSt3__110__function6__baseIFvRK6QColorEEE S 6ede47 0
__ZTSNSt3__110__function6__baseIFvRK6QRectFEEE S 6eeac4 0
__ZTSNSt3__110__function6__baseIFvRK6QSizeFEEE S 6eefe7 0
__ZTSNSt3__110__function6__baseIFvRK7QStringEEE S 6ed1db 0
__ZTSNSt3__110__function6__baseIFvRK8QVariantEEE S 6ecf67 0
__ZTSNSt3__110__function6__baseIFvRKN5Tiled10JumpToTileEEEE S 6dcd3c 0
__ZTSNSt3__110__function6__baseIFvRKN5Tiled10SelectTileEEEE S 6dd056 0
__ZTSNSt3__110__function6__baseIFvRKN5Tiled11SelectLayerEEEE S 6dcec1 0
__ZTSNSt3__110__function6__baseIFvRKN5Tiled12JumpToObjectEEEE S 6dcdfe 0
__ZTSNSt3__110__function6__baseIFvRKN5Tiled20SelectCustomPropertyEEEE S 6dcf8c 0
__ZTSNSt3__110__function6__baseIFvRKN5Tiled8OpenFileEEEE S 6dcc7f 0
__ZTSNSt3__110__function6__baseIFvRKN5Tiled9ObjectRefEEEE S 761669 0
__ZTSNSt3__110__function6__baseIFvRKbEEE S 6edba9 0
__ZTSNSt3__110__function6__baseIFvRKdEEE S 6ed922 0
__ZTSNSt3__110__function6__baseIFvRKiEEE S 6ed69a 0
__ZTSNSt3__110__function6__baseIFvvEEE S 6f8428 0
__ZTSNSt3__110__function6__funcIN5Tiled11SelectLayerEFvvEEE S 6d9a2e 0
__ZTSNSt3__110__function6__funcIN5Tiled12JumpToObjectEFvvEEE S 6d9aa4 0
__ZTSNSt3__110__function6__funcIN5Tiled20SelectCustomPropertyEFvvEEE S 6d99cf 0
__ZTSNSt3__117bad_function_callE S 6d8e7c 0
__ZTVN5Tiled10MainWindowE S 792e20 0
__ZTVN5Tiled11MapDocumentE S 7932d0 0
__ZTVN5Tiled11PreferencesE S 798cb0 0
__ZTVN5Tiled11StyleHelperE S 7addd8 0
__ZTVN5Tiled12WorldManagerE S 7b6870 0
__ZTVN5Tiled13ScriptManagerE S 7ab940 0
__ZTVN5Tiled14ProjectManagerE S 799b00 0
__ZTVN5Tiled16TiledApplicationE S 7af218 0
__ZThn16_N5Tiled10MainWindowD0Ev T 2bee40 0
__ZThn16_N5Tiled10MainWindowD1Ev T 2bedf0 0
