__Unwind_Resume U 0 0
__Z11qt_assert_xPKcS0_S0_i U 0 0
__Z9qBadAllocv U 0 0
__Z9qIsFinited U 0 0
__Z9qt_assertPKcS0_i U 0 0
__ZN10QArrayData10deallocateEPS_xx U 0 0
__ZN10QArrayData19reallocateUnalignedEPS_PvxxNS_16AllocationOptionE U 0 0
__ZN10QArrayData8allocateEPPS_xxxNS_16AllocationOptionE U 0 0
__ZN10QByteArray11reallocDataExN10QArrayData16AllocationOptionE U 0 0
__ZN10QByteArray14trimmed_helperERKS_ U 0 0
__ZN10QByteArray4chopEx U 0 0
__ZN10QByteArray6removeExx U 0 0
__ZN10QJsonValueD1Ev U 0 0
__ZN11QJsonObjectD1Ev U 0 0
__ZN11QTextStreamC1EP9QIODevice U 0 0
__ZN11QTextStreamD1Ev U 0 0
__ZN11QTextStreamlsEPKc U 0 0
__ZN11QTextStreamlsERK7QString U 0 0
__ZN11QTextStreamlsEc U 0 0
__ZN13QJsonDocument8fromJsonERK10QByteArrayP15QJsonParseError U 0 0
__ZN13QJsonDocumentD1Ev U 0 0
__ZN15QtSharedPointer20ExternalRefCountData9getAndRefEPK7QObject U 0 0
__ZN16QCoreApplication9translateEPKcS1_S1_i U 0 0
__ZN4Json10JsonPlugin10initializeEv T a560 0
__ZN4Json10JsonPlugin11qt_metacallEN11QMetaObject4CallEiPPv T fa80 0
__ZN4Json10JsonPlugin11qt_metacastEPKc T f9f0 0
__ZN4Json10JsonPlugin16staticMetaObjectE S 15410 0
__ZN4Json13JsonMapFormat11qt_metacallEN11QMetaObject4CallEiPPv T fdd0 0
__ZN4Json13JsonMapFormat11qt_metacastEPKc T fd40 0
__ZN4Json13JsonMapFormat16staticMetaObjectE S 15450 0
__ZN4Json13JsonMapFormat4readERK7QString T a7c0 0
__ZN4Json13JsonMapFormat5writeEPKN5Tiled3MapERK7QString6QFlagsINS1_10FileFormat6OptionEE T b210 0
__ZN4Json13JsonMapFormatC1ENS0_9SubFormatEP7QObject T a6a0 0
__ZN4Json13JsonMapFormatC2ENS0_9SubFormatEP7QObject T a730 0
__ZN4Json17JsonTilesetFormat11qt_metacallEN11QMetaObject4CallEiPPv T ff20 0
__ZN4Json17JsonTilesetFormat11qt_metacastEPKc T fe90 0
__ZN4Json17JsonTilesetFormat16staticMetaObjectE S 15490 0
__ZN4Json17JsonTilesetFormat4readERK7QString T c3f0 0
__ZN4Json17JsonTilesetFormat5writeERKN5Tiled7TilesetERK7QString6QFlagsINS1_10FileFormat6OptionEE T ccb0 0
__ZN4Json17JsonTilesetFormatC1EP7QObject T a6d0 0
__ZN4Json17JsonTilesetFormatC2EP7QObject T c360 0
__ZN4Json24JsonObjectTemplateFormat11qt_metacallEN11QMetaObject4CallEiPPv T 10070 0
__ZN4Json24JsonObjectTemplateFormat11qt_metacastEPKc T ffe0 0
__ZN4Json24JsonObjectTemplateFormat16staticMetaObjectE S 154d0 0
__ZN4Json24JsonObjectTemplateFormat4readERK7QString T d390 0
__ZN4Json24JsonObjectTemplateFormat5writeEPKN5Tiled14ObjectTemplateERK7QString T dbd0 0
__ZN4Json24JsonObjectTemplateFormatC1EP7QObject T a700 0
__ZN4Json24JsonObjectTemplateFormatC2EP7QObject T d300 0
__ZN4QDirC1ERK7QString U 0 0
__ZN4QDirD1Ev U 0 0
__ZN5QFile4openE6QFlagsIN13QIODeviceBase12OpenModeFlagEE U 0 0
__ZN5QFileC1ERK7QString U 0 0
__ZN5QFileD1Ev U 0 0
__ZN5Tiled10FileFormatC2EP7QObject U 0 0
__ZN5Tiled13TilesetFormat11qt_metacallEN11QMetaObject4CallEiPPv U 0 0
__ZN5Tiled13TilesetFormat11qt_metacastEPKc U 0 0
__ZN5Tiled13TilesetFormat16staticMetaObjectE U 0 0
__ZN5Tiled14ObjectTemplateD1Ev U 0 0
__ZN5Tiled20ObjectTemplateFormat11qt_metacallEN11QMetaObject4CallEiPPv U 0 0
__ZN5Tiled20ObjectTemplateFormat11qt_metacastEPKc U 0 0
__ZN5Tiled20ObjectTemplateFormat16staticMetaObjectE U 0 0
__ZN5Tiled21MapToVariantConverter9toVariantERKNS_14ObjectTemplateERK4QDir U 0 0
__ZN5Tiled21MapToVariantConverter9toVariantERKNS_3MapERK4QDir U 0 0
__ZN5Tiled21MapToVariantConverter9toVariantERKNS_7TilesetERK4QDir U 0 0
__ZN5Tiled21VariantToMapConverter16toObjectTemplateERK8QVariantRK4QDir U 0 0
__ZN5Tiled21VariantToMapConverter5toMapERK8QVariantRK4QDir U 0 0
__ZN5Tiled21VariantToMapConverter9toTilesetERK8QVariantRK4QDir U 0 0
__ZN5Tiled6Plugin11qt_metacallEN11QMetaObject4CallEiPPv U 0 0
__ZN5Tiled6Plugin11qt_metacastEPKc U 0 0
__ZN5Tiled6Plugin16staticMetaObjectE U 0 0
__ZN5Tiled6Plugin9addObjectEP7QObject U 0 0
__ZN5Tiled6PluginD2Ev U 0 0
__ZN5Tiled8SaveFile6commitEv U 0 0
__ZN5Tiled8SaveFileC1ERK7QString U 0 0
__ZN5Tiled9GidMapperC1Ev U 0 0
__ZN5Tiled9MapFormat11qt_metacallEN11QMetaObject4CallEiPPv U 0 0
__ZN5Tiled9MapFormat11qt_metacastEPKc U 0 0
__ZN5Tiled9MapFormat16staticMetaObjectE U 0 0
__ZN6QDebug9putStringEPK5QCharm U 0 0
__ZN6QDebugD1Ev U 0 0
__ZN7QObject10childEventEP11QChildEvent U 0 0
__ZN7QObject10timerEventEP11QTimerEvent U 0 0
__ZN7QObject11customEventEP6QEvent U 0 0
__ZN7QObject11eventFilterEPS_P6QEvent U 0 0
__ZN7QObject13connectNotifyERK11QMetaMethod U 0 0
__ZN7QObject16disconnectNotifyERK11QMetaMethod U 0 0
__ZN7QObject5eventEP6QEvent U 0 0
__ZN7QObjectC2EPS_ U 0 0
__ZN7QObjectD2Ev U 0 0
__ZN7QString10fromLatin1E14QByteArrayView U 0 0
__ZN7QString11reallocDataExN10QArrayData16AllocationOptionE U 0 0
__ZN7QString6_emptyE U 0 0
__ZN7QString6appendE13QLatin1String U 0 0
__ZN7QString6appendE5QChar U 0 0
__ZN7QString6appendERKS_ U 0 0
__ZN7QString6numberEdci U 0 0
__ZN7QString6numberEii U 0 0
__ZN7QString6numberEji U 0 0
__ZN7QString6numberExi U 0 0
__ZN7QString6numberEyi U 0 0
__ZN7QString8fromUtf8E14QByteArrayView U 0 0
__ZN7QStringC1E5QChar U 0 0
__ZN7QStringC1Ex5QChar U 0 0
__ZN7QStringaSERKS_ U 0 0
__ZN8QVariantC1ERK7QString U 0 0
__ZN8QVariantC1ERKS_ U 0 0
__ZN8QVariantD1Ev U 0 0
__ZN9QFileInfoC1ERK7QString U 0 0
__ZN9QFileInfoD1Ev U 0 0
__ZN9QIODevice7readAllEv U 0 0
__ZN9QMetaType10canConvertES_S_ U 0 0
__ZN9QMetaType14registerHelperEPKN9QtPrivate18QMetaTypeInterfaceE U 0 0
__ZN9QtPrivate12equalStringsE11QStringView13QLatin1String U 0 0
__ZN9QtPrivate13findByteArrayE14QByteArrayViewxS0_ U 0 0
__ZN9QtPrivate25QMetaTypeInterfaceWrapperI7QStringE8metaTypeE U 0 0
__ZN9QtPrivate25QMetaTypeInterfaceWrapperIxE8metaTypeE U 0 0
__ZNK10QJsonValue8toStringEv U 0 0
__ZNK11QFileDevice5errorEv U 0 0
__ZNK11QJsonObject5valueE13QLatin1String U 0 0
__ZNK11QJsonObject8containsE13QLatin1String U 0 0
__ZNK11QMetaObject2trEPKcS1_i U 0 0
__ZNK11QObjectData17dynamicMetaObjectEv U 0 0
__ZNK13QJsonDocument6objectEv U 0 0
__ZNK13QJsonDocument9toVariantEv U 0 0
__ZNK14QMessageLogger7warningEv U 0 0
__ZNK15QJsonParseError11errorStringEv U 0 0
__ZNK4Json10JsonPlugin10metaObjectEv T f970 0
__ZNK4Json13JsonMapFormat10metaObjectEv T fce0 0
__ZNK4Json13JsonMapFormat10nameFilterEv T bc80 0
__ZNK4Json13JsonMapFormat11errorStringEv T c330 0
__ZNK4Json13JsonMapFormat12supportsFileERK7QString T be10 0
__ZNK4Json13JsonMapFormat9shortNameEv T bcf0 0
__ZNK4Json17JsonTilesetFormat10metaObjectEv T fe30 0
__ZNK4Json17JsonTilesetFormat10nameFilterEv T d200 0
__ZNK4Json17JsonTilesetFormat11errorStringEv T d2d0 0
__ZNK4Json17JsonTilesetFormat12supportsFileERK7QString T c930 0
__ZNK4Json17JsonTilesetFormat9shortNameEv T d240 0
__ZNK4Json24JsonObjectTemplateFormat10metaObjectEv T ff80 0
__ZNK4Json24JsonObjectTemplateFormat10nameFilterEv T e110 0
__ZNK4Json24JsonObjectTemplateFormat11errorStringEv T e1e0 0
__ZNK4Json24JsonObjectTemplateFormat12supportsFileERK7QString T d950 0
__ZNK4Json24JsonObjectTemplateFormat9shortNameEv T e150 0
__ZNK5Tiled10FileFormat12capabilitiesEv U 0 0
__ZNK7QString14rightJustifiedEx5QCharb U 0 0
__ZNK7QString5countE5QCharN2Qt15CaseSensitivityE U 0 0
__ZNK7QString8arg_implE14QAnyStringViewi5QChar U 0 0
__ZNK7QString8arg_implExii5QChar U 0 0
__ZNK7QString8endsWithE13QLatin1StringN2Qt15CaseSensitivityE U 0 0
__ZNK7QString8repeatedEx U 0 0
__ZNK8QVariant10toLongLongEPb U 0 0
__ZNK8QVariant11toULongLongEPb U 0 0
__ZNK8QVariant5toIntEPb U 0 0
__ZNK8QVariant5toMapEv U 0 0
__ZNK8QVariant6toBoolEv U 0 0
__ZNK8QVariant6toCharEv U 0 0
__ZNK8QVariant6toListEv U 0 0
__ZNK8QVariant6toUIntEPb U 0 0
__ZNK8QVariant8toDoubleEPb U 0 0
__ZNK8QVariant8toStringEv U 0 0
__ZNK9QFileInfo3dirEv U 0 0
__ZNK9QFileInfo8baseNameEv U 0 0
__ZNK9QIODevice11errorStringEv U 0 0
__ZSt9terminatev U 0 0
__ZTIN4Json10JsonPluginE S 15580 0
__ZTIN4Json13JsonMapFormatE S 15648 0
__ZTIN4Json17JsonTilesetFormatE S 15708 0
__ZTIN4Json24JsonObjectTemplateFormatE S 157c8 0
__ZTIN5Tiled13TilesetFormatE U 0 0
__ZTIN5Tiled20ObjectTemplateFormatE U 0 0
__ZTIN5Tiled6PluginE U 0 0
__ZTIN5Tiled9MapFormatE U 0 0
__ZTSN4Json10JsonPluginE S 13dc5 0
__ZTSN4Json13JsonMapFormatE S 13dd9 0
__ZTSN4Json17JsonTilesetFormatE S 13df0 0
__ZTSN4Json24JsonObjectTemplateFormatE S 13e0b 0
__ZTVN10__cxxabiv120__si_class_type_infoE U 0 0
__ZTVN4Json10JsonPluginE S 15508 0
__ZTVN4Json13JsonMapFormatE S 15598 0
__ZTVN4Json17JsonTilesetFormatE S 15660 0
__ZTVN4Json24JsonObjectTemplateFormatE S 15720 0
__ZTVN5Tiled13TilesetFormatE U 0 0
__ZTVN5Tiled20ObjectTemplateFormatE U 0 0
__ZTVN5Tiled6PluginE U 0 0
__ZTVN5Tiled9MapFormatE U 0 0
__ZdlPv U 0 0
__ZdlPvSt11align_val_t U 0 0
__Znwm U 0 0
___cxa_atexit U 0 0
___cxa_begin_catch U 0 0
___cxa_guard_acquire U 0 0
___cxa_guard_release U 0 0
___gxx_personality_v0 U 0 0
___stack_chk_fail U 0 0
___stack_chk_guard U 0 0
_memchr U 0 0
_memmove U 0 0
_memset U 0 0
_qt_plugin_instance T fb50 0
_qt_plugin_query_metadata_v2 T fac0 0
_qt_version_tag_6_11 U 0 0
_strcmp U 0 0
_strlen U 0 0
===
__ZN4Json10JsonPlugin10initializeEv T a560 0
__ZN4Json10JsonPlugin11qt_metacallEN11QMetaObject4CallEiPPv T fa80 0
__ZN4Json10JsonPlugin11qt_metacastEPKc T f9f0 0
__ZN4Json10JsonPlugin16staticMetaObjectE S 15410 0
__ZN4Json13JsonMapFormat11qt_metacallEN11QMetaObject4CallEiPPv T fdd0 0
__ZN4Json13JsonMapFormat11qt_metacastEPKc T fd40 0
__ZN4Json13JsonMapFormat16staticMetaObjectE S 15450 0
__ZN4Json13JsonMapFormat4readERK7QString T a7c0 0
__ZN4Json13JsonMapFormat5writeEPKN5Tiled3MapERK7QString6QFlagsINS1_10FileFormat6OptionEE T b210 0
__ZN4Json13JsonMapFormatC1ENS0_9SubFormatEP7QObject T a6a0 0
__ZN4Json13JsonMapFormatC2ENS0_9SubFormatEP7QObject T a730 0
__ZN4Json17JsonTilesetFormat11qt_metacallEN11QMetaObject4CallEiPPv T ff20 0
__ZN4Json17JsonTilesetFormat11qt_metacastEPKc T fe90 0
__ZN4Json17JsonTilesetFormat16staticMetaObjectE S 15490 0
__ZN4Json17JsonTilesetFormat4readERK7QString T c3f0 0
__ZN4Json17JsonTilesetFormat5writeERKN5Tiled7TilesetERK7QString6QFlagsINS1_10FileFormat6OptionEE T ccb0 0
__ZN4Json17JsonTilesetFormatC1EP7QObject T a6d0 0
__ZN4Json17JsonTilesetFormatC2EP7QObject T c360 0
__ZN4Json24JsonObjectTemplateFormat11qt_metacallEN11QMetaObject4CallEiPPv T 10070 0
__ZN4Json24JsonObjectTemplateFormat11qt_metacastEPKc T ffe0 0
__ZN4Json24JsonObjectTemplateFormat16staticMetaObjectE S 154d0 0
__ZN4Json24JsonObjectTemplateFormat4readERK7QString T d390 0
__ZN4Json24JsonObjectTemplateFormat5writeEPKN5Tiled14ObjectTemplateERK7QString T dbd0 0
__ZN4Json24JsonObjectTemplateFormatC1EP7QObject T a700 0
__ZN4Json24JsonObjectTemplateFormatC2EP7QObject T d300 0
__ZNK4Json10JsonPlugin10metaObjectEv T f970 0
__ZNK4Json13JsonMapFormat10metaObjectEv T fce0 0
__ZNK4Json13JsonMapFormat10nameFilterEv T bc80 0
__ZNK4Json13JsonMapFormat11errorStringEv T c330 0
__ZNK4Json13JsonMapFormat12supportsFileERK7QString T be10 0
__ZNK4Json13JsonMapFormat9shortNameEv T bcf0 0
__ZNK4Json17JsonTilesetFormat10metaObjectEv T fe30 0
__ZNK4Json17JsonTilesetFormat10nameFilterEv T d200 0
__ZNK4Json17JsonTilesetFormat11errorStringEv T d2d0 0
__ZNK4Json17JsonTilesetFormat12supportsFileERK7QString T c930 0
__ZNK4Json17JsonTilesetFormat9shortNameEv T d240 0
__ZNK4Json24JsonObjectTemplateFormat10metaObjectEv T ff80 0
__ZNK4Json24JsonObjectTemplateFormat10nameFilterEv T e110 0
__ZNK4Json24JsonObjectTemplateFormat11errorStringEv T e1e0 0
__ZNK4Json24JsonObjectTemplateFormat12supportsFileERK7QString T d950 0
__ZNK4Json24JsonObjectTemplateFormat9shortNameEv T e150 0
__ZTIN4Json10JsonPluginE S 15580 0
__ZTIN4Json13JsonMapFormatE S 15648 0
__ZTIN4Json17JsonTilesetFormatE S 15708 0
__ZTIN4Json24JsonObjectTemplateFormatE S 157c8 0
__ZTSN4Json10JsonPluginE S 13dc5 0
__ZTSN4Json13JsonMapFormatE S 13dd9 0
__ZTSN4Json17JsonTilesetFormatE S 13df0 0
__ZTSN4Json24JsonObjectTemplateFormatE S 13e0b 0
__ZTVN4Json10JsonPluginE S 15508 0
__ZTVN4Json13JsonMapFormatE S 15598 0
__ZTVN4Json17JsonTilesetFormatE S 15660 0
__ZTVN4Json24JsonObjectTemplateFormatE S 15720 0
_qt_plugin_instance T fb50 0
_qt_plugin_query_metadata_v2 T fac0 0
