__Unwind_Resume U 0 0
__Z10qDeleteAllI5QHashI7QStringP13KArchiveEntryEEvRKT_ T 25360 0
__Z10qDeleteAllIN5QHashI7QStringP13KArchiveEntryE14const_iteratorEEvT_S6_ T 253d0 0
__Z11KArchiveLogv T 42540 0
__Z11qHashEqualsI10QByteArrayEbRKT_S3_ T 3f230 0
__Z11qHashEqualsI7QStringEbRKT_S3_ T 26ba0 0
__Z11qt_assert_xPKcS0_S0_i U 0 0
__Z11qt_ptr_swapI15QTypedArrayDataI7QStringEEvRPT_S5_ T 27d60 0
__Z11qt_ptr_swapI15QTypedArrayDataIDsEEvRPT_S4_ T 24270 0
__Z11qt_ptr_swapI15QTypedArrayDataIP13KZipFileEntryEEvRPT_S6_ T 3e170 0
__Z11qt_ptr_swapI15QTypedArrayDataIPK12KArchiveFileEEvRPT_S7_ T 2e0c0 0
__Z11qt_ptr_swapI15QTypedArrayDataIPK17KArchiveDirectoryEEvRPT_S7_ T 2b2d0 0
__Z11qt_ptr_swapI15QTypedArrayDataIcEEvRPT_S4_ T 25170 0
__Z11qt_ptr_swapI7QStringEvRPT_S3_ T 27da0 0
__Z11qt_ptr_swapI8QMapDataINSt3__13mapIx7QStringNS1_4lessIxEENS1_9allocatorINS1_4pairIKxS3_EEEEEEEEvRPT_SF_ T 30030 0
__Z11qt_ptr_swapIDsEvRPT_S2_ T 242b0 0
__Z11qt_ptr_swapIP13KZipFileEntryEvRPT_S4_ T 3e1b0 0
__Z11qt_ptr_swapIPK12KArchiveFileEvRPT_S5_ T 2e100 0
__Z11qt_ptr_swapIPK17KArchiveDirectoryEvRPT_S5_ T 2b310 0
__Z11qt_ptr_swapIcEvRPT_S2_ T 251b0 0
__Z12qobject_castIP11QFileDeviceET_P7QObject T 34a10 0
__Z13comparesEqualRK10QByteArrayRK14QByteArrayView T 3f3a0 0
__Z13comparesEqualRK11QStringViewS1_ T 26d40 0
__Z13comparesEqualRK14QByteArrayViewS1_ T 3f410 0
__Z13comparesEqualRK7QString13QLatin1String T 24450 0
__Z13comparesEqualRK7QStringS1_ T 26d00 0
__Z21qCountLeadingZeroBitsm T 289a0 0
__Z25qToStringViewIgnoringNullI7QStringLb1EE11QStringViewRKT_ T 24850 0
__Z28qToByteArrayViewIgnoringNullI10QByteArrayLb1EE14QByteArrayViewRKT_ T 3f150 0
__Z4qMaxIixEN11QTypeTraits6detail8PromotedIT_T0_NSt3__19enable_ifIXaaaaaaaaaaaaaasr3stdE15is_arithmetic_vIS3_Esr3stdE15is_arithmetic_vIS4_Eeqsr3stdE19is_floating_point_vIS3_Esr3stdE19is_floating_point_vIS4_Eeqsr3stdE11is_signed_vIS3_Esr3stdE11is_signed_vIS4_Entsr3stdE9is_same_vIS3_bEntsr3stdE9is_same_vIS4_bEntsr3stdE9is_same_vIS3_cEntsr3stdE9is_same_vIS4_cEEvE4typeEE4typeERKS3_RKS4_ T 2a700 0
__Z4qMaxIxERKT_S2_S2_ T 24b10 0
__Z4qMinIiERKT_S2_S2_ T 375a0 0
__Z4qMinIxERKT_S2_S2_ T 1ed00 0
__Z5qHash11QStringViewm U 0 0
__Z5qHash14QByteArrayViewm U 0 0
__Z5qHash6QPointm U 0 0
__Z5qHashRK10QByteArraymN2Qt15Disambiguated_tE T 3f110 0
__Z5qHashRK7QStringm T 26ab0 0
__Z9qBadAllocv U 0 0
__Z9qt_assertPKcS0_i U 0 0
__ZN10QArrayData10deallocateEPS_xx U 0 0
__ZN10QArrayData11needsDetachEv T 24160 0
__ZN10QArrayData17allocatedCapacityEv T 27f40 0
__ZN10QArrayData19reallocateUnalignedEPS_PvxxNS_16AllocationOptionE U 0 0
__ZN10QArrayData3refEv T 23e10 0
__ZN10QArrayData5derefEv T 23fa0 0
__ZN10QArrayData8allocateEPPS_xxxNS_16AllocationOptionE U 0 0
__ZN10QAtomicOpsIbE11loadRelaxedIbEET_RKNSt3__16atomicIS2_EE T 26f50 0
__ZN10QAtomicOpsIiE11loadRelaxedIiEET_RKNSt3__16atomicIS2_EE T 24030 0
__ZN10QAtomicOpsIiE18fetchAndAddRelaxedIiEET_RNSt3__16atomicIS2_EEN19QAtomicAdditiveTypeIS2_E9AdditiveTE T 23e50 0
__ZN10QAtomicOpsIiE3refIiEEbRNSt3__16atomicIT_EE T 28eb0 0
__ZN10QAtomicOpsIiE5derefIiEEbRNSt3__16atomicIT_EE T 23fe0 0
__ZN10QByteArray11reallocDataExN10QArrayData16AllocationOptionE U 0 0
__ZN10QByteArray4dataEv T 1e750 0
__ZN10QByteArray4swapERS_ T 250e0 0
__ZN10QByteArray6_emptyE U 0 0
__ZN10QByteArray6detachEv T 240c0 0
__ZN10QByteArray6resizeEx U 0 0
__ZN10QByteArrayC1Exc U 0 0
__ZN10QByteArrayaSEOS_ T 21ac0 0
__ZN10QByteArrayaSERKS_ U 0 0
__ZN10QByteArrayixEx T 1e800 0
__ZN11KFilterBase12virtual_hookEiPv T 35f70 0
__ZN11KFilterBase14setFilterFlagsENS_11FilterFlagsE T 35f30 0
__ZN11KFilterBase5resetEv T 35f20 0
__ZN11KFilterBase6deviceEv T 35e90 0
__ZN11KFilterBase9setDeviceEP9QIODeviceb T 35e50 0
__ZN11KFilterBase9terminateEv T 35f10 0
__ZN11KFilterBaseC2Ev T 35d30 0
__ZN11KFilterBaseD0Ev T 35e40 0
__ZN11KFilterBaseD1Ev T 35e30 0
__ZN11KFilterBaseD2Ev T 35dc0 0
__ZN11KGzipFilter10readHeaderEv T 36430 0
__ZN11KGzipFilter10uncompressEv T 36b60 0
__ZN11KGzipFilter11setInBufferEPKcj T 36a20 0
__ZN11KGzipFilter11writeFooterEv T 36800 0
__ZN11KGzipFilter11writeHeaderERK10QByteArray T 364d0 0
__ZN11KGzipFilter12setOutBufferEPcj T 369f0 0
__ZN11KGzipFilter15uncompress_noopEv T 36a90 0
__ZN11KGzipFilter4initEi T 36120 0
__ZN11KGzipFilter4initEiNS_4FlagE T 361b0 0
__ZN11KGzipFilter5resetEv T 363b0 0
__ZN11KGzipFilter8compressEb T 36cb0 0
__ZN11KGzipFilter9terminateEv T 36320 0
__ZN11KGzipFilterC1Ev T 36060 0
__ZN11KGzipFilterC2Ev T 35fb0 0
__ZN11KGzipFilterD0Ev T 360f0 0
__ZN11KGzipFilterD1Ev T 360d0 0
__ZN11KGzipFilterD2Ev T 36080 0
__ZN11KNoneFilter10readHeaderEv T 37350 0
__ZN11KNoneFilter10uncompressEv T 37420 0
__ZN11KNoneFilter11setInBufferEPKcj T 373b0 0
__ZN11KNoneFilter11writeHeaderERK10QByteArray T 37360 0
__ZN11KNoneFilter12setOutBufferEPcj T 37380 0
__ZN11KNoneFilter4initEi T 372f0 0
__ZN11KNoneFilter5resetEv T 37340 0
__ZN11KNoneFilter8compressEb T 37550 0
__ZN11KNoneFilter8copyDataEv T 37460 0
__ZN11KNoneFilter9terminateEv T 37330 0
__ZN11KNoneFilterC1Ev T 37230 0
__ZN11KNoneFilterC2Ev T 37180 0
__ZN11KNoneFilterD0Ev T 372c0 0
__ZN11KNoneFilterD1Ev T 372a0 0
__ZN11KNoneFilterD2Ev T 37250 0
__ZN11QFileDevice16staticMetaObjectE U 0 0
__ZN11QFileDevice5closeEv U 0 0
__ZN11QStringView10castHelperEPKDs T 24c70 0
__ZN11QStringView10castHelperI5QCharEEPKDsPKT_ T 24530 0
__ZN11QTextStreamlsERK7QString U 0 0
__ZN11QTextStreamlsEc U 0 0
__ZN11QTextStreamlsEi U 0 0
__ZN12KArchiveFile12virtual_hookEiPv T 23950 0
__ZN12KArchiveFile7setSizeEx T 21970 0
__ZN12KArchiveFileC1EP8KArchiveRK7QStringiRK9QDateTimeS4_S4_S4_xx T 21830 0
__ZN12KArchiveFileC2EP8KArchiveRK7QStringiRK9QDateTimeS4_S4_S4_xx T 21720 0
__ZN12KArchiveFileD0Ev T 21920 0
__ZN12KArchiveFileD1Ev T 21900 0
__ZN12KArchiveFileD2Ev T 218b0 0
__ZN12QHashPrivate12GrowthPolicy13bucketForHashEmm T 26af0 0
__ZN12QHashPrivate12GrowthPolicy18bucketsForCapacityEm T 28800 0
__ZN12QHashPrivate13calculateHashI10QByteArrayEEmRKT_m T 3ed30 0
__ZN12QHashPrivate13calculateHashI7QStringEEmRKT_m T 269a0 0
__ZN12QHashPrivate4DataINS_4NodeI10QByteArray13ParseFileInfoEEE12findOrInsertIS2_EENS5_15InsertionResultERKT_ T 3ea20 0
__ZN12QHashPrivate4DataINS_4NodeI10QByteArray13ParseFileInfoEEE13allocateSpansEm T 3f630 0
__ZN12QHashPrivate4DataINS_4NodeI10QByteArray13ParseFileInfoEEE6Bucket12advance_implEPKS5_PNS_4SpanIS4_EE T 3f500 0
__ZN12QHashPrivate4DataINS_4NodeI10QByteArray13ParseFileInfoEEE6Bucket12nodeAtOffsetEm T 3f200 0
__ZN12QHashPrivate4DataINS_4NodeI10QByteArray13ParseFileInfoEEE6Bucket14advanceWrappedEPKS5_ T 3f260 0
__ZN12QHashPrivate4DataINS_4NodeI10QByteArray13ParseFileInfoEEE6Bucket4nodeEv T 405a0 0
__ZN12QHashPrivate4DataINS_4NodeI10QByteArray13ParseFileInfoEEE6rehashEm T 3eeb0 0
__ZN12QHashPrivate4DataINS_4NodeI10QByteArray13ParseFileInfoEEE8detachedEPS5_ T 40060 0
__ZN12QHashPrivate4DataINS_4NodeI7QStringP13KArchiveEntryEEE12findOrInsertIS2_EENS6_15InsertionResultERKT_ T 282d0 0
__ZN12QHashPrivate4DataINS_4NodeI7QStringP13KArchiveEntryEEE13allocateSpansEm T 28870 0
__ZN12QHashPrivate4DataINS_4NodeI7QStringP13KArchiveEntryEEE5eraseENS6_6BucketE T 295a0 0
__ZN12QHashPrivate4DataINS_4NodeI7QStringP13KArchiveEntryEEE6Bucket12advance_implEPKS6_PNS_4SpanIS5_EE T 26dc0 0
__ZN12QHashPrivate4DataINS_4NodeI7QStringP13KArchiveEntryEEE6Bucket12nodeAtOffsetEm T 26b70 0
__ZN12QHashPrivate4DataINS_4NodeI7QStringP13KArchiveEntryEEE6Bucket14advanceWrappedEPKS6_ T 26bd0 0
__ZN12QHashPrivate4DataINS_4NodeI7QStringP13KArchiveEntryEEE6Bucket4nodeEv T 26970 0
__ZN12QHashPrivate4DataINS_4NodeI7QStringP13KArchiveEntryEEE6rehashEm T 28560 0
__ZN12QHashPrivate4DataINS_4NodeI7QStringP13KArchiveEntryEEE8detachedEPS6_ T 28ee0 0
__ZN12QHashPrivate4NodeI10QByteArray13ParseFileInfoE12emplaceValueIJRKS2_EEEvDpOT_ T 3ffd0 0
__ZN12QHashPrivate4NodeI10QByteArray13ParseFileInfoE12emplaceValueIJS2_EEEvDpOT_ T 3ec80 0
__ZN12QHashPrivate4NodeI10QByteArray13ParseFileInfoE13createInPlaceIJRKS2_EEEvPS3_OS1_DpOT_ T 3ff90 0
__ZN12QHashPrivate4NodeI10QByteArray13ParseFileInfoE13createInPlaceIJS2_EEEvPS3_OS1_DpOT_ T 3ebc0 0
__ZN12QHashPrivate4NodeI7QStringP13KArchiveEntryE12emplaceValueIJRKS3_EEEvDpOT_ T 28de0 0
__ZN12QHashPrivate4NodeI7QStringP13KArchiveEntryE12emplaceValueIJS3_EEEvDpOT_ T 284a0 0
__ZN12QHashPrivate4NodeI7QStringP13KArchiveEntryE13createInPlaceIJRKS3_EEEvPS4_OS1_DpOT_ T 28da0 0
__ZN12QHashPrivate4NodeI7QStringP13KArchiveEntryE13createInPlaceIJS3_EEEvPS4_OS1_DpOT_ T 28460 0
__ZN12QHashPrivate4SpanINS_4NodeI10QByteArray13ParseFileInfoEEE10addStorageEv T 3fc00 0
__ZN12QHashPrivate4SpanINS_4NodeI10QByteArray13ParseFileInfoEEE2atEm T 3f730 0
__ZN12QHashPrivate4SpanINS_4NodeI10QByteArray13ParseFileInfoEEE5Entry4nodeEv T 3e470 0
__ZN12QHashPrivate4SpanINS_4NodeI10QByteArray13ParseFileInfoEEE5Entry8nextFreeEv T 3fdf0 0
__ZN12QHashPrivate4SpanINS_4NodeI10QByteArray13ParseFileInfoEEE6insertEm T 3faf0 0
__ZN12QHashPrivate4SpanINS_4NodeI10QByteArray13ParseFileInfoEEE8atOffsetEm T 3f2f0 0
__ZN12QHashPrivate4SpanINS_4NodeI10QByteArray13ParseFileInfoEEE8freeDataEv T 3e390 0
__ZN12QHashPrivate4SpanINS_4NodeI7QStringP13KArchiveEntryEEE10addStorageEv T 28bc0 0
__ZN12QHashPrivate4SpanINS_4NodeI7QStringP13KArchiveEntryEEE12moveFromSpanERS6_mm T 29980 0
__ZN12QHashPrivate4SpanINS_4NodeI7QStringP13KArchiveEntryEEE2atEm T 256f0 0
__ZN12QHashPrivate4SpanINS_4NodeI7QStringP13KArchiveEntryEEE5Entry4nodeEv T 257e0 0
__ZN12QHashPrivate4SpanINS_4NodeI7QStringP13KArchiveEntryEEE5Entry8nextFreeEv T 28d60 0
__ZN12QHashPrivate4SpanINS_4NodeI7QStringP13KArchiveEntryEEE5eraseEm T 297c0 0
__ZN12QHashPrivate4SpanINS_4NodeI7QStringP13KArchiveEntryEEE6insertEm T 28ab0 0
__ZN12QHashPrivate4SpanINS_4NodeI7QStringP13KArchiveEntryEEE8atOffsetEm T 26c60 0
__ZN12QHashPrivate4SpanINS_4NodeI7QStringP13KArchiveEntryEEE8freeDataEv T 25b30 0
__ZN12QHashPrivate4SpanINS_4NodeI7QStringP13KArchiveEntryEEE9moveLocalEmm T 298e0 0
__ZN12QHashPrivate8iteratorINS_4NodeI7QStringP13KArchiveEntryEEEppEv T 257f0 0
__ZN12QHashPrivateeqENS_4DataINS_4NodeI7QStringP13KArchiveEntryEEE6BucketES7_ T 298a0 0
__ZN13KArchiveEntry12virtual_hookEiPv T 23930 0
__ZN13KArchiveEntryC1EP8KArchiveRK7QStringiRK9QDateTimeS4_S4_S4_ T 21550 0
__ZN13KArchiveEntryC2EP8KArchiveRK7QStringiRK9QDateTimeS4_S4_S4_ T 21440 0
__ZN13KArchiveEntryD0Ev T 21640 0
__ZN13KArchiveEntryD1Ev T 21620 0
__ZN13KArchiveEntryD2Ev T 215b0 0
__ZN13KZipFileEntry14setHeaderStartEx T 39de0 0
__ZN13KZipFileEntry17setCompressedSizeEx T 3cac0 0
__ZN13KZipFileEntry8setCRC32Em T 39e00 0
__ZN13KZipFileEntryC1EP4KZipRK7QStringiRK9QDateTimeS4_S4_S4_S4_xxix T 39d30 0
__ZN13KZipFileEntryC2EP4KZipRK7QStringiRK9QDateTimeS4_S4_S4_S4_xxix T 3cfe0 0
__ZN13KZipFileEntryD0Ev T 3d1d0 0
__ZN13KZipFileEntryD1Ev T 3d1b0 0
__ZN13KZipFileEntryD2Ev T 3d130 0
__ZN13ParseFileInfoaSEOS_ T 3fea0 0
__ZN14QAnyStringView10encodeTypeI5QCharEEmPKT_x T 27140 0
__ZN14QAnyStringView29isAsciiOnlyCharsAtCompileTimeIK5QCharEEbPT_x T 27210 0
__ZN14QByteArrayView10castHelperEPKc T 23d00 0
__ZN15KArchivePrivate12abortWritingEv T 1d890 0
__ZN15KArchivePrivate12findOrCreateERK7QStringi T 1fcc0 0
__ZN15KArchivePrivate16time_tToDateTimeEj T 213f0 0
__ZN15KArchivePrivate2trEPKcS1_i T 23a50 0
__ZN15QTypedArrayDataI7QStringE10deallocateEP10QArrayData T 24740 0
__ZN15QTypedArrayDataI7QStringE19reallocateUnalignedEPS1_PS0_xN10QArrayData16AllocationOptionE T 2c5f0 0
__ZN15QTypedArrayDataI7QStringE8allocateExN10QArrayData16AllocationOptionE T 27b00 0
__ZN15QTypedArrayDataI7QStringE9dataStartEP10QArrayDatax T 2b990 0
__ZN15QTypedArrayDataIDsE10deallocateEP10QArrayData T 267d0 0
__ZN15QTypedArrayDataIP13KZipFileEntryE10deallocateEP10QArrayData T 3d8e0 0
__ZN15QTypedArrayDataIP13KZipFileEntryE19reallocateUnalignedEPS2_PS1_xN10QArrayData16AllocationOptionE T 417d0 0
__ZN15QTypedArrayDataIP13KZipFileEntryE8allocateExN10QArrayData16AllocationOptionE T 3e030 0
__ZN15QTypedArrayDataIP13KZipFileEntryE9dataStartEP10QArrayDatax T 40ba0 0
__ZN15QTypedArrayDataIPK12KArchiveFileE10deallocateEP10QArrayData T 266e0 0
__ZN15QTypedArrayDataIPK12KArchiveFileE19reallocateUnalignedEPS3_PS2_xN10QArrayData16AllocationOptionE T 2ddb0 0
__ZN15QTypedArrayDataIPK12KArchiveFileE8allocateExN10QArrayData16AllocationOptionE T 2ded0 0
__ZN15QTypedArrayDataIPK12KArchiveFileE9dataStartEP10QArrayDatax T 2d120 0
__ZN15QTypedArrayDataIPK17KArchiveDirectoryE10deallocateEP10QArrayData T 26170 0
__ZN15QTypedArrayDataIPK17KArchiveDirectoryE19reallocateUnalignedEPS3_PS2_xN10QArrayData16AllocationOptionE T 2aee0 0
__ZN15QTypedArrayDataIPK17KArchiveDirectoryE8allocateExN10QArrayData16AllocationOptionE T 2b000 0
__ZN15QTypedArrayDataIPK17KArchiveDirectoryE9dataStartEP10QArrayDatax T 2a200 0
__ZN15QTypedArrayDataIcE10deallocateEP10QArrayData T 23f70 0
__ZN15QtSharedPointer20ExternalRefCountData9getAndRefEPK7QObject U 0 0
__ZN16KLimitedIODevice11qt_metacallEN11QMetaObject4CallEiPPv T 1c650 0
__ZN16KLimitedIODevice11qt_metacastEPKc T 1c5e0 0
__ZN16KLimitedIODevice16staticMetaObjectE S 4bac8 0
__ZN16KLimitedIODevice4openE6QFlagsIN13QIODeviceBase12OpenModeFlagEE T 36f30 0
__ZN16KLimitedIODevice4seekEx T 37090 0
__ZN16KLimitedIODevice5closeEv T 36ff0 0
__ZN16KLimitedIODevice8readDataEPcx T 37020 0
__ZN16KLimitedIODeviceC1EP9QIODevicexx T 36ef0 0
__ZN16KLimitedIODeviceC2EP9QIODevicexx T 36e50 0
__ZN16QCoreApplication9translateEPKcS1_S1_i U 0 0
__ZN16QLoggingCategoryC1EPKc9QtMsgType U 0 0
__ZN16QLoggingCategoryD1Ev U 0 0
__ZN16QXmlStreamWriter14writeAttributeE14QAnyStringViewS0_ U 0 0
__ZN16QXmlStreamWriter15writeEndElementEv U 0 0
__ZN16QXmlStreamWriter16writeEndDocumentEv U 0 0
__ZN16QXmlStreamWriter16writeTextElementE14QAnyStringViewS0_ U 0 0
__ZN16QXmlStreamWriter17setAutoFormattingEb U 0 0
__ZN16QXmlStreamWriter17writeEmptyElementE14QAnyStringView U 0 0
__ZN16QXmlStreamWriter17writeStartElementE14QAnyStringView U 0 0
__ZN16QXmlStreamWriter18writeStartDocumentEv U 0 0
__ZN16QXmlStreamWriter23setAutoFormattingIndentEi U 0 0
__ZN16QXmlStreamWriterC1EP10QByteArray U 0 0
__ZN16QXmlStreamWriterD1Ev U 0 0
__ZN17KArchiveDirectory10addEntryV2EP13KArchiveEntry T 20fc0 0
__ZN17KArchiveDirectory11removeEntryEP13KArchiveEntry T 209b0 0
__ZN17KArchiveDirectory12virtual_hookEiPv T 23980 0
__ZN17KArchiveDirectory8addEntryEP13KArchiveEntry T 22350 0
__ZN17KArchiveDirectoryC1EP8KArchiveRK7QStringiRK9QDateTimeS4_S4_S4_ T 1fc30 0
__ZN17KArchiveDirectoryC2EP8KArchiveRK7QStringiRK9QDateTimeS4_S4_S4_ T 22030 0
__ZN17KArchiveDirectoryD0Ev T 221e0 0
__ZN17KArchiveDirectoryD1Ev T 221c0 0
__ZN17KArchiveDirectoryD2Ev T 22140 0
__ZN17QArrayDataPointerI7QStringE12allocateGrowERKS1_xN10QArrayData14GrowthPositionE T 2c120 0
__ZN17QArrayDataPointerI7QStringE13detachAndGrowEN10QArrayData14GrowthPositionExPPKS0_PS1_ T 2b850 0
__ZN17QArrayDataPointerI7QStringE17allocatedCapacityEv T 27e70 0
__ZN17QArrayDataPointerI7QStringE17reallocateAndGrowEN10QArrayData14GrowthPositionExPS1_ T 2bbf0 0
__ZN17QArrayDataPointerI7QStringE20tryReadjustFreeSpaceEN10QArrayData14GrowthPositionExPPKS0_ T 2ba10 0
__ZN17QArrayDataPointerI7QStringE3endEv T 24790 0
__ZN17QArrayDataPointerI7QStringE4dataEv T 247c0 0
__ZN17QArrayDataPointerI7QStringE4swapERS1_ T 27c10 0
__ZN17QArrayDataPointerI7QStringE5beginEv T 24770 0
__ZN17QArrayDataPointerI7QStringE5derefEv T 24660 0
__ZN17QArrayDataPointerI7QStringE6detachEPS1_ T 2c750 0
__ZN17QArrayDataPointerI7QStringE8relocateExPPKS0_ T 2be90 0
__ZN17QArrayDataPointerI7QStringEaSEOS1_ T 277e0 0
__ZN17QArrayDataPointerI7QStringEptEv T 246a0 0
__ZN17QArrayDataPointerIDsE3refEv T 23de0 0
__ZN17QArrayDataPointerIDsE4swapERS0_ T 24210 0
__ZN17QArrayDataPointerIDsE5derefEv T 26710 0
__ZN17QArrayDataPointerIDsEptEv T 26750 0
__ZN17QArrayDataPointerIP13KZipFileEntryE12allocateGrowERKS2_xN10QArrayData14GrowthPositionE T 41430 0
__ZN17QArrayDataPointerIP13KZipFileEntryE13detachAndGrowEN10QArrayData14GrowthPositionExPPKS1_PS2_ T 40930 0
__ZN17QArrayDataPointerIP13KZipFileEntryE17allocatedCapacityEv T 3dea0 0
__ZN17QArrayDataPointerIP13KZipFileEntryE17reallocateAndGrowEN10QArrayData14GrowthPositionExPS2_ T 40e00 0
__ZN17QArrayDataPointerIP13KZipFileEntryE20tryReadjustFreeSpaceEN10QArrayData14GrowthPositionExPPKS1_ T 40c20 0
__ZN17QArrayDataPointerIP13KZipFileEntryE3endEv T 40880 0
__ZN17QArrayDataPointerIP13KZipFileEntryE4dataEv T 40b80 0
__ZN17QArrayDataPointerIP13KZipFileEntryE4swapERS2_ T 3df30 0
__ZN17QArrayDataPointerIP13KZipFileEntryE5beginEv T 40910 0
__ZN17QArrayDataPointerIP13KZipFileEntryE5derefEv T 3d820 0
__ZN17QArrayDataPointerIP13KZipFileEntryE6detachEPS2_ T 41a10 0
__ZN17QArrayDataPointerIP13KZipFileEntryE8relocateExPPKS1_ T 410a0 0
__ZN17QArrayDataPointerIP13KZipFileEntryEptEv T 3d860 0
__ZN17QArrayDataPointerIPK12KArchiveFileE12allocateGrowERKS3_xN10QArrayData14GrowthPositionE T 2d9b0 0
__ZN17QArrayDataPointerIPK12KArchiveFileE13detachAndGrowEN10QArrayData14GrowthPositionExPPKS2_PS3_ T 2ceb0 0
__ZN17QArrayDataPointerIPK12KArchiveFileE17reallocateAndGrowEN10QArrayData14GrowthPositionExPS3_ T 2d380 0
__ZN17QArrayDataPointerIPK12KArchiveFileE20tryReadjustFreeSpaceEN10QArrayData14GrowthPositionExPPKS2_ T 2d1a0 0
__ZN17QArrayDataPointerIPK12KArchiveFileE3endEv T 2ce00 0
__ZN17QArrayDataPointerIPK12KArchiveFileE4dataEv T 2d100 0
__ZN17QArrayDataPointerIPK12KArchiveFileE4swapERS3_ T 2dd50 0
__ZN17QArrayDataPointerIPK12KArchiveFileE5beginEv T 2ce90 0
__ZN17QArrayDataPointerIPK12KArchiveFileE5derefEv T 26620 0
__ZN17QArrayDataPointerIPK12KArchiveFileE6detachEPS3_ T 30ae0 0
__ZN17QArrayDataPointerIPK12KArchiveFileE8relocateExPPKS2_ T 2d620 0
__ZN17QArrayDataPointerIPK12KArchiveFileEptEv T 26660 0
__ZN17QArrayDataPointerIPK17KArchiveDirectoryE12allocateGrowERKS3_xN10QArrayData14GrowthPositionE T 2aae0 0
__ZN17QArrayDataPointerIPK17KArchiveDirectoryE13detachAndGrowEN10QArrayData14GrowthPositionExPPKS2_PS3_ T 29f70 0
__ZN17QArrayDataPointerIPK17KArchiveDirectoryE17reallocateAndGrowEN10QArrayData14GrowthPositionExPS3_ T 2a460 0
__ZN17QArrayDataPointerIPK17KArchiveDirectoryE20tryReadjustFreeSpaceEN10QArrayData14GrowthPositionExPPKS2_ T 2a280 0
__ZN17QArrayDataPointerIPK17KArchiveDirectoryE3endEv T 29ec0 0
__ZN17QArrayDataPointerIPK17KArchiveDirectoryE4dataEv T 2a1e0 0
__ZN17QArrayDataPointerIPK17KArchiveDirectoryE4swapERS3_ T 2ae80 0
__ZN17QArrayDataPointerIPK17KArchiveDirectoryE5beginEv T 29f50 0
__ZN17QArrayDataPointerIPK17KArchiveDirectoryE5derefEv T 260b0 0
__ZN17QArrayDataPointerIPK17KArchiveDirectoryE6detachEPS3_ T 2b3a0 0
__ZN17QArrayDataPointerIPK17KArchiveDirectoryE8relocateExPPKS2_ T 2a750 0
__ZN17QArrayDataPointerIPK17KArchiveDirectoryEptEv T 260f0 0
__ZN17QArrayDataPointerIcE3refEv T 3e7b0 0
__ZN17QArrayDataPointerIcE4dataEv T 24100 0
__ZN17QArrayDataPointerIcE4swapERS0_ T 25110 0
__ZN17QArrayDataPointerIcE5derefEv T 23eb0 0
__ZN17QArrayDataPointerIcEptEv T 23ef0 0
__ZN18KCompressionDevice10filterBaseEv T 35c10 0
__ZN18KCompressionDevice11qt_metacallEN11QMetaObject4CallEiPPv T 1c4a0 0
__ZN18KCompressionDevice11qt_metacastEPKc T 1c430 0
__ZN18KCompressionDevice14setSkipHeadersEv T 35bf0 0
__ZN18KCompressionDevice15setOrigFileNameERK10QByteArray T 35bc0 0
__ZN18KCompressionDevice16staticMetaObjectE S 4b978 0
__ZN18KCompressionDevice24filterForCompressionTypeENS_15CompressionTypeE T 34a30 0
__ZN18KCompressionDevice2trEPKcS1_i T 35b80 0
__ZN18KCompressionDevice4openE6QFlagsIN13QIODeviceBase12OpenModeFlagEE T 34f80 0
__ZN18KCompressionDevice4seekEx T 35260 0
__ZN18KCompressionDevice5closeEv T 35160 0
__ZN18KCompressionDevice8readDataEPcx T 35560 0
__ZN18KCompressionDevice9writeDataEPKcx T 35810 0
__ZN18KCompressionDeviceC1EP9QIODevicebNS_15CompressionTypeE T 34c80 0
__ZN18KCompressionDeviceC1ERK7QStringNS_15CompressionTypeE T 34e10 0
__ZN18KCompressionDeviceC2EP9QIODevicebNS_15CompressionTypeE T 34b20 0
__ZN18KCompressionDeviceC2ERK7QStringNS_15CompressionTypeE T 34cc0 0
__ZN18KCompressionDeviceD0Ev T 34f30 0
__ZN18KCompressionDeviceD1Ev T 34f10 0
__ZN18KCompressionDeviceD2Ev T 34e40 0
__ZN18QCryptographicHash4hashE14QByteArrayViewNS_9AlgorithmE U 0 0
__ZN19QBasicAtomicIntegerIiE10refRelaxedEv T 23e30 0
__ZN19QBasicAtomicIntegerIiE3refEv T 28e80 0
__ZN19QBasicAtomicIntegerIiE5derefEv T 23fc0 0
__ZN20QMutableListIteratorIP13KZipFileEntryE4nextEv T 3b210 0
__ZN20QMutableListIteratorIP13KZipFileEntryE5valueEv T 3b250 0
__ZN20QMutableListIteratorIP13KZipFileEntryE6removeEv T 3c810 0
__ZN20QMutableListIteratorIP13KZipFileEntryE7toFrontEv T 3b300 0
__ZN24KArchiveDirectoryPrivate3getEP17KArchiveDirectory T 20510 0
__ZN25KCompressionDevicePrivate18propagateErrorCodeEv T 34960 0
__ZN2Qt11qt_ptr_swapERNS_23totally_ordered_wrapperIP8QMapDataINSt3__13mapIx7QStringNS2_4lessIxEENS2_9allocatorINS2_4pairIKxS4_EEEEEEEEESG_ T 30000 0
__ZN2Qt13DisambiguatedE S 4599a 0
__ZN2Qt23totally_ordered_wrapperIP8QMapDataINSt3__13mapIx7QStringNS2_4lessIxEENS2_9allocatorINS2_4pairIKxS4_EEEEEEEE5resetESE_ T 2e840 0
__ZN3q2011countl_zeroImEENSt3__19enable_ifIXsr3stdE13is_unsigned_vIT_EEiE4typeES3_ T 289d0 0
__ZN4KZip10doWriteDirERK7QStringS2_S2_tRK9QDateTimeS5_S5_ T 3b590 0
__ZN4KZip11openArchiveE6QFlagsIN13QIODeviceBase12OpenModeFlagEE T 378d0 0
__ZN4KZip12closeArchiveEv T 3a0f0 0
__ZN4KZip12virtual_hookEiPv T 3cd00 0
__ZN4KZip13setExtraFieldENS_10ExtraFieldE T 3cfa0 0
__ZN4KZip14doWriteSymLinkERK7QStringS2_S2_S2_tRK9QDateTimeS5_S5_ T 3cae0 0
__ZN4KZip14setCompressionENS_11CompressionE T 3ccd0 0
__ZN4KZip15doFinishWritingEx T 3c8c0 0
__ZN4KZip16doPrepareWritingERK7QStringS2_S2_xtRK9QDateTimeS5_S5_ T 3b720 0
__ZN4KZip2trEPKcS1_i T 39730 0
__ZN4KZip9writeDataEPKcx T 3cd30 0
__ZN4KZipC1EP9QIODevice T 377b0 0
__ZN4KZipC1ERK7QString T 376e0 0
__ZN4KZipC2EP9QIODevice T 37710 0
__ZN4KZipC2ERK7QString T 37620 0
__ZN4KZipD0Ev T 378a0 0
__ZN4KZipD1Ev T 37880 0
__ZN4KZipD2Ev T 377e0 0
__ZN4QDir9cleanPathERK7QString U 0 0
__ZN4QDir9setFilterE6QFlagsINS_6FilterEE U 0 0
__ZN4QDirC1ERK7QString U 0 0
__ZN4QDirD1Ev U 0 0
__ZN4QMapIx7QStringE22referenceHoldingDetachEv T 33f60 0
__ZN4QMapIx7QStringE28referenceHoldingDetachExceptERKx T 2e190 0
__ZN4QMapIx7QStringE6insertERKxRKS0_ T 23390 0
__ZN4QMapIx7QStringEixERKx T 236a0 0
__ZN4QUrlC1ERKS_ U 0 0
__ZN4QUrlD1Ev U 0 0
__ZN5QChar7unicodeEv T 24ae0 0
__ZN5QDateC1Eiii U 0 0
__ZN5QFile10decodeNameEPKc T 1e8e0 0
__ZN5QFile10decodeNameERK10QByteArray T 39cb0 0
__ZN5QFile10encodeNameERK7QString T 1e5b0 0
__ZN5QFile14setPermissionsE6QFlagsIN11QFileDevice10PermissionEE U 0 0
__ZN5QFile4linkERK7QString U 0 0
__ZN5QFile4openE6QFlagsIN13QIODeviceBase12OpenModeFlagEE U 0 0
__ZN5QFile6removeEv U 0 0
__ZN5QFileC1ERK7QString U 0 0
__ZN5QFileD1Ev U 0 0
__ZN5QHashI10QByteArray13ParseFileInfoE14emplace_helperIJRKS1_EEENS2_8iteratorEOS0_DpOT_ T 3e910 0
__ZN5QHashI10QByteArray13ParseFileInfoE14emplace_helperIJS1_EEENS2_8iteratorEOS0_DpOT_ T 3e850 0
__ZN5QHashI10QByteArray13ParseFileInfoE6detachEv T 3e9d0 0
__ZN5QHashI10QByteArray13ParseFileInfoE6insertERKS0_RKS1_ T 39be0 0
__ZN5QHashI10QByteArray13ParseFileInfoE7emplaceIJRKS1_EEENS2_8iteratorEOS0_DpOT_ T 3e590 0
__ZN5QHashI10QByteArray13ParseFileInfoE7emplaceIJRKS1_EEENS2_8iteratorERKS0_DpOT_ T 3e4d0 0
__ZN5QHashI7QStringP13KArchiveEntryE12key_iteratorppEv T 27ad0 0
__ZN5QHashI7QStringP13KArchiveEntryE14const_iteratorppEv T 25540 0
__ZN5QHashI7QStringP13KArchiveEntryE14emplace_helperIJRKS2_EEENS3_8iteratorEOS0_DpOT_ T 28180 0
__ZN5QHashI7QStringP13KArchiveEntryE14emplace_helperIJS2_EEENS3_8iteratorEOS0_DpOT_ T 280f0 0
__ZN5QHashI7QStringP13KArchiveEntryE3endEv T 22490 0
__ZN5QHashI7QStringP13KArchiveEntryE4findERKS0_ T 22410 0
__ZN5QHashI7QStringP13KArchiveEntryE5eraseENS3_14const_iteratorE T 224e0 0
__ZN5QHashI7QStringP13KArchiveEntryE6detachEv T 28240 0
__ZN5QHashI7QStringP13KArchiveEntryE6insertEOS0_RKS2_ T 223d0 0
__ZN5QHashI7QStringP13KArchiveEntryE7emplaceIJRKS2_EEENS3_8iteratorEOS0_DpOT_ T 27f80 0
__ZN5QHashI7QStringP13KArchiveEntryE8findImplIS0_EENS3_8iteratorERKT_ T 293a0 0
__ZN5QHashI7QStringP13KArchiveEntryE8iteratorppEv T 29790 0
__ZN5QListI7QStringE11emplaceBackIJRKS0_EEERS0_DpOT_ T 2b430 0
__ZN5QListI7QStringE11emplaceBackIJS0_EEERS0_DpOT_ T 30840 0
__ZN5QListI7QStringE14const_iteratorppEv T 1f640 0
__ZN5QListI7QStringE3endEv T 2b6b0 0
__ZN5QListI7QStringE4lastEv T 2c9b0 0
__ZN5QListI7QStringE6appendEOS0_ T 30810 0
__ZN5QListI7QStringE6appendERKS0_ T 2b400 0
__ZN5QListI7QStringE6detachEv T 2c730 0
__ZN5QListI7QStringE8takeLastEv T 2c8f0 0
__ZN5QListIP13KZipFileEntryE11emplaceBackIJRS1_EEES4_DpOT_ T 405d0 0
__ZN5QListIP13KZipFileEntryE3endEv T 40780 0
__ZN5QListIP13KZipFileEntryE5beginEv T 41b10 0
__ZN5QListIP13KZipFileEntryE5clearEv T 39680 0
__ZN5QListIP13KZipFileEntryE5eraseENS2_14const_iteratorE T 41dd0 0
__ZN5QListIP13KZipFileEntryE5eraseENS2_14const_iteratorES3_ T 41e30 0
__ZN5QListIP13KZipFileEntryE6appendES1_ T 39e20 0
__ZN5QListIP13KZipFileEntryE6detachEv T 419c0 0
__ZN5QListIP13KZipFileEntryE6removeExx T 420f0 0
__ZN5QListIP13KZipFileEntryE8iteratorppEi T 41cb0 0
__ZN5QListIP13KZipFileEntryE8iteratorppEv T 41ce0 0
__ZN5QListIPK12KArchiveFileE11emplaceBackIJRS2_EEES5_DpOT_ T 2cb50 0
__ZN5QListIPK12KArchiveFileE14const_iteratorppEv T 23870 0
__ZN5QListIPK12KArchiveFileE3endEv T 23560 0
__ZN5QListIPK12KArchiveFileE5beginEv T 23520 0
__ZN5QListIPK12KArchiveFileE6appendES2_ T 23360 0
__ZN5QListIPK12KArchiveFileE6detachEv T 30ac0 0
__ZN5QListIPK12KArchiveFileE8iteratormIEx T 33960 0
__ZN5QListIPK12KArchiveFileE8iteratormmEv T 31530 0
__ZN5QListIPK12KArchiveFileE8iteratorpLEx T 33710 0
__ZN5QListIPK12KArchiveFileE8iteratorppEv T 32cd0 0
__ZN5QListIPK17KArchiveDirectoryE11emplaceBackIJRS2_EEES5_DpOT_ T 29bd0 0
__ZN5QListIPK17KArchiveDirectoryE3endEv T 29d80 0
__ZN5QListIPK17KArchiveDirectoryE4lastEv T 2c800 0
__ZN5QListIPK17KArchiveDirectoryE6appendES2_ T 29ba0 0
__ZN5QListIPK17KArchiveDirectoryE6detachEv T 2b350 0
__ZN5QListIPK17KArchiveDirectoryE8takeLastEv T 2c790 0
__ZN5QTimeC1Eiiii U 0 0
__ZN5QUuid10createUuidEv U 0 0
__ZN5RpMap11RpMapPlugin11qt_metacallEN11QMetaObject4CallEiPPv T 1b270 0
__ZN5RpMap11RpMapPlugin11qt_metacastEPKc T 1b1e0 0
__ZN5RpMap11RpMapPlugin13writeTokenMapER16QXmlStreamWriterPKN5Tiled3MapE T 45f0 0
__ZN5RpMap11RpMapPlugin16staticMetaObjectE S 4b870 0
__ZN5RpMap11RpMapPlugin21writeTokenOrderedListER16QXmlStreamWriter T 9e30 0
__ZN5RpMap11RpMapPlugin5writeEPKN5Tiled3MapERK7QString6QFlagsINS1_10FileFormat6OptionEE T 10490 0
__ZN5RpMap11RpMapPlugin8writeMapER16QXmlStreamWriterPKN5Tiled3MapE T a7f0 0
__ZN5RpMap11RpMapPluginC1Ev T 4410 0
__ZN5RpMap11RpMapPluginC2Ev T 4310 0
__ZN5Tiled10FileFormatC2EP7QObject U 0 0
__ZN5Tiled17WritableMapFormat11qt_metacallEN11QMetaObject4CallEiPPv U 0 0
__ZN5Tiled17WritableMapFormat11qt_metacastEPKc U 0 0
__ZN5Tiled17WritableMapFormat16staticMetaObjectE U 0 0
__ZN5Tiled4Cell5emptyE U 0 0
__ZN5Tiled5Layer11asTileLayerEv U 0 0
__ZN6QDebug10maybeSpaceEv T 23c70 0
__ZN6QDebug9putStringEPK5QCharm U 0 0
__ZN6QDebugD1Ev U 0 0
__ZN6QDebuglsEPKc T 1ca00 0
__ZN6QDebuglsERK7QString T 208f0 0
__ZN6QDebuglsEi T 3d630 0
__ZN6QFlagsIN11QFileDevice10PermissionEEoRES1_ T 25290 0
__ZN6QStackI7QStringE3popEv T 23310 0
__ZN6QStackI7QStringE4pushEOS0_ T 23480 0
__ZN6QStackI7QStringE4pushERKS0_ T 232c0 0
__ZN6QStackIPK17KArchiveDirectoryE3popEv T 232f0 0
__ZN6QStackIPK17KArchiveDirectoryE4pushEOS2_ T 23290 0
__ZN6QStackIPK17KArchiveDirectoryE4pushERKS2_ T 23450 0
__ZN7QObject10childEventEP11QChildEvent U 0 0
__ZN7QObject10timerEventEP11QTimerEvent U 0 0
__ZN7QObject11customEventEP6QEvent U 0 0
__ZN7QObject11eventFilterEPS_P6QEvent U 0 0
__ZN7QObject13connectNotifyERK11QMetaMethod U 0 0
__ZN7QObject16disconnectNotifyERK11QMetaMethod U 0 0
__ZN7QObject5eventEP6QEvent U 0 0
__ZN7QObjectD2Ev U 0 0
__ZN7QString13toUtf8_helperERKS_ U 0 0
__ZN7QString4swapERS_ T 241e0 0
__ZN7QString6_emptyE U 0 0
__ZN7QString6appendE5QChar U 0 0
__ZN7QString6appendERKS_ U 0 0
__ZN7QString6numberEdci U 0 0
__ZN7QString6numberEii U 0 0
__ZN7QString6numberEji U 0 0
__ZN7QString6numberExi U 0 0
__ZN7QString8fromUtf8E14QByteArrayView U 0 0
__ZN7QString8fromUtf8IvEES_RK10QByteArray T 3dca0 0
__ZN7QStringC1EPK5QCharx U 0 0
__ZN7QStringaSEOS_ T 1e970 0
__ZN7QStringaSERKS_ U 0 0
__ZN7QStringpLE5QChar T 24570 0
__ZN7QStringpLERKS_ T 24540 0
__ZN8KArchive10setRootDirEP17KArchiveDirectory T 21310 0
__ZN8KArchive12addLocalFileERK7QStringS2_ T 1d950 0
__ZN8KArchive12createDeviceE6QFlagsIN13QIODeviceBase12OpenModeFlagEE T 1d0b0 0
__ZN8KArchive12findOrCreateERK7QString T 1fc90 0
__ZN8KArchive12virtual_hookEiPv T 23910 0
__ZN8KArchive12writeSymLinkERK7QStringS2_S2_S2_tRK9QDateTimeS5_S5_ T 1e9a0 0
__ZN8KArchive13finishWritingEx T 1ed40 0
__ZN8KArchive14prepareWritingERK7QStringS2_S2_xtRK9QDateTimeS5_S5_ T 1ec60 0
__ZN8KArchive14setErrorStringERK7QString T 1cfa0 0
__ZN8KArchive17addLocalDirectoryERK7QStringS2_ T 1ed70 0
__ZN8KArchive2trEPKcS1_i T 1cfd0 0
__ZN8KArchive4openE6QFlagsIN13QIODeviceBase12OpenModeFlagEE T 1ccc0 0
__ZN8KArchive5closeEv T 1d650 0
__ZN8KArchive7rootDirEv T 1f950 0
__ZN8KArchive8writeDirERK7QStringS2_S2_tRK9QDateTimeS5_S5_ T 1f8e0 0
__ZN8KArchive9setDeviceEP9QIODevice T 212a0 0
__ZN8KArchive9writeDataEPKcx T 1f770 0
__ZN8KArchive9writeFileERK7QStringRK10QByteArraytS2_S2_RK9QDateTimeS8_S8_ T 1f680 0
__ZN8KArchiveC2EP9QIODevice T 1ca90 0
__ZN8KArchiveC2ERK7QString T 1c7a0 0
__ZN8KArchiveD0Ev T 1ccb0 0
__ZN8KArchiveD1Ev T 1cca0 0
__ZN8KArchiveD2Ev T 1cbd0 0
__ZN8QMapDataINSt3__13mapIx7QStringNS0_4lessIxEENS0_9allocatorINS0_4pairIKxS2_EEEEEEE21copyIfNotEquivalentToERKSA_RS7_ T 2e660 0
__ZN9QDateTime15currentDateTimeEv U 0 0
__ZN9QDateTime18fromSecsSinceEpochEx U 0 0
__ZN9QDateTime22currentMSecsSinceEpochEv U 0 0
__ZN9QDateTimeC1E5QDate5QTimeNS_20TransitionResolutionE U 0 0
__ZN9QDateTimeC1ERKS_ U 0 0
__ZN9QDateTimeC1Ev U 0 0
__ZN9QDateTimeD1Ev U 0 0
__ZN9QFileInfoC1ERK7QString U 0 0
__ZN9QFileInfoD1Ev U 0 0
__ZN9QHashSeed10globalSeedEv U 0 0
__ZN9QIODevice11qt_metacallEN11QMetaObject4CallEiPPv U 0 0
__ZN9QIODevice11qt_metacastEPKc U 0 0
__ZN9QIODevice11setOpenModeE6QFlagsIN13QIODeviceBase12OpenModeFlagEE U 0 0
__ZN9QIODevice12readLineDataEPcx U 0 0
__ZN9QIODevice14setErrorStringERK7QString U 0 0
__ZN9QIODevice16staticMetaObjectE U 0 0
__ZN9QIODevice16waitForReadyReadEi U 0 0
__ZN9QIODevice19waitForBytesWrittenEi U 0 0
__ZN9QIODevice4readEPcx U 0 0
__ZN9QIODevice4readEx U 0 0
__ZN9QIODevice4seekEx U 0 0
__ZN9QIODevice5resetEv U 0 0
__ZN9QIODevice5writeEPKcx U 0 0
__ZN9QIODevice7readAllEv U 0 0
__ZN9QIODevice8skipDataEx U 0 0
__ZN9QIODeviceC2Ev U 0 0
__ZN9QIODeviceD2Ev U 0 0
__ZN9QSaveFile13cancelWritingEv U 0 0
__ZN9QSaveFile6commitEv U 0 0
__ZN9QSaveFileC1ERK7QStringP7QObject U 0 0
__ZN9QtPrivate10findStringE11QStringViewx5QCharN2Qt15CaseSensitivityE T 24910 0
__ZN9QtPrivate11lastIndexOfE11QStringViewxDsN2Qt15CaseSensitivityE U 0 0
__ZN9QtPrivate12QPodArrayOpsIDsE10destroyAllEv T 26760 0
__ZN9QtPrivate12QPodArrayOpsIP13KZipFileEntryE10copyAppendEPKS2_S5_ T 41660 0
__ZN9QtPrivate12QPodArrayOpsIP13KZipFileEntryE10createHoleEN10QArrayData14GrowthPositionExx T 40a30 0
__ZN9QtPrivate12QPodArrayOpsIP13KZipFileEntryE10destroyAllEv T 3d870 0
__ZN9QtPrivate12QPodArrayOpsIP13KZipFileEntryE10moveAppendEPS2_S4_ T 417a0 0
__ZN9QtPrivate12QPodArrayOpsIP13KZipFileEntryE10reallocateExN10QArrayData16AllocationOptionE T 413b0 0
__ZN9QtPrivate12QPodArrayOpsIP13KZipFileEntryE5eraseEPS2_x T 422b0 0
__ZN9QtPrivate12QPodArrayOpsIP13KZipFileEntryE7emplaceIJRS2_EEEvxDpOT_ T 40640 0
__ZN9QtPrivate12QPodArrayOpsIP13KZipFileEntryE8truncateEm T 3df90 0
__ZN9QtPrivate12QPodArrayOpsIPK12KArchiveFileE10copyAppendEPKS3_S6_ T 2dbe0 0
__ZN9QtPrivate12QPodArrayOpsIPK12KArchiveFileE10createHoleEN10QArrayData14GrowthPositionExx T 2cfb0 0
__ZN9QtPrivate12QPodArrayOpsIPK12KArchiveFileE10destroyAllEv T 26670 0
__ZN9QtPrivate12QPodArrayOpsIPK12KArchiveFileE10moveAppendEPS3_S5_ T 2dd20 0
__ZN9QtPrivate12QPodArrayOpsIPK12KArchiveFileE10reallocateExN10QArrayData16AllocationOptionE T 2d930 0
__ZN9QtPrivate12QPodArrayOpsIPK12KArchiveFileE7emplaceIJRS3_EEEvxDpOT_ T 2cbc0 0
__ZN9QtPrivate12QPodArrayOpsIPK17KArchiveDirectoryE10copyAppendEPKS3_S6_ T 2ad10 0
__ZN9QtPrivate12QPodArrayOpsIPK17KArchiveDirectoryE10createHoleEN10QArrayData14GrowthPositionExx T 2a070 0
__ZN9QtPrivate12QPodArrayOpsIPK17KArchiveDirectoryE10destroyAllEv T 26100 0
__ZN9QtPrivate12QPodArrayOpsIPK17KArchiveDirectoryE10moveAppendEPS3_S5_ T 2ae50 0
__ZN9QtPrivate12QPodArrayOpsIPK17KArchiveDirectoryE10reallocateExN10QArrayData16AllocationOptionE T 2aa60 0
__ZN9QtPrivate12QPodArrayOpsIPK17KArchiveDirectoryE7emplaceIJRS3_EEEvxDpOT_ T 29c40 0
__ZN9QtPrivate12QPodArrayOpsIPK17KArchiveDirectoryE9eraseLastEv T 2c870 0
__ZN9QtPrivate12QPodArrayOpsIcE10destroyAllEv T 23f00 0
__ZN9QtPrivate12argToQStringE14QAnyStringViewmPPKNS_7ArgBaseE U 0 0
__ZN9QtPrivate12equalStringsE11QStringView13QLatin1String U 0 0
__ZN9QtPrivate12equalStringsE11QStringViewS0_ U 0 0
__ZN9QtPrivate12qustrcasechrE11QStringViewDs U 0 0
__ZN9QtPrivate14compareStringsE11QStringViewS0_N2Qt15CaseSensitivityE U 0 0
__ZN9QtPrivate15QCommonArrayOpsI7QStringE19appendIteratorRangeIN5QHashIS1_P13KArchiveEntryE12key_iteratorEEEvT_S9_NSt3__19enable_ifIXsr3std14is_convertibleINSA_15iterator_traitsIS9_E17iterator_categoryENSA_20forward_iterator_tagEEE5valueEbE4typeE T 27830 0
__ZN9QtPrivate16QGenericArrayOpsI7QStringE10copyAppendEPKS1_S4_ T 2c350 0
__ZN9QtPrivate16QGenericArrayOpsI7QStringE10destroyAllEv T 246b0 0
__ZN9QtPrivate16QGenericArrayOpsI7QStringE10moveAppendEPS1_S3_ T 2c4a0 0
__ZN9QtPrivate16QGenericArrayOpsI7QStringE9eraseLastEv T 2ca20 0
__ZN9QtPrivate16QMovableArrayOpsI7QStringE10reallocateExN10QArrayData16AllocationOptionE T 2c0a0 0
__ZN9QtPrivate16QMovableArrayOpsI7QStringE7emplaceIJRKS1_EEEvxDpOT_ T 2b4a0 0
__ZN9QtPrivate16QMovableArrayOpsI7QStringE7emplaceIJS1_EEEvxDpOT_ T 308b0 0
__ZN9QtPrivate16QMovableArrayOpsI7QStringE8Inserter10verifyPostEv T 2c6f0 0
__ZN9QtPrivate16QMovableArrayOpsI7QStringE8Inserter9insertOneEOS1_ T 2b950 0
__ZN9QtPrivate16qStringLikeToArgE14QAnyStringView T 27080 0
__ZN9QtPrivate17MetaObjectForTypeI16KLimitedIODevicevE18metaObjectFunctionEPKNS_18QMetaTypeInterfaceE T 1c700 0
__ZN9QtPrivate17MetaObjectForTypeI18KCompressionDevicevE18metaObjectFunctionEPKNS_18QMetaTypeInterfaceE T 1c4e0 0
__ZN9QtPrivate19qobject_cast_helperIP11QFileDevice7QObjectEET_PT0_ T 35cd0 0
__ZN9QtPrivate20q_relocate_overlap_nI7QStringxEEvPT_T0_S3_ T 2bf10 0
__ZN9QtPrivate20q_relocate_overlap_nIP13KZipFileEntryxEEvPT_T0_S4_ T 41120 0
__ZN9QtPrivate20q_relocate_overlap_nIPK12KArchiveFilexEEvPT_T0_S5_ T 2d6a0 0
__ZN9QtPrivate20q_relocate_overlap_nIPK17KArchiveDirectoryxEEvPT_T0_S5_ T 2a7d0 0
__ZN9QtPrivate21lengthHelperContainerI11QStringViewEExRKT_ T 270e0 0
__ZN9QtPrivate30QExplicitlySharedDataPointerV2I8QMapDataINSt3__13mapIx7QStringNS2_4lessIxEENS2_9allocatorINS2_4pairIKxS4_EEEEEEEE4swapERSE_ T 2e810 0
__ZN9QtPrivate30QExplicitlySharedDataPointerV2I8QMapDataINSt3__13mapIx7QStringNS2_4lessIxEENS2_9allocatorINS2_4pairIKxS4_EEEEEEEE5resetEPSD_ T 2e4f0 0
__ZN9QtPrivate30QExplicitlySharedDataPointerV2I8QMapDataINSt3__13mapIx7QStringNS2_4lessIxEENS2_9allocatorINS2_4pairIKxS4_EEEEEEEE6detachEv T 34130 0
__ZN9QtPrivate30QExplicitlySharedDataPointerV2I8QMapDataINSt3__13mapIx7QStringNS2_4lessIxEENS2_9allocatorINS2_4pairIKxS4_EEEEEEEEptEv T 2e300 0
__ZN9QtPrivate8RefCount3refEv T 28e40 0
__ZN9QtPrivate8RefCount5derefEv T 25a00 0
__ZN9QtPrivate8qustrchrE11QStringViewDs U 0 0
__ZNK10QArrayData14detachCapacityEx T 2b120 0
__ZNK10QArrayData22constAllocatedCapacityEv T 2a1c0 0
__ZNK10QArrayData8isSharedEv T 27f10 0
__ZNK10QByteArray4dataEv T 1e700 0
__ZNK10QByteArray4sizeEv T 1e7b0 0
__ZNK10QByteArray5beginEv T 3dcf0 0
__ZNK10QByteArray5toHexEc U 0 0
__ZNK10QByteArray6lengthEv T 366f0 0
__ZNK10QByteArray8toBase64E6QFlagsINS_12Base64OptionEE U 0 0
__ZNK10QByteArray9constDataEv T 1e620 0
__ZNK10QByteArrayixEx T 36710 0
__ZNK11KFilterBase11filterFlagsEv T 35f50 0
__ZNK11KFilterBase13inBufferEmptyEv T 35eb0 0
__ZNK11KFilterBase13outBufferFullEv T 35ee0 0
__ZNK11KGzipFilter17inBufferAvailableEv T 36a50 0
__ZNK11KGzipFilter18outBufferAvailableEv T 36a70 0
__ZNK11KGzipFilter4modeEv T 36300 0
__ZNK11KNoneFilter17inBufferAvailableEv T 373e0 0
__ZNK11KNoneFilter18outBufferAvailableEv T 37400 0
__ZNK11KNoneFilter4modeEv T 37310 0
__ZNK11QFileDevice5errorEv U 0 0
__ZNK11QLatin1Char7unicodeEv T 24620 0
__ZNK11QLatin1CharcvDsEv T 24600 0
__ZNK11QMetaObject2trEPKcS1_i U 0 0
__ZNK11QMetaObject4castEP7QObject T 35d00 0
__ZNK11QMetaObject4castEPK7QObject U 0 0
__ZNK11QObjectData17dynamicMetaObjectEv U 0 0
__ZNK11QStringView11lastIndexOfE5QCharxN2Qt15CaseSensitivityE T 24d40 0
__ZNK11QStringView4dataEv T 27100 0
__ZNK11QStringView4sizeEv T 24af0 0
__ZNK11QStringView5utf16Ev T 24b50 0
__ZNK11QStringView7indexOfE5QCharxN2Qt15CaseSensitivityE T 248a0 0
__ZNK12KArchiveFile12createDeviceEv T 21af0 0
__ZNK12KArchiveFile4dataEv T 21990 0
__ZNK12KArchiveFile4sizeEv T 208d0 0
__ZNK12KArchiveFile6copyToERK7QString T 21b80 0
__ZNK12KArchiveFile6isFileEv T 21b70 0
__ZNK12KArchiveFile8positionEv T 21950 0
__ZNK12QHashPrivate4DataINS_4NodeI10QByteArray13ParseFileInfoEEE10findBucketIS2_EENS5_6BucketERKT_ T 3f7c0 0
__ZNK12QHashPrivate4DataINS_4NodeI10QByteArray13ParseFileInfoEEE10shouldGrowEv T 3e820 0
__ZNK12QHashPrivate4DataINS_4NodeI10QByteArray13ParseFileInfoEEE18findBucketWithHashIS2_EENS5_6BucketERKT_m T 3ed60 0
__ZNK12QHashPrivate4DataINS_4NodeI10QByteArray13ParseFileInfoEEE6Bucket10toIteratorEPKS5_ T 3ee70 0
__ZNK12QHashPrivate4DataINS_4NodeI10QByteArray13ParseFileInfoEEE6Bucket13toBucketIndexEPKS5_ T 3f5f0 0
__ZNK12QHashPrivate4DataINS_4NodeI10QByteArray13ParseFileInfoEEE6Bucket6insertEv T 3f0b0 0
__ZNK12QHashPrivate4DataINS_4NodeI10QByteArray13ParseFileInfoEEE6Bucket6offsetEv T 3f1d0 0
__ZNK12QHashPrivate4DataINS_4NodeI10QByteArray13ParseFileInfoEEE6Bucket8isUnusedEv T 3ee40 0
__ZNK12QHashPrivate4DataINS_4NodeI10QByteArray13ParseFileInfoEEE8findNodeIS2_EEPS4_RKT_ T 40530 0
__ZNK12QHashPrivate4DataINS_4NodeI7QStringP13KArchiveEntryEEE10findBucketIS2_EENS6_6BucketERKT_ T 268d0 0
__ZNK12QHashPrivate4DataINS_4NodeI7QStringP13KArchiveEntryEEE10shouldGrowEv T 280c0 0
__ZNK12QHashPrivate4DataINS_4NodeI7QStringP13KArchiveEntryEEE16detachedIteratorENS_8iteratorIS5_EE T 29540 0
__ZNK12QHashPrivate4DataINS_4NodeI7QStringP13KArchiveEntryEEE18findBucketWithHashIS2_EENS6_6BucketERKT_m T 269d0 0
__ZNK12QHashPrivate4DataINS_4NodeI7QStringP13KArchiveEntryEEE5beginEv T 25870 0
__ZNK12QHashPrivate4DataINS_4NodeI7QStringP13KArchiveEntryEEE6Bucket10toIteratorEPKS6_ T 28520 0
__ZNK12QHashPrivate4DataINS_4NodeI7QStringP13KArchiveEntryEEE6Bucket13toBucketIndexEPKS6_ T 287c0 0
__ZNK12QHashPrivate4DataINS_4NodeI7QStringP13KArchiveEntryEEE6Bucket6insertEv T 28760 0
__ZNK12QHashPrivate4DataINS_4NodeI7QStringP13KArchiveEntryEEE6Bucket6offsetEv T 26b40 0
__ZNK12QHashPrivate4DataINS_4NodeI7QStringP13KArchiveEntryEEE6Bucket8isUnusedEv T 26940 0
__ZNK12QHashPrivate4DataINS_4NodeI7QStringP13KArchiveEntryEEE8findNodeIS2_EEPS5_RKT_ T 26860 0
__ZNK12QHashPrivate4SpanINS_4NodeI10QByteArray13ParseFileInfoEEE2atEm T 403d0 0
__ZNK12QHashPrivate4SpanINS_4NodeI10QByteArray13ParseFileInfoEEE6offsetEm T 3f2d0 0
__ZNK12QHashPrivate4SpanINS_4NodeI10QByteArray13ParseFileInfoEEE7hasNodeEm T 3f5c0 0
__ZNK12QHashPrivate4SpanINS_4NodeI7QStringP13KArchiveEntryEEE2atEm T 292a0 0
__ZNK12QHashPrivate4SpanINS_4NodeI7QStringP13KArchiveEntryEEE6offsetEm T 26c40 0
__ZNK12QHashPrivate4SpanINS_4NodeI7QStringP13KArchiveEntryEEE7hasNodeEm T 257b0 0
__ZNK12QHashPrivate8iteratorINS_4NodeI10QByteArray13ParseFileInfoEEE4nodeEv T 3ec00 0
__ZNK12QHashPrivate8iteratorINS_4NodeI10QByteArray13ParseFileInfoEEE4spanEv T 3fe60 0
__ZNK12QHashPrivate8iteratorINS_4NodeI10QByteArray13ParseFileInfoEEE5indexEv T 3fe80 0
__ZNK12QHashPrivate8iteratorINS_4NodeI10QByteArray13ParseFileInfoEEE8isUnusedEv T 3fe00 0
__ZNK12QHashPrivate8iteratorINS_4NodeI7QStringP13KArchiveEntryEEE4nodeEv T 255f0 0
__ZNK12QHashPrivate8iteratorINS_4NodeI7QStringP13KArchiveEntryEEE4spanEv T 256d0 0
__ZNK12QHashPrivate8iteratorINS_4NodeI7QStringP13KArchiveEntryEEE5indexEv T 25790 0
__ZNK12QHashPrivate8iteratorINS_4NodeI7QStringP13KArchiveEntryEEE8isUnusedEv T 25670 0
__ZNK12QHashPrivate8iteratorINS_4NodeI7QStringP13KArchiveEntryEEEeqES6_ T 255b0 0
__ZNK12QHashPrivate8iteratorINS_4NodeI7QStringP13KArchiveEntryEEEneES6_ T 25570 0
__ZNK13KArchiveEntry11isDirectoryEv T 216f0 0
__ZNK13KArchiveEntry11permissionsEv T 20ee0 0
__ZNK13KArchiveEntry13symLinkTargetEv T 216a0 0
__ZNK13KArchiveEntry4dateEv T 20f00 0
__ZNK13KArchiveEntry4nameEv T 21670 0
__ZNK13KArchiveEntry4userEv T 20f40 0
__ZNK13KArchiveEntry5groupEv T 20f80 0
__ZNK13KArchiveEntry6isFileEv T 216e0 0
__ZNK13KArchiveEntry7archiveEv T 21700 0
__ZNK13KZipFileEntry11headerStartEv T 3b2a0 0
__ZNK13KZipFileEntry12createDeviceEv T 3d2c0 0
__ZNK13KZipFileEntry14compressedSizeEv T 3b2e0 0
__ZNK13KZipFileEntry4dataEv T 3d200 0
__ZNK13KZipFileEntry4pathEv T 3b350 0
__ZNK13KZipFileEntry5crc32Ev T 3b2c0 0
__ZNK13KZipFileEntry8encodingEv T 3b370 0
__ZNK13QLatin1String4dataEv T 27320 0
__ZNK13QLatin1String4sizeEv T 244d0 0
__ZNK14QByteArrayView4dataEv T 3f4e0 0
__ZNK14QByteArrayView4sizeEv T 3f4c0 0
__ZNK14QMessageLogger5debugEv U 0 0
__ZNK14QMessageLogger7warningEv U 0 0
__ZNK14QMessageLogger8criticalEv U 0 0
__ZNK14QScopedPointerI11QObjectData21QScopedPointerDeleterIS0_EEptEv T 1c410 0
__ZNK16KLimitedIODevice10metaObjectEv T 1c580 0
__ZNK16KLimitedIODevice12isSequentialEv T 37150 0
__ZNK16KLimitedIODevice14bytesAvailableEv T 37130 0
__ZNK16KLimitedIODevice4sizeEv T 37000 0
__ZNK16QLoggingCategory12categoryNameEv T 27000 0
__ZNK16QLoggingCategory14isDebugEnabledEv T 27490 0
__ZNK16QLoggingCategory16isWarningEnabledEv T 26f00 0
__ZNK16QLoggingCategory17isCriticalEnabledEv T 42510 0
__ZNK17KArchiveDirectory11isDirectoryEv T 22660 0
__ZNK17KArchiveDirectory4fileERK7QString T 222f0 0
__ZNK17KArchiveDirectory5entryERK7QString T 222c0 0
__ZNK17KArchiveDirectory6copyToERK7QStringb T 22670 0
__ZNK17KArchiveDirectory7entriesEv T 22210 0
__ZNK17QArrayDataPointerI7QStringE10constBeginEv T 27350 0
__ZNK17QArrayDataPointerI7QStringE11needsDetachEv T 2b750 0
__ZNK17QArrayDataPointerI7QStringE14detachCapacityEx T 2c660 0
__ZNK17QArrayDataPointerI7QStringE14freeSpaceAtEndEv T 2b790 0
__ZNK17QArrayDataPointerI7QStringE16freeSpaceAtBeginEv T 2b7f0 0
__ZNK17QArrayDataPointerI7QStringE22constAllocatedCapacityEv T 2be50 0
__ZNK17QArrayDataPointerI7QStringE3endEv T 2c070 0
__ZNK17QArrayDataPointerI7QStringE4dataEv T 273a0 0
__ZNK17QArrayDataPointerI7QStringE5beginEv T 2c050 0
__ZNK17QArrayDataPointerI7QStringE5flagsEv T 2c6b0 0
__ZNK17QArrayDataPointerI7QStringE8constEndEv T 273e0 0
__ZNK17QArrayDataPointerI7QStringE8isSharedEv T 27e30 0
__ZNK17QArrayDataPointerI7QStringE9isMutableEv T 27de0 0
__ZNK17QArrayDataPointerI7QStringEptEv T 27340 0
__ZNK17QArrayDataPointerIDsE4dataEv T 24510 0
__ZNK17QArrayDataPointerIP13KZipFileEntryE10constBeginEv T 42290 0
__ZNK17QArrayDataPointerIP13KZipFileEntryE11needsDetachEv T 3de60 0
__ZNK17QArrayDataPointerIP13KZipFileEntryE14detachCapacityEx T 41840 0
__ZNK17QArrayDataPointerIP13KZipFileEntryE14freeSpaceAtEndEv T 40820 0
__ZNK17QArrayDataPointerIP13KZipFileEntryE16freeSpaceAtBeginEv T 408b0 0
__ZNK17QArrayDataPointerIP13KZipFileEntryE22constAllocatedCapacityEv T 41060 0
__ZNK17QArrayDataPointerIP13KZipFileEntryE3endEv T 41380 0
__ZNK17QArrayDataPointerIP13KZipFileEntryE4dataEv T 41320 0
__ZNK17QArrayDataPointerIP13KZipFileEntryE5beginEv T 41360 0
__ZNK17QArrayDataPointerIP13KZipFileEntryE5flagsEv T 41910 0
__ZNK17QArrayDataPointerIP13KZipFileEntryE8constEndEv T 41c10 0
__ZNK17QArrayDataPointerIP13KZipFileEntryE8isSharedEv T 3e210 0
__ZNK17QArrayDataPointerIP13KZipFileEntryE9isMutableEv T 3e1f0 0
__ZNK17QArrayDataPointerIP13KZipFileEntryEptEv T 41c00 0
__ZNK17QArrayDataPointerIPK12KArchiveFileE10constBeginEv T 33ec0 0
__ZNK17QArrayDataPointerIPK12KArchiveFileE11needsDetachEv T 2cd60 0
__ZNK17QArrayDataPointerIPK12KArchiveFileE14detachCapacityEx T 2de80 0
__ZNK17QArrayDataPointerIPK12KArchiveFileE14freeSpaceAtEndEv T 2cda0 0
__ZNK17QArrayDataPointerIPK12KArchiveFileE16freeSpaceAtBeginEv T 2ce30 0
__ZNK17QArrayDataPointerIPK12KArchiveFileE22constAllocatedCapacityEv T 2d5e0 0
__ZNK17QArrayDataPointerIPK12KArchiveFileE3endEv T 2d900 0
__ZNK17QArrayDataPointerIPK12KArchiveFileE4dataEv T 2d8a0 0
__ZNK17QArrayDataPointerIPK12KArchiveFileE5beginEv T 2d8e0 0
__ZNK17QArrayDataPointerIPK12KArchiveFileE5flagsEv T 2dfb0 0
__ZNK17QArrayDataPointerIPK12KArchiveFileE8constEndEv T 33f30 0
__ZNK17QArrayDataPointerIPK12KArchiveFileE8isSharedEv T 2e080 0
__ZNK17QArrayDataPointerIPK12KArchiveFileE9isMutableEv T 2e060 0
__ZNK17QArrayDataPointerIPK12KArchiveFileEptEv T 33eb0 0
__ZNK17QArrayDataPointerIPK17KArchiveDirectoryE11needsDetachEv T 29e20 0
__ZNK17QArrayDataPointerIPK17KArchiveDirectoryE14detachCapacityEx T 2afb0 0
__ZNK17QArrayDataPointerIPK17KArchiveDirectoryE14freeSpaceAtEndEv T 29e60 0
__ZNK17QArrayDataPointerIPK17KArchiveDirectoryE16freeSpaceAtBeginEv T 29ef0 0
__ZNK17QArrayDataPointerIPK17KArchiveDirectoryE22constAllocatedCapacityEv T 2a6c0 0
__ZNK17QArrayDataPointerIPK17KArchiveDirectoryE3endEv T 2aa30 0
__ZNK17QArrayDataPointerIPK17KArchiveDirectoryE4dataEv T 2a9d0 0
__ZNK17QArrayDataPointerIPK17KArchiveDirectoryE5beginEv T 2aa10 0
__ZNK17QArrayDataPointerIPK17KArchiveDirectoryE5flagsEv T 2b0e0 0
__ZNK17QArrayDataPointerIPK17KArchiveDirectoryE8isSharedEv T 2b290 0
__ZNK17QArrayDataPointerIPK17KArchiveDirectoryE9isMutableEv T 2b270 0
__ZNK17QArrayDataPointerIcE11needsDetachEv T 24120 0
__ZNK17QArrayDataPointerIcE4dataEv T 240a0 0
__ZNK18KCompressionDevice10metaObjectEv T 1c3b0 0
__ZNK18KCompressionDevice15compressionTypeEv T 34f60 0
__ZNK18KCompressionDevice5atEndEv T 354e0 0
__ZNK18KCompressionDevice5errorEv T 35240 0
__ZNK19QBasicAtomicIntegerIbE11loadRelaxedEv T 26f30 0
__ZNK19QBasicAtomicIntegerIiE11loadRelaxedEv T 24010 0
__ZNK20QMutableListIteratorIP13KZipFileEntryE11item_existsEv T 41d00 0
__ZNK20QMutableListIteratorIP13KZipFileEntryE7hasNextEv T 3b1b0 0
__ZNK24KArchiveDirectoryPrivate5entryERK7QStringPP17KArchiveDirectory T 20530 0
__ZNK2Qt23totally_ordered_wrapperIP8QMapDataINSt3__13mapIx7QStringNS2_4lessIxEENS2_9allocatorINS2_4pairIKxS4_EEEEEEEE3getEv T 262a0 0
__ZNK2Qt23totally_ordered_wrapperIP8QMapDataINSt3__13mapIx7QStringNS2_4lessIxEENS2_9allocatorINS2_4pairIKxS4_EEEEEEEEcvbEv T 26250 0
__ZNK2Qt23totally_ordered_wrapperIP8QMapDataINSt3__13mapIx7QStringNS2_4lessIxEENS2_9allocatorINS2_4pairIKxS4_EEEEEEEEdeISD_Lb1EEERT_v T 34210 0
__ZNK2Qt23totally_ordered_wrapperIP8QMapDataINSt3__13mapIx7QStringNS2_4lessIxEENS2_9allocatorINS2_4pairIKxS4_EEEEEEEEptEv T 26280 0
__ZNK4KZip10extraFieldEv T 3cfc0 0
__ZNK4KZip11compressionEv T 3cca0 0
__ZNK4QDir12absolutePathEv U 0 0
__ZNK4QDir6existsEv U 0 0
__ZNK4QDir6filterEv U 0 0
__ZNK4QDir6mkpathERK7QStringNSt3__18optionalI6QFlagsIN11QFileDevice10PermissionEEEE U 0 0
__ZNK4QDir9entryListE6QFlagsINS_6FilterEES0_INS_8SortFlagEE U 0 0
__ZNK4QUrl11isLocalFileEv U 0 0
__ZNK4QUrl11toLocalFileEv U 0 0
__ZNK5QDate3dayEv U 0 0
__ZNK5QDate4yearEv U 0 0
__ZNK5QDate5monthEv U 0 0
__ZNK5QFile11permissionsEv U 0 0
__ZNK5QHashI10QByteArray13ParseFileInfoE10isDetachedEv T 3e7e0 0
__ZNK5QHashI10QByteArray13ParseFileInfoE5valueERKS0_RKS1_ T 39c40 0
__ZNK5QHashI10QByteArray13ParseFileInfoE9valueImplIS0_EEPS1_RKT_ T 404d0 0
__ZNK5QHashI7QStringP13KArchiveEntryE10isDetachedEv T 28080 0
__ZNK5QHashI7QStringP13KArchiveEntryE12key_iteratordeEv T 27eb0 0
__ZNK5QHashI7QStringP13KArchiveEntryE12key_iteratoreqES4_ T 27e00 0
__ZNK5QHashI7QStringP13KArchiveEntryE12key_iteratorneES4_ T 27aa0 0
__ZNK5QHashI7QStringP13KArchiveEntryE14const_iterator3keyEv T 27f60 0
__ZNK5QHashI7QStringP13KArchiveEntryE14const_iteratordeEv T 25520 0
__ZNK5QHashI7QStringP13KArchiveEntryE14const_iteratoreqERKS4_ T 27ed0 0
__ZNK5QHashI7QStringP13KArchiveEntryE14const_iteratorneERKS4_ T 254e0 0
__ZNK5QHashI7QStringP13KArchiveEntryE3endEv T 254b0 0
__ZNK5QHashI7QStringP13KArchiveEntryE4keysEv T 22250 0
__ZNK5QHashI7QStringP13KArchiveEntryE5beginEv T 25430 0
__ZNK5QHashI7QStringP13KArchiveEntryE5valueERKS0_ T 22380 0
__ZNK5QHashI7QStringP13KArchiveEntryE6keyEndEv T 27500 0
__ZNK5QHashI7QStringP13KArchiveEntryE7isEmptyEv T 29490 0
__ZNK5QHashI7QStringP13KArchiveEntryE8constEndEv T 29510 0
__ZNK5QHashI7QStringP13KArchiveEntryE8iterator5valueEv T 224c0 0
__ZNK5QHashI7QStringP13KArchiveEntryE8iteratoreqERKS4_ T 22450 0
__ZNK5QHashI7QStringP13KArchiveEntryE8keyBeginEv T 274c0 0
__ZNK5QHashI7QStringP13KArchiveEntryE9valueImplIS0_EEPS2_RKT_ T 26800 0
__ZNK5QListI7QStringE14const_iteratordeEv T 1f4e0 0
__ZNK5QListI7QStringE14const_iteratorneES2_ T 1f440 0
__ZNK5QListI7QStringE3endEv T 1f460 0
__ZNK5QListI7QStringE4sizeEv T 2cab0 0
__ZNK5QListI7QStringE5beginEv T 1f400 0
__ZNK5QListI7QStringE7isEmptyEv T 2c980 0
__ZNK5QListI7QStringE8iteratordeEv T 2b730 0
__ZNK5QListI7QStringE8iteratormiEx T 2b6f0 0
__ZNK5QListIP13KZipFileEntryE10constBeginEv T 420b0 0
__ZNK5QListIP13KZipFileEntryE14const_iteratorgeES3_ T 42050 0
__ZNK5QListIP13KZipFileEntryE14const_iteratormiES3_ T 42270 0
__ZNK5QListIP13KZipFileEntryE14const_iteratorneES3_ T 41bb0 0
__ZNK5QListIP13KZipFileEntryE14const_iteratorplEx T 41f80 0
__ZNK5QListIP13KZipFileEntryE15isValidIteratorENS2_14const_iteratorE T 41fc0 0
__ZNK5QListIP13KZipFileEntryE4sizeEv T 3dd10 0
__ZNK5QListIP13KZipFileEntryE5countEv T 3b570 0
__ZNK5QListIP13KZipFileEntryE8constEndEv T 41b70 0
__ZNK5QListIP13KZipFileEntryE8iteratordeEv T 40800 0
__ZNK5QListIP13KZipFileEntryE8iteratormiEx T 407c0 0
__ZNK5QListIP13KZipFileEntryE8iteratorplEx T 421d0 0
__ZNK5QListIPK12KArchiveFileE10constBeginEv T 235e0 0
__ZNK5QListIPK12KArchiveFileE14const_iteratordeEv T 23680 0
__ZNK5QListIPK12KArchiveFileE14const_iteratorneES4_ T 23660 0
__ZNK5QListIPK12KArchiveFileE8constEndEv T 23620 0
__ZNK5QListIPK12KArchiveFileE8iteratordeEv T 2cd40 0
__ZNK5QListIPK12KArchiveFileE8iteratoreqES4_ T 30cc0 0
__ZNK5QListIPK12KArchiveFileE8iteratorgeES4_ T 33750 0
__ZNK5QListIPK12KArchiveFileE8iteratorltES4_ T 33730 0
__ZNK5QListIPK12KArchiveFileE8iteratormiES4_ T 30d20 0
__ZNK5QListIPK12KArchiveFileE8iteratormiEx T 2cd00 0
__ZNK5QListIPK12KArchiveFileE8iteratorneES4_ T 32d70 0
__ZNK5QListIPK12KArchiveFileE8iteratorplEx T 31740 0
__ZNK5QListIPK17KArchiveDirectoryE4sizeEv T 25f50 0
__ZNK5QListIPK17KArchiveDirectoryE7isEmptyEv T 234b0 0
__ZNK5QListIPK17KArchiveDirectoryE8iteratordeEv T 29e00 0
__ZNK5QListIPK17KArchiveDirectoryE8iteratormiEx T 29dc0 0
__ZNK5QTime4hourEv U 0 0
__ZNK5QTime6minuteEv U 0 0
__ZNK5QTime6secondEv U 0 0
__ZNK5QUuid9toRfc4122Ev U 0 0
__ZNK5RpMap11RpMapPlugin10metaObjectEv T 1b180 0
__ZNK5RpMap11RpMapPlugin10nameFilterEv T 4430 0
__ZNK5RpMap11RpMapPlugin11errorStringEv T 4590 0
__ZNK5RpMap11RpMapPlugin9shortNameEv T 44b0 0
__ZNK6QFlagsIN10QArrayData11ArrayOptionEEanES1_ T 2b1b0 0
__ZNK6QFlagsIN10QArrayData11ArrayOptionEEcvjEv T 2b1f0 0
__ZNK6QFlagsIN13QIODeviceBase12OpenModeFlagEEanES1_ T 36fb0 0
__ZNK6QFlagsIN13QIODeviceBase12OpenModeFlagEEcvjEv T 1d070 0
__ZNK6QFlagsIN13QIODeviceBase12OpenModeFlagEEntEv T 3b160 0
__ZNK6QFlagsIN13QIODeviceBase12OpenModeFlagEEorES1_ T 251f0 0
__ZNK6QFlagsIN4QDir6FilterEEorES1_ T 1f360 0
__ZNK7QString10normalizedENS_17NormalizationFormEN5QChar14UnicodeVersionE U 0 0
__ZNK7QString10startsWithERKS_N2Qt15CaseSensitivityE U 0 0
__ZNK7QString11lastIndexOfE5QCharN2Qt15CaseSensitivityE T 20e20 0
__ZNK7QString11lastIndexOfE5QCharxN2Qt15CaseSensitivityE T 24cf0 0
__ZNK7QString3argI13QLatin1StringLb1EEES_RKT_i5QChar T 1e640 0
__ZNK7QString3argIJRKS_S_EEENSt3__19enable_ifIXaagesZT_Li2Esr3stdE13conjunction_vIDpNS3_11conjunctionIJNS3_8negationIN9QtPrivate21treat_as_integral_argIu11__remove_cvIT_EEEEENS3_14is_convertibleIS9_14QAnyStringViewEEEEEEES_E4typeEDpOS9_ T 1eab0 0
__ZNK7QString3argIJRS_S1_S1_EEENSt3__19enable_ifIXaagesZT_Li2Esr3stdE13conjunction_vIDpNS2_11conjunctionIJNS2_8negationIN9QtPrivate21treat_as_integral_argIu11__remove_cvIT_EEEEENS2_14is_convertibleIS8_14QAnyStringViewEEEEEEES_E4typeEDpOS8_ T 39e50 0
__ZNK7QString3argIJRS_S_EEENSt3__19enable_ifIXaagesZT_Li2Esr3stdE13conjunction_vIDpNS2_11conjunctionIJNS2_8negationIN9QtPrivate21treat_as_integral_argIu11__remove_cvIT_EEEEENS2_14is_convertibleIS8_14QAnyStringViewEEEEEEES_E4typeEDpOS8_ T 1d4a0 0
__ZNK7QString3argIS_Lb1EEES_RKT_i5QChar T 1e540 0
__ZNK7QString3argIiLb1EEES_T_ii5QChar T 1d010 0
__ZNK7QString3argIxLb1EEES_T_ii5QChar T 3a070 0
__ZNK7QString4dataEv T 24ca0 0
__ZNK7QString4sizeEv T 23a90 0
__ZNK7QString5beginEv T 244f0 0
__ZNK7QString6lengthEv T 24830 0
__ZNK7QString7indexOfE5QCharxN2Qt15CaseSensitivityE T 247e0 0
__ZNK7QString7isEmptyEv T 1c920 0
__ZNK7QString8arg_implE14QAnyStringViewi5QChar U 0 0
__ZNK7QString8arg_implExii5QChar U 0 0
__ZNK7QString8endsWithE5QCharN2Qt15CaseSensitivityE U 0 0
__ZNK7QString9constDataEv T 24c80 0
__ZNK8KArchive11errorStringEv T 1d8f0 0
__ZNK8KArchive4modeEv T 21390 0
__ZNK8KArchive6deviceEv T 1f8c0 0
__ZNK8KArchive6isOpenEv T 1cc50 0
__ZNK8KArchive8fileNameEv T 213b0 0
__ZNK8KArchive9directoryEv T 1d930 0
__ZNK9QDateTime16toSecsSinceEpochEv U 0 0
__ZNK9QDateTime4dateEv U 0 0
__ZNK9QDateTime4timeEv U 0 0
__ZNK9QDateTime7isValidEv U 0 0
__ZNK9QFileInfo12lastModifiedEv T 1ea50 0
__ZNK9QFileInfo13symLinkTargetEv U 0 0
__ZNK9QFileInfo4sizeEv U 0 0
__ZNK9QFileInfo5groupEv U 0 0
__ZNK9QFileInfo5isDirEv U 0 0
__ZNK9QFileInfo5ownerEv U 0 0
__ZNK9QFileInfo6isFileEv U 0 0
__ZNK9QFileInfo8fileTimeEN11QFileDevice8FileTimeE U 0 0
__ZNK9QFileInfo8lastReadEv T 1ea20 0
__ZNK9QFileInfo9birthTimeEv T 1ea80 0
__ZNK9QFileInfo9isSymLinkEv U 0 0
__ZNK9QHashSeedcvmEv T 290f0 0
__ZNK9QIODevice11canReadLineEv U 0 0
__ZNK9QIODevice11errorStringEv U 0 0
__ZNK9QIODevice12bytesToWriteEv U 0 0
__ZNK9QIODevice12isSequentialEv U 0 0
__ZNK9QIODevice14bytesAvailableEv U 0 0
__ZNK9QIODevice3posEv U 0 0
__ZNK9QIODevice4sizeEv U 0 0
__ZNK9QIODevice5atEndEv U 0 0
__ZNK9QIODevice6isOpenEv U 0 0
__ZNK9QtPrivate30QExplicitlySharedDataPointerV2I8QMapDataINSt3__13mapIx7QStringNS2_4lessIxEENS2_9allocatorINS2_4pairIKxS4_EEEEEEEE8isSharedEv T 2e5b0 0
__ZNK9QtPrivate30QExplicitlySharedDataPointerV2I8QMapDataINSt3__13mapIx7QStringNS2_4lessIxEENS2_9allocatorINS2_4pairIKxS4_EEEEEEEEcvbEv T 2e4c0 0
__ZNK9QtPrivate8RefCount8isSharedEv T 28290 0
__ZNKR7QString3midExx U 0 0
__ZNKR7QString4leftEx T 20e70 0
__ZNKR7QString5firstEx T 24da0 0
__ZNKR7QString6slicedExx T 24ea0 0
__ZNO7QString6toUtf8Ev T 23e80 0
__ZNSt20bad_array_new_lengthC1Ev U 0 0
__ZNSt20bad_array_new_lengthD1Ev U 0 0
__ZNSt3__111__introsortINS_17_ClassicAlgPolicyERPFbPK12KArchiveFileS4_EN5QListIS4_E8iteratorELb0EEEvT1_SB_T0_NS_15iterator_traitsISB_E15difference_typeEb T 30d40 0
__ZNSt3__116allocator_traitsINS_9allocatorINS_11__tree_nodeINS_12__value_typeIx7QStringEEPvEEEEE37select_on_container_copy_constructionB9nqe210106IS8_Li0EEES8_RKS8_ T 34480 0
__ZNSt3__116allocator_traitsINS_9allocatorINS_11__tree_nodeINS_12__value_typeIx7QStringEEPvEEEEE7destroyB9nqe210106INS_4pairIKxS4_EELi0EEEvRS8_PT_ T 26450 0
__ZNSt3__116allocator_traitsINS_9allocatorINS_11__tree_nodeINS_12__value_typeIx7QStringEEPvEEEEE8max_sizeB9nqe210106IS8_Li0EEEmRKS8_ T 2fc80 0
__ZNSt3__116allocator_traitsINS_9allocatorINS_11__tree_nodeINS_12__value_typeIx7QStringEEPvEEEEE9constructB9nqe210106INS_4pairIKxS4_EEJRKSD_ELi0EEEvRS8_PT_DpOT0_ T 2fbc0 0
__ZNSt3__116allocator_traitsINS_9allocatorINS_11__tree_nodeINS_12__value_typeIx7QStringEEPvEEEEE9constructB9nqe210106INS_4pairIKxS4_EEJRSC_RKS4_ELi0EEEvRS8_PT_DpOT0_ T 306e0 0
__ZNSt3__116allocator_traitsINS_9allocatorINS_11__tree_nodeINS_12__value_typeIx7QStringEEPvEEEEE9constructB9nqe210106INS_4pairIKxS4_EEJSD_ELi0EEEvRS8_PT_DpOT0_ T 34800 0
__ZNSt3__13mapIx7QStringNS_4lessIxEENS_9allocatorINS_4pairIKxS1_EEEEE12emplace_hintB9nqe210106IJRS6_RKS1_EEENS_14__map_iteratorINS_15__tree_iteratorINS_12__value_typeIxS1_EEPNS_11__tree_nodeISH_PvEElEEEENS_20__map_const_iteratorINS_21__tree_const_iteratorISH_SL_lEEEEDpOT_ T 301a0 0
__ZNSt3__13mapIx7QStringNS_4lessIxEENS_9allocatorINS_4pairIKxS1_EEEEE16insert_or_assignB9nqe210106IRKS1_EENS5_INS_14__map_iteratorINS_15__tree_iteratorINS_12__value_typeIxS1_EEPNS_11__tree_nodeISG_PvEElEEEEbEERS6_OT_ T 2e320 0
__ZNSt3__13mapIx7QStringNS_4lessIxEENS_9allocatorINS_4pairIKxS1_EEEEE6insertB9nqe210106INS_20__map_const_iteratorINS_21__tree_const_iteratorINS_12__value_typeIxS1_EEPNS_11__tree_nodeISE_PvEElEEEEEEvT_SL_ T 34380 0
__ZNSt3__16__treeINS_12__value_typeIx7QStringEENS_19__map_value_compareIxNS_4pairIKxS2_EENS_4lessIxEELb1EEENS_9allocatorIS7_EEE11lower_boundB9nqe210106IxEENS_15__tree_iteratorIS3_PNS_11__tree_nodeIS3_PvEElEERKT_ T 30220 0
__ZNSt3__16__treeINS_12__value_typeIx7QStringEENS_19__map_value_compareIxNS_4pairIKxS2_EENS_4lessIxEELb1EEENS_9allocatorIS7_EEE12__find_equalIxEERPNS_16__tree_node_baseIPvEENS_21__tree_const_iteratorIS3_PNS_11__tree_nodeIS3_SG_EElEERPNS_15__tree_end_nodeISI_EESJ_RKT_ T 2f1c0 0
__ZNSt3__16__treeINS_12__value_typeIx7QStringEENS_19__map_value_compareIxNS_4pairIKxS2_EENS_4lessIxEELb1EEENS_9allocatorIS7_EEE12__find_equalIxEERPNS_16__tree_node_baseIPvEERPNS_15__tree_end_nodeISI_EERKT_ T 2f840 0
__ZNSt3__16__treeINS_12__value_typeIx7QStringEENS_19__map_value_compareIxNS_4pairIKxS2_EENS_4lessIxEELb1EEENS_9allocatorIS7_EEE13__lower_boundIxEENS_15__tree_iteratorIS3_PNS_11__tree_nodeIS3_PvEElEERKT_SJ_PNS_15__tree_end_nodeIPNS_16__tree_node_baseISH_EEEE T 30280 0
__ZNSt3__16__treeINS_12__value_typeIx7QStringEENS_19__map_value_compareIxNS_4pairIKxS2_EENS_4lessIxEELb1EEENS_9allocatorIS7_EEE16__construct_nodeIJRKS7_EEENS_10unique_ptrINS_11__tree_nodeIS3_PvEENS_22__tree_node_destructorINSB_ISK_EEEEEEDpOT_ T 2f4b0 0
__ZNSt3__16__treeINS_12__value_typeIx7QStringEENS_19__map_value_compareIxNS_4pairIKxS2_EENS_4lessIxEELb1EEENS_9allocatorIS7_EEE16__construct_nodeIJRS6_RKS2_EEENS_10unique_ptrINS_11__tree_nodeIS3_PvEENS_22__tree_node_destructorINSB_ISL_EEEEEEDpOT_ T 305f0 0
__ZNSt3__16__treeINS_12__value_typeIx7QStringEENS_19__map_value_compareIxNS_4pairIKxS2_EENS_4lessIxEELb1EEENS_9allocatorIS7_EEE16__construct_nodeIJS7_EEENS_10unique_ptrINS_11__tree_nodeIS3_PvEENS_22__tree_node_destructorINSB_ISI_EEEEEEDpOT_ T 34720 0
__ZNSt3__16__treeINS_12__value_typeIx7QStringEENS_19__map_value_compareIxNS_4pairIKxS2_EENS_4lessIxEELb1EEENS_9allocatorIS7_EEE16__emplace_uniqueB9nqe210106IS7_EENS5_INS_15__tree_iteratorIS3_PNS_11__tree_nodeIS3_PvEElEEbEEOT_ T 34580 0
__ZNSt3__16__treeINS_12__value_typeIx7QStringEENS_19__map_value_compareIxNS_4pairIKxS2_EENS_4lessIxEELb1EEENS_9allocatorIS7_EEE21__emplace_hint_uniqueB9nqe210106IRKS7_EENS_15__tree_iteratorIS3_PNS_11__tree_nodeIS3_PvEElEENS_21__tree_const_iteratorIS3_SL_lEEOT_ T 2efe0 0
__ZNSt3__16__treeINS_12__value_typeIx7QStringEENS_19__map_value_compareIxNS_4pairIKxS2_EENS_4lessIxEELb1EEENS_9allocatorIS7_EEE21__emplace_hint_uniqueB9nqe210106IRS6_RKS2_Li0EEENS_15__tree_iteratorIS3_PNS_11__tree_nodeIS3_PvEElEENS_21__tree_const_iteratorIS3_SM_lEEOT_OT0_ T 30480 0
__ZNSt3__16__treeINS_12__value_typeIx7QStringEENS_19__map_value_compareIxNS_4pairIKxS2_EENS_4lessIxEELb1EEENS_9allocatorIS7_EEE25__emplace_unique_key_argsIxJS7_EEENS5_INS_15__tree_iteratorIS3_PNS_11__tree_nodeIS3_PvEElEEbEERKT_DpOT0_ T 34640 0
__ZNSt3__16__treeINS_12__value_typeIx7QStringEENS_19__map_value_compareIxNS_4pairIKxS2_EENS_4lessIxEELb1EEENS_9allocatorIS7_EEE28__emplace_unique_extract_keyB9nqe210106IS7_EENS5_INS_15__tree_iteratorIS3_PNS_11__tree_nodeIS3_PvEElEEbEEOT_NS_23__extract_key_first_tagE T 345f0 0
__ZNSt3__16__treeINS_12__value_typeIx7QStringEENS_19__map_value_compareIxNS_4pairIKxS2_EENS_4lessIxEELb1EEENS_9allocatorIS7_EEE30__emplace_hint_unique_key_argsIxJRKS7_EEENS5_INS_15__tree_iteratorIS3_PNS_11__tree_nodeIS3_PvEElEEbEENS_21__tree_const_iteratorIS3_SL_lEERKT_DpOT0_ T 2f0b0 0
__ZNSt3__16__treeINS_12__value_typeIx7QStringEENS_19__map_value_compareIxNS_4pairIKxS2_EENS_4lessIxEELb1EEENS_9allocatorIS7_EEE30__emplace_hint_unique_key_argsIxJRS6_RKS2_EEENS5_INS_15__tree_iteratorIS3_PNS_11__tree_nodeIS3_PvEElEEbEENS_21__tree_const_iteratorIS3_SM_lEERKT_DpOT0_ T 304e0 0
__ZNSt3__16__treeINS_12__value_typeIx7QStringEENS_19__map_value_compareIxNS_4pairIKxS2_EENS_4lessIxEELb1EEENS_9allocatorIS7_EEE33__emplace_hint_unique_extract_keyB9nqe210106IRKS7_EENS_15__tree_iteratorIS3_PNS_11__tree_nodeIS3_PvEElEENS_21__tree_const_iteratorIS3_SL_lEEOT_NS_23__extract_key_first_tagE T 2f050 0
__ZNSt3__16__treeINS_12__value_typeIx7QStringEENS_19__map_value_compareIxNS_4pairIKxS2_EENS_4lessIxEELb1EEENS_9allocatorIS7_EEE4findIxEENS_15__tree_iteratorIS3_PNS_11__tree_nodeIS3_PvEElEERKT_ T 344b0 0
__ZNSt3__17nulloptE S 45918 0
__ZNSt3__18in_placeE S 45956 0
__ZNSt3__19allocatorINS_11__tree_nodeINS_12__value_typeIx7QStringEEPvEEE9constructB9nqe210106INS_4pairIKxS3_EEJRKSB_EEEvPT_DpOT0_ T 2fe00 0
__ZNSt3__19allocatorINS_11__tree_nodeINS_12__value_typeIx7QStringEEPvEEE9constructB9nqe210106INS_4pairIKxS3_EEJRSA_RKS3_EEEvPT_DpOT0_ T 30720 0
__ZNSt3__19allocatorINS_11__tree_nodeINS_12__value_typeIx7QStringEEPvEEE9constructB9nqe210106INS_4pairIKxS3_EEJSB_EEEvPT_DpOT0_ T 34830 0
__ZSt9terminatev U 0 0
__ZTI11KFilterBase S 4be30 0
__ZTI11KGzipFilter S 4bed8 0
__ZTI11KNoneFilter S 4bf88 0
__ZTI12KArchiveFile S 4bd58 0
__ZTI13KArchiveEntry S 4bd48 0
__ZTI13KZipFileEntry S 4c080 0
__ZTI16KLimitedIODevice S 4bbf8 0
__ZTI17KArchiveDirectory S 4bd70 0
__ZTI18KCompressionDevice S 4baa8 0
__ZTI4KZip S 4c068 0
__ZTI8KArchive S 4bd88 0
__ZTI9QIODevice U 0 0
__ZTIN5RpMap11RpMapPluginE S 4b958 0
__ZTIN5Tiled17WritableMapFormatE U 0 0
__ZTISt20bad_array_new_length U 0 0
__ZTS11KFilterBase S 45959 0
__ZTS11KGzipFilter S 45967 0
__ZTS11KNoneFilter S 45975 0
__ZTS12KArchiveFile S 45929 0
__ZTS13KArchiveEntry S 45919 0
__ZTS13KZipFileEntry S 45989 0
__ZTS16KLimitedIODevice S 4589c 0
__ZTS17KArchiveDirectory S 45938 0
__ZTS18KCompressionDevice S 4581c 0
__ZTS4KZip S 45983 0
__ZTS8KArchive S 4594c 0
__ZTSN5RpMap11RpMapPluginE S 45799 0
__ZTV11KFilterBase S 4bd98 0
__ZTV11KGzipFilter S 4be40 0
__ZTV11KNoneFilter S 4bef0 0
__ZTV12KArchiveFile S 4bcc8 0
__ZTV13KArchiveEntry S 4bc90 0
__ZTV13KZipFileEntry S 4c020 0
__ZTV16KLimitedIODevice S 4bb00 0
__ZTV17KArchiveDirectory S 4bd10 0
__ZTV18KCompressionDevice S 4b9b0 0
__ZTV4KZip S 4bfa0 0
__ZTV8KArchive S 4bc10 0
__ZTVN10__cxxabiv117__class_type_infoE U 0 0
__ZTVN10__cxxabiv120__si_class_type_infoE U 0 0
__ZTVN5RpMap11RpMapPluginE S 4b8a8 0
__ZTVN5Tiled17WritableMapFormatE U 0 0
__ZTVN5Tiled9MapFormatE U 0 0
__ZZN8QMapDataINSt3__13mapIx7QStringNS0_4lessIxEENS0_9allocatorINS0_4pairIKxS2_EEEEEEE21copyIfNotEquivalentToERKSA_RS7_ENKUlT_E_clINS0_20__map_const_iteratorINS0_21__tree_const_iteratorINS0_12__value_typeIxS2_EEPNS0_11__tree_nodeISL_PvEElEEEEEEDaSF_ T 2ec70 0
__ZZNK10QByteArray4sizeEvENKUlvE_clEv T 24190 0
__ZZNK5QListI7QStringE4sizeEvENKUlvE_clEv T 2cb00 0
__ZZNK5QListIP13KZipFileEntryE4sizeEvENKUlvE_clEv T 3dd60 0
__ZZNK5QListIPK17KArchiveDirectoryE4sizeEvENKUlvE_clEv T 25fa0 0
__ZZNK7QString4sizeEvENKUlvE_clEv T 23ae0 0
__ZdaPv U 0 0
__ZdlPv U 0 0
__ZdlPvSt11align_val_t U 0 0
__Zeq6QFlagsIN13QIODeviceBase12OpenModeFlagEES1_ T 1d850 0
__Zeq6QFlagsIN13QIODeviceBase12OpenModeFlagEES2_ T 23dc0 0
__ZeqRK10QByteArrayS1_ T 3f350 0
__ZeqRK14QByteArrayViewS1_ T 3f3e0 0
__ZeqRK7QStringRK13QLatin1String T 204c0 0
__ZeqRK7QStringS1_ T 26cd0 0
__Znam U 0 0
__Zne6QFlagsIN13QIODeviceBase12OpenModeFlagEES1_ T 1cf60 0
__Zne6QFlagsIN13QIODeviceBase12OpenModeFlagEES2_ T 23d80 0
__ZneRK7QStringRK13QLatin1String T 1f4a0 0
__Znwm U 0 0
__ZnwmSt11align_val_t U 0 0
__ZorN13QIODeviceBase12OpenModeFlagES0_ T 21f80 0
__ZplO7QStringRKS_ T 1f500 0
__ZplRK7QString5QChar T 1f550 0
____chkstk_darwin U 0 0
___assert_rtn U 0 0
___cxa_allocate_exception U 0 0
___cxa_atexit U 0 0
___cxa_begin_catch U 0 0
___cxa_guard_abort U 0 0
___cxa_guard_acquire U 0 0
___cxa_guard_release U 0 0
___cxa_pure_virtual U 0 0
___cxa_throw U 0 0
___dynamic_cast U 0 0
___error U 0 0
___gxx_personality_v0 U 0 0
___stack_chk_fail U 0 0
___stack_chk_guard U 0 0
_crc32 U 0 0
_deflate U 0 0
_deflateEnd U 0 0
_deflateInit2_ U 0 0
_deflateReset U 0 0
_getgid U 0 0
_getgrgid U 0 0
_getpwuid U 0 0
_getuid U 0 0
_inflate U 0 0
_inflateEnd U 0 0
_inflateInit2_ U 0 0
_inflateReset U 0 0
_lstat$INODE64 U 0 0
_memcmp U 0 0
_memcpy U 0 0
_memmove U 0 0
_memset U 0 0
_qt_plugin_instance T 1b340 0
_qt_plugin_query_metadata_v2 T 1b2b0 0
_qt_version_tag_6_11 U 0 0
_readlink U 0 0
_strcmp U 0 0
_strerror U 0 0
_strncpy U 0 0
_time U 0 0
===
__Z10qDeleteAllI5QHashI7QStringP13KArchiveEntryEEvRKT_ T 25360 0
__Z10qDeleteAllIN5QHashI7QStringP13KArchiveEntryE14const_iteratorEEvT_S6_ T 253d0 0
__Z11KArchiveLogv T 42540 0
__Z11qHashEqualsI10QByteArrayEbRKT_S3_ T 3f230 0
__Z11qHashEqualsI7QStringEbRKT_S3_ T 26ba0 0
__Z11qt_ptr_swapI15QTypedArrayDataI7QStringEEvRPT_S5_ T 27d60 0
__Z11qt_ptr_swapI15QTypedArrayDataIDsEEvRPT_S4_ T 24270 0
__Z11qt_ptr_swapI15QTypedArrayDataIP13KZipFileEntryEEvRPT_S6_ T 3e170 0
__Z11qt_ptr_swapI15QTypedArrayDataIPK12KArchiveFileEEvRPT_S7_ T 2e0c0 0
__Z11qt_ptr_swapI15QTypedArrayDataIPK17KArchiveDirectoryEEvRPT_S7_ T 2b2d0 0
__Z11qt_ptr_swapI15QTypedArrayDataIcEEvRPT_S4_ T 25170 0
__Z11qt_ptr_swapI7QStringEvRPT_S3_ T 27da0 0
__Z11qt_ptr_swapI8QMapDataINSt3__13mapIx7QStringNS1_4lessIxEENS1_9allocatorINS1_4pairIKxS3_EEEEEEEEvRPT_SF_ T 30030 0
__Z11qt_ptr_swapIDsEvRPT_S2_ T 242b0 0
__Z11qt_ptr_swapIP13KZipFileEntryEvRPT_S4_ T 3e1b0 0
__Z11qt_ptr_swapIPK12KArchiveFileEvRPT_S5_ T 2e100 0
__Z11qt_ptr_swapIPK17KArchiveDirectoryEvRPT_S5_ T 2b310 0
__Z11qt_ptr_swapIcEvRPT_S2_ T 251b0 0
__Z12qobject_castIP11QFileDeviceET_P7QObject T 34a10 0
__Z13comparesEqualRK10QByteArrayRK14QByteArrayView T 3f3a0 0
__Z13comparesEqualRK11QStringViewS1_ T 26d40 0
__Z13comparesEqualRK14QByteArrayViewS1_ T 3f410 0
__Z13comparesEqualRK7QString13QLatin1String T 24450 0
__Z13comparesEqualRK7QStringS1_ T 26d00 0
__Z21qCountLeadingZeroBitsm T 289a0 0
__Z25qToStringViewIgnoringNullI7QStringLb1EE11QStringViewRKT_ T 24850 0
__Z28qToByteArrayViewIgnoringNullI10QByteArrayLb1EE14QByteArrayViewRKT_ T 3f150 0
__Z4qMaxIixEN11QTypeTraits6detail8PromotedIT_T0_NSt3__19enable_ifIXaaaaaaaaaaaaaasr3stdE15is_arithmetic_vIS3_Esr3stdE15is_arithmetic_vIS4_Eeqsr3stdE19is_floating_point_vIS3_Esr3stdE19is_floating_point_vIS4_Eeqsr3stdE11is_signed_vIS3_Esr3stdE11is_signed_vIS4_Entsr3stdE9is_same_vIS3_bEntsr3stdE9is_same_vIS4_bEntsr3stdE9is_same_vIS3_cEntsr3stdE9is_same_vIS4_cEEvE4typeEE4typeERKS3_RKS4_ T 2a700 0
__Z4qMaxIxERKT_S2_S2_ T 24b10 0
__Z4qMinIiERKT_S2_S2_ T 375a0 0
__Z4qMinIxERKT_S2_S2_ T 1ed00 0
__Z5qHashRK10QByteArraymN2Qt15Disambiguated_tE T 3f110 0
__Z5qHashRK7QStringm T 26ab0 0
__ZN10QArrayData11needsDetachEv T 24160 0
__ZN10QArrayData17allocatedCapacityEv T 27f40 0
__ZN10QArrayData3refEv T 23e10 0
__ZN10QArrayData5derefEv T 23fa0 0
__ZN10QAtomicOpsIbE11loadRelaxedIbEET_RKNSt3__16atomicIS2_EE T 26f50 0
__ZN10QAtomicOpsIiE11loadRelaxedIiEET_RKNSt3__16atomicIS2_EE T 24030 0
__ZN10QAtomicOpsIiE18fetchAndAddRelaxedIiEET_RNSt3__16atomicIS2_EEN19QAtomicAdditiveTypeIS2_E9AdditiveTE T 23e50 0
__ZN10QAtomicOpsIiE3refIiEEbRNSt3__16atomicIT_EE T 28eb0 0
__ZN10QAtomicOpsIiE5derefIiEEbRNSt3__16atomicIT_EE T 23fe0 0
__ZN10QByteArray4dataEv T 1e750 0
__ZN10QByteArray4swapERS_ T 250e0 0
__ZN10QByteArray6detachEv T 240c0 0
__ZN10QByteArrayaSEOS_ T 21ac0 0
__ZN10QByteArrayixEx T 1e800 0
__ZN11KFilterBase12virtual_hookEiPv T 35f70 0
__ZN11KFilterBase14setFilterFlagsENS_11FilterFlagsE T 35f30 0
__ZN11KFilterBase5resetEv T 35f20 0
__ZN11KFilterBase6deviceEv T 35e90 0
__ZN11KFilterBase9setDeviceEP9QIODeviceb T 35e50 0
__ZN11KFilterBase9terminateEv T 35f10 0
__ZN11KFilterBaseC2Ev T 35d30 0
__ZN11KFilterBaseD0Ev T 35e40 0
__ZN11KFilterBaseD1Ev T 35e30 0
__ZN11KFilterBaseD2Ev T 35dc0 0
__ZN11KGzipFilter10readHeaderEv T 36430 0
__ZN11KGzipFilter10uncompressEv T 36b60 0
__ZN11KGzipFilter11setInBufferEPKcj T 36a20 0
__ZN11KGzipFilter11writeFooterEv T 36800 0
__ZN11KGzipFilter11writeHeaderERK10QByteArray T 364d0 0
__ZN11KGzipFilter12setOutBufferEPcj T 369f0 0
__ZN11KGzipFilter15uncompress_noopEv T 36a90 0
__ZN11KGzipFilter4initEi T 36120 0
__ZN11KGzipFilter4initEiNS_4FlagE T 361b0 0
__ZN11KGzipFilter5resetEv T 363b0 0
__ZN11KGzipFilter8compressEb T 36cb0 0
__ZN11KGzipFilter9terminateEv T 36320 0
__ZN11KGzipFilterC1Ev T 36060 0
__ZN11KGzipFilterC2Ev T 35fb0 0
__ZN11KGzipFilterD0Ev T 360f0 0
__ZN11KGzipFilterD1Ev T 360d0 0
__ZN11KGzipFilterD2Ev T 36080 0
__ZN11KNoneFilter10readHeaderEv T 37350 0
__ZN11KNoneFilter10uncompressEv T 37420 0
__ZN11KNoneFilter11setInBufferEPKcj T 373b0 0
__ZN11KNoneFilter11writeHeaderERK10QByteArray T 37360 0
__ZN11KNoneFilter12setOutBufferEPcj T 37380 0
__ZN11KNoneFilter4initEi T 372f0 0
__ZN11KNoneFilter5resetEv T 37340 0
__ZN11KNoneFilter8compressEb T 37550 0
__ZN11KNoneFilter8copyDataEv T 37460 0
__ZN11KNoneFilter9terminateEv T 37330 0
__ZN11KNoneFilterC1Ev T 37230 0
__ZN11KNoneFilterC2Ev T 37180 0
__ZN11KNoneFilterD0Ev T 372c0 0
__ZN11KNoneFilterD1Ev T 372a0 0
__ZN11KNoneFilterD2Ev T 37250 0
__ZN11QStringView10castHelperEPKDs T 24c70 0
__ZN11QStringView10castHelperI5QCharEEPKDsPKT_ T 24530 0
__ZN12KArchiveFile12virtual_hookEiPv T 23950 0
__ZN12KArchiveFile7setSizeEx T 21970 0
__ZN12KArchiveFileC1EP8KArchiveRK7QStringiRK9QDateTimeS4_S4_S4_xx T 21830 0
__ZN12KArchiveFileC2EP8KArchiveRK7QStringiRK9QDateTimeS4_S4_S4_xx T 21720 0
__ZN12KArchiveFileD0Ev T 21920 0
__ZN12KArchiveFileD1Ev T 21900 0
__ZN12KArchiveFileD2Ev T 218b0 0
__ZN12QHashPrivate12GrowthPolicy13bucketForHashEmm T 26af0 0
__ZN12QHashPrivate12GrowthPolicy18bucketsForCapacityEm T 28800 0
__ZN12QHashPrivate13calculateHashI10QByteArrayEEmRKT_m T 3ed30 0
__ZN12QHashPrivate13calculateHashI7QStringEEmRKT_m T 269a0 0
__ZN12QHashPrivate4DataINS_4NodeI10QByteArray13ParseFileInfoEEE12findOrInsertIS2_EENS5_15InsertionResultERKT_ T 3ea20 0
__ZN12QHashPrivate4DataINS_4NodeI10QByteArray13ParseFileInfoEEE13allocateSpansEm T 3f630 0
__ZN12QHashPrivate4DataINS_4NodeI10QByteArray13ParseFileInfoEEE6Bucket12advance_implEPKS5_PNS_4SpanIS4_EE T 3f500 0
__ZN12QHashPrivate4DataINS_4NodeI10QByteArray13ParseFileInfoEEE6Bucket12nodeAtOffsetEm T 3f200 0
__ZN12QHashPrivate4DataINS_4NodeI10QByteArray13ParseFileInfoEEE6Bucket14advanceWrappedEPKS5_ T 3f260 0
__ZN12QHashPrivate4DataINS_4NodeI10QByteArray13ParseFileInfoEEE6Bucket4nodeEv T 405a0 0
__ZN12QHashPrivate4DataINS_4NodeI10QByteArray13ParseFileInfoEEE6rehashEm T 3eeb0 0
__ZN12QHashPrivate4DataINS_4NodeI10QByteArray13ParseFileInfoEEE8detachedEPS5_ T 40060 0
__ZN12QHashPrivate4DataINS_4NodeI7QStringP13KArchiveEntryEEE12findOrInsertIS2_EENS6_15InsertionResultERKT_ T 282d0 0
__ZN12QHashPrivate4DataINS_4NodeI7QStringP13KArchiveEntryEEE13allocateSpansEm T 28870 0
__ZN12QHashPrivate4DataINS_4NodeI7QStringP13KArchiveEntryEEE5eraseENS6_6BucketE T 295a0 0
__ZN12QHashPrivate4DataINS_4NodeI7QStringP13KArchiveEntryEEE6Bucket12advance_implEPKS6_PNS_4SpanIS5_EE T 26dc0 0
__ZN12QHashPrivate4DataINS_4NodeI7QStringP13KArchiveEntryEEE6Bucket12nodeAtOffsetEm T 26b70 0
__ZN12QHashPrivate4DataINS_4NodeI7QStringP13KArchiveEntryEEE6Bucket14advanceWrappedEPKS6_ T 26bd0 0
__ZN12QHashPrivate4DataINS_4NodeI7QStringP13KArchiveEntryEEE6Bucket4nodeEv T 26970 0
__ZN12QHashPrivate4DataINS_4NodeI7QStringP13KArchiveEntryEEE6rehashEm T 28560 0
__ZN12QHashPrivate4DataINS_4NodeI7QStringP13KArchiveEntryEEE8detachedEPS6_ T 28ee0 0
__ZN12QHashPrivate4NodeI10QByteArray13ParseFileInfoE12emplaceValueIJRKS2_EEEvDpOT_ T 3ffd0 0
__ZN12QHashPrivate4NodeI10QByteArray13ParseFileInfoE12emplaceValueIJS2_EEEvDpOT_ T 3ec80 0
__ZN12QHashPrivate4NodeI10QByteArray13ParseFileInfoE13createInPlaceIJRKS2_EEEvPS3_OS1_DpOT_ T 3ff90 0
__ZN12QHashPrivate4NodeI10QByteArray13ParseFileInfoE13createInPlaceIJS2_EEEvPS3_OS1_DpOT_ T 3ebc0 0
__ZN12QHashPrivate4NodeI7QStringP13KArchiveEntryE12emplaceValueIJRKS3_EEEvDpOT_ T 28de0 0
__ZN12QHashPrivate4NodeI7QStringP13KArchiveEntryE12emplaceValueIJS3_EEEvDpOT_ T 284a0 0
__ZN12QHashPrivate4NodeI7QStringP13KArchiveEntryE13createInPlaceIJRKS3_EEEvPS4_OS1_DpOT_ T 28da0 0
__ZN12QHashPrivate4NodeI7QStringP13KArchiveEntryE13createInPlaceIJS3_EEEvPS4_OS1_DpOT_ T 28460 0
__ZN12QHashPrivate4SpanINS_4NodeI10QByteArray13ParseFileInfoEEE10addStorageEv T 3fc00 0
__ZN12QHashPrivate4SpanINS_4NodeI10QByteArray13ParseFileInfoEEE2atEm T 3f730 0
__ZN12QHashPrivate4SpanINS_4NodeI10QByteArray13ParseFileInfoEEE5Entry4nodeEv T 3e470 0
__ZN12QHashPrivate4SpanINS_4NodeI10QByteArray13ParseFileInfoEEE5Entry8nextFreeEv T 3fdf0 0
__ZN12QHashPrivate4SpanINS_4NodeI10QByteArray13ParseFileInfoEEE6insertEm T 3faf0 0
__ZN12QHashPrivate4SpanINS_4NodeI10QByteArray13ParseFileInfoEEE8atOffsetEm T 3f2f0 0
__ZN12QHashPrivate4SpanINS_4NodeI10QByteArray13ParseFileInfoEEE8freeDataEv T 3e390 0
__ZN12QHashPrivate4SpanINS_4NodeI7QStringP13KArchiveEntryEEE10addStorageEv T 28bc0 0
__ZN12QHashPrivate4SpanINS_4NodeI7QStringP13KArchiveEntryEEE12moveFromSpanERS6_mm T 29980 0
__ZN12QHashPrivate4SpanINS_4NodeI7QStringP13KArchiveEntryEEE2atEm T 256f0 0
__ZN12QHashPrivate4SpanINS_4NodeI7QStringP13KArchiveEntryEEE5Entry4nodeEv T 257e0 0
__ZN12QHashPrivate4SpanINS_4NodeI7QStringP13KArchiveEntryEEE5Entry8nextFreeEv T 28d60 0
__ZN12QHashPrivate4SpanINS_4NodeI7QStringP13KArchiveEntryEEE5eraseEm T 297c0 0
__ZN12QHashPrivate4SpanINS_4NodeI7QStringP13KArchiveEntryEEE6insertEm T 28ab0 0
__ZN12QHashPrivate4SpanINS_4NodeI7QStringP13KArchiveEntryEEE8atOffsetEm T 26c60 0
__ZN12QHashPrivate4SpanINS_4NodeI7QStringP13KArchiveEntryEEE8freeDataEv T 25b30 0
__ZN12QHashPrivate4SpanINS_4NodeI7QStringP13KArchiveEntryEEE9moveLocalEmm T 298e0 0
__ZN12QHashPrivate8iteratorINS_4NodeI7QStringP13KArchiveEntryEEEppEv T 257f0 0
__ZN12QHashPrivateeqENS_4DataINS_4NodeI7QStringP13KArchiveEntryEEE6BucketES7_ T 298a0 0
__ZN13KArchiveEntry12virtual_hookEiPv T 23930 0
__ZN13KArchiveEntryC1EP8KArchiveRK7QStringiRK9QDateTimeS4_S4_S4_ T 21550 0
__ZN13KArchiveEntryC2EP8KArchiveRK7QStringiRK9QDateTimeS4_S4_S4_ T 21440 0
__ZN13KArchiveEntryD0Ev T 21640 0
__ZN13KArchiveEntryD1Ev T 21620 0
__ZN13KArchiveEntryD2Ev T 215b0 0
__ZN13KZipFileEntry14setHeaderStartEx T 39de0 0
__ZN13KZipFileEntry17setCompressedSizeEx T 3cac0 0
__ZN13KZipFileEntry8setCRC32Em T 39e00 0
__ZN13KZipFileEntryC1EP4KZipRK7QStringiRK9QDateTimeS4_S4_S4_S4_xxix T 39d30 0
__ZN13KZipFileEntryC2EP4KZipRK7QStringiRK9QDateTimeS4_S4_S4_S4_xxix T 3cfe0 0
__ZN13KZipFileEntryD0Ev T 3d1d0 0
__ZN13KZipFileEntryD1Ev T 3d1b0 0
__ZN13KZipFileEntryD2Ev T 3d130 0
__ZN13ParseFileInfoaSEOS_ T 3fea0 0
__ZN14QAnyStringView10encodeTypeI5QCharEEmPKT_x T 27140 0
__ZN14QAnyStringView29isAsciiOnlyCharsAtCompileTimeIK5QCharEEbPT_x T 27210 0
__ZN14QByteArrayView10castHelperEPKc T 23d00 0
__ZN15KArchivePrivate12abortWritingEv T 1d890 0
__ZN15KArchivePrivate12findOrCreateERK7QStringi T 1fcc0 0
__ZN15KArchivePrivate16time_tToDateTimeEj T 213f0 0
__ZN15KArchivePrivate2trEPKcS1_i T 23a50 0
__ZN15QTypedArrayDataI7QStringE10deallocateEP10QArrayData T 24740 0
__ZN15QTypedArrayDataI7QStringE19reallocateUnalignedEPS1_PS0_xN10QArrayData16AllocationOptionE T 2c5f0 0
__ZN15QTypedArrayDataI7QStringE8allocateExN10QArrayData16AllocationOptionE T 27b00 0
__ZN15QTypedArrayDataI7QStringE9dataStartEP10QArrayDatax T 2b990 0
__ZN15QTypedArrayDataIDsE10deallocateEP10QArrayData T 267d0 0
__ZN15QTypedArrayDataIP13KZipFileEntryE10deallocateEP10QArrayData T 3d8e0 0
__ZN15QTypedArrayDataIP13KZipFileEntryE19reallocateUnalignedEPS2_PS1_xN10QArrayData16AllocationOptionE T 417d0 0
__ZN15QTypedArrayDataIP13KZipFileEntryE8allocateExN10QArrayData16AllocationOptionE T 3e030 0
__ZN15QTypedArrayDataIP13KZipFileEntryE9dataStartEP10QArrayDatax T 40ba0 0
__ZN15QTypedArrayDataIPK12KArchiveFileE10deallocateEP10QArrayData T 266e0 0
__ZN15QTypedArrayDataIPK12KArchiveFileE19reallocateUnalignedEPS3_PS2_xN10QArrayData16AllocationOptionE T 2ddb0 0
__ZN15QTypedArrayDataIPK12KArchiveFileE8allocateExN10QArrayData16AllocationOptionE T 2ded0 0
__ZN15QTypedArrayDataIPK12KArchiveFileE9dataStartEP10QArrayDatax T 2d120 0
__ZN15QTypedArrayDataIPK17KArchiveDirectoryE10deallocateEP10QArrayData T 26170 0
__ZN15QTypedArrayDataIPK17KArchiveDirectoryE19reallocateUnalignedEPS3_PS2_xN10QArrayData16AllocationOptionE T 2aee0 0
__ZN15QTypedArrayDataIPK17KArchiveDirectoryE8allocateExN10QArrayData16AllocationOptionE T 2b000 0
__ZN15QTypedArrayDataIPK17KArchiveDirectoryE9dataStartEP10QArrayDatax T 2a200 0
__ZN15QTypedArrayDataIcE10deallocateEP10QArrayData T 23f70 0
__ZN16KLimitedIODevice11qt_metacallEN11QMetaObject4CallEiPPv T 1c650 0
__ZN16KLimitedIODevice11qt_metacastEPKc T 1c5e0 0
__ZN16KLimitedIODevice16staticMetaObjectE S 4bac8 0
__ZN16KLimitedIODevice4openE6QFlagsIN13QIODeviceBase12OpenModeFlagEE T 36f30 0
__ZN16KLimitedIODevice4seekEx T 37090 0
__ZN16KLimitedIODevice5closeEv T 36ff0 0
__ZN16KLimitedIODevice8readDataEPcx T 37020 0
__ZN16KLimitedIODeviceC1EP9QIODevicexx T 36ef0 0
__ZN16KLimitedIODeviceC2EP9QIODevicexx T 36e50 0
__ZN17KArchiveDirectory10addEntryV2EP13KArchiveEntry T 20fc0 0
__ZN17KArchiveDirectory11removeEntryEP13KArchiveEntry T 209b0 0
__ZN17KArchiveDirectory12virtual_hookEiPv T 23980 0
__ZN17KArchiveDirectory8addEntryEP13KArchiveEntry T 22350 0
__ZN17KArchiveDirectoryC1EP8KArchiveRK7QStringiRK9QDateTimeS4_S4_S4_ T 1fc30 0
__ZN17KArchiveDirectoryC2EP8KArchiveRK7QStringiRK9QDateTimeS4_S4_S4_ T 22030 0
__ZN17KArchiveDirectoryD0Ev T 221e0 0
__ZN17KArchiveDirectoryD1Ev T 221c0 0
__ZN17KArchiveDirectoryD2Ev T 22140 0
__ZN17QArrayDataPointerI7QStringE12allocateGrowERKS1_xN10QArrayData14GrowthPositionE T 2c120 0
__ZN17QArrayDataPointerI7QStringE13detachAndGrowEN10QArrayData14GrowthPositionExPPKS0_PS1_ T 2b850 0
__ZN17QArrayDataPointerI7QStringE17allocatedCapacityEv T 27e70 0
__ZN17QArrayDataPointerI7QStringE17reallocateAndGrowEN10QArrayData14GrowthPositionExPS1_ T 2bbf0 0
__ZN17QArrayDataPointerI7QStringE20tryReadjustFreeSpaceEN10QArrayData14GrowthPositionExPPKS0_ T 2ba10 0
__ZN17QArrayDataPointerI7QStringE3endEv T 24790 0
__ZN17QArrayDataPointerI7QStringE4dataEv T 247c0 0
__ZN17QArrayDataPointerI7QStringE4swapERS1_ T 27c10 0
__ZN17QArrayDataPointerI7QStringE5beginEv T 24770 0
__ZN17QArrayDataPointerI7QStringE5derefEv T 24660 0
__ZN17QArrayDataPointerI7QStringE6detachEPS1_ T 2c750 0
__ZN17QArrayDataPointerI7QStringE8relocateExPPKS0_ T 2be90 0
__ZN17QArrayDataPointerI7QStringEaSEOS1_ T 277e0 0
__ZN17QArrayDataPointerI7QStringEptEv T 246a0 0
__ZN17QArrayDataPointerIDsE3refEv T 23de0 0
__ZN17QArrayDataPointerIDsE4swapERS0_ T 24210 0
__ZN17QArrayDataPointerIDsE5derefEv T 26710 0
__ZN17QArrayDataPointerIDsEptEv T 26750 0
__ZN17QArrayDataPointerIP13KZipFileEntryE12allocateGrowERKS2_xN10QArrayData14GrowthPositionE T 41430 0
__ZN17QArrayDataPointerIP13KZipFileEntryE13detachAndGrowEN10QArrayData14GrowthPositionExPPKS1_PS2_ T 40930 0
__ZN17QArrayDataPointerIP13KZipFileEntryE17allocatedCapacityEv T 3dea0 0
__ZN17QArrayDataPointerIP13KZipFileEntryE17reallocateAndGrowEN10QArrayData14GrowthPositionExPS2_ T 40e00 0
__ZN17QArrayDataPointerIP13KZipFileEntryE20tryReadjustFreeSpaceEN10QArrayData14GrowthPositionExPPKS1_ T 40c20 0
__ZN17QArrayDataPointerIP13KZipFileEntryE3endEv T 40880 0
__ZN17QArrayDataPointerIP13KZipFileEntryE4dataEv T 40b80 0
__ZN17QArrayDataPointerIP13KZipFileEntryE4swapERS2_ T 3df30 0
__ZN17QArrayDataPointerIP13KZipFileEntryE5beginEv T 40910 0
__ZN17QArrayDataPointerIP13KZipFileEntryE5derefEv T 3d820 0
__ZN17QArrayDataPointerIP13KZipFileEntryE6detachEPS2_ T 41a10 0
__ZN17QArrayDataPointerIP13KZipFileEntryE8relocateExPPKS1_ T 410a0 0
__ZN17QArrayDataPointerIP13KZipFileEntryEptEv T 3d860 0
__ZN17QArrayDataPointerIPK12KArchiveFileE12allocateGrowERKS3_xN10QArrayData14GrowthPositionE T 2d9b0 0
__ZN17QArrayDataPointerIPK12KArchiveFileE13detachAndGrowEN10QArrayData14GrowthPositionExPPKS2_PS3_ T 2ceb0 0
__ZN17QArrayDataPointerIPK12KArchiveFileE17reallocateAndGrowEN10QArrayData14GrowthPositionExPS3_ T 2d380 0
__ZN17QArrayDataPointerIPK12KArchiveFileE20tryReadjustFreeSpaceEN10QArrayData14GrowthPositionExPPKS2_ T 2d1a0 0
__ZN17QArrayDataPointerIPK12KArchiveFileE3endEv T 2ce00 0
__ZN17QArrayDataPointerIPK12KArchiveFileE4dataEv T 2d100 0
__ZN17QArrayDataPointerIPK12KArchiveFileE4swapERS3_ T 2dd50 0
__ZN17QArrayDataPointerIPK12KArchiveFileE5beginEv T 2ce90 0
__ZN17QArrayDataPointerIPK12KArchiveFileE5derefEv T 26620 0
__ZN17QArrayDataPointerIPK12KArchiveFileE6detachEPS3_ T 30ae0 0
__ZN17QArrayDataPointerIPK12KArchiveFileE8relocateExPPKS2_ T 2d620 0
__ZN17QArrayDataPointerIPK12KArchiveFileEptEv T 26660 0
__ZN17QArrayDataPointerIPK17KArchiveDirectoryE12allocateGrowERKS3_xN10QArrayData14GrowthPositionE T 2aae0 0
__ZN17QArrayDataPointerIPK17KArchiveDirectoryE13detachAndGrowEN10QArrayData14GrowthPositionExPPKS2_PS3_ T 29f70 0
__ZN17QArrayDataPointerIPK17KArchiveDirectoryE17reallocateAndGrowEN10QArrayData14GrowthPositionExPS3_ T 2a460 0
__ZN17QArrayDataPointerIPK17KArchiveDirectoryE20tryReadjustFreeSpaceEN10QArrayData14GrowthPositionExPPKS2_ T 2a280 0
__ZN17QArrayDataPointerIPK17KArchiveDirectoryE3endEv T 29ec0 0
__ZN17QArrayDataPointerIPK17KArchiveDirectoryE4dataEv T 2a1e0 0
__ZN17QArrayDataPointerIPK17KArchiveDirectoryE4swapERS3_ T 2ae80 0
__ZN17QArrayDataPointerIPK17KArchiveDirectoryE5beginEv T 29f50 0
__ZN17QArrayDataPointerIPK17KArchiveDirectoryE5derefEv T 260b0 0
__ZN17QArrayDataPointerIPK17KArchiveDirectoryE6detachEPS3_ T 2b3a0 0
__ZN17QArrayDataPointerIPK17KArchiveDirectoryE8relocateExPPKS2_ T 2a750 0
__ZN17QArrayDataPointerIPK17KArchiveDirectoryEptEv T 260f0 0
__ZN17QArrayDataPointerIcE3refEv T 3e7b0 0
__ZN17QArrayDataPointerIcE4dataEv T 24100 0
__ZN17QArrayDataPointerIcE4swapERS0_ T 25110 0
__ZN17QArrayDataPointerIcE5derefEv T 23eb0 0
__ZN17QArrayDataPointerIcEptEv T 23ef0 0
__ZN18KCompressionDevice10filterBaseEv T 35c10 0
__ZN18KCompressionDevice11qt_metacallEN11QMetaObject4CallEiPPv T 1c4a0 0
__ZN18KCompressionDevice11qt_metacastEPKc T 1c430 0
__ZN18KCompressionDevice14setSkipHeadersEv T 35bf0 0
__ZN18KCompressionDevice15setOrigFileNameERK10QByteArray T 35bc0 0
__ZN18KCompressionDevice16staticMetaObjectE S 4b978 0
__ZN18KCompressionDevice24filterForCompressionTypeENS_15CompressionTypeE T 34a30 0
__ZN18KCompressionDevice2trEPKcS1_i T 35b80 0
__ZN18KCompressionDevice4openE6QFlagsIN13QIODeviceBase12OpenModeFlagEE T 34f80 0
__ZN18KCompressionDevice4seekEx T 35260 0
__ZN18KCompressionDevice5closeEv T 35160 0
__ZN18KCompressionDevice8readDataEPcx T 35560 0
__ZN18KCompressionDevice9writeDataEPKcx T 35810 0
__ZN18KCompressionDeviceC1EP9QIODevicebNS_15CompressionTypeE T 34c80 0
__ZN18KCompressionDeviceC1ERK7QStringNS_15CompressionTypeE T 34e10 0
__ZN18KCompressionDeviceC2EP9QIODevicebNS_15CompressionTypeE T 34b20 0
__ZN18KCompressionDeviceC2ERK7QStringNS_15CompressionTypeE T 34cc0 0
__ZN18KCompressionDeviceD0Ev T 34f30 0
__ZN18KCompressionDeviceD1Ev T 34f10 0
__ZN18KCompressionDeviceD2Ev T 34e40 0
__ZN19QBasicAtomicIntegerIiE10refRelaxedEv T 23e30 0
__ZN19QBasicAtomicIntegerIiE3refEv T 28e80 0
__ZN19QBasicAtomicIntegerIiE5derefEv T 23fc0 0
__ZN20QMutableListIteratorIP13KZipFileEntryE4nextEv T 3b210 0
__ZN20QMutableListIteratorIP13KZipFileEntryE5valueEv T 3b250 0
__ZN20QMutableListIteratorIP13KZipFileEntryE6removeEv T 3c810 0
__ZN20QMutableListIteratorIP13KZipFileEntryE7toFrontEv T 3b300 0
__ZN24KArchiveDirectoryPrivate3getEP17KArchiveDirectory T 20510 0
__ZN25KCompressionDevicePrivate18propagateErrorCodeEv T 34960 0
__ZN2Qt11qt_ptr_swapERNS_23totally_ordered_wrapperIP8QMapDataINSt3__13mapIx7QStringNS2_4lessIxEENS2_9allocatorINS2_4pairIKxS4_EEEEEEEEESG_ T 30000 0
__ZN2Qt13DisambiguatedE S 4599a 0
__ZN2Qt23totally_ordered_wrapperIP8QMapDataINSt3__13mapIx7QStringNS2_4lessIxEENS2_9allocatorINS2_4pairIKxS4_EEEEEEEE5resetESE_ T 2e840 0
__ZN3q2011countl_zeroImEENSt3__19enable_ifIXsr3stdE13is_unsigned_vIT_EEiE4typeES3_ T 289d0 0
__ZN4KZip10doWriteDirERK7QStringS2_S2_tRK9QDateTimeS5_S5_ T 3b590 0
__ZN4KZip11openArchiveE6QFlagsIN13QIODeviceBase12OpenModeFlagEE T 378d0 0
__ZN4KZip12closeArchiveEv T 3a0f0 0
__ZN4KZip12virtual_hookEiPv T 3cd00 0
__ZN4KZip13setExtraFieldENS_10ExtraFieldE T 3cfa0 0
__ZN4KZip14doWriteSymLinkERK7QStringS2_S2_S2_tRK9QDateTimeS5_S5_ T 3cae0 0
__ZN4KZip14setCompressionENS_11CompressionE T 3ccd0 0
__ZN4KZip15doFinishWritingEx T 3c8c0 0
__ZN4KZip16doPrepareWritingERK7QStringS2_S2_xtRK9QDateTimeS5_S5_ T 3b720 0
__ZN4KZip2trEPKcS1_i T 39730 0
__ZN4KZip9writeDataEPKcx T 3cd30 0
__ZN4KZipC1EP9QIODevice T 377b0 0
__ZN4KZipC1ERK7QString T 376e0 0
__ZN4KZipC2EP9QIODevice T 37710 0
__ZN4KZipC2ERK7QString T 37620 0
__ZN4KZipD0Ev T 378a0 0
__ZN4KZipD1Ev T 37880 0
__ZN4KZipD2Ev T 377e0 0
__ZN4QMapIx7QStringE22referenceHoldingDetachEv T 33f60 0
__ZN4QMapIx7QStringE28referenceHoldingDetachExceptERKx T 2e190 0
__ZN4QMapIx7QStringE6insertERKxRKS0_ T 23390 0
__ZN4QMapIx7QStringEixERKx T 236a0 0
__ZN5QChar7unicodeEv T 24ae0 0
__ZN5QFile10decodeNameEPKc T 1e8e0 0
__ZN5QFile10decodeNameERK10QByteArray T 39cb0 0
__ZN5QFile10encodeNameERK7QString T 1e5b0 0
__ZN5QHashI10QByteArray13ParseFileInfoE14emplace_helperIJRKS1_EEENS2_8iteratorEOS0_DpOT_ T 3e910 0
__ZN5QHashI10QByteArray13ParseFileInfoE14emplace_helperIJS1_EEENS2_8iteratorEOS0_DpOT_ T 3e850 0
__ZN5QHashI10QByteArray13ParseFileInfoE6detachEv T 3e9d0 0
__ZN5QHashI10QByteArray13ParseFileInfoE6insertERKS0_RKS1_ T 39be0 0
__ZN5QHashI10QByteArray13ParseFileInfoE7emplaceIJRKS1_EEENS2_8iteratorEOS0_DpOT_ T 3e590 0
__ZN5QHashI10QByteArray13ParseFileInfoE7emplaceIJRKS1_EEENS2_8iteratorERKS0_DpOT_ T 3e4d0 0
__ZN5QHashI7QStringP13KArchiveEntryE12key_iteratorppEv T 27ad0 0
__ZN5QHashI7QStringP13KArchiveEntryE14const_iteratorppEv T 25540 0
__ZN5QHashI7QStringP13KArchiveEntryE14emplace_helperIJRKS2_EEENS3_8iteratorEOS0_DpOT_ T 28180 0
__ZN5QHashI7QStringP13KArchiveEntryE14emplace_helperIJS2_EEENS3_8iteratorEOS0_DpOT_ T 280f0 0
__ZN5QHashI7QStringP13KArchiveEntryE3endEv T 22490 0
__ZN5QHashI7QStringP13KArchiveEntryE4findERKS0_ T 22410 0
__ZN5QHashI7QStringP13KArchiveEntryE5eraseENS3_14const_iteratorE T 224e0 0
__ZN5QHashI7QStringP13KArchiveEntryE6detachEv T 28240 0
__ZN5QHashI7QStringP13KArchiveEntryE6insertEOS0_RKS2_ T 223d0 0
__ZN5QHashI7QStringP13KArchiveEntryE7emplaceIJRKS2_EEENS3_8iteratorEOS0_DpOT_ T 27f80 0
__ZN5QHashI7QStringP13KArchiveEntryE8findImplIS0_EENS3_8iteratorERKT_ T 293a0 0
__ZN5QHashI7QStringP13KArchiveEntryE8iteratorppEv T 29790 0
__ZN5QListI7QStringE11emplaceBackIJRKS0_EEERS0_DpOT_ T 2b430 0
__ZN5QListI7QStringE11emplaceBackIJS0_EEERS0_DpOT_ T 30840 0
__ZN5QListI7QStringE14const_iteratorppEv T 1f640 0
__ZN5QListI7QStringE3endEv T 2b6b0 0
__ZN5QListI7QStringE4lastEv T 2c9b0 0
__ZN5QListI7QStringE6appendEOS0_ T 30810 0
__ZN5QListI7QStringE6appendERKS0_ T 2b400 0
__ZN5QListI7QStringE6detachEv T 2c730 0
__ZN5QListI7QStringE8takeLastEv T 2c8f0 0
__ZN5QListIP13KZipFileEntryE11emplaceBackIJRS1_EEES4_DpOT_ T 405d0 0
__ZN5QListIP13KZipFileEntryE3endEv T 40780 0
__ZN5QListIP13KZipFileEntryE5beginEv T 41b10 0
__ZN5QListIP13KZipFileEntryE5clearEv T 39680 0
__ZN5QListIP13KZipFileEntryE5eraseENS2_14const_iteratorE T 41dd0 0
__ZN5QListIP13KZipFileEntryE5eraseENS2_14const_iteratorES3_ T 41e30 0
__ZN5QListIP13KZipFileEntryE6appendES1_ T 39e20 0
__ZN5QListIP13KZipFileEntryE6detachEv T 419c0 0
__ZN5QListIP13KZipFileEntryE6removeExx T 420f0 0
__ZN5QListIP13KZipFileEntryE8iteratorppEi T 41cb0 0
__ZN5QListIP13KZipFileEntryE8iteratorppEv T 41ce0 0
__ZN5QListIPK12KArchiveFileE11emplaceBackIJRS2_EEES5_DpOT_ T 2cb50 0
__ZN5QListIPK12KArchiveFileE14const_iteratorppEv T 23870 0
__ZN5QListIPK12KArchiveFileE3endEv T 23560 0
__ZN5QListIPK12KArchiveFileE5beginEv T 23520 0
__ZN5QListIPK12KArchiveFileE6appendES2_ T 23360 0
__ZN5QListIPK12KArchiveFileE6detachEv T 30ac0 0
__ZN5QListIPK12KArchiveFileE8iteratormIEx T 33960 0
__ZN5QListIPK12KArchiveFileE8iteratormmEv T 31530 0
__ZN5QListIPK12KArchiveFileE8iteratorpLEx T 33710 0
__ZN5QListIPK12KArchiveFileE8iteratorppEv T 32cd0 0
__ZN5QListIPK17KArchiveDirectoryE11emplaceBackIJRS2_EEES5_DpOT_ T 29bd0 0
__ZN5QListIPK17KArchiveDirectoryE3endEv T 29d80 0
__ZN5QListIPK17KArchiveDirectoryE4lastEv T 2c800 0
__ZN5QListIPK17KArchiveDirectoryE6appendES2_ T 29ba0 0
__ZN5QListIPK17KArchiveDirectoryE6detachEv T 2b350 0
__ZN5QListIPK17KArchiveDirectoryE8takeLastEv T 2c790 0
__ZN5RpMap11RpMapPlugin11qt_metacallEN11QMetaObject4CallEiPPv T 1b270 0
__ZN5RpMap11RpMapPlugin11qt_metacastEPKc T 1b1e0 0
__ZN5RpMap11RpMapPlugin13writeTokenMapER16QXmlStreamWriterPKN5Tiled3MapE T 45f0 0
__ZN5RpMap11RpMapPlugin16staticMetaObjectE S 4b870 0
__ZN5RpMap11RpMapPlugin21writeTokenOrderedListER16QXmlStreamWriter T 9e30 0
__ZN5RpMap11RpMapPlugin5writeEPKN5Tiled3MapERK7QString6QFlagsINS1_10FileFormat6OptionEE T 10490 0
__ZN5RpMap11RpMapPlugin8writeMapER16QXmlStreamWriterPKN5Tiled3MapE T a7f0 0
__ZN5RpMap11RpMapPluginC1Ev T 4410 0
__ZN5RpMap11RpMapPluginC2Ev T 4310 0
__ZN6QDebug10maybeSpaceEv T 23c70 0
__ZN6QDebuglsEPKc T 1ca00 0
__ZN6QDebuglsERK7QString T 208f0 0
__ZN6QDebuglsEi T 3d630 0
__ZN6QFlagsIN11QFileDevice10PermissionEEoRES1_ T 25290 0
__ZN6QStackI7QStringE3popEv T 23310 0
__ZN6QStackI7QStringE4pushEOS0_ T 23480 0
__ZN6QStackI7QStringE4pushERKS0_ T 232c0 0
__ZN6QStackIPK17KArchiveDirectoryE3popEv T 232f0 0
__ZN6QStackIPK17KArchiveDirectoryE4pushEOS2_ T 23290 0
__ZN6QStackIPK17KArchiveDirectoryE4pushERKS2_ T 23450 0
__ZN7QString4swapERS_ T 241e0 0
__ZN7QString8fromUtf8IvEES_RK10QByteArray T 3dca0 0
__ZN7QStringaSEOS_ T 1e970 0
__ZN7QStringpLE5QChar T 24570 0
__ZN7QStringpLERKS_ T 24540 0
__ZN8KArchive10setRootDirEP17KArchiveDirectory T 21310 0
__ZN8KArchive12addLocalFileERK7QStringS2_ T 1d950 0
__ZN8KArchive12createDeviceE6QFlagsIN13QIODeviceBase12OpenModeFlagEE T 1d0b0 0
__ZN8KArchive12findOrCreateERK7QString T 1fc90 0
__ZN8KArchive12virtual_hookEiPv T 23910 0
__ZN8KArchive12writeSymLinkERK7QStringS2_S2_S2_tRK9QDateTimeS5_S5_ T 1e9a0 0
__ZN8KArchive13finishWritingEx T 1ed40 0
__ZN8KArchive14prepareWritingERK7QStringS2_S2_xtRK9QDateTimeS5_S5_ T 1ec60 0
__ZN8KArchive14setErrorStringERK7QString T 1cfa0 0
__ZN8KArchive17addLocalDirectoryERK7QStringS2_ T 1ed70 0
__ZN8KArchive2trEPKcS1_i T 1cfd0 0
__ZN8KArchive4openE6QFlagsIN13QIODeviceBase12OpenModeFlagEE T 1ccc0 0
__ZN8KArchive5closeEv T 1d650 0
__ZN8KArchive7rootDirEv T 1f950 0
__ZN8KArchive8writeDirERK7QStringS2_S2_tRK9QDateTimeS5_S5_ T 1f8e0 0
__ZN8KArchive9setDeviceEP9QIODevice T 212a0 0
__ZN8KArchive9writeDataEPKcx T 1f770 0
__ZN8KArchive9writeFileERK7QStringRK10QByteArraytS2_S2_RK9QDateTimeS8_S8_ T 1f680 0
__ZN8KArchiveC2EP9QIODevice T 1ca90 0
__ZN8KArchiveC2ERK7QString T 1c7a0 0
__ZN8KArchiveD0Ev T 1ccb0 0
__ZN8KArchiveD1Ev T 1cca0 0
__ZN8KArchiveD2Ev T 1cbd0 0
__ZN8QMapDataINSt3__13mapIx7QStringNS0_4lessIxEENS0_9allocatorINS0_4pairIKxS2_EEEEEEE21copyIfNotEquivalentToERKSA_RS7_ T 2e660 0
__ZN9QtPrivate10findStringE11QStringViewx5QCharN2Qt15CaseSensitivityE T 24910 0
__ZN9QtPrivate12QPodArrayOpsIDsE10destroyAllEv T 26760 0
__ZN9QtPrivate12QPodArrayOpsIP13KZipFileEntryE10copyAppendEPKS2_S5_ T 41660 0
__ZN9QtPrivate12QPodArrayOpsIP13KZipFileEntryE10createHoleEN10QArrayData14GrowthPositionExx T 40a30 0
__ZN9QtPrivate12QPodArrayOpsIP13KZipFileEntryE10destroyAllEv T 3d870 0
__ZN9QtPrivate12QPodArrayOpsIP13KZipFileEntryE10moveAppendEPS2_S4_ T 417a0 0
__ZN9QtPrivate12QPodArrayOpsIP13KZipFileEntryE10reallocateExN10QArrayData16AllocationOptionE T 413b0 0
__ZN9QtPrivate12QPodArrayOpsIP13KZipFileEntryE5eraseEPS2_x T 422b0 0
__ZN9QtPrivate12QPodArrayOpsIP13KZipFileEntryE7emplaceIJRS2_EEEvxDpOT_ T 40640 0
__ZN9QtPrivate12QPodArrayOpsIP13KZipFileEntryE8truncateEm T 3df90 0
__ZN9QtPrivate12QPodArrayOpsIPK12KArchiveFileE10copyAppendEPKS3_S6_ T 2dbe0 0
__ZN9QtPrivate12QPodArrayOpsIPK12KArchiveFileE10createHoleEN10QArrayData14GrowthPositionExx T 2cfb0 0
__ZN9QtPrivate12QPodArrayOpsIPK12KArchiveFileE10destroyAllEv T 26670 0
__ZN9QtPrivate12QPodArrayOpsIPK12KArchiveFileE10moveAppendEPS3_S5_ T 2dd20 0
__ZN9QtPrivate12QPodArrayOpsIPK12KArchiveFileE10reallocateExN10QArrayData16AllocationOptionE T 2d930 0
__ZN9QtPrivate12QPodArrayOpsIPK12KArchiveFileE7emplaceIJRS3_EEEvxDpOT_ T 2cbc0 0
__ZN9QtPrivate12QPodArrayOpsIPK17KArchiveDirectoryE10copyAppendEPKS3_S6_ T 2ad10 0
__ZN9QtPrivate12QPodArrayOpsIPK17KArchiveDirectoryE10createHoleEN10QArrayData14GrowthPositionExx T 2a070 0
__ZN9QtPrivate12QPodArrayOpsIPK17KArchiveDirectoryE10destroyAllEv T 26100 0
__ZN9QtPrivate12QPodArrayOpsIPK17KArchiveDirectoryE10moveAppendEPS3_S5_ T 2ae50 0
__ZN9QtPrivate12QPodArrayOpsIPK17KArchiveDirectoryE10reallocateExN10QArrayData16AllocationOptionE T 2aa60 0
__ZN9QtPrivate12QPodArrayOpsIPK17KArchiveDirectoryE7emplaceIJRS3_EEEvxDpOT_ T 29c40 0
__ZN9QtPrivate12QPodArrayOpsIPK17KArchiveDirectoryE9eraseLastEv T 2c870 0
__ZN9QtPrivate12QPodArrayOpsIcE10destroyAllEv T 23f00 0
__ZN9QtPrivate15QCommonArrayOpsI7QStringE19appendIteratorRangeIN5QHashIS1_P13KArchiveEntryE12key_iteratorEEEvT_S9_NSt3__19enable_ifIXsr3std14is_convertibleINSA_15iterator_traitsIS9_E17iterator_categoryENSA_20forward_iterator_tagEEE5valueEbE4typeE T 27830 0
__ZN9QtPrivate16QGenericArrayOpsI7QStringE10copyAppendEPKS1_S4_ T 2c350 0
__ZN9QtPrivate16QGenericArrayOpsI7QStringE10destroyAllEv T 246b0 0
__ZN9QtPrivate16QGenericArrayOpsI7QStringE10moveAppendEPS1_S3_ T 2c4a0 0
__ZN9QtPrivate16QGenericArrayOpsI7QStringE9eraseLastEv T 2ca20 0
__ZN9QtPrivate16QMovableArrayOpsI7QStringE10reallocateExN10QArrayData16AllocationOptionE T 2c0a0 0
__ZN9QtPrivate16QMovableArrayOpsI7QStringE7emplaceIJRKS1_EEEvxDpOT_ T 2b4a0 0
__ZN9QtPrivate16QMovableArrayOpsI7QStringE7emplaceIJS1_EEEvxDpOT_ T 308b0 0
__ZN9QtPrivate16QMovableArrayOpsI7QStringE8Inserter10verifyPostEv T 2c6f0 0
__ZN9QtPrivate16QMovableArrayOpsI7QStringE8Inserter9insertOneEOS1_ T 2b950 0
__ZN9QtPrivate16qStringLikeToArgE14QAnyStringView T 27080 0
__ZN9QtPrivate17MetaObjectForTypeI16KLimitedIODevicevE18metaObjectFunctionEPKNS_18QMetaTypeInterfaceE T 1c700 0
__ZN9QtPrivate17MetaObjectForTypeI18KCompressionDevicevE18metaObjectFunctionEPKNS_18QMetaTypeInterfaceE T 1c4e0 0
__ZN9QtPrivate19qobject_cast_helperIP11QFileDevice7QObjectEET_PT0_ T 35cd0 0
__ZN9QtPrivate20q_relocate_overlap_nI7QStringxEEvPT_T0_S3_ T 2bf10 0
__ZN9QtPrivate20q_relocate_overlap_nIP13KZipFileEntryxEEvPT_T0_S4_ T 41120 0
__ZN9QtPrivate20q_relocate_overlap_nIPK12KArchiveFilexEEvPT_T0_S5_ T 2d6a0 0
__ZN9QtPrivate20q_relocate_overlap_nIPK17KArchiveDirectoryxEEvPT_T0_S5_ T 2a7d0 0
__ZN9QtPrivate21lengthHelperContainerI11QStringViewEExRKT_ T 270e0 0
__ZN9QtPrivate30QExplicitlySharedDataPointerV2I8QMapDataINSt3__13mapIx7QStringNS2_4lessIxEENS2_9allocatorINS2_4pairIKxS4_EEEEEEEE4swapERSE_ T 2e810 0
__ZN9QtPrivate30QExplicitlySharedDataPointerV2I8QMapDataINSt3__13mapIx7QStringNS2_4lessIxEENS2_9allocatorINS2_4pairIKxS4_EEEEEEEE5resetEPSD_ T 2e4f0 0
__ZN9QtPrivate30QExplicitlySharedDataPointerV2I8QMapDataINSt3__13mapIx7QStringNS2_4lessIxEENS2_9allocatorINS2_4pairIKxS4_EEEEEEEE6detachEv T 34130 0
__ZN9QtPrivate30QExplicitlySharedDataPointerV2I8QMapDataINSt3__13mapIx7QStringNS2_4lessIxEENS2_9allocatorINS2_4pairIKxS4_EEEEEEEEptEv T 2e300 0
__ZN9QtPrivate8RefCount3refEv T 28e40 0
__ZN9QtPrivate8RefCount5derefEv T 25a00 0
__ZNK10QArrayData14detachCapacityEx T 2b120 0
__ZNK10QArrayData22constAllocatedCapacityEv T 2a1c0 0
__ZNK10QArrayData8isSharedEv T 27f10 0
__ZNK10QByteArray4dataEv T 1e700 0
__ZNK10QByteArray4sizeEv T 1e7b0 0
__ZNK10QByteArray5beginEv T 3dcf0 0
__ZNK10QByteArray6lengthEv T 366f0 0
__ZNK10QByteArray9constDataEv T 1e620 0
__ZNK10QByteArrayixEx T 36710 0
__ZNK11KFilterBase11filterFlagsEv T 35f50 0
__ZNK11KFilterBase13inBufferEmptyEv T 35eb0 0
__ZNK11KFilterBase13outBufferFullEv T 35ee0 0
__ZNK11KGzipFilter17inBufferAvailableEv T 36a50 0
__ZNK11KGzipFilter18outBufferAvailableEv T 36a70 0
__ZNK11KGzipFilter4modeEv T 36300 0
__ZNK11KNoneFilter17inBufferAvailableEv T 373e0 0
__ZNK11KNoneFilter18outBufferAvailableEv T 37400 0
__ZNK11KNoneFilter4modeEv T 37310 0
__ZNK11QLatin1Char7unicodeEv T 24620 0
__ZNK11QLatin1CharcvDsEv T 24600 0
__ZNK11QMetaObject4castEP7QObject T 35d00 0
__ZNK11QStringView11lastIndexOfE5QCharxN2Qt15CaseSensitivityE T 24d40 0
__ZNK11QStringView4dataEv T 27100 0
__ZNK11QStringView4sizeEv T 24af0 0
__ZNK11QStringView5utf16Ev T 24b50 0
__ZNK11QStringView7indexOfE5QCharxN2Qt15CaseSensitivityE T 248a0 0
__ZNK12KArchiveFile12createDeviceEv T 21af0 0
__ZNK12KArchiveFile4dataEv T 21990 0
__ZNK12KArchiveFile4sizeEv T 208d0 0
__ZNK12KArchiveFile6copyToERK7QString T 21b80 0
__ZNK12KArchiveFile6isFileEv T 21b70 0
__ZNK12KArchiveFile8positionEv T 21950 0
__ZNK12QHashPrivate4DataINS_4NodeI10QByteArray13ParseFileInfoEEE10findBucketIS2_EENS5_6BucketERKT_ T 3f7c0 0
__ZNK12QHashPrivate4DataINS_4NodeI10QByteArray13ParseFileInfoEEE10shouldGrowEv T 3e820 0
__ZNK12QHashPrivate4DataINS_4NodeI10QByteArray13ParseFileInfoEEE18findBucketWithHashIS2_EENS5_6BucketERKT_m T 3ed60 0
__ZNK12QHashPrivate4DataINS_4NodeI10QByteArray13ParseFileInfoEEE6Bucket10toIteratorEPKS5_ T 3ee70 0
__ZNK12QHashPrivate4DataINS_4NodeI10QByteArray13ParseFileInfoEEE6Bucket13toBucketIndexEPKS5_ T 3f5f0 0
__ZNK12QHashPrivate4DataINS_4NodeI10QByteArray13ParseFileInfoEEE6Bucket6insertEv T 3f0b0 0
__ZNK12QHashPrivate4DataINS_4NodeI10QByteArray13ParseFileInfoEEE6Bucket6offsetEv T 3f1d0 0
__ZNK12QHashPrivate4DataINS_4NodeI10QByteArray13ParseFileInfoEEE6Bucket8isUnusedEv T 3ee40 0
__ZNK12QHashPrivate4DataINS_4NodeI10QByteArray13ParseFileInfoEEE8findNodeIS2_EEPS4_RKT_ T 40530 0
__ZNK12QHashPrivate4DataINS_4NodeI7QStringP13KArchiveEntryEEE10findBucketIS2_EENS6_6BucketERKT_ T 268d0 0
__ZNK12QHashPrivate4DataINS_4NodeI7QStringP13KArchiveEntryEEE10shouldGrowEv T 280c0 0
__ZNK12QHashPrivate4DataINS_4NodeI7QStringP13KArchiveEntryEEE16detachedIteratorENS_8iteratorIS5_EE T 29540 0
__ZNK12QHashPrivate4DataINS_4NodeI7QStringP13KArchiveEntryEEE18findBucketWithHashIS2_EENS6_6BucketERKT_m T 269d0 0
__ZNK12QHashPrivate4DataINS_4NodeI7QStringP13KArchiveEntryEEE5beginEv T 25870 0
__ZNK12QHashPrivate4DataINS_4NodeI7QStringP13KArchiveEntryEEE6Bucket10toIteratorEPKS6_ T 28520 0
__ZNK12QHashPrivate4DataINS_4NodeI7QStringP13KArchiveEntryEEE6Bucket13toBucketIndexEPKS6_ T 287c0 0
__ZNK12QHashPrivate4DataINS_4NodeI7QStringP13KArchiveEntryEEE6Bucket6insertEv T 28760 0
__ZNK12QHashPrivate4DataINS_4NodeI7QStringP13KArchiveEntryEEE6Bucket6offsetEv T 26b40 0
__ZNK12QHashPrivate4DataINS_4NodeI7QStringP13KArchiveEntryEEE6Bucket8isUnusedEv T 26940 0
__ZNK12QHashPrivate4DataINS_4NodeI7QStringP13KArchiveEntryEEE8findNodeIS2_EEPS5_RKT_ T 26860 0
__ZNK12QHashPrivate4SpanINS_4NodeI10QByteArray13ParseFileInfoEEE2atEm T 403d0 0
__ZNK12QHashPrivate4SpanINS_4NodeI10QByteArray13ParseFileInfoEEE6offsetEm T 3f2d0 0
__ZNK12QHashPrivate4SpanINS_4NodeI10QByteArray13ParseFileInfoEEE7hasNodeEm T 3f5c0 0
__ZNK12QHashPrivate4SpanINS_4NodeI7QStringP13KArchiveEntryEEE2atEm T 292a0 0
__ZNK12QHashPrivate4SpanINS_4NodeI7QStringP13KArchiveEntryEEE6offsetEm T 26c40 0
__ZNK12QHashPrivate4SpanINS_4NodeI7QStringP13KArchiveEntryEEE7hasNodeEm T 257b0 0
__ZNK12QHashPrivate8iteratorINS_4NodeI10QByteArray13ParseFileInfoEEE4nodeEv T 3ec00 0
__ZNK12QHashPrivate8iteratorINS_4NodeI10QByteArray13ParseFileInfoEEE4spanEv T 3fe60 0
__ZNK12QHashPrivate8iteratorINS_4NodeI10QByteArray13ParseFileInfoEEE5indexEv T 3fe80 0
__ZNK12QHashPrivate8iteratorINS_4NodeI10QByteArray13ParseFileInfoEEE8isUnusedEv T 3fe00 0
__ZNK12QHashPrivate8iteratorINS_4NodeI7QStringP13KArchiveEntryEEE4nodeEv T 255f0 0
__ZNK12QHashPrivate8iteratorINS_4NodeI7QStringP13KArchiveEntryEEE4spanEv T 256d0 0
__ZNK12QHashPrivate8iteratorINS_4NodeI7QStringP13KArchiveEntryEEE5indexEv T 25790 0
__ZNK12QHashPrivate8iteratorINS_4NodeI7QStringP13KArchiveEntryEEE8isUnusedEv T 25670 0
__ZNK12QHashPrivate8iteratorINS_4NodeI7QStringP13KArchiveEntryEEEeqES6_ T 255b0 0
__ZNK12QHashPrivate8iteratorINS_4NodeI7QStringP13KArchiveEntryEEEneES6_ T 25570 0
__ZNK13KArchiveEntry11isDirectoryEv T 216f0 0
__ZNK13KArchiveEntry11permissionsEv T 20ee0 0
__ZNK13KArchiveEntry13symLinkTargetEv T 216a0 0
__ZNK13KArchiveEntry4dateEv T 20f00 0
__ZNK13KArchiveEntry4nameEv T 21670 0
__ZNK13KArchiveEntry4userEv T 20f40 0
__ZNK13KArchiveEntry5groupEv T 20f80 0
__ZNK13KArchiveEntry6isFileEv T 216e0 0
__ZNK13KArchiveEntry7archiveEv T 21700 0
__ZNK13KZipFileEntry11headerStartEv T 3b2a0 0
__ZNK13KZipFileEntry12createDeviceEv T 3d2c0 0
__ZNK13KZipFileEntry14compressedSizeEv T 3b2e0 0
__ZNK13KZipFileEntry4dataEv T 3d200 0
__ZNK13KZipFileEntry4pathEv T 3b350 0
__ZNK13KZipFileEntry5crc32Ev T 3b2c0 0
__ZNK13KZipFileEntry8encodingEv T 3b370 0
__ZNK13QLatin1String4dataEv T 27320 0
__ZNK13QLatin1String4sizeEv T 244d0 0
__ZNK14QByteArrayView4dataEv T 3f4e0 0
__ZNK14QByteArrayView4sizeEv T 3f4c0 0
__ZNK14QScopedPointerI11QObjectData21QScopedPointerDeleterIS0_EEptEv T 1c410 0
__ZNK16KLimitedIODevice10metaObjectEv T 1c580 0
__ZNK16KLimitedIODevice12isSequentialEv T 37150 0
__ZNK16KLimitedIODevice14bytesAvailableEv T 37130 0
__ZNK16KLimitedIODevice4sizeEv T 37000 0
__ZNK16QLoggingCategory12categoryNameEv T 27000 0
__ZNK16QLoggingCategory14isDebugEnabledEv T 27490 0
__ZNK16QLoggingCategory16isWarningEnabledEv T 26f00 0
__ZNK16QLoggingCategory17isCriticalEnabledEv T 42510 0
__ZNK17KArchiveDirectory11isDirectoryEv T 22660 0
__ZNK17KArchiveDirectory4fileERK7QString T 222f0 0
__ZNK17KArchiveDirectory5entryERK7QString T 222c0 0
__ZNK17KArchiveDirectory6copyToERK7QStringb T 22670 0
__ZNK17KArchiveDirectory7entriesEv T 22210 0
__ZNK17QArrayDataPointerI7QStringE10constBeginEv T 27350 0
__ZNK17QArrayDataPointerI7QStringE11needsDetachEv T 2b750 0
__ZNK17QArrayDataPointerI7QStringE14detachCapacityEx T 2c660 0
__ZNK17QArrayDataPointerI7QStringE14freeSpaceAtEndEv T 2b790 0
__ZNK17QArrayDataPointerI7QStringE16freeSpaceAtBeginEv T 2b7f0 0
__ZNK17QArrayDataPointerI7QStringE22constAllocatedCapacityEv T 2be50 0
__ZNK17QArrayDataPointerI7QStringE3endEv T 2c070 0
__ZNK17QArrayDataPointerI7QStringE4dataEv T 273a0 0
__ZNK17QArrayDataPointerI7QStringE5beginEv T 2c050 0
__ZNK17QArrayDataPointerI7QStringE5flagsEv T 2c6b0 0
__ZNK17QArrayDataPointerI7QStringE8constEndEv T 273e0 0
__ZNK17QArrayDataPointerI7QStringE8isSharedEv T 27e30 0
__ZNK17QArrayDataPointerI7QStringE9isMutableEv T 27de0 0
__ZNK17QArrayDataPointerI7QStringEptEv T 27340 0
__ZNK17QArrayDataPointerIDsE4dataEv T 24510 0
__ZNK17QArrayDataPointerIP13KZipFileEntryE10constBeginEv T 42290 0
__ZNK17QArrayDataPointerIP13KZipFileEntryE11needsDetachEv T 3de60 0
__ZNK17QArrayDataPointerIP13KZipFileEntryE14detachCapacityEx T 41840 0
__ZNK17QArrayDataPointerIP13KZipFileEntryE14freeSpaceAtEndEv T 40820 0
__ZNK17QArrayDataPointerIP13KZipFileEntryE16freeSpaceAtBeginEv T 408b0 0
__ZNK17QArrayDataPointerIP13KZipFileEntryE22constAllocatedCapacityEv T 41060 0
__ZNK17QArrayDataPointerIP13KZipFileEntryE3endEv T 41380 0
__ZNK17QArrayDataPointerIP13KZipFileEntryE4dataEv T 41320 0
__ZNK17QArrayDataPointerIP13KZipFileEntryE5beginEv T 41360 0
__ZNK17QArrayDataPointerIP13KZipFileEntryE5flagsEv T 41910 0
__ZNK17QArrayDataPointerIP13KZipFileEntryE8constEndEv T 41c10 0
__ZNK17QArrayDataPointerIP13KZipFileEntryE8isSharedEv T 3e210 0
__ZNK17QArrayDataPointerIP13KZipFileEntryE9isMutableEv T 3e1f0 0
__ZNK17QArrayDataPointerIP13KZipFileEntryEptEv T 41c00 0
__ZNK17QArrayDataPointerIPK12KArchiveFileE10constBeginEv T 33ec0 0
__ZNK17QArrayDataPointerIPK12KArchiveFileE11needsDetachEv T 2cd60 0
__ZNK17QArrayDataPointerIPK12KArchiveFileE14detachCapacityEx T 2de80 0
__ZNK17QArrayDataPointerIPK12KArchiveFileE14freeSpaceAtEndEv T 2cda0 0
__ZNK17QArrayDataPointerIPK12KArchiveFileE16freeSpaceAtBeginEv T 2ce30 0
__ZNK17QArrayDataPointerIPK12KArchiveFileE22constAllocatedCapacityEv T 2d5e0 0
__ZNK17QArrayDataPointerIPK12KArchiveFileE3endEv T 2d900 0
__ZNK17QArrayDataPointerIPK12KArchiveFileE4dataEv T 2d8a0 0
__ZNK17QArrayDataPointerIPK12KArchiveFileE5beginEv T 2d8e0 0
__ZNK17QArrayDataPointerIPK12KArchiveFileE5flagsEv T 2dfb0 0
__ZNK17QArrayDataPointerIPK12KArchiveFileE8constEndEv T 33f30 0
__ZNK17QArrayDataPointerIPK12KArchiveFileE8isSharedEv T 2e080 0
__ZNK17QArrayDataPointerIPK12KArchiveFileE9isMutableEv T 2e060 0
__ZNK17QArrayDataPointerIPK12KArchiveFileEptEv T 33eb0 0
__ZNK17QArrayDataPointerIPK17KArchiveDirectoryE11needsDetachEv T 29e20 0
__ZNK17QArrayDataPointerIPK17KArchiveDirectoryE14detachCapacityEx T 2afb0 0
__ZNK17QArrayDataPointerIPK17KArchiveDirectoryE14freeSpaceAtEndEv T 29e60 0
__ZNK17QArrayDataPointerIPK17KArchiveDirectoryE16freeSpaceAtBeginEv T 29ef0 0
__ZNK17QArrayDataPointerIPK17KArchiveDirectoryE22constAllocatedCapacityEv T 2a6c0 0
__ZNK17QArrayDataPointerIPK17KArchiveDirectoryE3endEv T 2aa30 0
__ZNK17QArrayDataPointerIPK17KArchiveDirectoryE4dataEv T 2a9d0 0
__ZNK17QArrayDataPointerIPK17KArchiveDirectoryE5beginEv T 2aa10 0
__ZNK17QArrayDataPointerIPK17KArchiveDirectoryE5flagsEv T 2b0e0 0
__ZNK17QArrayDataPointerIPK17KArchiveDirectoryE8isSharedEv T 2b290 0
__ZNK17QArrayDataPointerIPK17KArchiveDirectoryE9isMutableEv T 2b270 0
__ZNK17QArrayDataPointerIcE11needsDetachEv T 24120 0
__ZNK17QArrayDataPointerIcE4dataEv T 240a0 0
__ZNK18KCompressionDevice10metaObjectEv T 1c3b0 0
__ZNK18KCompressionDevice15compressionTypeEv T 34f60 0
__ZNK18KCompressionDevice5atEndEv T 354e0 0
__ZNK18KCompressionDevice5errorEv T 35240 0
__ZNK19QBasicAtomicIntegerIbE11loadRelaxedEv T 26f30 0
__ZNK19QBasicAtomicIntegerIiE11loadRelaxedEv T 24010 0
__ZNK20QMutableListIteratorIP13KZipFileEntryE11item_existsEv T 41d00 0
__ZNK20QMutableListIteratorIP13KZipFileEntryE7hasNextEv T 3b1b0 0
__ZNK24KArchiveDirectoryPrivate5entryERK7QStringPP17KArchiveDirectory T 20530 0
__ZNK2Qt23totally_ordered_wrapperIP8QMapDataINSt3__13mapIx7QStringNS2_4lessIxEENS2_9allocatorINS2_4pairIKxS4_EEEEEEEE3getEv T 262a0 0
__ZNK2Qt23totally_ordered_wrapperIP8QMapDataINSt3__13mapIx7QStringNS2_4lessIxEENS2_9allocatorINS2_4pairIKxS4_EEEEEEEEcvbEv T 26250 0
__ZNK2Qt23totally_ordered_wrapperIP8QMapDataINSt3__13mapIx7QStringNS2_4lessIxEENS2_9allocatorINS2_4pairIKxS4_EEEEEEEEdeISD_Lb1EEERT_v T 34210 0
__ZNK2Qt23totally_ordered_wrapperIP8QMapDataINSt3__13mapIx7QStringNS2_4lessIxEENS2_9allocatorINS2_4pairIKxS4_EEEEEEEEptEv T 26280 0
__ZNK4KZip10extraFieldEv T 3cfc0 0
__ZNK4KZip11compressionEv T 3cca0 0
__ZNK5QHashI10QByteArray13ParseFileInfoE10isDetachedEv T 3e7e0 0
__ZNK5QHashI10QByteArray13ParseFileInfoE5valueERKS0_RKS1_ T 39c40 0
__ZNK5QHashI10QByteArray13ParseFileInfoE9valueImplIS0_EEPS1_RKT_ T 404d0 0
__ZNK5QHashI7QStringP13KArchiveEntryE10isDetachedEv T 28080 0
__ZNK5QHashI7QStringP13KArchiveEntryE12key_iteratordeEv T 27eb0 0
__ZNK5QHashI7QStringP13KArchiveEntryE12key_iteratoreqES4_ T 27e00 0
__ZNK5QHashI7QStringP13KArchiveEntryE12key_iteratorneES4_ T 27aa0 0
__ZNK5QHashI7QStringP13KArchiveEntryE14const_iterator3keyEv T 27f60 0
__ZNK5QHashI7QStringP13KArchiveEntryE14const_iteratordeEv T 25520 0
__ZNK5QHashI7QStringP13KArchiveEntryE14const_iteratoreqERKS4_ T 27ed0 0
__ZNK5QHashI7QStringP13KArchiveEntryE14const_iteratorneERKS4_ T 254e0 0
__ZNK5QHashI7QStringP13KArchiveEntryE3endEv T 254b0 0
__ZNK5QHashI7QStringP13KArchiveEntryE4keysEv T 22250 0
__ZNK5QHashI7QStringP13KArchiveEntryE5beginEv T 25430 0
__ZNK5QHashI7QStringP13KArchiveEntryE5valueERKS0_ T 22380 0
__ZNK5QHashI7QStringP13KArchiveEntryE6keyEndEv T 27500 0
__ZNK5QHashI7QStringP13KArchiveEntryE7isEmptyEv T 29490 0
__ZNK5QHashI7QStringP13KArchiveEntryE8constEndEv T 29510 0
__ZNK5QHashI7QStringP13KArchiveEntryE8iterator5valueEv T 224c0 0
__ZNK5QHashI7QStringP13KArchiveEntryE8iteratoreqERKS4_ T 22450 0
__ZNK5QHashI7QStringP13KArchiveEntryE8keyBeginEv T 274c0 0
__ZNK5QHashI7QStringP13KArchiveEntryE9valueImplIS0_EEPS2_RKT_ T 26800 0
__ZNK5QListI7QStringE14const_iteratordeEv T 1f4e0 0
__ZNK5QListI7QStringE14const_iteratorneES2_ T 1f440 0
__ZNK5QListI7QStringE3endEv T 1f460 0
__ZNK5QListI7QStringE4sizeEv T 2cab0 0
__ZNK5QListI7QStringE5beginEv T 1f400 0
__ZNK5QListI7QStringE7isEmptyEv T 2c980 0
__ZNK5QListI7QStringE8iteratordeEv T 2b730 0
__ZNK5QListI7QStringE8iteratormiEx T 2b6f0 0
__ZNK5QListIP13KZipFileEntryE10constBeginEv T 420b0 0
__ZNK5QListIP13KZipFileEntryE14const_iteratorgeES3_ T 42050 0
__ZNK5QListIP13KZipFileEntryE14const_iteratormiES3_ T 42270 0
__ZNK5QListIP13KZipFileEntryE14const_iteratorneES3_ T 41bb0 0
__ZNK5QListIP13KZipFileEntryE14const_iteratorplEx T 41f80 0
__ZNK5QListIP13KZipFileEntryE15isValidIteratorENS2_14const_iteratorE T 41fc0 0
__ZNK5QListIP13KZipFileEntryE4sizeEv T 3dd10 0
__ZNK5QListIP13KZipFileEntryE5countEv T 3b570 0
__ZNK5QListIP13KZipFileEntryE8constEndEv T 41b70 0
__ZNK5QListIP13KZipFileEntryE8iteratordeEv T 40800 0
__ZNK5QListIP13KZipFileEntryE8iteratormiEx T 407c0 0
__ZNK5QListIP13KZipFileEntryE8iteratorplEx T 421d0 0
__ZNK5QListIPK12KArchiveFileE10constBeginEv T 235e0 0
__ZNK5QListIPK12KArchiveFileE14const_iteratordeEv T 23680 0
__ZNK5QListIPK12KArchiveFileE14const_iteratorneES4_ T 23660 0
__ZNK5QListIPK12KArchiveFileE8constEndEv T 23620 0
__ZNK5QListIPK12KArchiveFileE8iteratordeEv T 2cd40 0
__ZNK5QListIPK12KArchiveFileE8iteratoreqES4_ T 30cc0 0
__ZNK5QListIPK12KArchiveFileE8iteratorgeES4_ T 33750 0
__ZNK5QListIPK12KArchiveFileE8iteratorltES4_ T 33730 0
__ZNK5QListIPK12KArchiveFileE8iteratormiES4_ T 30d20 0
__ZNK5QListIPK12KArchiveFileE8iteratormiEx T 2cd00 0
__ZNK5QListIPK12KArchiveFileE8iteratorneES4_ T 32d70 0
__ZNK5QListIPK12KArchiveFileE8iteratorplEx T 31740 0
__ZNK5QListIPK17KArchiveDirectoryE4sizeEv T 25f50 0
__ZNK5QListIPK17KArchiveDirectoryE7isEmptyEv T 234b0 0
__ZNK5QListIPK17KArchiveDirectoryE8iteratordeEv T 29e00 0
__ZNK5QListIPK17KArchiveDirectoryE8iteratormiEx T 29dc0 0
__ZNK5RpMap11RpMapPlugin10metaObjectEv T 1b180 0
__ZNK5RpMap11RpMapPlugin10nameFilterEv T 4430 0
__ZNK5RpMap11RpMapPlugin11errorStringEv T 4590 0
__ZNK5RpMap11RpMapPlugin9shortNameEv T 44b0 0
__ZNK6QFlagsIN10QArrayData11ArrayOptionEEanES1_ T 2b1b0 0
__ZNK6QFlagsIN10QArrayData11ArrayOptionEEcvjEv T 2b1f0 0
__ZNK6QFlagsIN13QIODeviceBase12OpenModeFlagEEanES1_ T 36fb0 0
__ZNK6QFlagsIN13QIODeviceBase12OpenModeFlagEEcvjEv T 1d070 0
__ZNK6QFlagsIN13QIODeviceBase12OpenModeFlagEEntEv T 3b160 0
__ZNK6QFlagsIN13QIODeviceBase12OpenModeFlagEEorES1_ T 251f0 0
__ZNK6QFlagsIN4QDir6FilterEEorES1_ T 1f360 0
__ZNK7QString11lastIndexOfE5QCharN2Qt15CaseSensitivityE T 20e20 0
__ZNK7QString11lastIndexOfE5QCharxN2Qt15CaseSensitivityE T 24cf0 0
__ZNK7QString3argI13QLatin1StringLb1EEES_RKT_i5QChar T 1e640 0
__ZNK7QString3argIJRKS_S_EEENSt3__19enable_ifIXaagesZT_Li2Esr3stdE13conjunction_vIDpNS3_11conjunctionIJNS3_8negationIN9QtPrivate21treat_as_integral_argIu11__remove_cvIT_EEEEENS3_14is_convertibleIS9_14QAnyStringViewEEEEEEES_E4typeEDpOS9_ T 1eab0 0
__ZNK7QString3argIJRS_S1_S1_EEENSt3__19enable_ifIXaagesZT_Li2Esr3stdE13conjunction_vIDpNS2_11conjunctionIJNS2_8negationIN9QtPrivate21treat_as_integral_argIu11__remove_cvIT_EEEEENS2_14is_convertibleIS8_14QAnyStringViewEEEEEEES_E4typeEDpOS8_ T 39e50 0
__ZNK7QString3argIJRS_S_EEENSt3__19enable_ifIXaagesZT_Li2Esr3stdE13conjunction_vIDpNS2_11conjunctionIJNS2_8negationIN9QtPrivate21treat_as_integral_argIu11__remove_cvIT_EEEEENS2_14is_convertibleIS8_14QAnyStringViewEEEEEEES_E4typeEDpOS8_ T 1d4a0 0
__ZNK7QString3argIS_Lb1EEES_RKT_i5QChar T 1e540 0
__ZNK7QString3argIiLb1EEES_T_ii5QChar T 1d010 0
__ZNK7QString3argIxLb1EEES_T_ii5QChar T 3a070 0
__ZNK7QString4dataEv T 24ca0 0
__ZNK7QString4sizeEv T 23a90 0
__ZNK7QString5beginEv T 244f0 0
__ZNK7QString6lengthEv T 24830 0
__ZNK7QString7indexOfE5QCharxN2Qt15CaseSensitivityE T 247e0 0
__ZNK7QString7isEmptyEv T 1c920 0
__ZNK7QString9constDataEv T 24c80 0
__ZNK8KArchive11errorStringEv T 1d8f0 0
__ZNK8KArchive4modeEv T 21390 0
__ZNK8KArchive6deviceEv T 1f8c0 0
__ZNK8KArchive6isOpenEv T 1cc50 0
__ZNK8KArchive8fileNameEv T 213b0 0
__ZNK8KArchive9directoryEv T 1d930 0
__ZNK9QFileInfo12lastModifiedEv T 1ea50 0
__ZNK9QFileInfo8lastReadEv T 1ea20 0
__ZNK9QFileInfo9birthTimeEv T 1ea80 0
__ZNK9QHashSeedcvmEv T 290f0 0
__ZNK9QtPrivate30QExplicitlySharedDataPointerV2I8QMapDataINSt3__13mapIx7QStringNS2_4lessIxEENS2_9allocatorINS2_4pairIKxS4_EEEEEEEE8isSharedEv T 2e5b0 0
__ZNK9QtPrivate30QExplicitlySharedDataPointerV2I8QMapDataINSt3__13mapIx7QStringNS2_4lessIxEENS2_9allocatorINS2_4pairIKxS4_EEEEEEEEcvbEv T 2e4c0 0
__ZNK9QtPrivate8RefCount8isSharedEv T 28290 0
__ZNKR7QString4leftEx T 20e70 0
__ZNKR7QString5firstEx T 24da0 0
__ZNKR7QString6slicedExx T 24ea0 0
__ZNO7QString6toUtf8Ev T 23e80 0
__ZNSt3__111__introsortINS_17_ClassicAlgPolicyERPFbPK12KArchiveFileS4_EN5QListIS4_E8iteratorELb0EEEvT1_SB_T0_NS_15iterator_traitsISB_E15difference_typeEb T 30d40 0
__ZNSt3__116allocator_traitsINS_9allocatorINS_11__tree_nodeINS_12__value_typeIx7QStringEEPvEEEEE37select_on_container_copy_constructionB9nqe210106IS8_Li0EEES8_RKS8_ T 34480 0
__ZNSt3__116allocator_traitsINS_9allocatorINS_11__tree_nodeINS_12__value_typeIx7QStringEEPvEEEEE7destroyB9nqe210106INS_4pairIKxS4_EELi0EEEvRS8_PT_ T 26450 0
__ZNSt3__116allocator_traitsINS_9allocatorINS_11__tree_nodeINS_12__value_typeIx7QStringEEPvEEEEE8max_sizeB9nqe210106IS8_Li0EEEmRKS8_ T 2fc80 0
__ZNSt3__116allocator_traitsINS_9allocatorINS_11__tree_nodeINS_12__value_typeIx7QStringEEPvEEEEE9constructB9nqe210106INS_4pairIKxS4_EEJRKSD_ELi0EEEvRS8_PT_DpOT0_ T 2fbc0 0
__ZNSt3__116allocator_traitsINS_9allocatorINS_11__tree_nodeINS_12__value_typeIx7QStringEEPvEEEEE9constructB9nqe210106INS_4pairIKxS4_EEJRSC_RKS4_ELi0EEEvRS8_PT_DpOT0_ T 306e0 0
__ZNSt3__116allocator_traitsINS_9allocatorINS_11__tree_nodeINS_12__value_typeIx7QStringEEPvEEEEE9constructB9nqe210106INS_4pairIKxS4_EEJSD_ELi0EEEvRS8_PT_DpOT0_ T 34800 0
__ZNSt3__13mapIx7QStringNS_4lessIxEENS_9allocatorINS_4pairIKxS1_EEEEE12emplace_hintB9nqe210106IJRS6_RKS1_EEENS_14__map_iteratorINS_15__tree_iteratorINS_12__value_typeIxS1_EEPNS_11__tree_nodeISH_PvEElEEEENS_20__map_const_iteratorINS_21__tree_const_iteratorISH_SL_lEEEEDpOT_ T 301a0 0
__ZNSt3__13mapIx7QStringNS_4lessIxEENS_9allocatorINS_4pairIKxS1_EEEEE16insert_or_assignB9nqe210106IRKS1_EENS5_INS_14__map_iteratorINS_15__tree_iteratorINS_12__value_typeIxS1_EEPNS_11__tree_nodeISG_PvEElEEEEbEERS6_OT_ T 2e320 0
__ZNSt3__13mapIx7QStringNS_4lessIxEENS_9allocatorINS_4pairIKxS1_EEEEE6insertB9nqe210106INS_20__map_const_iteratorINS_21__tree_const_iteratorINS_12__value_typeIxS1_EEPNS_11__tree_nodeISE_PvEElEEEEEEvT_SL_ T 34380 0
__ZNSt3__16__treeINS_12__value_typeIx7QStringEENS_19__map_value_compareIxNS_4pairIKxS2_EENS_4lessIxEELb1EEENS_9allocatorIS7_EEE11lower_boundB9nqe210106IxEENS_15__tree_iteratorIS3_PNS_11__tree_nodeIS3_PvEElEERKT_ T 30220 0
__ZNSt3__16__treeINS_12__value_typeIx7QStringEENS_19__map_value_compareIxNS_4pairIKxS2_EENS_4lessIxEELb1EEENS_9allocatorIS7_EEE12__find_equalIxEERPNS_16__tree_node_baseIPvEENS_21__tree_const_iteratorIS3_PNS_11__tree_nodeIS3_SG_EElEERPNS_15__tree_end_nodeISI_EESJ_RKT_ T 2f1c0 0
__ZNSt3__16__treeINS_12__value_typeIx7QStringEENS_19__map_value_compareIxNS_4pairIKxS2_EENS_4lessIxEELb1EEENS_9allocatorIS7_EEE12__find_equalIxEERPNS_16__tree_node_baseIPvEERPNS_15__tree_end_nodeISI_EERKT_ T 2f840 0
__ZNSt3__16__treeINS_12__value_typeIx7QStringEENS_19__map_value_compareIxNS_4pairIKxS2_EENS_4lessIxEELb1EEENS_9allocatorIS7_EEE13__lower_boundIxEENS_15__tree_iteratorIS3_PNS_11__tree_nodeIS3_PvEElEERKT_SJ_PNS_15__tree_end_nodeIPNS_16__tree_node_baseISH_EEEE T 30280 0
__ZNSt3__16__treeINS_12__value_typeIx7QStringEENS_19__map_value_compareIxNS_4pairIKxS2_EENS_4lessIxEELb1EEENS_9allocatorIS7_EEE16__construct_nodeIJRKS7_EEENS_10unique_ptrINS_11__tree_nodeIS3_PvEENS_22__tree_node_destructorINSB_ISK_EEEEEEDpOT_ T 2f4b0 0
__ZNSt3__16__treeINS_12__value_typeIx7QStringEENS_19__map_value_compareIxNS_4pairIKxS2_EENS_4lessIxEELb1EEENS_9allocatorIS7_EEE16__construct_nodeIJRS6_RKS2_EEENS_10unique_ptrINS_11__tree_nodeIS3_PvEENS_22__tree_node_destructorINSB_ISL_EEEEEEDpOT_ T 305f0 0
__ZNSt3__16__treeINS_12__value_typeIx7QStringEENS_19__map_value_compareIxNS_4pairIKxS2_EENS_4lessIxEELb1EEENS_9allocatorIS7_EEE16__construct_nodeIJS7_EEENS_10unique_ptrINS_11__tree_nodeIS3_PvEENS_22__tree_node_destructorINSB_ISI_EEEEEEDpOT_ T 34720 0
__ZNSt3__16__treeINS_12__value_typeIx7QStringEENS_19__map_value_compareIxNS_4pairIKxS2_EENS_4lessIxEELb1EEENS_9allocatorIS7_EEE16__emplace_uniqueB9nqe210106IS7_EENS5_INS_15__tree_iteratorIS3_PNS_11__tree_nodeIS3_PvEElEEbEEOT_ T 34580 0
__ZNSt3__16__treeINS_12__value_typeIx7QStringEENS_19__map_value_compareIxNS_4pairIKxS2_EENS_4lessIxEELb1EEENS_9allocatorIS7_EEE21__emplace_hint_uniqueB9nqe210106IRKS7_EENS_15__tree_iteratorIS3_PNS_11__tree_nodeIS3_PvEElEENS_21__tree_const_iteratorIS3_SL_lEEOT_ T 2efe0 0
__ZNSt3__16__treeINS_12__value_typeIx7QStringEENS_19__map_value_compareIxNS_4pairIKxS2_EENS_4lessIxEELb1EEENS_9allocatorIS7_EEE21__emplace_hint_uniqueB9nqe210106IRS6_RKS2_Li0EEENS_15__tree_iteratorIS3_PNS_11__tree_nodeIS3_PvEElEENS_21__tree_const_iteratorIS3_SM_lEEOT_OT0_ T 30480 0
__ZNSt3__16__treeINS_12__value_typeIx7QStringEENS_19__map_value_compareIxNS_4pairIKxS2_EENS_4lessIxEELb1EEENS_9allocatorIS7_EEE25__emplace_unique_key_argsIxJS7_EEENS5_INS_15__tree_iteratorIS3_PNS_11__tree_nodeIS3_PvEElEEbEERKT_DpOT0_ T 34640 0
__ZNSt3__16__treeINS_12__value_typeIx7QStringEENS_19__map_value_compareIxNS_4pairIKxS2_EENS_4lessIxEELb1EEENS_9allocatorIS7_EEE28__emplace_unique_extract_keyB9nqe210106IS7_EENS5_INS_15__tree_iteratorIS3_PNS_11__tree_nodeIS3_PvEElEEbEEOT_NS_23__extract_key_first_tagE T 345f0 0
__ZNSt3__16__treeINS_12__value_typeIx7QStringEENS_19__map_value_compareIxNS_4pairIKxS2_EENS_4lessIxEELb1EEENS_9allocatorIS7_EEE30__emplace_hint_unique_key_argsIxJRKS7_EEENS5_INS_15__tree_iteratorIS3_PNS_11__tree_nodeIS3_PvEElEEbEENS_21__tree_const_iteratorIS3_SL_lEERKT_DpOT0_ T 2f0b0 0
__ZNSt3__16__treeINS_12__value_typeIx7QStringEENS_19__map_value_compareIxNS_4pairIKxS2_EENS_4lessIxEELb1EEENS_9allocatorIS7_EEE30__emplace_hint_unique_key_argsIxJRS6_RKS2_EEENS5_INS_15__tree_iteratorIS3_PNS_11__tree_nodeIS3_PvEElEEbEENS_21__tree_const_iteratorIS3_SM_lEERKT_DpOT0_ T 304e0 0
__ZNSt3__16__treeINS_12__value_typeIx7QStringEENS_19__map_value_compareIxNS_4pairIKxS2_EENS_4lessIxEELb1EEENS_9allocatorIS7_EEE33__emplace_hint_unique_extract_keyB9nqe210106IRKS7_EENS_15__tree_iteratorIS3_PNS_11__tree_nodeIS3_PvEElEENS_21__tree_const_iteratorIS3_SL_lEEOT_NS_23__extract_key_first_tagE T 2f050 0
__ZNSt3__16__treeINS_12__value_typeIx7QStringEENS_19__map_value_compareIxNS_4pairIKxS2_EENS_4lessIxEELb1EEENS_9allocatorIS7_EEE4findIxEENS_15__tree_iteratorIS3_PNS_11__tree_nodeIS3_PvEElEERKT_ T 344b0 0
__ZNSt3__17nulloptE S 45918 0
__ZNSt3__18in_placeE S 45956 0
__ZNSt3__19allocatorINS_11__tree_nodeINS_12__value_typeIx7QStringEEPvEEE9constructB9nqe210106INS_4pairIKxS3_EEJRKSB_EEEvPT_DpOT0_ T 2fe00 0
__ZNSt3__19allocatorINS_11__tree_nodeINS_12__value_typeIx7QStringEEPvEEE9constructB9nqe210106INS_4pairIKxS3_EEJRSA_RKS3_EEEvPT_DpOT0_ T 30720 0
__ZNSt3__19allocatorINS_11__tree_nodeINS_12__value_typeIx7QStringEEPvEEE9constructB9nqe210106INS_4pairIKxS3_EEJSB_EEEvPT_DpOT0_ T 34830 0
__ZTI11KFilterBase S 4be30 0
__ZTI11KGzipFilter S 4bed8 0
__ZTI11KNoneFilter S 4bf88 0
__ZTI12KArchiveFile S 4bd58 0
__ZTI13KArchiveEntry S 4bd48 0
__ZTI13KZipFileEntry S 4c080 0
__ZTI16KLimitedIODevice S 4bbf8 0
__ZTI17KArchiveDirectory S 4bd70 0
__ZTI18KCompressionDevice S 4baa8 0
__ZTI4KZip S 4c068 0
__ZTI8KArchive S 4bd88 0
__ZTIN5RpMap11RpMapPluginE S 4b958 0
__ZTS11KFilterBase S 45959 0
__ZTS11KGzipFilter S 45967 0
__ZTS11KNoneFilter S 45975 0
__ZTS12KArchiveFile S 45929 0
__ZTS13KArchiveEntry S 45919 0
__ZTS13KZipFileEntry S 45989 0
__ZTS16KLimitedIODevice S 4589c 0
__ZTS17KArchiveDirectory S 45938 0
__ZTS18KCompressionDevice S 4581c 0
__ZTS4KZip S 45983 0
__ZTS8KArchive S 4594c 0
__ZTSN5RpMap11RpMapPluginE S 45799 0
__ZTV11KFilterBase S 4bd98 0
__ZTV11KGzipFilter S 4be40 0
__ZTV11KNoneFilter S 4bef0 0
__ZTV12KArchiveFile S 4bcc8 0
__ZTV13KArchiveEntry S 4bc90 0
__ZTV13KZipFileEntry S 4c020 0
__ZTV16KLimitedIODevice S 4bb00 0
__ZTV17KArchiveDirectory S 4bd10 0
__ZTV18KCompressionDevice S 4b9b0 0
__ZTV4KZip S 4bfa0 0
__ZTV8KArchive S 4bc10 0
__ZTVN5RpMap11RpMapPluginE S 4b8a8 0
__ZZN8QMapDataINSt3__13mapIx7QStringNS0_4lessIxEENS0_9allocatorINS0_4pairIKxS2_EEEEEEE21copyIfNotEquivalentToERKSA_RS7_ENKUlT_E_clINS0_20__map_const_iteratorINS0_21__tree_const_iteratorINS0_12__value_typeIxS2_EEPNS0_11__tree_nodeISL_PvEElEEEEEEDaSF_ T 2ec70 0
__ZZNK10QByteArray4sizeEvENKUlvE_clEv T 24190 0
__ZZNK5QListI7QStringE4sizeEvENKUlvE_clEv T 2cb00 0
__ZZNK5QListIP13KZipFileEntryE4sizeEvENKUlvE_clEv T 3dd60 0
__ZZNK5QListIPK17KArchiveDirectoryE4sizeEvENKUlvE_clEv T 25fa0 0
__ZZNK7QString4sizeEvENKUlvE_clEv T 23ae0 0
__Zeq6QFlagsIN13QIODeviceBase12OpenModeFlagEES1_ T 1d850 0
__Zeq6QFlagsIN13QIODeviceBase12OpenModeFlagEES2_ T 23dc0 0
__ZeqRK10QByteArrayS1_ T 3f350 0
__ZeqRK14QByteArrayViewS1_ T 3f3e0 0
__ZeqRK7QStringRK13QLatin1String T 204c0 0
__ZeqRK7QStringS1_ T 26cd0 0
__Zne6QFlagsIN13QIODeviceBase12OpenModeFlagEES1_ T 1cf60 0
__Zne6QFlagsIN13QIODeviceBase12OpenModeFlagEES2_ T 23d80 0
__ZneRK7QStringRK13QLatin1String T 1f4a0 0
__ZorN13QIODeviceBase12OpenModeFlagES0_ T 21f80 0
__ZplO7QStringRKS_ T 1f500 0
__ZplRK7QString5QChar T 1f550 0
_qt_plugin_instance T 1b340 0
_qt_plugin_query_metadata_v2 T 1b2b0 0
