---
triple:          'x86_64-apple-darwin'
binary-path:     '/Users/dz0400621/Documents/project/tiled/debug/terraingenerator.816bfe52/terraingenerator'
relocations:
  - { offset: 0x3F, size: 0x8, addend: 0x0, symName: _qt_version_tag_6_11_use, symObjAddr: 0x25590, symBinAddr: 0x10002B000, symSize: 0x0 }
  - { offset: 0x7B60, size: 0x8, addend: 0x0, symName: __ZN9QtPrivate8asStringEO7QString, symObjAddr: 0x4FD0, symBinAddr: 0x100005A80, symSize: 0x10 }
  - { offset: 0x7B8E, size: 0x8, addend: 0x0, symName: __ZN9QtPrivate8asStringERK7QString, symObjAddr: 0x52F0, symBinAddr: 0x100005DA0, symSize: 0x10 }
  - { offset: 0x7BBC, size: 0x8, addend: 0x0, symName: __ZN9QtPrivate20q_relocate_overlap_nI7QStringxEEvPT_T0_S3_, symObjAddr: 0x8F70, symBinAddr: 0x100009A20, symSize: 0x50 }
  - { offset: 0x7C12, size: 0x8, addend: 0x0, symName: __ZN9QtPrivateL19q_points_into_rangeI17QArrayDataPointerI7QStringEPKS2_EEbRKT0_RKT_, symObjAddr: 0x8FC0, symBinAddr: 0x100009A70, symSize: 0xA0 }
  - { offset: 0x7C5E, size: 0x8, addend: 0x0, symName: __ZN9QtPrivateL19q_points_into_rangeI7QStringNSt3__14lessIvEEEEbPKT_S7_S7_T0_, symObjAddr: 0x9060, symBinAddr: 0x100009B10, symSize: 0x50 }
  - { offset: 0x7CC6, size: 0x8, addend: 0x0, symName: __ZN9QtPrivateL19lengthHelperPointerIcEExPKT_, symObjAddr: 0xB930, symBinAddr: 0x10000C3E0, symSize: 0x50 }
  - { offset: 0x7D09, size: 0x8, addend: 0x0, symName: __ZN9QtPrivate20q_relocate_overlap_nI5QListI7QStringExEEvPT_T0_S5_, symObjAddr: 0xC000, symBinAddr: 0x10000CAB0, symSize: 0x50 }
  - { offset: 0x7D5F, size: 0x8, addend: 0x0, symName: __ZN9QtPrivateL19q_points_into_rangeI17QArrayDataPointerI5QListI7QStringEEPKS4_EEbRKT0_RKT_, symObjAddr: 0xC050, symBinAddr: 0x10000CB00, symSize: 0xA0 }
  - { offset: 0x7DAB, size: 0x8, addend: 0x0, symName: __ZN9QtPrivateL19q_points_into_rangeI5QListI7QStringENSt3__14lessIvEEEEbPKT_S9_S9_T0_, symObjAddr: 0xC0F0, symBinAddr: 0x10000CBA0, symSize: 0x50 }
  - { offset: 0x7E13, size: 0x8, addend: 0x0, symName: __ZN9QtPrivate20q_relocate_overlap_nI14QSharedPointerIN5Tiled7TilesetEExEEvPT_T0_S6_, symObjAddr: 0x117F0, symBinAddr: 0x1000122A0, symSize: 0x50 }
  - { offset: 0x7E69, size: 0x8, addend: 0x0, symName: __ZN9QtPrivateL19q_points_into_rangeI17QArrayDataPointerI14QSharedPointerIN5Tiled7TilesetEEEPKS5_EEbRKT0_RKT_, symObjAddr: 0x11840, symBinAddr: 0x1000122F0, symSize: 0xA0 }
  - { offset: 0x7EB5, size: 0x8, addend: 0x0, symName: __ZN9QtPrivateL19q_points_into_rangeI14QSharedPointerIN5Tiled7TilesetEENSt3__14lessIvEEEEbPKT_SA_SA_T0_, symObjAddr: 0x118E0, symBinAddr: 0x100012390, symSize: 0x50 }
  - { offset: 0x7F4A, size: 0x8, addend: 0x0, symName: __ZN9QtPrivate24printSequentialContainerI5QListI7QStringEEE6QDebugS4_PKcRKT_, symObjAddr: 0x19230, symBinAddr: 0x100019CE0, symSize: 0x160 }
  - { offset: 0x7FCE, size: 0x8, addend: 0x0, symName: __ZN9QtPrivate20q_relocate_overlap_nIPN5Tiled9WangColorExEEvPT_T0_S5_, symObjAddr: 0x1D640, symBinAddr: 0x10001E0F0, symSize: 0x50 }
  - { offset: 0x8024, size: 0x8, addend: 0x0, symName: __ZN9QtPrivateL19q_points_into_rangeI17QArrayDataPointerIPN5Tiled9WangColorEEPKS4_EEbRKT0_RKT_, symObjAddr: 0x1D690, symBinAddr: 0x10001E140, symSize: 0xA0 }
  - { offset: 0x8070, size: 0x8, addend: 0x0, symName: __ZN9QtPrivateL19q_points_into_rangeIPN5Tiled9WangColorENSt3__14lessIvEEEEbPKT_S9_S9_T0_, symObjAddr: 0x1D730, symBinAddr: 0x10001E1E0, symSize: 0x50 }
  - { offset: 0x80D8, size: 0x8, addend: 0x0, symName: __ZN9QtPrivate20q_relocate_overlap_nI16TileTerrainNamesxEEvPT_T0_S3_, symObjAddr: 0x1F450, symBinAddr: 0x10001FF00, symSize: 0xD0 }
  - { offset: 0x8158, size: 0x8, addend: 0x0, symName: __ZN9QtPrivateL19q_points_into_rangeI17QArrayDataPointerI16TileTerrainNamesEPKS2_EEbRKT0_RKT_, symObjAddr: 0x1F520, symBinAddr: 0x10001FFD0, symSize: 0xA0 }
  - { offset: 0x81A4, size: 0x8, addend: 0x0, symName: __ZN9QtPrivate30q_relocate_overlap_n_left_moveIP16TileTerrainNamesxEEvT_T0_S3_, symObjAddr: 0x1F5C0, symBinAddr: 0x100020070, symSize: 0x1C0 }
  - { offset: 0x82AA, size: 0x8, addend: 0x0, symName: __ZN9QtPrivate30q_relocate_overlap_n_left_moveINSt3__116reverse_iteratorIP16TileTerrainNamesEExEEvT_T0_S6_, symObjAddr: 0x1F7B0, symBinAddr: 0x100020260, symSize: 0x320 }
  - { offset: 0x83B2, size: 0x8, addend: 0x0, symName: __ZN9QtPrivateL19q_points_into_rangeI16TileTerrainNamesNSt3__14lessIvEEEEbPKT_S7_S7_T0_, symObjAddr: 0x204F0, symBinAddr: 0x100020FA0, symSize: 0x50 }
  - { offset: 0x87F7, size: 0x8, addend: 0x0, symName: __ZNSt3__18in_placeE, symObjAddr: 0x26548, symBinAddr: 0x100028180, symSize: 0x0 }
  - { offset: 0x1A37C, size: 0x8, addend: 0x0, symName: __ZNSt3__117__cxx_atomic_loadB9nqe210106IiEET_PKNS_22__cxx_atomic_base_implIS1_EENS_12memory_orderE, symObjAddr: 0x86E0, symBinAddr: 0x100009190, symSize: 0x50 }
  - { offset: 0x21EFA, size: 0x8, addend: 0x0, symName: __ZNSt3__17advanceB9nqe210106INS_21__tree_const_iteratorINS_12__value_typeI16TileTerrainNamesPN5Tiled4TileEEEPNS_11__tree_nodeIS7_PvEElEEllLi0EEEvRT_T0_, symObjAddr: 0x15660, symBinAddr: 0x100016110, symSize: 0x30 }
  - { offset: 0x21F9F, size: 0x8, addend: 0x0, symName: __ZNSt3__17advanceB9nqe210106INS_21__tree_const_iteratorINS_12__value_typeI7QStringPN5Tiled9WangColorEEEPNS_11__tree_nodeIS7_PvEElEEllLi0EEEvRT_T0_, symObjAddr: 0x183C0, symBinAddr: 0x100018E70, symSize: 0x30 }
  - { offset: 0x22044, size: 0x8, addend: 0x0, symName: __ZNSt3__17advanceB9nqe210106INS_21__tree_const_iteratorINS_12__value_typeI7QStringiEEPNS_11__tree_nodeIS4_PvEElEEllLi0EEEvRT_T0_, symObjAddr: 0x1ABD0, symBinAddr: 0x10001B680, symSize: 0x30 }
  - { offset: 0x221DB, size: 0x8, addend: 0x0, symName: __ZNSt3__17advanceB9nqe210106IP16TileTerrainNamesiiLi0EEEvRT_T0_, symObjAddr: 0x1FF00, symBinAddr: 0x1000209B0, symSize: 0x30 }
  - { offset: 0x22465, size: 0x8, addend: 0x0, symName: __ZNSt3__17advanceB9nqe210106INS_16reverse_iteratorIP16TileTerrainNamesEEiiLi0EEEvRT_T0_, symObjAddr: 0x20460, symBinAddr: 0x100020F10, symSize: 0x30 }
  - { offset: 0x224FB, size: 0x8, addend: 0x0, symName: __ZNSt3__111__introsortINS_17_ClassicAlgPolicyER15TerrainLessThanN5QListI7QStringE8iteratorELb0EEEvT1_S8_T0_NS_15iterator_traitsIS8_E15difference_typeEb, symObjAddr: 0x213B0, symBinAddr: 0x100021E60, symSize: 0x7B0 }
  - { offset: 0x2265B, size: 0x8, addend: 0x0, symName: __ZNSt3__126__insertion_sort_unguardedB9nqe210106INS_17_ClassicAlgPolicyER15TerrainLessThanN5QListI7QStringE8iteratorEEEvT1_S8_T0_, symObjAddr: 0x222B0, symBinAddr: 0x100022D60, symSize: 0x1C0 }
  - { offset: 0x22735, size: 0x8, addend: 0x0, symName: __ZNSt3__111__sift_downB9nqe210106INS_17_ClassicAlgPolicyER15TerrainLessThanN5QListI7QStringE8iteratorEEEvT1_OT0_NS_15iterator_traitsIS8_E15difference_typeES8_, symObjAddr: 0x23A60, symBinAddr: 0x100024510, symSize: 0x320 }
  - { offset: 0x227E3, size: 0x8, addend: 0x0, symName: __ZNSt3__117__floyd_sift_downB9nqe210106INS_17_ClassicAlgPolicyER15TerrainLessThanN5QListI7QStringE8iteratorEEET1_S8_OT0_NS_15iterator_traitsIS8_E15difference_typeE, symObjAddr: 0x23FC0, symBinAddr: 0x100024A70, symSize: 0x120 }
  - { offset: 0x2287B, size: 0x8, addend: 0x0, symName: __ZNSt3__131__partition_with_equals_on_leftB9nqe210106INS_17_ClassicAlgPolicyEN5QListI7QStringE8iteratorER15TerrainLessThanEET0_S8_S8_T1_, symObjAddr: 0x22590, symBinAddr: 0x100023040, symSize: 0x390 }
  - { offset: 0x22938, size: 0x8, addend: 0x0, symName: __ZNSt3__118__bitset_partitionB9nqe210106INS_17_ClassicAlgPolicyEN5QListI7QStringE8iteratorER15TerrainLessThanEENS_4pairIT0_bEES9_S9_T1_, symObjAddr: 0x22920, symBinAddr: 0x1000233D0, symSize: 0x4E0 }
  - { offset: 0x22A35, size: 0x8, addend: 0x0, symName: __ZNSt3__124__swap_bitmap_pos_withinB9nqe210106INS_17_ClassicAlgPolicyEN5QListI7QStringE8iteratorEEEvRT0_S7_RyS8_, symObjAddr: 0x24750, symBinAddr: 0x100025200, symSize: 0x190 }
  - { offset: 0x22B04, size: 0x8, addend: 0x0, symName: __ZNSt3__132__partition_with_equals_on_rightB9nqe210106INS_17_ClassicAlgPolicyEN5QListI7QStringE8iteratorER15TerrainLessThanEENS_4pairIT0_bEES9_S9_T1_, symObjAddr: 0x22E00, symBinAddr: 0x1000238B0, symSize: 0x370 }
  - { offset: 0x22BD1, size: 0x8, addend: 0x0, symName: __ZNSt3__127__insertion_sort_incompleteB9nqe210106INS_17_ClassicAlgPolicyER15TerrainLessThanN5QListI7QStringE8iteratorEEEbT1_S8_T0_, symObjAddr: 0x23170, symBinAddr: 0x100023C20, symSize: 0x4F0 }
  - { offset: 0x22CBC, size: 0x8, addend: 0x0, symName: __ZNSt3__111make_uniqueB9nqe210106IN5Tiled7WangSetEJPNS1_7TilesetE7QStringNS2_4TypeEELi0EEENS_10unique_ptrIT_NS_14default_deleteIS8_EEEEDpOT0_, symObjAddr: 0x5490, symBinAddr: 0x100005F40, symSize: 0x90 }
  - { offset: 0x22D2C, size: 0x8, addend: 0x0, symName: __ZNSt3__14sortB9nqe210106IN5QListI7QStringE8iteratorE15TerrainLessThanEEvT_S6_T0_, symObjAddr: 0x7090, symBinAddr: 0x100007B40, symSize: 0x40 }
  - { offset: 0x22D87, size: 0x8, addend: 0x0, symName: __ZNSt3__18exchangeB9nqe210106IP15QTypedArrayDataIDsEDnEET_RS4_OT0_, symObjAddr: 0x7800, symBinAddr: 0x1000082B0, symSize: 0x30 }
  - { offset: 0x22DE1, size: 0x8, addend: 0x0, symName: __ZNSt3__18exchangeB9nqe210106IPDsDnEET_RS2_OT0_, symObjAddr: 0x7830, symBinAddr: 0x1000082E0, symSize: 0x30 }
  - { offset: 0x22E3B, size: 0x8, addend: 0x0, symName: __ZNSt3__18exchangeB9nqe210106IxiEET_RS1_OT0_, symObjAddr: 0x7860, symBinAddr: 0x100008310, symSize: 0x30 }
  - { offset: 0x22E95, size: 0x8, addend: 0x0, symName: __ZNSt3__122__cxx_atomic_fetch_addB9nqe210106IiEET_PNS_22__cxx_atomic_base_implIS1_EES1_NS_12memory_orderE, symObjAddr: 0x88F0, symBinAddr: 0x1000093A0, symSize: 0xB0 }
  - { offset: 0x22EE6, size: 0x8, addend: 0x0, symName: __ZNSt3__14dataB9nqe210106I17QArrayDataPointerI7QStringEEEDTcldtfp_4dataEERKT_, symObjAddr: 0x90B0, symBinAddr: 0x100009B60, symSize: 0x20 }
  - { offset: 0x22F1B, size: 0x8, addend: 0x0, symName: __ZNSt3__18distanceB9nqe210106IPK7QStringEENS_15iterator_traitsIT_E15difference_typeES5_S5_, symObjAddr: 0x90D0, symBinAddr: 0x100009B80, symSize: 0x30 }
  - { offset: 0x22F5E, size: 0x8, addend: 0x0, symName: __ZNSt3__15beginB9nqe210106I17QArrayDataPointerI7QStringEEEDTcldtfp_5beginEERKT_, symObjAddr: 0x9100, symBinAddr: 0x100009BB0, symSize: 0x20 }
  - { offset: 0x22F93, size: 0x8, addend: 0x0, symName: __ZNSt3__13endB9nqe210106I17QArrayDataPointerI7QStringEEEDTcldtfp_3endEERKT_, symObjAddr: 0x9120, symBinAddr: 0x100009BD0, symSize: 0x20 }
  - { offset: 0x230D2, size: 0x8, addend: 0x0, symName: __ZNSt3__110__distanceB9nqe210106IPK7QStringEENS_15iterator_traitsIT_E15difference_typeES5_S5_NS_26random_access_iterator_tagE, symObjAddr: 0x9170, symBinAddr: 0x100009C20, symSize: 0x30 }
  - { offset: 0x2311F, size: 0x8, addend: 0x0, symName: __ZNSt3__13getB9nqe210106ILm0EP15QTypedArrayDataI7QStringEPS2_EEONS_13tuple_elementIXT_ENS_4pairIT0_T1_EEE4typeEOSA_, symObjAddr: 0x9980, symBinAddr: 0x10000A430, symSize: 0x20 }
  - { offset: 0x23169, size: 0x8, addend: 0x0, symName: __ZNSt3__13getB9nqe210106ILm1EP15QTypedArrayDataI7QStringEPS2_EEONS_13tuple_elementIXT_ENS_4pairIT0_T1_EEE4typeEOSA_, symObjAddr: 0x99A0, symBinAddr: 0x10000A450, symSize: 0x20 }
  - { offset: 0x2336D, size: 0x8, addend: 0x0, symName: __ZNSt3__14swapB9nqe210106IxEENS_9enable_ifIXaasr21is_move_constructibleIT_EE5valuesr18is_move_assignableIS2_EE5valueEvE4typeERS2_S5_, symObjAddr: 0x9DB0, symBinAddr: 0x10000A860, symSize: 0x40 }
  - { offset: 0x233BE, size: 0x8, addend: 0x0, symName: __ZNSt3__122__cxx_atomic_fetch_subB9nqe210106IiEET_PNS_22__cxx_atomic_base_implIS1_EES1_NS_12memory_orderE, symObjAddr: 0x9FE0, symBinAddr: 0x10000AA90, symSize: 0xC0 }
  - { offset: 0x2340F, size: 0x8, addend: 0x0, symName: __ZNSt3__17destroyB9nqe210106IP7QStringEEvT_S3_, symObjAddr: 0xA0A0, symBinAddr: 0x10000AB50, symSize: 0x30 }
  - { offset: 0x2344E, size: 0x8, addend: 0x0, symName: __ZNSt3__19__destroyB9nqe210106IP7QStringEET_S3_S3_, symObjAddr: 0xA0D0, symBinAddr: 0x10000AB80, symSize: 0x40 }
  - { offset: 0x23491, size: 0x8, addend: 0x0, symName: __ZNSt3__112__destroy_atB9nqe210106I7QStringLi0EEEvPT_, symObjAddr: 0xA110, symBinAddr: 0x10000ABC0, symSize: 0x20 }
  - { offset: 0x234C8, size: 0x8, addend: 0x0, symName: __ZNSt3__13getB9nqe210106ILm0EP15QTypedArrayDataI5QListI7QStringEEPS4_EEONS_13tuple_elementIXT_ENS_4pairIT0_T1_EEE4typeEOSC_, symObjAddr: 0xAF40, symBinAddr: 0x10000B9F0, symSize: 0x20 }
  - { offset: 0x23512, size: 0x8, addend: 0x0, symName: __ZNSt3__13getB9nqe210106ILm1EP15QTypedArrayDataI5QListI7QStringEEPS4_EEONS_13tuple_elementIXT_ENS_4pairIT0_T1_EEE4typeEOSC_, symObjAddr: 0xAF60, symBinAddr: 0x10000BA10, symSize: 0x20 }
  - { offset: 0x2355C, size: 0x8, addend: 0x0, symName: __ZNSt3__18exchangeB9nqe210106IP15QTypedArrayDataI7QStringEDnEET_RS5_OT0_, symObjAddr: 0xB380, symBinAddr: 0x10000BE30, symSize: 0x30 }
  - { offset: 0x235B6, size: 0x8, addend: 0x0, symName: __ZNSt3__18exchangeB9nqe210106IP7QStringDnEET_RS3_OT0_, symObjAddr: 0xB3B0, symBinAddr: 0x10000BE60, symSize: 0x30 }
  - { offset: 0x23610, size: 0x8, addend: 0x0, symName: __ZNSt3__17destroyB9nqe210106IP5QListI7QStringEEEvT_S5_, symObjAddr: 0xB5B0, symBinAddr: 0x10000C060, symSize: 0x30 }
  - { offset: 0x2364F, size: 0x8, addend: 0x0, symName: __ZNSt3__19__destroyB9nqe210106IP5QListI7QStringEEET_S5_S5_, symObjAddr: 0xB5E0, symBinAddr: 0x10000C090, symSize: 0x40 }
  - { offset: 0x23692, size: 0x8, addend: 0x0, symName: __ZNSt3__112__destroy_atB9nqe210106I5QListI7QStringELi0EEEvPT_, symObjAddr: 0xB620, symBinAddr: 0x10000C0D0, symSize: 0x20 }
  - { offset: 0x236C9, size: 0x8, addend: 0x0, symName: __ZNSt3__14dataB9nqe210106I17QArrayDataPointerI5QListI7QStringEEEEDTcldtfp_4dataEERKT_, symObjAddr: 0xC140, symBinAddr: 0x10000CBF0, symSize: 0x20 }
  - { offset: 0x236FE, size: 0x8, addend: 0x0, symName: __ZNSt3__18distanceB9nqe210106IPK5QListI7QStringEEENS_15iterator_traitsIT_E15difference_typeES7_S7_, symObjAddr: 0xC160, symBinAddr: 0x10000CC10, symSize: 0x30 }
  - { offset: 0x23741, size: 0x8, addend: 0x0, symName: __ZNSt3__15beginB9nqe210106I17QArrayDataPointerI5QListI7QStringEEEEDTcldtfp_5beginEERKT_, symObjAddr: 0xC190, symBinAddr: 0x10000CC40, symSize: 0x20 }
  - { offset: 0x23776, size: 0x8, addend: 0x0, symName: __ZNSt3__13endB9nqe210106I17QArrayDataPointerI5QListI7QStringEEEEDTcldtfp_3endEERKT_, symObjAddr: 0xC1B0, symBinAddr: 0x10000CC60, symSize: 0x20 }
  - { offset: 0x237AB, size: 0x8, addend: 0x0, symName: __ZNSt3__110__distanceB9nqe210106IPK5QListI7QStringEEENS_15iterator_traitsIT_E15difference_typeES7_S7_NS_26random_access_iterator_tagE, symObjAddr: 0xC220, symBinAddr: 0x10000CCD0, symSize: 0x30 }
  - { offset: 0x237F8, size: 0x8, addend: 0x0, symName: __ZNSt3__1neB9nqe210106ERKNS_20__map_const_iteratorINS_21__tree_const_iteratorINS_12__value_typeIiPN5Tiled4TileEEEPNS_11__tree_nodeIS6_PvEElEEEESE_, symObjAddr: 0xCAC0, symBinAddr: 0x10000D570, symSize: 0x30 }
  - { offset: 0x23835, size: 0x8, addend: 0x0, symName: __ZNSt3__1neB9nqe210106ERKNS_21__tree_const_iteratorINS_12__value_typeIiPN5Tiled4TileEEEPNS_11__tree_nodeIS5_PvEElEESC_, symObjAddr: 0xCD40, symBinAddr: 0x10000D7F0, symSize: 0x30 }
  - { offset: 0x238A5, size: 0x8, addend: 0x0, symName: __ZNSt3__1eqB9nqe210106ERKNS_21__tree_const_iteratorINS_12__value_typeIiPN5Tiled4TileEEEPNS_11__tree_nodeIS5_PvEElEESC_, symObjAddr: 0xCED0, symBinAddr: 0x10000D980, symSize: 0x30 }
  - { offset: 0x23915, size: 0x8, addend: 0x0, symName: __ZNSt3__118__cxx_atomic_storeB9nqe210106IiEEvPNS_22__cxx_atomic_base_implIT_EES2_NS_12memory_orderE, symObjAddr: 0xE060, symBinAddr: 0x10000EB10, symSize: 0x60 }
  - { offset: 0x23962, size: 0x8, addend: 0x0, symName: __ZNSt3__112__destroy_atB9nqe210106INS_4pairIK7QStringiEELi0EEEvPT_, symObjAddr: 0xED60, symBinAddr: 0x10000F810, symSize: 0x20 }
  - { offset: 0x23999, size: 0x8, addend: 0x0, symName: __ZNSt3__119__libcpp_deallocateB9nqe210106INS_11__tree_nodeINS_12__value_typeI7QStringiEEPvEEEEvPNS_15__type_identityIT_E4typeENS_15__element_countEm, symObjAddr: 0xEDF0, symBinAddr: 0x10000F8A0, symSize: 0x50 }
  - { offset: 0x239F4, size: 0x8, addend: 0x0, symName: __ZNSt3__124__is_overaligned_for_newB9nqe210106Em, symObjAddr: 0xEE40, symBinAddr: 0x10000F8F0, symSize: 0x20 }
  - { offset: 0x23A20, size: 0x8, addend: 0x0, symName: __ZNSt3__18exchangeB9nqe210106IN2Qt23totally_ordered_wrapperIP15QPlatformPixmapEEDnEET_RS6_OT0_, symObjAddr: 0xF100, symBinAddr: 0x10000FBB0, symSize: 0x40 }
  - { offset: 0x23A7A, size: 0x8, addend: 0x0, symName: __ZNSt3__112__destroy_atB9nqe210106INS_4pairIK7QString8QVariantEELi0EEEvPT_, symObjAddr: 0xF720, symBinAddr: 0x1000101D0, symSize: 0x20 }
  - { offset: 0x23AB1, size: 0x8, addend: 0x0, symName: __ZNSt3__119__libcpp_deallocateB9nqe210106INS_11__tree_nodeINS_12__value_typeI7QString8QVariantEEPvEEEEvPNS_15__type_identityIT_E4typeENS_15__element_countEm, symObjAddr: 0xF7C0, symBinAddr: 0x100010270, symSize: 0x50 }
  - { offset: 0x23B0C, size: 0x8, addend: 0x0, symName: __ZNSt3__17destroyB9nqe210106IP16TileTerrainNamesEEvT_S3_, symObjAddr: 0xFB00, symBinAddr: 0x1000105B0, symSize: 0x30 }
  - { offset: 0x23B4B, size: 0x8, addend: 0x0, symName: __ZNSt3__19__destroyB9nqe210106IP16TileTerrainNamesEET_S3_S3_, symObjAddr: 0xFB80, symBinAddr: 0x100010630, symSize: 0x40 }
  - { offset: 0x23B8E, size: 0x8, addend: 0x0, symName: __ZNSt3__112__destroy_atB9nqe210106I16TileTerrainNamesLi0EEEvPT_, symObjAddr: 0xFBC0, symBinAddr: 0x100010670, symSize: 0x20 }
  - { offset: 0x23BC5, size: 0x8, addend: 0x0, symName: __ZNSt3__112__destroy_atB9nqe210106INS_4pairIK7QStringPN5Tiled9WangColorEEELi0EEEvPT_, symObjAddr: 0xFF00, symBinAddr: 0x1000109B0, symSize: 0x20 }
  - { offset: 0x23BFC, size: 0x8, addend: 0x0, symName: __ZNSt3__119__libcpp_deallocateB9nqe210106INS_11__tree_nodeINS_12__value_typeI7QStringPN5Tiled9WangColorEEEPvEEEEvPNS_15__type_identityIT_E4typeENS_15__element_countEm, symObjAddr: 0xFF90, symBinAddr: 0x100010A40, symSize: 0x50 }
  - { offset: 0x23C57, size: 0x8, addend: 0x0, symName: __ZNSt3__112__destroy_atB9nqe210106INS_4pairIK16TileTerrainNamesPN5Tiled4TileEEELi0EEEvPT_, symObjAddr: 0x10300, symBinAddr: 0x100010DB0, symSize: 0x20 }
  - { offset: 0x23C8E, size: 0x8, addend: 0x0, symName: __ZNSt3__119__libcpp_deallocateB9nqe210106INS_11__tree_nodeINS_12__value_typeI16TileTerrainNamesPN5Tiled4TileEEEPvEEEEvPNS_15__type_identityIT_E4typeENS_15__element_countEm, symObjAddr: 0x10390, symBinAddr: 0x100010E40, symSize: 0x50 }
  - { offset: 0x23CE9, size: 0x8, addend: 0x0, symName: __ZNSt3__17destroyB9nqe210106IP14QSharedPointerIN5Tiled7TilesetEEEEvT_S6_, symObjAddr: 0x105A0, symBinAddr: 0x100011050, symSize: 0x30 }
  - { offset: 0x23D28, size: 0x8, addend: 0x0, symName: __ZNSt3__19__destroyB9nqe210106IP14QSharedPointerIN5Tiled7TilesetEEEET_S6_S6_, symObjAddr: 0x10620, symBinAddr: 0x1000110D0, symSize: 0x40 }
  - { offset: 0x23D6B, size: 0x8, addend: 0x0, symName: __ZNSt3__112__destroy_atB9nqe210106I14QSharedPointerIN5Tiled7TilesetEELi0EEEvPT_, symObjAddr: 0x10660, symBinAddr: 0x100011110, symSize: 0x20 }
  - { offset: 0x23DA2, size: 0x8, addend: 0x0, symName: __ZNSt3__14dataB9nqe210106I17QArrayDataPointerI14QSharedPointerIN5Tiled7TilesetEEEEEDTcldtfp_4dataEERKT_, symObjAddr: 0x11930, symBinAddr: 0x1000123E0, symSize: 0x20 }
  - { offset: 0x23DD7, size: 0x8, addend: 0x0, symName: __ZNSt3__18distanceB9nqe210106IPK14QSharedPointerIN5Tiled7TilesetEEEENS_15iterator_traitsIT_E15difference_typeES8_S8_, symObjAddr: 0x11950, symBinAddr: 0x100012400, symSize: 0x30 }
  - { offset: 0x23E1A, size: 0x8, addend: 0x0, symName: __ZNSt3__15beginB9nqe210106I17QArrayDataPointerI14QSharedPointerIN5Tiled7TilesetEEEEEDTcldtfp_5beginEERKT_, symObjAddr: 0x11980, symBinAddr: 0x100012430, symSize: 0x20 }
  - { offset: 0x23E4F, size: 0x8, addend: 0x0, symName: __ZNSt3__13endB9nqe210106I17QArrayDataPointerI14QSharedPointerIN5Tiled7TilesetEEEEEDTcldtfp_3endEERKT_, symObjAddr: 0x119A0, symBinAddr: 0x100012450, symSize: 0x20 }
  - { offset: 0x23E84, size: 0x8, addend: 0x0, symName: __ZNSt3__110__distanceB9nqe210106IPK14QSharedPointerIN5Tiled7TilesetEEEENS_15iterator_traitsIT_E15difference_typeES8_S8_NS_26random_access_iterator_tagE, symObjAddr: 0x11A10, symBinAddr: 0x1000124C0, symSize: 0x20 }
  - { offset: 0x23ED1, size: 0x8, addend: 0x0, symName: __ZNSt3__13getB9nqe210106ILm0EP15QTypedArrayDataI14QSharedPointerIN5Tiled7TilesetEEEPS5_EEONS_13tuple_elementIXT_ENS_4pairIT0_T1_EEE4typeEOSD_, symObjAddr: 0x121B0, symBinAddr: 0x100012C60, symSize: 0x20 }
  - { offset: 0x23F1B, size: 0x8, addend: 0x0, symName: __ZNSt3__13getB9nqe210106ILm1EP15QTypedArrayDataI14QSharedPointerIN5Tiled7TilesetEEEPS5_EEONS_13tuple_elementIXT_ENS_4pairIT0_T1_EEE4typeEOSD_, symObjAddr: 0x121D0, symBinAddr: 0x100012C80, symSize: 0x20 }
  - { offset: 0x23F65, size: 0x8, addend: 0x0, symName: __ZNSt3__136__cxx_atomic_compare_exchange_strongB9nqe210106IiEEbPNS_22__cxx_atomic_base_implIT_EEPS2_S2_NS_12memory_orderES6_, symObjAddr: 0x12D80, symBinAddr: 0x100013830, symSize: 0x4D0 }
  - { offset: 0x23FD2, size: 0x8, addend: 0x0, symName: __ZNSt3__118__to_failure_orderB9nqe210106ENS_12memory_orderE, symObjAddr: 0x13250, symBinAddr: 0x100013D00, symSize: 0x40 }
  - { offset: 0x23FFE, size: 0x8, addend: 0x0, symName: __ZNSt3__1neB9nqe210106ERKNS_20__map_const_iteratorINS_21__tree_const_iteratorINS_12__value_typeI16TileTerrainNamesPN5Tiled4TileEEEPNS_11__tree_nodeIS7_PvEElEEEESF_, symObjAddr: 0x135D0, symBinAddr: 0x100014080, symSize: 0x30 }
  - { offset: 0x2403B, size: 0x8, addend: 0x0, symName: __ZNSt3__1neB9nqe210106ERKNS_21__tree_const_iteratorINS_12__value_typeI16TileTerrainNamesPN5Tiled4TileEEEPNS_11__tree_nodeIS6_PvEElEESD_, symObjAddr: 0x137C0, symBinAddr: 0x100014270, symSize: 0x30 }
  - { offset: 0x24078, size: 0x8, addend: 0x0, symName: __ZNSt3__1eqB9nqe210106ERKNS_21__tree_const_iteratorINS_12__value_typeI16TileTerrainNamesPN5Tiled4TileEEEPNS_11__tree_nodeIS6_PvEElEESD_, symObjAddr: 0x13C90, symBinAddr: 0x100014740, symSize: 0x30 }
  - { offset: 0x240F1, size: 0x8, addend: 0x0, symName: __ZNSt3__14nextB9nqe210106INS_21__tree_const_iteratorINS_12__value_typeI16TileTerrainNamesPN5Tiled4TileEEEPNS_11__tree_nodeIS7_PvEElEELi0EEET_SD_NS_15iterator_traitsISD_E15difference_typeE, symObjAddr: 0x154A0, symBinAddr: 0x100015F50, symSize: 0x30 }
  - { offset: 0x2413A, size: 0x8, addend: 0x0, symName: __ZNSt3__116__tree_prev_iterB9nqe210106IPNS_16__tree_node_baseIPvEEPNS_15__tree_end_nodeIS4_EEEET_T0_, symObjAddr: 0x15540, symBinAddr: 0x100015FF0, symSize: 0x90 }
  - { offset: 0x24186, size: 0x8, addend: 0x0, symName: __ZNSt3__110__tree_maxB9nqe210106IPNS_16__tree_node_baseIPvEEEET_S5_, symObjAddr: 0x155D0, symBinAddr: 0x100016080, symSize: 0x30 }
  - { offset: 0x241BB, size: 0x8, addend: 0x0, symName: __ZNSt3__120__tree_is_left_childB9nqe210106IPNS_16__tree_node_baseIPvEEEEbT_, symObjAddr: 0x15600, symBinAddr: 0x1000160B0, symSize: 0x20 }
  - { offset: 0x241F0, size: 0x8, addend: 0x0, symName: __ZNSt3__121__convert_to_integralB9nqe210106El, symObjAddr: 0x15690, symBinAddr: 0x100016140, symSize: 0x10 }
  - { offset: 0x2421C, size: 0x8, addend: 0x0, symName: __ZNSt3__19__advanceB9nqe210106INS_21__tree_const_iteratorINS_12__value_typeI16TileTerrainNamesPN5Tiled4TileEEEPNS_11__tree_nodeIS7_PvEElEEEEvRT_NS_15iterator_traitsISD_E15difference_typeENS_26bidirectional_iterator_tagE, symObjAddr: 0x156A0, symBinAddr: 0x100016150, symSize: 0x70 }
  - { offset: 0x24265, size: 0x8, addend: 0x0, symName: __ZNSt3__116__tree_next_iterB9nqe210106IPNS_15__tree_end_nodeIPNS_16__tree_node_baseIPvEEEES5_EET_T0_, symObjAddr: 0x15740, symBinAddr: 0x1000161F0, symSize: 0x70 }
  - { offset: 0x242A3, size: 0x8, addend: 0x0, symName: __ZNSt3__110__tree_minB9nqe210106IPNS_16__tree_node_baseIPvEEEET_S5_, symObjAddr: 0x157B0, symBinAddr: 0x100016260, symSize: 0x30 }
  - { offset: 0x242F6, size: 0x8, addend: 0x0, symName: __ZNSt3__117__libcpp_allocateB9nqe210106INS_11__tree_nodeINS_12__value_typeI16TileTerrainNamesPN5Tiled4TileEEEPvEEEEPT_NS_15__element_countEm, symObjAddr: 0x159A0, symBinAddr: 0x100016450, symSize: 0x60 }
  - { offset: 0x24347, size: 0x8, addend: 0x0, symName: __ZNSt3__127__tree_balance_after_insertB9nqe210106IPNS_16__tree_node_baseIPvEEEEvT_S5_, symObjAddr: 0x15C40, symBinAddr: 0x1000166F0, symSize: 0x210 }
  - { offset: 0x243C3, size: 0x8, addend: 0x0, symName: __ZNSt3__118__tree_left_rotateB9nqe210106IPNS_16__tree_node_baseIPvEEEEvT_, symObjAddr: 0x15E70, symBinAddr: 0x100016920, symSize: 0xC0 }
  - { offset: 0x24402, size: 0x8, addend: 0x0, symName: __ZNSt3__119__tree_right_rotateB9nqe210106IPNS_16__tree_node_baseIPvEEEEvT_, symObjAddr: 0x15F30, symBinAddr: 0x1000169E0, symSize: 0xB0 }
  - { offset: 0x24441, size: 0x8, addend: 0x0, symName: __ZNSt3__1neB9nqe210106ERKNS_14__map_iteratorINS_15__tree_iteratorINS_12__value_typeI16TileTerrainNamesPN5Tiled4TileEEEPNS_11__tree_nodeIS7_PvEElEEEESF_, symObjAddr: 0x161F0, symBinAddr: 0x100016CA0, symSize: 0x30 }
  - { offset: 0x2447E, size: 0x8, addend: 0x0, symName: __ZNSt3__19make_pairB9nqe210106IRNS_14__map_iteratorINS_15__tree_iteratorINS_12__value_typeI16TileTerrainNamesPN5Tiled4TileEEEPNS_11__tree_nodeIS8_PvEElEEEEbEENS_4pairINS_18__unwrap_referenceIu7__decayIT_EE4typeENSH_Iu7__decayIT0_EE4typeEEEOSI_OSM_, symObjAddr: 0x16280, symBinAddr: 0x100016D30, symSize: 0x30 }
  - { offset: 0x244CD, size: 0x8, addend: 0x0, symName: __ZNSt3__19make_pairB9nqe210106INS_14__map_iteratorINS_15__tree_iteratorINS_12__value_typeI16TileTerrainNamesPN5Tiled4TileEEEPNS_11__tree_nodeIS8_PvEElEEEEbEENS_4pairINS_18__unwrap_referenceIu7__decayIT_EE4typeENSG_Iu7__decayIT0_EE4typeEEEOSH_OSL_, symObjAddr: 0x162B0, symBinAddr: 0x100016D60, symSize: 0x30 }
  - { offset: 0x2451C, size: 0x8, addend: 0x0, symName: __ZNSt3__1neB9nqe210106ERKNS_15__tree_iteratorINS_12__value_typeI16TileTerrainNamesPN5Tiled4TileEEEPNS_11__tree_nodeIS6_PvEElEESD_, symObjAddr: 0x16450, symBinAddr: 0x100016F00, symSize: 0x30 }
  - { offset: 0x24559, size: 0x8, addend: 0x0, symName: __ZNSt3__1eqB9nqe210106ERKNS_15__tree_iteratorINS_12__value_typeI16TileTerrainNamesPN5Tiled4TileEEEPNS_11__tree_nodeIS6_PvEElEESD_, symObjAddr: 0x16480, symBinAddr: 0x100016F30, symSize: 0x30 }
  - { offset: 0x245E5, size: 0x8, addend: 0x0, symName: __ZNSt3__1neB9nqe210106ERKNS_20__map_const_iteratorINS_21__tree_const_iteratorINS_12__value_typeI7QStringPN5Tiled9WangColorEEEPNS_11__tree_nodeIS7_PvEElEEEESF_, symObjAddr: 0x169E0, symBinAddr: 0x100017490, symSize: 0x30 }
  - { offset: 0x24622, size: 0x8, addend: 0x0, symName: __ZNSt3__1neB9nqe210106ERKNS_21__tree_const_iteratorINS_12__value_typeI7QStringPN5Tiled9WangColorEEEPNS_11__tree_nodeIS6_PvEElEESD_, symObjAddr: 0x16BD0, symBinAddr: 0x100017680, symSize: 0x30 }
  - { offset: 0x2465F, size: 0x8, addend: 0x0, symName: __ZNSt3__1eqB9nqe210106ERKNS_21__tree_const_iteratorINS_12__value_typeI7QStringPN5Tiled9WangColorEEEPNS_11__tree_nodeIS6_PvEElEESD_, symObjAddr: 0x16D50, symBinAddr: 0x100017800, symSize: 0x30 }
  - { offset: 0x246CF, size: 0x8, addend: 0x0, symName: __ZNSt3__14nextB9nqe210106INS_21__tree_const_iteratorINS_12__value_typeI7QStringPN5Tiled9WangColorEEEPNS_11__tree_nodeIS7_PvEElEELi0EEET_SD_NS_15iterator_traitsISD_E15difference_typeE, symObjAddr: 0x18300, symBinAddr: 0x100018DB0, symSize: 0x30 }
  - { offset: 0x24718, size: 0x8, addend: 0x0, symName: __ZNSt3__19__advanceB9nqe210106INS_21__tree_const_iteratorINS_12__value_typeI7QStringPN5Tiled9WangColorEEEPNS_11__tree_nodeIS7_PvEElEEEEvRT_NS_15iterator_traitsISD_E15difference_typeENS_26bidirectional_iterator_tagE, symObjAddr: 0x183F0, symBinAddr: 0x100018EA0, symSize: 0x70 }
  - { offset: 0x2477F, size: 0x8, addend: 0x0, symName: __ZNSt3__117__libcpp_allocateB9nqe210106INS_11__tree_nodeINS_12__value_typeI7QStringPN5Tiled9WangColorEEEPvEEEEPT_NS_15__element_countEm, symObjAddr: 0x18610, symBinAddr: 0x1000190C0, symSize: 0x60 }
  - { offset: 0x247D0, size: 0x8, addend: 0x0, symName: __ZNSt3__1neB9nqe210106ERKNS_14__map_iteratorINS_15__tree_iteratorINS_12__value_typeI7QStringPN5Tiled9WangColorEEEPNS_11__tree_nodeIS7_PvEElEEEESF_, symObjAddr: 0x18A20, symBinAddr: 0x1000194D0, symSize: 0x30 }
  - { offset: 0x2480D, size: 0x8, addend: 0x0, symName: __ZNSt3__19make_pairB9nqe210106IRNS_14__map_iteratorINS_15__tree_iteratorINS_12__value_typeI7QStringPN5Tiled9WangColorEEEPNS_11__tree_nodeIS8_PvEElEEEEbEENS_4pairINS_18__unwrap_referenceIu7__decayIT_EE4typeENSH_Iu7__decayIT0_EE4typeEEEOSI_OSM_, symObjAddr: 0x18AB0, symBinAddr: 0x100019560, symSize: 0x30 }
  - { offset: 0x2485C, size: 0x8, addend: 0x0, symName: __ZNSt3__19make_pairB9nqe210106INS_14__map_iteratorINS_15__tree_iteratorINS_12__value_typeI7QStringPN5Tiled9WangColorEEEPNS_11__tree_nodeIS8_PvEElEEEEbEENS_4pairINS_18__unwrap_referenceIu7__decayIT_EE4typeENSG_Iu7__decayIT0_EE4typeEEEOSH_OSL_, symObjAddr: 0x18AE0, symBinAddr: 0x100019590, symSize: 0x30 }
  - { offset: 0x248AB, size: 0x8, addend: 0x0, symName: __ZNSt3__1neB9nqe210106ERKNS_15__tree_iteratorINS_12__value_typeI7QStringPN5Tiled9WangColorEEEPNS_11__tree_nodeIS6_PvEElEESD_, symObjAddr: 0x18C80, symBinAddr: 0x100019730, symSize: 0x30 }
  - { offset: 0x248E8, size: 0x8, addend: 0x0, symName: __ZNSt3__1eqB9nqe210106ERKNS_15__tree_iteratorINS_12__value_typeI7QStringPN5Tiled9WangColorEEEPNS_11__tree_nodeIS6_PvEElEESD_, symObjAddr: 0x18CB0, symBinAddr: 0x100019760, symSize: 0x30 }
  - { offset: 0x24974, size: 0x8, addend: 0x0, symName: __ZNSt3__18exchangeB9nqe210106IPN6QDebug6StreamEDnEET_RS4_OT0_, symObjAddr: 0x19400, symBinAddr: 0x100019EB0, symSize: 0x30 }
  - { offset: 0x249CE, size: 0x8, addend: 0x0, symName: __ZNSt3__1neB9nqe210106ERKNS_20__map_const_iteratorINS_21__tree_const_iteratorINS_12__value_typeI7QStringiEEPNS_11__tree_nodeIS4_PvEElEEEESC_, symObjAddr: 0x19D90, symBinAddr: 0x10001A840, symSize: 0x30 }
  - { offset: 0x24A0B, size: 0x8, addend: 0x0, symName: __ZNSt3__1neB9nqe210106ERKNS_21__tree_const_iteratorINS_12__value_typeI7QStringiEEPNS_11__tree_nodeIS3_PvEElEESA_, symObjAddr: 0x1A040, symBinAddr: 0x10001AAF0, symSize: 0x30 }
  - { offset: 0x24A48, size: 0x8, addend: 0x0, symName: __ZNSt3__1eqB9nqe210106ERKNS_21__tree_const_iteratorINS_12__value_typeI7QStringiEEPNS_11__tree_nodeIS3_PvEElEESA_, symObjAddr: 0x1A070, symBinAddr: 0x10001AB20, symSize: 0x30 }
  - { offset: 0x24AB8, size: 0x8, addend: 0x0, symName: __ZNSt3__14nextB9nqe210106INS_21__tree_const_iteratorINS_12__value_typeI7QStringiEEPNS_11__tree_nodeIS4_PvEElEELi0EEET_SA_NS_15iterator_traitsISA_E15difference_typeE, symObjAddr: 0x1AB10, symBinAddr: 0x10001B5C0, symSize: 0x30 }
  - { offset: 0x24B01, size: 0x8, addend: 0x0, symName: __ZNSt3__19__advanceB9nqe210106INS_21__tree_const_iteratorINS_12__value_typeI7QStringiEEPNS_11__tree_nodeIS4_PvEElEEEEvRT_NS_15iterator_traitsISA_E15difference_typeENS_26bidirectional_iterator_tagE, symObjAddr: 0x1AC00, symBinAddr: 0x10001B6B0, symSize: 0x70 }
  - { offset: 0x24B68, size: 0x8, addend: 0x0, symName: __ZNSt3__117__libcpp_allocateB9nqe210106INS_11__tree_nodeINS_12__value_typeI7QStringiEEPvEEEEPT_NS_15__element_countEm, symObjAddr: 0x1AE20, symBinAddr: 0x10001B8D0, symSize: 0x60 }
  - { offset: 0x24BB9, size: 0x8, addend: 0x0, symName: __ZNSt3__1neB9nqe210106ERKNS_14__map_iteratorINS_15__tree_iteratorINS_12__value_typeI7QStringiEEPNS_11__tree_nodeIS4_PvEElEEEESC_, symObjAddr: 0x1B230, symBinAddr: 0x10001BCE0, symSize: 0x30 }
  - { offset: 0x24BF6, size: 0x8, addend: 0x0, symName: __ZNSt3__19make_pairB9nqe210106IRNS_14__map_iteratorINS_15__tree_iteratorINS_12__value_typeI7QStringiEEPNS_11__tree_nodeIS5_PvEElEEEEbEENS_4pairINS_18__unwrap_referenceIu7__decayIT_EE4typeENSE_Iu7__decayIT0_EE4typeEEEOSF_OSJ_, symObjAddr: 0x1B2C0, symBinAddr: 0x10001BD70, symSize: 0x30 }
  - { offset: 0x24C45, size: 0x8, addend: 0x0, symName: __ZNSt3__19make_pairB9nqe210106INS_14__map_iteratorINS_15__tree_iteratorINS_12__value_typeI7QStringiEEPNS_11__tree_nodeIS5_PvEElEEEEbEENS_4pairINS_18__unwrap_referenceIu7__decayIT_EE4typeENSD_Iu7__decayIT0_EE4typeEEEOSE_OSI_, symObjAddr: 0x1B2F0, symBinAddr: 0x10001BDA0, symSize: 0x30 }
  - { offset: 0x24C94, size: 0x8, addend: 0x0, symName: __ZNSt3__1neB9nqe210106ERKNS_15__tree_iteratorINS_12__value_typeI7QStringiEEPNS_11__tree_nodeIS3_PvEElEESA_, symObjAddr: 0x1B490, symBinAddr: 0x10001BF40, symSize: 0x30 }
  - { offset: 0x24CD1, size: 0x8, addend: 0x0, symName: __ZNSt3__1eqB9nqe210106ERKNS_15__tree_iteratorINS_12__value_typeI7QStringiEEPNS_11__tree_nodeIS3_PvEElEESA_, symObjAddr: 0x1B4C0, symBinAddr: 0x10001BF70, symSize: 0x30 }
  - { offset: 0x24D5D, size: 0x8, addend: 0x0, symName: __ZNSt3__19transformB9nqe210106INS_20__map_const_iteratorINS_21__tree_const_iteratorINS_12__value_typeI7QStringPN5Tiled9WangColorEEEPNS_11__tree_nodeIS8_PvEElEEEENS_20back_insert_iteratorI5QListIS4_EEEZNK8QMapDataINS_3mapIS4_S7_NS_4lessIS4_EENS_9allocatorINS_4pairIKS4_S7_EEEEEEE4keysEvEUlRKT_E_EET0_SU_SU_SY_T1_, symObjAddr: 0x1BC90, symBinAddr: 0x10001C740, symSize: 0xB0 }
  - { offset: 0x24DCE, size: 0x8, addend: 0x0, symName: __ZNSt3__113back_inserterB9nqe210106I5QListI7QStringEEENS_20back_insert_iteratorIT_EERS5_, symObjAddr: 0x1BD40, symBinAddr: 0x10001C7F0, symSize: 0x30 }
  - { offset: 0x24E03, size: 0x8, addend: 0x0, symName: __ZNSt3__19transformB9nqe210106INS_20__map_const_iteratorINS_21__tree_const_iteratorINS_12__value_typeI7QStringiEEPNS_11__tree_nodeIS5_PvEElEEEENS_20back_insert_iteratorI5QListIS4_EEEZNK8QMapDataINS_3mapIS4_iNS_4lessIS4_EENS_9allocatorINS_4pairIKS4_iEEEEEEE4keysEvEUlRKT_E_EET0_SR_SR_SV_T1_, symObjAddr: 0x1C3F0, symBinAddr: 0x10001CEA0, symSize: 0xB0 }
  - { offset: 0x24E74, size: 0x8, addend: 0x0, symName: __ZNSt3__14dataB9nqe210106I17QArrayDataPointerIPN5Tiled9WangColorEEEEDTcldtfp_4dataEERKT_, symObjAddr: 0x1D780, symBinAddr: 0x10001E230, symSize: 0x20 }
  - { offset: 0x24EA9, size: 0x8, addend: 0x0, symName: __ZNSt3__18distanceB9nqe210106IPKPN5Tiled9WangColorEEENS_15iterator_traitsIT_E15difference_typeES7_S7_, symObjAddr: 0x1D7A0, symBinAddr: 0x10001E250, symSize: 0x30 }
  - { offset: 0x24EEC, size: 0x8, addend: 0x0, symName: __ZNSt3__15beginB9nqe210106I17QArrayDataPointerIPN5Tiled9WangColorEEEEDTcldtfp_5beginEERKT_, symObjAddr: 0x1D7D0, symBinAddr: 0x10001E280, symSize: 0x20 }
  - { offset: 0x24F21, size: 0x8, addend: 0x0, symName: __ZNSt3__13endB9nqe210106I17QArrayDataPointerIPN5Tiled9WangColorEEEEDTcldtfp_3endEERKT_, symObjAddr: 0x1D7F0, symBinAddr: 0x10001E2A0, symSize: 0x20 }
  - { offset: 0x24F56, size: 0x8, addend: 0x0, symName: __ZNSt3__110__distanceB9nqe210106IPKPN5Tiled9WangColorEEENS_15iterator_traitsIT_E15difference_typeES7_S7_NS_26random_access_iterator_tagE, symObjAddr: 0x1D860, symBinAddr: 0x10001E310, symSize: 0x20 }
  - { offset: 0x24FA3, size: 0x8, addend: 0x0, symName: __ZNSt3__13getB9nqe210106ILm0EP15QTypedArrayDataIPN5Tiled9WangColorEEPS4_EEONS_13tuple_elementIXT_ENS_4pairIT0_T1_EEE4typeEOSC_, symObjAddr: 0x1DED0, symBinAddr: 0x10001E980, symSize: 0x20 }
  - { offset: 0x24FED, size: 0x8, addend: 0x0, symName: __ZNSt3__13getB9nqe210106ILm1EP15QTypedArrayDataIPN5Tiled9WangColorEEPS4_EEONS_13tuple_elementIXT_ENS_4pairIT0_T1_EEE4typeEOSC_, symObjAddr: 0x1DEF0, symBinAddr: 0x10001E9A0, symSize: 0x20 }
  - { offset: 0x25037, size: 0x8, addend: 0x0, symName: __ZNSt3__1eqB9nqe210106ERKNS_14__map_iteratorINS_15__tree_iteratorINS_12__value_typeI7QStringPN5Tiled9WangColorEEEPNS_11__tree_nodeIS7_PvEElEEEESF_, symObjAddr: 0x1E2B0, symBinAddr: 0x10001ED60, symSize: 0x30 }
  - { offset: 0x25074, size: 0x8, addend: 0x0, symName: __ZNSt3__121make_reverse_iteratorB9nqe210106IP16TileTerrainNamesEENS_16reverse_iteratorIT_EES4_, symObjAddr: 0x1F780, symBinAddr: 0x100020230, symSize: 0x30 }
  - { offset: 0x250AB, size: 0x8, addend: 0x0, symName: __ZNSt3__16minmaxB9nqe210106IP16TileTerrainNamesEENS_4pairIRKT_S6_EES6_S6_, symObjAddr: 0x1FB00, symBinAddr: 0x1000205B0, symSize: 0x40 }
  - { offset: 0x250EE, size: 0x8, addend: 0x0, symName: __ZNSt3__16minmaxB9nqe210106IP16TileTerrainNamesNS_6__lessIvvEEEENS_4pairIRKT_S8_EES8_S8_T0_, symObjAddr: 0x1FC50, symBinAddr: 0x100020700, symSize: 0x60 }
  - { offset: 0x252AF, size: 0x8, addend: 0x0, symName: __ZNSt3__121__convert_to_integralB9nqe210106Ei, symObjAddr: 0x1FF30, symBinAddr: 0x1000209E0, symSize: 0x10 }
  - { offset: 0x252DB, size: 0x8, addend: 0x0, symName: __ZNSt3__19__advanceB9nqe210106IP16TileTerrainNamesEEvRT_NS_15iterator_traitsIS3_E15difference_typeENS_26random_access_iterator_tagE, symObjAddr: 0x1FF40, symBinAddr: 0x1000209F0, symSize: 0x20 }
  - { offset: 0x25324, size: 0x8, addend: 0x0, symName: __ZNSt3__1ltB9nqe210106IP16TileTerrainNamesS2_EEbRKNS_16reverse_iteratorIT_EERKNS3_IT0_EE, symObjAddr: 0x1FFC0, symBinAddr: 0x100020A70, symSize: 0x40 }
  - { offset: 0x25370, size: 0x8, addend: 0x0, symName: __ZNSt3__16minmaxB9nqe210106INS_16reverse_iteratorIP16TileTerrainNamesEEEENS_4pairIRKT_S8_EES8_S8_, symObjAddr: 0x20080, symBinAddr: 0x100020B30, symSize: 0x40 }
  - { offset: 0x253B3, size: 0x8, addend: 0x0, symName: __ZNSt3__1neB9nqe210106IP16TileTerrainNamesS2_EEbRKNS_16reverse_iteratorIT_EERKNS3_IT0_EE, symObjAddr: 0x200C0, symBinAddr: 0x100020B70, symSize: 0x40 }
  - { offset: 0x253FF, size: 0x8, addend: 0x0, symName: __ZNSt3__1eqB9nqe210106IP16TileTerrainNamesS2_EEbRKNS_16reverse_iteratorIT_EERKNS3_IT0_EE, symObjAddr: 0x20180, symBinAddr: 0x100020C30, symSize: 0x40 }
  - { offset: 0x2544B, size: 0x8, addend: 0x0, symName: __ZNSt3__16minmaxB9nqe210106INS_16reverse_iteratorIP16TileTerrainNamesEENS_6__lessIvvEEEENS_4pairIRKT_SA_EESA_SA_T0_, symObjAddr: 0x202E0, symBinAddr: 0x100020D90, symSize: 0x60 }
  - { offset: 0x25596, size: 0x8, addend: 0x0, symName: __ZNSt3__19__advanceB9nqe210106INS_16reverse_iteratorIP16TileTerrainNamesEEEEvRT_NS_15iterator_traitsIS5_E15difference_typeENS_26random_access_iterator_tagE, symObjAddr: 0x20490, symBinAddr: 0x100020F40, symSize: 0x30 }
  - { offset: 0x255DF, size: 0x8, addend: 0x0, symName: __ZNSt3__14dataB9nqe210106I17QArrayDataPointerI16TileTerrainNamesEEEDTcldtfp_4dataEERKT_, symObjAddr: 0x20540, symBinAddr: 0x100020FF0, symSize: 0x20 }
  - { offset: 0x25614, size: 0x8, addend: 0x0, symName: __ZNSt3__18distanceB9nqe210106IPK16TileTerrainNamesEENS_15iterator_traitsIT_E15difference_typeES5_S5_, symObjAddr: 0x20560, symBinAddr: 0x100021010, symSize: 0x30 }
  - { offset: 0x25657, size: 0x8, addend: 0x0, symName: __ZNSt3__15beginB9nqe210106I17QArrayDataPointerI16TileTerrainNamesEEEDTcldtfp_5beginEERKT_, symObjAddr: 0x20590, symBinAddr: 0x100021040, symSize: 0x20 }
  - { offset: 0x2568C, size: 0x8, addend: 0x0, symName: __ZNSt3__13endB9nqe210106I17QArrayDataPointerI16TileTerrainNamesEEEDTcldtfp_3endEERKT_, symObjAddr: 0x205B0, symBinAddr: 0x100021060, symSize: 0x20 }
  - { offset: 0x256C1, size: 0x8, addend: 0x0, symName: __ZNSt3__110__distanceB9nqe210106IPK16TileTerrainNamesEENS_15iterator_traitsIT_E15difference_typeES5_S5_NS_26random_access_iterator_tagE, symObjAddr: 0x20620, symBinAddr: 0x1000210D0, symSize: 0x30 }
  - { offset: 0x2570E, size: 0x8, addend: 0x0, symName: __ZNSt3__13getB9nqe210106ILm0EP15QTypedArrayDataI16TileTerrainNamesEPS2_EEONS_13tuple_elementIXT_ENS_4pairIT0_T1_EEE4typeEOSA_, symObjAddr: 0x20C80, symBinAddr: 0x100021730, symSize: 0x20 }
  - { offset: 0x25758, size: 0x8, addend: 0x0, symName: __ZNSt3__13getB9nqe210106ILm1EP15QTypedArrayDataI16TileTerrainNamesEPS2_EEONS_13tuple_elementIXT_ENS_4pairIT0_T1_EEE4typeEOSA_, symObjAddr: 0x20CA0, symBinAddr: 0x100021750, symSize: 0x20 }
  - { offset: 0x257A2, size: 0x8, addend: 0x0, symName: __ZNSt3__111__sort_implB9nqe210106INS_17_ClassicAlgPolicyEN5QListI7QStringE8iteratorE15TerrainLessThanEEvT0_S7_RT1_, symObjAddr: 0x21180, symBinAddr: 0x100021C30, symSize: 0xB0 }
  - { offset: 0x25805, size: 0x8, addend: 0x0, symName: __ZNSt3__123__debug_randomize_rangeB9nqe210106INS_17_ClassicAlgPolicyEN5QListI7QStringE8iteratorES5_EEvT0_T1_, symObjAddr: 0x21230, symBinAddr: 0x100021CE0, symSize: 0x10 }
  - { offset: 0x25856, size: 0x8, addend: 0x0, symName: __ZNSt3__115__sort_dispatchB9nqe210106INS_17_ClassicAlgPolicyEN5QListI7QStringE8iteratorE15TerrainLessThanEEvT0_S7_RT1_, symObjAddr: 0x21240, symBinAddr: 0x100021CF0, symSize: 0x90 }
  - { offset: 0x258D4, size: 0x8, addend: 0x0, symName: __ZNSt3__113__unwrap_iterB9nqe210106IN5QListI7QStringE8iteratorENS_18__unwrap_iter_implIS4_Lb0EEELi0EEEDTclsrT0_8__unwrapclsr3stdE7declvalIT_EEEES8_, symObjAddr: 0x212D0, symBinAddr: 0x100021D80, symSize: 0x30 }
  - { offset: 0x25918, size: 0x8, addend: 0x0, symName: __ZNSt3__135__check_strict_weak_ordering_sortedB9nqe210106IN5QListI7QStringE8iteratorE15TerrainLessThanEEvT_S6_RT0_, symObjAddr: 0x21300, symBinAddr: 0x100021DB0, symSize: 0x20 }
  - { offset: 0x2596E, size: 0x8, addend: 0x0, symName: __ZNSt3__110__bit_log2B9nqe210106IyEET_S1_, symObjAddr: 0x21340, symBinAddr: 0x100021DF0, symSize: 0x30 }
  - { offset: 0x259A3, size: 0x8, addend: 0x0, symName: __ZNSt3__118__to_unsigned_likeB9nqe210106IxEEu15__make_unsignedIT_ES1_, symObjAddr: 0x21370, symBinAddr: 0x100021E20, symSize: 0x10 }
  - { offset: 0x259D8, size: 0x8, addend: 0x0, symName: __ZNSt3__113__countl_zeroB9nqe210106IyEEiT_, symObjAddr: 0x21B60, symBinAddr: 0x100022610, symSize: 0x30 }
  - { offset: 0x25AFD, size: 0x8, addend: 0x0, symName: __ZNSt3__17__sort3B9nqe210106INS_17_ClassicAlgPolicyER15TerrainLessThanN5QListI7QStringE8iteratorELi0EEEbT1_S8_S8_T0_, symObjAddr: 0x21C40, symBinAddr: 0x1000226F0, symSize: 0x190 }
  - { offset: 0x25B74, size: 0x8, addend: 0x0, symName: __ZNSt3__17__sort4B9nqe210106INS_17_ClassicAlgPolicyER15TerrainLessThanN5QListI7QStringE8iteratorELi0EEEvT1_S8_S8_S8_T0_, symObjAddr: 0x21E10, symBinAddr: 0x1000228C0, symSize: 0x120 }
  - { offset: 0x25BF5, size: 0x8, addend: 0x0, symName: __ZNSt3__17__sort5B9nqe210106INS_17_ClassicAlgPolicyER15TerrainLessThanN5QListI7QStringE8iteratorELi0EEEvT1_S8_S8_S8_S8_T0_, symObjAddr: 0x21F30, symBinAddr: 0x1000229E0, symSize: 0x190 }
  - { offset: 0x25C84, size: 0x8, addend: 0x0, symName: __ZNSt3__116__insertion_sortB9nqe210106INS_17_ClassicAlgPolicyER15TerrainLessThanN5QListI7QStringE8iteratorEEEvT1_S8_T0_, symObjAddr: 0x220C0, symBinAddr: 0x100022B70, symSize: 0x1F0 }
  - { offset: 0x25D35, size: 0x8, addend: 0x0, symName: __ZNSt3__114__partial_sortB9nqe210106INS_17_ClassicAlgPolicyER15TerrainLessThanN5QListI7QStringE8iteratorES7_EET1_S8_S8_T2_RT0_, symObjAddr: 0x22470, symBinAddr: 0x100022F20, symSize: 0xE0 }
  - { offset: 0x25DBD, size: 0x8, addend: 0x0, symName: __ZNSt3__19iter_swapB9nqe210106IN5QListI7QStringE8iteratorES4_EEvT_T0_, symObjAddr: 0x23750, symBinAddr: 0x100024200, symSize: 0x40 }
  - { offset: 0x25E05, size: 0x8, addend: 0x0, symName: __ZNSt3__119__partial_sort_implB9nqe210106INS_17_ClassicAlgPolicyER15TerrainLessThanN5QListI7QStringE8iteratorES7_EET1_S8_S8_T2_OT0_, symObjAddr: 0x23830, symBinAddr: 0x1000242E0, symSize: 0x180 }
  - { offset: 0x25E9C, size: 0x8, addend: 0x0, symName: __ZNSt3__111__make_heapB9nqe210106INS_17_ClassicAlgPolicyER15TerrainLessThanN5QListI7QStringE8iteratorEEEvT1_S8_OT0_, symObjAddr: 0x239B0, symBinAddr: 0x100024460, symSize: 0xB0 }
  - { offset: 0x25F3E, size: 0x8, addend: 0x0, symName: __ZNSt3__111__sort_heapB9nqe210106INS_17_ClassicAlgPolicyER15TerrainLessThanN5QListI7QStringE8iteratorEEEvT1_S8_OT0_, symObjAddr: 0x23D80, symBinAddr: 0x100024830, symSize: 0xB0 }
  - { offset: 0x25FE0, size: 0x8, addend: 0x0, symName: __ZNSt3__110__pop_heapB9nqe210106INS_17_ClassicAlgPolicyE15TerrainLessThanN5QListI7QStringE8iteratorEEEvT1_S7_RT0_NS_15iterator_traitsIS7_E15difference_typeE, symObjAddr: 0x23E30, symBinAddr: 0x1000248E0, symSize: 0x190 }
  - { offset: 0x26089, size: 0x8, addend: 0x0, symName: __ZNSt3__19__sift_upB9nqe210106INS_17_ClassicAlgPolicyER15TerrainLessThanN5QListI7QStringE8iteratorEEEvT1_S8_OT0_NS_15iterator_traitsIS8_E15difference_typeE, symObjAddr: 0x240E0, symBinAddr: 0x100024B90, symSize: 0x1A0 }
  - { offset: 0x26129, size: 0x8, addend: 0x0, symName: __ZNSt3__122__populate_left_bitsetB9nqe210106IR15TerrainLessThanN5QListI7QStringE8iteratorES4_EEvT0_T_RT1_Ry, symObjAddr: 0x242E0, symBinAddr: 0x100024D90, symSize: 0x90 }
  - { offset: 0x261E4, size: 0x8, addend: 0x0, symName: __ZNSt3__123__populate_right_bitsetB9nqe210106IR15TerrainLessThanN5QListI7QStringE8iteratorES4_EEvT0_T_RT1_Ry, symObjAddr: 0x24370, symBinAddr: 0x100024E20, symSize: 0x90 }
  - { offset: 0x2629F, size: 0x8, addend: 0x0, symName: __ZNSt3__117__swap_bitmap_posB9nqe210106INS_17_ClassicAlgPolicyEN5QListI7QStringE8iteratorEEEvT0_S6_RyS7_, symObjAddr: 0x24400, symBinAddr: 0x100024EB0, symSize: 0xD0 }
  - { offset: 0x26340, size: 0x8, addend: 0x0, symName: __ZNSt3__133__bitset_partition_partial_blocksB9nqe210106INS_17_ClassicAlgPolicyER15TerrainLessThanN5QListI7QStringE8iteratorES5_EEvRT1_S9_T0_RT2_RySD_, symObjAddr: 0x24500, symBinAddr: 0x100024FB0, symSize: 0x250 }
  - { offset: 0x264C8, size: 0x8, addend: 0x0, symName: __ZNSt3__19make_pairB9nqe210106IRN5QListI7QStringE8iteratorERbEENS_4pairINS_18__unwrap_referenceIu7__decayIT_EE4typeENS8_Iu7__decayIT0_EE4typeEEEOS9_OSD_, symObjAddr: 0x248E0, symBinAddr: 0x100025390, symSize: 0x30 }
  - { offset: 0x26517, size: 0x8, addend: 0x0, symName: __ZNSt3__113__countr_zeroB9nqe210106IyEEiT_, symObjAddr: 0x24910, symBinAddr: 0x1000253C0, symSize: 0x20 }
  - { offset: 0x2654C, size: 0x8, addend: 0x0, symName: __ZNSt3__113__libcpp_blsrB9nqe210106Ey, symObjAddr: 0x24930, symBinAddr: 0x1000253E0, symSize: 0x20 }
  - { offset: 0x2996C, size: 0x8, addend: 0x0, symName: __ZSt28__throw_bad_array_new_lengthB9nqe210106v, symObjAddr: 0x15960, symBinAddr: 0x100016410, symSize: 0x40 }
  - { offset: 0x2ACFF, size: 0x8, addend: 0x0, symName: __ZN2Qt15strong_ordering10equivalentE, symObjAddr: 0x2655F, symBinAddr: 0x100028197, symSize: 0x0 }
  - { offset: 0x2AD13, size: 0x8, addend: 0x0, symName: __ZN2Qt15strong_ordering4lessE, symObjAddr: 0x26560, symBinAddr: 0x100028198, symSize: 0x0 }
  - { offset: 0x2AD27, size: 0x8, addend: 0x0, symName: __ZN2Qt15strong_ordering7greaterE, symObjAddr: 0x26561, symBinAddr: 0x100028199, symSize: 0x0 }
  - { offset: 0x2B3B4, size: 0x8, addend: 0x0, symName: __ZN2Qt11qt_ptr_swapERNS_23totally_ordered_wrapperIP15QPlatformPixmapEES4_, symObjAddr: 0xF240, symBinAddr: 0x10000FCF0, symSize: 0x30 }
  - { offset: 0x2B3ED, size: 0x8, addend: 0x0, symName: __ZN2Qt11qt_ptr_swapERNS_23totally_ordered_wrapperIP8QMapDataINSt3__13mapI7QString8QVariantNS2_4lessIS4_EENS2_9allocatorINS2_4pairIKS4_S5_EEEEEEEEESH_, symObjAddr: 0xF460, symBinAddr: 0x10000FF10, symSize: 0x30 }
  - { offset: 0x2B426, size: 0x8, addend: 0x0, symName: __ZN2Qt11qt_ptr_swapERNS_23totally_ordered_wrapperIPN5Tiled7TilesetEEES5_, symObjAddr: 0x10BA0, symBinAddr: 0x100011650, symSize: 0x30 }
  - { offset: 0x2B45F, size: 0x8, addend: 0x0, symName: __ZN2Qt5is_ltENS_15strong_orderingE, symObjAddr: 0x13A70, symBinAddr: 0x100014520, symSize: 0x50 }
  - { offset: 0x2B48D, size: 0x8, addend: 0x0, symName: __ZN2QtltENS_15strong_orderingEN9QtPrivate25CompareAgainstLiteralZeroE, symObjAddr: 0x13B10, symBinAddr: 0x1000145C0, symSize: 0x20 }
  - { offset: 0x2B4C7, size: 0x8, addend: 0x0, symName: __ZN2Qt15compareThreeWayIiiLb1ELb1EEENS_15strong_orderingET_T0_, symObjAddr: 0x13C20, symBinAddr: 0x1000146D0, symSize: 0x50 }
  - { offset: 0x2B522, size: 0x8, addend: 0x0, symName: __ZN2Qt11qt_ptr_swapERNS_23totally_ordered_wrapperIP8QMapDataINSt3__13mapI16TileTerrainNamesPN5Tiled4TileENS2_4lessIS4_EENS2_9allocatorINS2_4pairIKS4_S7_EEEEEEEEESJ_, symObjAddr: 0x16140, symBinAddr: 0x100016BF0, symSize: 0x30 }
  - { offset: 0x2B55B, size: 0x8, addend: 0x0, symName: __ZN2Qt11qt_ptr_swapERNS_23totally_ordered_wrapperIP8QMapDataINSt3__13mapI7QStringPN5Tiled9WangColorENS2_4lessIS4_EENS2_9allocatorINS2_4pairIKS4_S7_EEEEEEEEESJ_, symObjAddr: 0x18970, symBinAddr: 0x100019420, symSize: 0x30 }
  - { offset: 0x2B594, size: 0x8, addend: 0x0, symName: __ZN2Qt11qt_ptr_swapERNS_23totally_ordered_wrapperIP8QMapDataINSt3__13mapI7QStringiNS2_4lessIS4_EENS2_9allocatorINS2_4pairIKS4_iEEEEEEEEESG_, symObjAddr: 0x1B180, symBinAddr: 0x10001BC30, symSize: 0x30 }
  - { offset: 0x2B5F2, size: 0x8, addend: 0x0, symName: __ZTVN5Tiled9WangColorE, symObjAddr: 0x26568, symBinAddr: 0x10002A7E0, symSize: 0x0 }
  - { offset: 0x5FE79, size: 0x8, addend: 0x0, symName: __ZN15QtSharedPointer17copyAndSetPointerIN5Tiled7TilesetES2_EE14QSharedPointerIT_EPS4_RKS3_IT0_E, symObjAddr: 0x12B50, symBinAddr: 0x100013600, symSize: 0x80 }
  - { offset: 0x8D4F5, size: 0x8, addend: 0x0, symName: __ZN7QString17toIntegral_helperIiEET_11QStringViewPbi, symObjAddr: 0xC390, symBinAddr: 0x10000CE40, symSize: 0x70 }
  - { offset: 0x9385B, size: 0x8, addend: 0x0, symName: _main, symObjAddr: 0x0, symBinAddr: 0x100000AB0, symSize: 0x3D30 }
  - { offset: 0x9438F, size: 0x8, addend: 0x0, symName: __ZN7QStringC1EO17QArrayDataPointerIDsE, symObjAddr: 0x3D30, symBinAddr: 0x1000047E0, symSize: 0x30 }
  - { offset: 0x943C8, size: 0x8, addend: 0x0, symName: __ZN7QStringD1Ev, symObjAddr: 0x3D60, symBinAddr: 0x100004810, symSize: 0x20 }
  - { offset: 0x943F4, size: 0x8, addend: 0x0, symName: __ZN17QArrayDataPointerIDsED1Ev, symObjAddr: 0x3D80, symBinAddr: 0x100004830, symSize: 0x20 }
  - { offset: 0x944BE, size: 0x8, addend: 0x0, symName: __ZN12_GLOBAL__N_118CommandLineOptionsC1Ev, symObjAddr: 0x3DA0, symBinAddr: 0x100004850, symSize: 0x20 }
  - { offset: 0x944E7, size: 0x8, addend: 0x0, symName: __ZL25parseCommandLineArgumentsRN12_GLOBAL__N_118CommandLineOptionsE, symObjAddr: 0x3DC0, symBinAddr: 0x100004870, symSize: 0xEC0 }
  - { offset: 0x945DB, size: 0x8, addend: 0x0, symName: __ZL11showVersionv, symObjAddr: 0x4C80, symBinAddr: 0x100005730, symSize: 0xD0 }
  - { offset: 0x945F5, size: 0x8, addend: 0x0, symName: __ZL8showHelpv, symObjAddr: 0x4D50, symBinAddr: 0x100005800, symSize: 0x80 }
  - { offset: 0x9460F, size: 0x8, addend: 0x0, symName: __ZNK7QString7isEmptyEv, symObjAddr: 0x4DD0, symBinAddr: 0x100005880, symSize: 0x30 }
  - { offset: 0x94B68, size: 0x8, addend: 0x0, symName: __ZN14QMessageLoggerC1EPKciS1_, symObjAddr: 0x4E00, symBinAddr: 0x1000058B0, symSize: 0x40 }
  - { offset: 0x94BBC, size: 0x8, addend: 0x0, symName: __ZN6QDebuglsEPKc, symObjAddr: 0x4E40, symBinAddr: 0x1000058F0, symSize: 0x90 }
  - { offset: 0x94BF0, size: 0x8, addend: 0x0, symName: __ZNK5QListI7QStringE7isEmptyEv, symObjAddr: 0x4ED0, symBinAddr: 0x100005980, symSize: 0x30 }
  - { offset: 0x94C16, size: 0x8, addend: 0x0, symName: __ZN14QSharedPointerIN5Tiled7TilesetEEC1Ev, symObjAddr: 0x4F00, symBinAddr: 0x1000059B0, symSize: 0x20 }
  - { offset: 0x94C40, size: 0x8, addend: 0x0, symName: __ZN5QListI14QSharedPointerIN5Tiled7TilesetEEEC1Ev, symObjAddr: 0x4F20, symBinAddr: 0x1000059D0, symSize: 0x20 }
  - { offset: 0x94C6A, size: 0x8, addend: 0x0, symName: __ZN14QSharedPointerIN5Tiled7TilesetEEaSEOS2_, symObjAddr: 0x4F40, symBinAddr: 0x1000059F0, symSize: 0x50 }
  - { offset: 0x94CAE, size: 0x8, addend: 0x0, symName: __ZN14QSharedPointerIN5Tiled7TilesetEED1Ev, symObjAddr: 0x4F90, symBinAddr: 0x100005A40, symSize: 0x20 }
  - { offset: 0x94CD8, size: 0x8, addend: 0x0, symName: __ZNK14QSharedPointerIN5Tiled7TilesetEEntEv, symObjAddr: 0x4FB0, symBinAddr: 0x100005A60, symSize: 0x20 }
  - { offset: 0x94CFE, size: 0x8, addend: 0x0, symName: __ZNO7QString6toUtf8Ev, symObjAddr: 0x4FE0, symBinAddr: 0x100005A90, symSize: 0x30 }
  - { offset: 0x94D24, size: 0x8, addend: 0x0, symName: __ZNK10QByteArray9constDataEv, symObjAddr: 0x5010, symBinAddr: 0x100005AC0, symSize: 0x20 }
  - { offset: 0x94D4A, size: 0x8, addend: 0x0, symName: __ZN10QByteArrayD1Ev, symObjAddr: 0x5030, symBinAddr: 0x100005AE0, symSize: 0x20 }
  - { offset: 0x94D76, size: 0x8, addend: 0x0, symName: __ZNK14QSharedPointerIN5Tiled7TilesetEEptEv, symObjAddr: 0x5050, symBinAddr: 0x100005B00, symSize: 0x20 }
  - { offset: 0x94D9C, size: 0x8, addend: 0x0, symName: __ZNK5Tiled7Tileset10nextTileIdEv, symObjAddr: 0x5070, symBinAddr: 0x100005B20, symSize: 0x20 }
  - { offset: 0x94DC4, size: 0x8, addend: 0x0, symName: __ZNK5Tiled7Tileset8findTileEi, symObjAddr: 0x5090, symBinAddr: 0x100005B40, symSize: 0x40 }
  - { offset: 0x94DFB, size: 0x8, addend: 0x0, symName: __ZL7isEmptyRK6QImage, symObjAddr: 0x50D0, symBinAddr: 0x100005B80, symSize: 0xE0 }
  - { offset: 0x94E48, size: 0x8, addend: 0x0, symName: __ZN5Tiled7Tileset13setNextTileIdEi, symObjAddr: 0x51B0, symBinAddr: 0x100005C60, symSize: 0x50 }
  - { offset: 0x94E7F, size: 0x8, addend: 0x0, symName: __ZN5QListI14QSharedPointerIN5Tiled7TilesetEEE6appendERKS3_, symObjAddr: 0x5200, symBinAddr: 0x100005CB0, symSize: 0x30 }
  - { offset: 0x94EB4, size: 0x8, addend: 0x0, symName: __ZNK5QListI7QStringE5beginEv, symObjAddr: 0x5230, symBinAddr: 0x100005CE0, symSize: 0x40 }
  - { offset: 0x94EDA, size: 0x8, addend: 0x0, symName: __ZNK5QListI7QStringE3endEv, symObjAddr: 0x5270, symBinAddr: 0x100005D20, symSize: 0x40 }
  - { offset: 0x94F00, size: 0x8, addend: 0x0, symName: __ZNK5QListI7QStringE14const_iteratorneES2_, symObjAddr: 0x52B0, symBinAddr: 0x100005D60, symSize: 0x20 }
  - { offset: 0x94F34, size: 0x8, addend: 0x0, symName: __ZNK5QListI7QStringE14const_iteratordeEv, symObjAddr: 0x52D0, symBinAddr: 0x100005D80, symSize: 0x20 }
  - { offset: 0x94F5A, size: 0x8, addend: 0x0, symName: __ZNKR7QString6toUtf8Ev, symObjAddr: 0x5300, symBinAddr: 0x100005DB0, symSize: 0x30 }
  - { offset: 0x94F80, size: 0x8, addend: 0x0, symName: __ZN5Tiled7Tileset11setFileNameERK7QString, symObjAddr: 0x5330, symBinAddr: 0x100005DE0, symSize: 0x30 }
  - { offset: 0x94FB7, size: 0x8, addend: 0x0, symName: __ZN5QListI7QStringE14const_iteratorppEv, symObjAddr: 0x5360, symBinAddr: 0x100005E10, symSize: 0x20 }
  - { offset: 0x94FDD, size: 0x8, addend: 0x0, symName: __ZN5QListI14QSharedPointerIN5Tiled7TilesetEEE5firstEv, symObjAddr: 0x5380, symBinAddr: 0x100005E30, symSize: 0x60 }
  - { offset: 0x95003, size: 0x8, addend: 0x0, symName: __ZNK5Tiled7Tileset9tileWidthEv, symObjAddr: 0x53E0, symBinAddr: 0x100005E90, symSize: 0x20 }
  - { offset: 0x9502B, size: 0x8, addend: 0x0, symName: __ZNK5Tiled7Tileset10tileHeightEv, symObjAddr: 0x5400, symBinAddr: 0x100005EB0, symSize: 0x20 }
  - { offset: 0x95053, size: 0x8, addend: 0x0, symName: __ZN5Tiled7Tileset6createIJR7QStringRiS4_EEE14QSharedPointerIS0_EDpOT_, symObjAddr: 0x5420, symBinAddr: 0x100005ED0, symSize: 0x40 }
  - { offset: 0x950A7, size: 0x8, addend: 0x0, symName: __ZNK5Tiled7Tileset12wangSetCountEv, symObjAddr: 0x5460, symBinAddr: 0x100005F10, symSize: 0x30 }
  - { offset: 0x950CF, size: 0x8, addend: 0x0, symName: __ZNK14QSharedPointerIN5Tiled7TilesetEE4dataEv, symObjAddr: 0x5520, symBinAddr: 0x100005FD0, symSize: 0x20 }
  - { offset: 0x950F5, size: 0x8, addend: 0x0, symName: __ZNSt3__110unique_ptrIN5Tiled7WangSetENS_14default_deleteIS2_EEED1B9nqe210106Ev, symObjAddr: 0x5540, symBinAddr: 0x100005FF0, symSize: 0x20 }
  - { offset: 0x9511F, size: 0x8, addend: 0x0, symName: __ZN4QMapI16TileTerrainNamesPN5Tiled4TileEEC1Ev, symObjAddr: 0x5560, symBinAddr: 0x100006010, symSize: 0x20 }
  - { offset: 0x95149, size: 0x8, addend: 0x0, symName: __ZN4QMapI7QStringPN5Tiled9WangColorEEC1Ev, symObjAddr: 0x5580, symBinAddr: 0x100006030, symSize: 0x20 }
  - { offset: 0x95173, size: 0x8, addend: 0x0, symName: __ZN5QListI14QSharedPointerIN5Tiled7TilesetEEE5beginEv, symObjAddr: 0x55A0, symBinAddr: 0x100006050, symSize: 0x40 }
  - { offset: 0x95199, size: 0x8, addend: 0x0, symName: __ZN5QListI14QSharedPointerIN5Tiled7TilesetEEE3endEv, symObjAddr: 0x55E0, symBinAddr: 0x100006090, symSize: 0x40 }
  - { offset: 0x951BF, size: 0x8, addend: 0x0, symName: __ZNK5QListI14QSharedPointerIN5Tiled7TilesetEEE8iteratorneES5_, symObjAddr: 0x5620, symBinAddr: 0x1000060D0, symSize: 0x20 }
  - { offset: 0x951F3, size: 0x8, addend: 0x0, symName: __ZNK5QListI14QSharedPointerIN5Tiled7TilesetEEE8iteratordeEv, symObjAddr: 0x5640, symBinAddr: 0x1000060F0, symSize: 0x20 }
  - { offset: 0x95219, size: 0x8, addend: 0x0, symName: __ZNK5Tiled7Tileset8wangSetsEv, symObjAddr: 0x5660, symBinAddr: 0x100006110, symSize: 0x20 }
  - { offset: 0x95241, size: 0x8, addend: 0x0, symName: __ZNK5QListIPN5Tiled7WangSetEE5beginEv, symObjAddr: 0x5680, symBinAddr: 0x100006130, symSize: 0x40 }
  - { offset: 0x95267, size: 0x8, addend: 0x0, symName: __ZNK5QListIPN5Tiled7WangSetEE3endEv, symObjAddr: 0x56C0, symBinAddr: 0x100006170, symSize: 0x40 }
  - { offset: 0x9528D, size: 0x8, addend: 0x0, symName: __ZNK5QListIPN5Tiled7WangSetEE14const_iteratorneES4_, symObjAddr: 0x5700, symBinAddr: 0x1000061B0, symSize: 0x20 }
  - { offset: 0x952C1, size: 0x8, addend: 0x0, symName: __ZNK5QListIPN5Tiled7WangSetEE14const_iteratordeEv, symObjAddr: 0x5720, symBinAddr: 0x1000061D0, symSize: 0x20 }
  - { offset: 0x952E7, size: 0x8, addend: 0x0, symName: __ZNK5Tiled7Tileset5tilesEv, symObjAddr: 0x5740, symBinAddr: 0x1000061F0, symSize: 0x20 }
  - { offset: 0x9530F, size: 0x8, addend: 0x0, symName: __ZNK5QListIPN5Tiled4TileEE5beginEv, symObjAddr: 0x5760, symBinAddr: 0x100006210, symSize: 0x40 }
  - { offset: 0x95335, size: 0x8, addend: 0x0, symName: __ZNK5QListIPN5Tiled4TileEE3endEv, symObjAddr: 0x57A0, symBinAddr: 0x100006250, symSize: 0x40 }
  - { offset: 0x9535B, size: 0x8, addend: 0x0, symName: __ZNK5QListIPN5Tiled4TileEE14const_iteratorneES4_, symObjAddr: 0x57E0, symBinAddr: 0x100006290, symSize: 0x20 }
  - { offset: 0x9538F, size: 0x8, addend: 0x0, symName: __ZNK5QListIPN5Tiled4TileEE14const_iteratordeEv, symObjAddr: 0x5800, symBinAddr: 0x1000062B0, symSize: 0x20 }
  - { offset: 0x953B5, size: 0x8, addend: 0x0, symName: __ZNK5Tiled6WangIdcvyEv, symObjAddr: 0x5820, symBinAddr: 0x1000062D0, symSize: 0x20 }
  - { offset: 0x953DB, size: 0x8, addend: 0x0, symName: __ZL12terrainNamesPKN5Tiled4TileERKNS_7WangSetE, symObjAddr: 0x5840, symBinAddr: 0x1000062F0, symSize: 0x1B0 }
  - { offset: 0x95428, size: 0x8, addend: 0x0, symName: __ZNK4QMapI16TileTerrainNamesPN5Tiled4TileEE8containsERKS0_, symObjAddr: 0x59F0, symBinAddr: 0x1000064A0, symSize: 0x80 }
  - { offset: 0x9546C, size: 0x8, addend: 0x0, symName: __ZN4QMapI16TileTerrainNamesPN5Tiled4TileEE6insertERKS0_RKS3_, symObjAddr: 0x5A70, symBinAddr: 0x100006520, symSize: 0xC0 }
  - { offset: 0x954BF, size: 0x8, addend: 0x0, symName: __ZN16TileTerrainNamesD1Ev, symObjAddr: 0x5B30, symBinAddr: 0x1000065E0, symSize: 0x20 }
  - { offset: 0x954EB, size: 0x8, addend: 0x0, symName: __ZN5QListIPN5Tiled4TileEE14const_iteratorppEv, symObjAddr: 0x5B50, symBinAddr: 0x100006600, symSize: 0x20 }
  - { offset: 0x95511, size: 0x8, addend: 0x0, symName: __ZNK5Tiled7WangSet6colorsEv, symObjAddr: 0x5B70, symBinAddr: 0x100006620, symSize: 0x20 }
  - { offset: 0x95537, size: 0x8, addend: 0x0, symName: __ZNK5QListI14QSharedPointerIN5Tiled9WangColorEEE5beginEv, symObjAddr: 0x5B90, symBinAddr: 0x100006640, symSize: 0x40 }
  - { offset: 0x9555D, size: 0x8, addend: 0x0, symName: __ZNK5QListI14QSharedPointerIN5Tiled9WangColorEEE3endEv, symObjAddr: 0x5BD0, symBinAddr: 0x100006680, symSize: 0x40 }
  - { offset: 0x95583, size: 0x8, addend: 0x0, symName: __ZNK5QListI14QSharedPointerIN5Tiled9WangColorEEE14const_iteratorneES5_, symObjAddr: 0x5C10, symBinAddr: 0x1000066C0, symSize: 0x20 }
  - { offset: 0x955B7, size: 0x8, addend: 0x0, symName: __ZNK5QListI14QSharedPointerIN5Tiled9WangColorEEE14const_iteratordeEv, symObjAddr: 0x5C30, symBinAddr: 0x1000066E0, symSize: 0x20 }
  - { offset: 0x955DD, size: 0x8, addend: 0x0, symName: __ZNK4QMapI7QStringPN5Tiled9WangColorEE8containsERKS0_, symObjAddr: 0x5C50, symBinAddr: 0x100006700, symSize: 0x80 }
  - { offset: 0x95621, size: 0x8, addend: 0x0, symName: __ZNK14QSharedPointerIN5Tiled9WangColorEEptEv, symObjAddr: 0x5CD0, symBinAddr: 0x100006780, symSize: 0x20 }
  - { offset: 0x95647, size: 0x8, addend: 0x0, symName: __ZNK5Tiled9WangColor4nameEv, symObjAddr: 0x5CF0, symBinAddr: 0x1000067A0, symSize: 0x30 }
  - { offset: 0x9566D, size: 0x8, addend: 0x0, symName: __ZN4QMapI7QStringPN5Tiled9WangColorEE6insertERKS0_RKS3_, symObjAddr: 0x5D20, symBinAddr: 0x1000067D0, symSize: 0xC0 }
  - { offset: 0x956C0, size: 0x8, addend: 0x0, symName: __ZNK14QSharedPointerIN5Tiled9WangColorEE4dataEv, symObjAddr: 0x5DE0, symBinAddr: 0x100006890, symSize: 0x20 }
  - { offset: 0x956E6, size: 0x8, addend: 0x0, symName: __ZN5QListI14QSharedPointerIN5Tiled9WangColorEEE14const_iteratorppEv, symObjAddr: 0x5E00, symBinAddr: 0x1000068B0, symSize: 0x20 }
  - { offset: 0x9570C, size: 0x8, addend: 0x0, symName: __ZN5QListIPN5Tiled7WangSetEE14const_iteratorppEv, symObjAddr: 0x5E20, symBinAddr: 0x1000068D0, symSize: 0x20 }
  - { offset: 0x95732, size: 0x8, addend: 0x0, symName: __ZN5QListI14QSharedPointerIN5Tiled7TilesetEEE8iteratorppEv, symObjAddr: 0x5E40, symBinAddr: 0x1000068F0, symSize: 0x20 }
  - { offset: 0x95758, size: 0x8, addend: 0x0, symName: __ZNK5QListIS_I7QStringEE7isEmptyEv, symObjAddr: 0x5E60, symBinAddr: 0x100006910, symSize: 0x30 }
  - { offset: 0x9577E, size: 0x8, addend: 0x0, symName: __ZNK5QListIS_I7QStringEE5beginEv, symObjAddr: 0x5E90, symBinAddr: 0x100006940, symSize: 0x40 }
  - { offset: 0x957A4, size: 0x8, addend: 0x0, symName: __ZNK5QListIS_I7QStringEE3endEv, symObjAddr: 0x5ED0, symBinAddr: 0x100006980, symSize: 0x40 }
  - { offset: 0x957CA, size: 0x8, addend: 0x0, symName: __ZNK5QListIS_I7QStringEE14const_iteratorneES3_, symObjAddr: 0x5F10, symBinAddr: 0x1000069C0, symSize: 0x20 }
  - { offset: 0x957FE, size: 0x8, addend: 0x0, symName: __ZNK5QListIS_I7QStringEE14const_iteratordeEv, symObjAddr: 0x5F30, symBinAddr: 0x1000069E0, symSize: 0x20 }
  - { offset: 0x95823, size: 0x8, addend: 0x0, symName: __ZlsI7QStringENSt3__19enable_ifIXsr3stdE13conjunction_vINS1_11disjunctionIJNS1_10is_base_ofI5QListIT_ES6_EEN11QTypeTraits20has_ostream_operatorI6QDebugS6_vEEEEEEESB_E4typeESB_RKS7_, symObjAddr: 0x5F50, symBinAddr: 0x100006A00, symSize: 0x80 }
  - { offset: 0x9586B, size: 0x8, addend: 0x0, symName: __ZN5QListIS_I7QStringEE14const_iteratorppEv, symObjAddr: 0x5FD0, symBinAddr: 0x100006A80, symSize: 0x20 }
  - { offset: 0x9590A, size: 0x8, addend: 0x0, symName: __ZN15TerrainLessThanC1Ev, symObjAddr: 0x5FF0, symBinAddr: 0x100006AA0, symSize: 0x20 }
  - { offset: 0x95937, size: 0x8, addend: 0x0, symName: __ZN4QMapI7QStringiE6insertERKS0_RKi, symObjAddr: 0x6010, symBinAddr: 0x100006AC0, symSize: 0xC0 }
  - { offset: 0x9598A, size: 0x8, addend: 0x0, symName: __ZNK4QMapI7QStringPN5Tiled9WangColorEE4keysEv, symObjAddr: 0x60D0, symBinAddr: 0x100006B80, symSize: 0x70 }
  - { offset: 0x959B0, size: 0x8, addend: 0x0, symName: __ZN6QDebugC1ERKS_, symObjAddr: 0x6140, symBinAddr: 0x100006BF0, symSize: 0x30 }
  - { offset: 0x959E8, size: 0x8, addend: 0x0, symName: __ZNK4QMapI7QStringiE4keysEv, symObjAddr: 0x6170, symBinAddr: 0x100006C20, symSize: 0x70 }
  - { offset: 0x95A0E, size: 0x8, addend: 0x0, symName: __ZN6QDebuglsERK7QString, symObjAddr: 0x61E0, symBinAddr: 0x100006C90, symSize: 0x50 }
  - { offset: 0x95A42, size: 0x8, addend: 0x0, symName: __ZNK4QMapI7QStringiE8containsERKS0_, symObjAddr: 0x6230, symBinAddr: 0x100006CE0, symSize: 0x80 }
  - { offset: 0x95A86, size: 0x8, addend: 0x0, symName: __ZNK5Tiled7Tileset7wangSetEi, symObjAddr: 0x62B0, symBinAddr: 0x100006D60, symSize: 0x50 }
  - { offset: 0x95BA5, size: 0x8, addend: 0x0, symName: __ZN17TerrainSetBuilderC1ERN5Tiled7WangSetE, symObjAddr: 0x6300, symBinAddr: 0x100006DB0, symSize: 0x30 }
  - { offset: 0x95BDE, size: 0x8, addend: 0x0, symName: __ZN5QListIPN5Tiled9WangColorEEC1Ev, symObjAddr: 0x6330, symBinAddr: 0x100006DE0, symSize: 0x20 }
  - { offset: 0x95C08, size: 0x8, addend: 0x0, symName: __ZN4QMapI7QStringPN5Tiled9WangColorEE5beginEv, symObjAddr: 0x6350, symBinAddr: 0x100006E00, symSize: 0x50 }
  - { offset: 0x95C2E, size: 0x8, addend: 0x0, symName: __ZN4QMapI7QStringPN5Tiled9WangColorEE3endEv, symObjAddr: 0x63A0, symBinAddr: 0x100006E50, symSize: 0x50 }
  - { offset: 0x95C53, size: 0x8, addend: 0x0, symName: __ZneRKN4QMapI7QStringPN5Tiled9WangColorEE8iteratorES7_, symObjAddr: 0x63F0, symBinAddr: 0x100006EA0, symSize: 0x30 }
  - { offset: 0x95C91, size: 0x8, addend: 0x0, symName: __ZNK4QMapI7QStringPN5Tiled9WangColorEE8iteratordeEv, symObjAddr: 0x6420, symBinAddr: 0x100006ED0, symSize: 0x20 }
  - { offset: 0x95CB7, size: 0x8, addend: 0x0, symName: __ZNK17TerrainSetBuilder10hasTerrainERK7QString, symObjAddr: 0x6440, symBinAddr: 0x100006EF0, symSize: 0xC0 }
  - { offset: 0x95D3E, size: 0x8, addend: 0x0, symName: __ZN5QListIPN5Tiled9WangColorEE6appendES2_, symObjAddr: 0x6500, symBinAddr: 0x100006FB0, symSize: 0x30 }
  - { offset: 0x95D73, size: 0x8, addend: 0x0, symName: __ZN17TerrainSetBuilder10addTerrainEPKN5Tiled9WangColorE, symObjAddr: 0x6530, symBinAddr: 0x100006FE0, symSize: 0x170 }
  - { offset: 0x95DB7, size: 0x8, addend: 0x0, symName: __ZN4QMapI7QStringPN5Tiled9WangColorEE8iteratorppEv, symObjAddr: 0x66A0, symBinAddr: 0x100007150, symSize: 0x30 }
  - { offset: 0x95DDD, size: 0x8, addend: 0x0, symName: __ZN5QListIPN5Tiled9WangColorEE5beginEv, symObjAddr: 0x66D0, symBinAddr: 0x100007180, symSize: 0x40 }
  - { offset: 0x95E03, size: 0x8, addend: 0x0, symName: __ZN5QListIPN5Tiled9WangColorEE3endEv, symObjAddr: 0x6710, symBinAddr: 0x1000071C0, symSize: 0x40 }
  - { offset: 0x95E29, size: 0x8, addend: 0x0, symName: __ZNK5QListIPN5Tiled9WangColorEE8iteratorneES4_, symObjAddr: 0x6750, symBinAddr: 0x100007200, symSize: 0x20 }
  - { offset: 0x95E5D, size: 0x8, addend: 0x0, symName: __ZNK5QListIPN5Tiled9WangColorEE8iteratordeEv, symObjAddr: 0x6770, symBinAddr: 0x100007220, symSize: 0x20 }
  - { offset: 0x95E83, size: 0x8, addend: 0x0, symName: __ZNK4QMapI7QStringPN5Tiled9WangColorEE5valueERKS0_RKS3_, symObjAddr: 0x6790, symBinAddr: 0x100007240, symSize: 0xB0 }
  - { offset: 0x95ED6, size: 0x8, addend: 0x0, symName: __ZNK5Tiled9WangColor7wangSetEv, symObjAddr: 0x6840, symBinAddr: 0x1000072F0, symSize: 0x20 }
  - { offset: 0x95EFC, size: 0x8, addend: 0x0, symName: __ZNK5Tiled7WangSet7tilesetEv, symObjAddr: 0x6860, symBinAddr: 0x100007310, symSize: 0x20 }
  - { offset: 0x95F24, size: 0x8, addend: 0x0, symName: __ZNK5Tiled9WangColor7imageIdEv, symObjAddr: 0x6880, symBinAddr: 0x100007330, symSize: 0x20 }
  - { offset: 0x95F4A, size: 0x8, addend: 0x0, symName: __ZN5QRectC1Ev, symObjAddr: 0x68A0, symBinAddr: 0x100007350, symSize: 0x20 }
  - { offset: 0x95F74, size: 0x8, addend: 0x0, symName: __ZN5Tiled6Object13setPropertiesERK4QMapI7QString8QVariantE, symObjAddr: 0x68C0, symBinAddr: 0x100007370, symSize: 0x30 }
  - { offset: 0x95FA8, size: 0x8, addend: 0x0, symName: __ZNK5Tiled6Object10propertiesEv, symObjAddr: 0x68F0, symBinAddr: 0x1000073A0, symSize: 0x20 }
  - { offset: 0x95FCE, size: 0x8, addend: 0x0, symName: __ZN5Tiled9WangColor10setImageIdEi, symObjAddr: 0x6910, symBinAddr: 0x1000073C0, symSize: 0x20 }
  - { offset: 0x96002, size: 0x8, addend: 0x0, symName: __ZNK5Tiled4Tile2idEv, symObjAddr: 0x6930, symBinAddr: 0x1000073E0, symSize: 0x20 }
  - { offset: 0x96029, size: 0x8, addend: 0x0, symName: __ZN17TerrainSetBuilder9setWangIdEPKN5Tiled4TileENS0_6WangIdE, symObjAddr: 0x6950, symBinAddr: 0x100007400, symSize: 0x50 }
  - { offset: 0x9606D, size: 0x8, addend: 0x0, symName: __ZNK17TerrainSetBuilder8toWangIdERK16TileTerrainNames, symObjAddr: 0x69A0, symBinAddr: 0x100007450, symSize: 0xB0 }
  - { offset: 0x960B1, size: 0x8, addend: 0x0, symName: __ZN5QListIPN5Tiled9WangColorEE8iteratorppEv, symObjAddr: 0x6A50, symBinAddr: 0x100007500, symSize: 0x20 }
  - { offset: 0x960D7, size: 0x8, addend: 0x0, symName: __ZN5QListI16TileTerrainNamesEC1Ev, symObjAddr: 0x6A70, symBinAddr: 0x100007520, symSize: 0x20 }
  - { offset: 0x96101, size: 0x8, addend: 0x0, symName: __ZN4QMapI7QStringPN5Tiled9WangColorEEixERKS0_, symObjAddr: 0x6A90, symBinAddr: 0x100007540, symSize: 0x1A0 }
  - { offset: 0x96154, size: 0x8, addend: 0x0, symName: __ZN5QListI16TileTerrainNamesE6appendEOS0_, symObjAddr: 0x6C30, symBinAddr: 0x1000076E0, symSize: 0x30 }
  - { offset: 0x96189, size: 0x8, addend: 0x0, symName: __ZN16TileTerrainNamesC1ERK7QStringS2_S2_S2_, symObjAddr: 0x6C60, symBinAddr: 0x100007710, symSize: 0x40 }
  - { offset: 0x961EB, size: 0x8, addend: 0x0, symName: __ZN5QListIPN5Tiled9WangColorEED1Ev, symObjAddr: 0x6CA0, symBinAddr: 0x100007750, symSize: 0x20 }
  - { offset: 0x96217, size: 0x8, addend: 0x0, symName: __ZN5QListI16TileTerrainNamesE5beginEv, symObjAddr: 0x6CC0, symBinAddr: 0x100007770, symSize: 0x40 }
  - { offset: 0x9623D, size: 0x8, addend: 0x0, symName: __ZN5QListI16TileTerrainNamesE3endEv, symObjAddr: 0x6D00, symBinAddr: 0x1000077B0, symSize: 0x40 }
  - { offset: 0x96263, size: 0x8, addend: 0x0, symName: __ZNK5QListI16TileTerrainNamesE8iteratorneES2_, symObjAddr: 0x6D40, symBinAddr: 0x1000077F0, symSize: 0x20 }
  - { offset: 0x96297, size: 0x8, addend: 0x0, symName: __ZNK5QListI16TileTerrainNamesE8iteratordeEv, symObjAddr: 0x6D60, symBinAddr: 0x100007810, symSize: 0x20 }
  - { offset: 0x962BD, size: 0x8, addend: 0x0, symName: __ZNK4QMapI16TileTerrainNamesPN5Tiled4TileEE5valueERKS0_RKS3_, symObjAddr: 0x6D80, symBinAddr: 0x100007830, symSize: 0xB0 }
  - { offset: 0x9630F, size: 0x8, addend: 0x0, symName: __ZeqIN5Tiled7TilesetEEbRKPT_RK14QSharedPointerIS1_E, symObjAddr: 0x6E30, symBinAddr: 0x1000078E0, symSize: 0x30 }
  - { offset: 0x96356, size: 0x8, addend: 0x0, symName: __ZNK5Tiled4Tile7tilesetEv, symObjAddr: 0x6E60, symBinAddr: 0x100007910, symSize: 0x20 }
  - { offset: 0x9637D, size: 0x8, addend: 0x0, symName: __ZN4QMapI7QString8QVariantEC1Ev, symObjAddr: 0x6E80, symBinAddr: 0x100007930, symSize: 0x20 }
  - { offset: 0x963A7, size: 0x8, addend: 0x0, symName: __Zls6QDebugRK16TileTerrainNames, symObjAddr: 0x6EA0, symBinAddr: 0x100007950, symSize: 0xE0 }
  - { offset: 0x963E6, size: 0x8, addend: 0x0, symName: __ZNK16TileTerrainNames11terrainListEv, symObjAddr: 0x6F80, symBinAddr: 0x100007A30, symSize: 0x110 }
  - { offset: 0x9641B, size: 0x8, addend: 0x0, symName: __ZN5QListI7QStringE5beginEv, symObjAddr: 0x70D0, symBinAddr: 0x100007B80, symSize: 0x40 }
  - { offset: 0x96441, size: 0x8, addend: 0x0, symName: __ZN5QListI7QStringE3endEv, symObjAddr: 0x7110, symBinAddr: 0x100007BC0, symSize: 0x40 }
  - { offset: 0x9646D, size: 0x8, addend: 0x0, symName: __ZN15TerrainLessThanC1ERKS_, symObjAddr: 0x7150, symBinAddr: 0x100007C00, symSize: 0x30 }
  - { offset: 0x964A3, size: 0x8, addend: 0x0, symName: __ZN15TerrainLessThanD1Ev, symObjAddr: 0x7180, symBinAddr: 0x100007C30, symSize: 0x20 }
  - { offset: 0x964D0, size: 0x8, addend: 0x0, symName: __ZN5QListI7QStringE5firstEv, symObjAddr: 0x71A0, symBinAddr: 0x100007C50, symSize: 0x60 }
  - { offset: 0x964F6, size: 0x8, addend: 0x0, symName: __ZN16TileTerrainNamesC1ERK7QString, symObjAddr: 0x7200, symBinAddr: 0x100007CB0, symSize: 0x30 }
  - { offset: 0x9652E, size: 0x8, addend: 0x0, symName: __ZN8QPainter10drawPixmapEiiRK7QPixmap, symObjAddr: 0x7230, symBinAddr: 0x100007CE0, symSize: 0x50 }
  - { offset: 0x96583, size: 0x8, addend: 0x0, symName: __ZNK16TileTerrainNames6filterERK7QString, symObjAddr: 0x7280, symBinAddr: 0x100007D30, symSize: 0x1A0 }
  - { offset: 0x965B7, size: 0x8, addend: 0x0, symName: __ZN5Tiled6Object10propertiesEv, symObjAddr: 0x7420, symBinAddr: 0x100007ED0, symSize: 0x20 }
  - { offset: 0x965DD, size: 0x8, addend: 0x0, symName: __ZN6QFlagsIN2Qt19ImageConversionFlagEEC1ES1_, symObjAddr: 0x7440, symBinAddr: 0x100007EF0, symSize: 0x30 }
  - { offset: 0x96615, size: 0x8, addend: 0x0, symName: __ZN7QPixmapaSEOS_, symObjAddr: 0x7470, symBinAddr: 0x100007F20, symSize: 0x50 }
  - { offset: 0x96657, size: 0x8, addend: 0x0, symName: __ZN5QListI7QStringED1Ev, symObjAddr: 0x74C0, symBinAddr: 0x100007F70, symSize: 0x20 }
  - { offset: 0x96683, size: 0x8, addend: 0x0, symName: __ZNK5Tiled7Tileset8fileNameEv, symObjAddr: 0x74E0, symBinAddr: 0x100007F90, symSize: 0x20 }
  - { offset: 0x966AB, size: 0x8, addend: 0x0, symName: __ZN4QMapI7QString8QVariantEaSERKS2_, symObjAddr: 0x7500, symBinAddr: 0x100007FB0, symSize: 0x30 }
  - { offset: 0x966DC, size: 0x8, addend: 0x0, symName: __ZN4QMapI7QString8QVariantED1Ev, symObjAddr: 0x7530, symBinAddr: 0x100007FE0, symSize: 0x20 }
  - { offset: 0x96708, size: 0x8, addend: 0x0, symName: __ZN5QListI16TileTerrainNamesE8iteratorppEv, symObjAddr: 0x7550, symBinAddr: 0x100008000, symSize: 0x20 }
  - { offset: 0x9672E, size: 0x8, addend: 0x0, symName: __ZNK5Tiled7Tileset9tileCountEv, symObjAddr: 0x7570, symBinAddr: 0x100008020, symSize: 0x30 }
  - { offset: 0x96756, size: 0x8, addend: 0x0, symName: __ZN7QStringC1Ev, symObjAddr: 0x75A0, symBinAddr: 0x100008050, symSize: 0x20 }
  - { offset: 0x96781, size: 0x8, addend: 0x0, symName: __Z4qMinIiERKT_S2_S2_, symObjAddr: 0x75C0, symBinAddr: 0x100008070, symSize: 0x40 }
  - { offset: 0x967C5, size: 0x8, addend: 0x0, symName: __ZN7QStringpLERKS_, symObjAddr: 0x7600, symBinAddr: 0x1000080B0, symSize: 0x30 }
  - { offset: 0x967FA, size: 0x8, addend: 0x0, symName: __ZN5Tiled7Tileset14setColumnCountEi, symObjAddr: 0x7630, symBinAddr: 0x1000080E0, symSize: 0x20 }
  - { offset: 0x96831, size: 0x8, addend: 0x0, symName: __ZNK14QSharedPointerIN5Tiled7TilesetEEdeEv, symObjAddr: 0x7650, symBinAddr: 0x100008100, symSize: 0x20 }
  - { offset: 0x96857, size: 0x8, addend: 0x0, symName: __ZN5QListI16TileTerrainNamesED1Ev, symObjAddr: 0x7670, symBinAddr: 0x100008120, symSize: 0x20 }
  - { offset: 0x96883, size: 0x8, addend: 0x0, symName: __ZN4QMapI7QStringPN5Tiled9WangColorEED1Ev, symObjAddr: 0x7690, symBinAddr: 0x100008140, symSize: 0x20 }
  - { offset: 0x968AF, size: 0x8, addend: 0x0, symName: __ZN4QMapI16TileTerrainNamesPN5Tiled4TileEED1Ev, symObjAddr: 0x76B0, symBinAddr: 0x100008160, symSize: 0x20 }
  - { offset: 0x968DB, size: 0x8, addend: 0x0, symName: __ZN5QListI14QSharedPointerIN5Tiled7TilesetEEED1Ev, symObjAddr: 0x76D0, symBinAddr: 0x100008180, symSize: 0x20 }
  - { offset: 0x96907, size: 0x8, addend: 0x0, symName: __ZN12_GLOBAL__N_118CommandLineOptionsD1Ev, symObjAddr: 0x76F0, symBinAddr: 0x1000081A0, symSize: 0x20 }
  - { offset: 0x96933, size: 0x8, addend: 0x0, symName: __ZN7QStringC2EO17QArrayDataPointerIDsE, symObjAddr: 0x7710, symBinAddr: 0x1000081C0, symSize: 0x30 }
  - { offset: 0x9696C, size: 0x8, addend: 0x0, symName: __ZN17QArrayDataPointerIDsEC1EOS0_, symObjAddr: 0x7740, symBinAddr: 0x1000081F0, symSize: 0x30 }
  - { offset: 0x969A4, size: 0x8, addend: 0x0, symName: __ZN17QArrayDataPointerIDsEC2EOS0_, symObjAddr: 0x7770, symBinAddr: 0x100008220, symSize: 0x90 }
  - { offset: 0x969DC, size: 0x8, addend: 0x0, symName: __ZN7QStringD2Ev, symObjAddr: 0x7890, symBinAddr: 0x100008340, symSize: 0x20 }
  - { offset: 0x96A08, size: 0x8, addend: 0x0, symName: __ZN12_GLOBAL__N_118CommandLineOptionsC2Ev, symObjAddr: 0x78B0, symBinAddr: 0x100008360, symSize: 0x60 }
  - { offset: 0x96A32, size: 0x8, addend: 0x0, symName: __ZN5QListI7QStringEC1Ev, symObjAddr: 0x7910, symBinAddr: 0x1000083C0, symSize: 0x20 }
  - { offset: 0x96A5C, size: 0x8, addend: 0x0, symName: __ZN5QListIS_I7QStringEEC1Ev, symObjAddr: 0x7930, symBinAddr: 0x1000083E0, symSize: 0x20 }
  - { offset: 0x96A86, size: 0x8, addend: 0x0, symName: __ZN5QListI7QStringEC2Ev, symObjAddr: 0x7950, symBinAddr: 0x100008400, symSize: 0x20 }
  - { offset: 0x96AB0, size: 0x8, addend: 0x0, symName: __ZN17QArrayDataPointerI7QStringEC1Ev, symObjAddr: 0x7970, symBinAddr: 0x100008420, symSize: 0x20 }
  - { offset: 0x96ADA, size: 0x8, addend: 0x0, symName: __ZN17QArrayDataPointerI7QStringEC2Ev, symObjAddr: 0x7990, symBinAddr: 0x100008440, symSize: 0x30 }
  - { offset: 0x96B04, size: 0x8, addend: 0x0, symName: __ZN5QListIS_I7QStringEEC2Ev, symObjAddr: 0x79C0, symBinAddr: 0x100008470, symSize: 0x20 }
  - { offset: 0x96B2E, size: 0x8, addend: 0x0, symName: __ZN17QArrayDataPointerI5QListI7QStringEEC1Ev, symObjAddr: 0x79E0, symBinAddr: 0x100008490, symSize: 0x20 }
  - { offset: 0x96B58, size: 0x8, addend: 0x0, symName: __ZN17QArrayDataPointerI5QListI7QStringEEC2Ev, symObjAddr: 0x7A00, symBinAddr: 0x1000084B0, symSize: 0x30 }
  - { offset: 0x96B82, size: 0x8, addend: 0x0, symName: __ZNK5QListI7QStringE4sizeEv, symObjAddr: 0x7A30, symBinAddr: 0x1000084E0, symSize: 0x50 }
  - { offset: 0x96BDC, size: 0x8, addend: 0x0, symName: __ZNK5QListI7QStringE2atEx, symObjAddr: 0x7A80, symBinAddr: 0x100008530, symSize: 0x70 }
  - { offset: 0x96C10, size: 0x8, addend: 0x0, symName: __ZeqRK5QCharS1_, symObjAddr: 0x7AF0, symBinAddr: 0x1000085A0, symSize: 0x30 }
  - { offset: 0x96C92, size: 0x8, addend: 0x0, symName: __ZNK7QString2atEx, symObjAddr: 0x7B20, symBinAddr: 0x1000085D0, symSize: 0xF0 }
  - { offset: 0x96CFB, size: 0x8, addend: 0x0, symName: __ZN11QLatin1CharC1Ec, symObjAddr: 0x7C10, symBinAddr: 0x1000086C0, symSize: 0x30 }
  - { offset: 0x96D33, size: 0x8, addend: 0x0, symName: __ZN5QCharC1I11QLatin1CharLb1EEET_, symObjAddr: 0x7C40, symBinAddr: 0x1000086F0, symSize: 0x30 }
  - { offset: 0x96D7A, size: 0x8, addend: 0x0, symName: __ZN5QListI7QStringE6appendERKS0_, symObjAddr: 0x7C70, symBinAddr: 0x100008720, symSize: 0x30 }
  - { offset: 0x96DAF, size: 0x8, addend: 0x0, symName: __ZN5QListIS_I7QStringEE4lastEv, symObjAddr: 0x7CA0, symBinAddr: 0x100008750, symSize: 0x70 }
  - { offset: 0x96DD4, size: 0x8, addend: 0x0, symName: __ZeqRK7QStringRK13QLatin1String, symObjAddr: 0x7D10, symBinAddr: 0x1000087C0, symSize: 0x50 }
  - { offset: 0x96E28, size: 0x8, addend: 0x0, symName: __ZN13QLatin1StringC1EPKc, symObjAddr: 0x7D60, symBinAddr: 0x100008810, symSize: 0x30 }
  - { offset: 0x96E60, size: 0x8, addend: 0x0, symName: __ZN5QListIS_I7QStringEE6appendEOS1_, symObjAddr: 0x7D90, symBinAddr: 0x100008840, symSize: 0x30 }
  - { offset: 0x96E95, size: 0x8, addend: 0x0, symName: __ZNK7QString5toIntEPbi, symObjAddr: 0x7DC0, symBinAddr: 0x100008870, symSize: 0x40 }
  - { offset: 0x96EE3, size: 0x8, addend: 0x0, symName: __ZZNK5QListI7QStringE4sizeEvENKUlvE_clEv, symObjAddr: 0x7E00, symBinAddr: 0x1000088B0, symSize: 0x50 }
  - { offset: 0x96F0D, size: 0x8, addend: 0x0, symName: __ZNK17QArrayDataPointerI7QStringEptEv, symObjAddr: 0x7E60, symBinAddr: 0x100008910, symSize: 0x10 }
  - { offset: 0x96F33, size: 0x8, addend: 0x0, symName: __ZNK5QListI7QStringE4dataEv, symObjAddr: 0x7E70, symBinAddr: 0x100008920, symSize: 0x30 }
  - { offset: 0x96F59, size: 0x8, addend: 0x0, symName: __ZNK17QArrayDataPointerI7QStringE4dataEv, symObjAddr: 0x7EA0, symBinAddr: 0x100008950, symSize: 0x20 }
  - { offset: 0x96F7E, size: 0x8, addend: 0x0, symName: __Z13comparesEqualRK5QCharS1_, symObjAddr: 0x7EC0, symBinAddr: 0x100008970, symSize: 0x30 }
  - { offset: 0x96FBC, size: 0x8, addend: 0x0, symName: __ZNK17QArrayDataPointerIDsE4dataEv, symObjAddr: 0x7EF0, symBinAddr: 0x1000089A0, symSize: 0x20 }
  - { offset: 0x96FE2, size: 0x8, addend: 0x0, symName: __ZN5QCharC1IDsLb1EEET_, symObjAddr: 0x7F10, symBinAddr: 0x1000089C0, symSize: 0x30 }
  - { offset: 0x97029, size: 0x8, addend: 0x0, symName: __ZN5QCharC2IDsLb1EEET_, symObjAddr: 0x7F40, symBinAddr: 0x1000089F0, symSize: 0x20 }
  - { offset: 0x97070, size: 0x8, addend: 0x0, symName: __ZN11QLatin1CharC2Ec, symObjAddr: 0x7F60, symBinAddr: 0x100008A10, symSize: 0x20 }
  - { offset: 0x970A8, size: 0x8, addend: 0x0, symName: __ZN5QCharC2I11QLatin1CharLb1EEET_, symObjAddr: 0x7F80, symBinAddr: 0x100008A30, symSize: 0x40 }
  - { offset: 0x970EF, size: 0x8, addend: 0x0, symName: __ZNK11QLatin1CharcvDsEv, symObjAddr: 0x7FC0, symBinAddr: 0x100008A70, symSize: 0x20 }
  - { offset: 0x97115, size: 0x8, addend: 0x0, symName: __ZNK11QLatin1Char7unicodeEv, symObjAddr: 0x7FE0, symBinAddr: 0x100008A90, symSize: 0x20 }
  - { offset: 0x9713B, size: 0x8, addend: 0x0, symName: __ZN5QListI7QStringE11emplaceBackIJRKS0_EEERS0_DpOT_, symObjAddr: 0x8000, symBinAddr: 0x100008AB0, symSize: 0x70 }
  - { offset: 0x9717B, size: 0x8, addend: 0x0, symName: __ZN17QArrayDataPointerI7QStringEptEv, symObjAddr: 0x8070, symBinAddr: 0x100008B20, symSize: 0x10 }
  - { offset: 0x971A1, size: 0x8, addend: 0x0, symName: __ZN9QtPrivate16QMovableArrayOpsI7QStringE7emplaceIJRKS1_EEEvxDpOT_, symObjAddr: 0x8080, symBinAddr: 0x100008B30, symSize: 0x210 }
  - { offset: 0x9722C, size: 0x8, addend: 0x0, symName: __ZNK5QListI7QStringE8iteratormiEx, symObjAddr: 0x8290, symBinAddr: 0x100008D40, symSize: 0x40 }
  - { offset: 0x97260, size: 0x8, addend: 0x0, symName: __ZNK5QListI7QStringE8iteratordeEv, symObjAddr: 0x82D0, symBinAddr: 0x100008D80, symSize: 0x20 }
  - { offset: 0x97286, size: 0x8, addend: 0x0, symName: __ZNK17QArrayDataPointerI7QStringE11needsDetachEv, symObjAddr: 0x82F0, symBinAddr: 0x100008DA0, symSize: 0x40 }
  - { offset: 0x972AC, size: 0x8, addend: 0x0, symName: __ZNK17QArrayDataPointerI7QStringE14freeSpaceAtEndEv, symObjAddr: 0x8330, symBinAddr: 0x100008DE0, symSize: 0x60 }
  - { offset: 0x972D2, size: 0x8, addend: 0x0, symName: __ZN17QArrayDataPointerI7QStringE3endEv, symObjAddr: 0x8390, symBinAddr: 0x100008E40, symSize: 0x30 }
  - { offset: 0x972F8, size: 0x8, addend: 0x0, symName: __ZN7QStringC1ERKS_, symObjAddr: 0x83C0, symBinAddr: 0x100008E70, symSize: 0x30 }
  - { offset: 0x97333, size: 0x8, addend: 0x0, symName: __ZNK17QArrayDataPointerI7QStringE16freeSpaceAtBeginEv, symObjAddr: 0x83F0, symBinAddr: 0x100008EA0, symSize: 0x60 }
  - { offset: 0x97359, size: 0x8, addend: 0x0, symName: __ZN17QArrayDataPointerI7QStringE5beginEv, symObjAddr: 0x8450, symBinAddr: 0x100008F00, symSize: 0x20 }
  - { offset: 0x9737F, size: 0x8, addend: 0x0, symName: __ZN17QArrayDataPointerI7QStringE13detachAndGrowEN10QArrayData14GrowthPositionExPPKS0_PS1_, symObjAddr: 0x8470, symBinAddr: 0x100008F20, symSize: 0x100 }
  - { offset: 0x973F9, size: 0x8, addend: 0x0, symName: __ZN7QStringC1EOS_, symObjAddr: 0x8570, symBinAddr: 0x100009020, symSize: 0x30 }
  - { offset: 0x97457, size: 0x8, addend: 0x0, symName: __ZN9QtPrivate16QMovableArrayOpsI7QStringE8InserterC1EP17QArrayDataPointerIS1_Exx, symObjAddr: 0x85A0, symBinAddr: 0x100009050, symSize: 0x40 }
  - { offset: 0x974AE, size: 0x8, addend: 0x0, symName: __ZN9QtPrivate16QMovableArrayOpsI7QStringE8Inserter9insertOneEOS1_, symObjAddr: 0x85E0, symBinAddr: 0x100009090, symSize: 0x40 }
  - { offset: 0x974E3, size: 0x8, addend: 0x0, symName: __ZN9QtPrivate16QMovableArrayOpsI7QStringE8InserterD1Ev, symObjAddr: 0x8620, symBinAddr: 0x1000090D0, symSize: 0x20 }
  - { offset: 0x9750D, size: 0x8, addend: 0x0, symName: __ZN10QArrayData11needsDetachEv, symObjAddr: 0x8640, symBinAddr: 0x1000090F0, symSize: 0x30 }
  - { offset: 0x97533, size: 0x8, addend: 0x0, symName: __ZNK19QBasicAtomicIntegerIiE11loadRelaxedEv, symObjAddr: 0x8670, symBinAddr: 0x100009120, symSize: 0x20 }
  - { offset: 0x97559, size: 0x8, addend: 0x0, symName: __ZN10QAtomicOpsIiE11loadRelaxedIiEET_RKNSt3__16atomicIS2_EE, symObjAddr: 0x8690, symBinAddr: 0x100009140, symSize: 0x20 }
  - { offset: 0x97585, size: 0x8, addend: 0x0, symName: __ZNKSt3__113__atomic_baseIiLb0EE4loadB9nqe210106ENS_12memory_orderE, symObjAddr: 0x86B0, symBinAddr: 0x100009160, symSize: 0x30 }
  - { offset: 0x975B9, size: 0x8, addend: 0x0, symName: __ZNK10QArrayData22constAllocatedCapacityEv, symObjAddr: 0x8730, symBinAddr: 0x1000091E0, symSize: 0x20 }
  - { offset: 0x975DF, size: 0x8, addend: 0x0, symName: __ZN17QArrayDataPointerI7QStringE4dataEv, symObjAddr: 0x8750, symBinAddr: 0x100009200, symSize: 0x20 }
  - { offset: 0x97605, size: 0x8, addend: 0x0, symName: __ZN7QStringC2ERKS_, symObjAddr: 0x8770, symBinAddr: 0x100009220, symSize: 0x30 }
  - { offset: 0x97640, size: 0x8, addend: 0x0, symName: __ZN17QArrayDataPointerIDsEC1ERKS0_, symObjAddr: 0x87A0, symBinAddr: 0x100009250, symSize: 0x30 }
  - { offset: 0x97678, size: 0x8, addend: 0x0, symName: __ZN17QArrayDataPointerIDsEC2ERKS0_, symObjAddr: 0x87D0, symBinAddr: 0x100009280, symSize: 0x50 }
  - { offset: 0x976B0, size: 0x8, addend: 0x0, symName: __ZN17QArrayDataPointerIDsE3refEv, symObjAddr: 0x8820, symBinAddr: 0x1000092D0, symSize: 0x30 }
  - { offset: 0x976D6, size: 0x8, addend: 0x0, symName: __ZN10QArrayData3refEv, symObjAddr: 0x8850, symBinAddr: 0x100009300, symSize: 0x20 }
  - { offset: 0x976FC, size: 0x8, addend: 0x0, symName: __ZN19QBasicAtomicIntegerIiE10refRelaxedEv, symObjAddr: 0x8870, symBinAddr: 0x100009320, symSize: 0x20 }
  - { offset: 0x9774C, size: 0x8, addend: 0x0, symName: __ZN10QAtomicOpsIiE18fetchAndAddRelaxedIiEET_RNSt3__16atomicIS2_EEN19QAtomicAdditiveTypeIS2_E9AdditiveTE, symObjAddr: 0x8890, symBinAddr: 0x100009340, symSize: 0x30 }
  - { offset: 0x97788, size: 0x8, addend: 0x0, symName: __ZNSt3__113__atomic_baseIiLb1EE9fetch_addB9nqe210106EiNS_12memory_orderE, symObjAddr: 0x88C0, symBinAddr: 0x100009370, symSize: 0x30 }
  - { offset: 0x977CA, size: 0x8, addend: 0x0, symName: __ZN15QTypedArrayDataI7QStringE9dataStartEP10QArrayDatax, symObjAddr: 0x89A0, symBinAddr: 0x100009450, symSize: 0x80 }
  - { offset: 0x97809, size: 0x8, addend: 0x0, symName: __ZN17QArrayDataPointerI7QStringE20tryReadjustFreeSpaceEN10QArrayData14GrowthPositionExPPKS0_, symObjAddr: 0x8A20, symBinAddr: 0x1000094D0, symSize: 0x1E0 }
  - { offset: 0x97899, size: 0x8, addend: 0x0, symName: __ZN17QArrayDataPointerI7QStringE17reallocateAndGrowEN10QArrayData14GrowthPositionExPS1_, symObjAddr: 0x8C00, symBinAddr: 0x1000096B0, symSize: 0x260 }
  - { offset: 0x97914, size: 0x8, addend: 0x0, symName: __ZNK17QArrayDataPointerI7QStringE22constAllocatedCapacityEv, symObjAddr: 0x8E60, symBinAddr: 0x100009910, symSize: 0x40 }
  - { offset: 0x97939, size: 0x8, addend: 0x0, symName: __Z4qMaxIixEN11QTypeTraits6detail8PromotedIT_T0_NSt3__19enable_ifIXaaaaaaaaaaaaaasr3stdE15is_arithmetic_vIS3_Esr3stdE15is_arithmetic_vIS4_Eeqsr3stdE19is_floating_point_vIS3_Esr3stdE19is_floating_point_vIS4_Eeqsr3stdE11is_signed_vIS3_Esr3stdE11is_signed_vIS4_Entsr3stdE9is_same_vIS3_bEntsr3stdE9is_same_vIS4_bEntsr3stdE9is_same_vIS3_cEntsr3stdE9is_same_vIS4_cEEvE4typeEE4typeERKS3_RKS4_, symObjAddr: 0x8EA0, symBinAddr: 0x100009950, symSize: 0x50 }
  - { offset: 0x979AD, size: 0x8, addend: 0x0, symName: __ZN17QArrayDataPointerI7QStringE8relocateExPPKS0_, symObjAddr: 0x8EF0, symBinAddr: 0x1000099A0, symSize: 0x80 }
  - { offset: 0x97A10, size: 0x8, addend: 0x0, symName: __ZNKSt3__14lessIvEclB9nqe210106IRPK7QStringS6_EEDTltclsr3stdE7forwardIT_Efp_Eclsr3stdE7forwardIT0_Efp0_EEOS7_OS8_, symObjAddr: 0x9140, symBinAddr: 0x100009BF0, symSize: 0x30 }
  - { offset: 0x97A66, size: 0x8, addend: 0x0, symName: __ZNK17QArrayDataPointerI7QStringE5beginEv, symObjAddr: 0x91A0, symBinAddr: 0x100009C50, symSize: 0x20 }
  - { offset: 0x97A8C, size: 0x8, addend: 0x0, symName: __ZNK17QArrayDataPointerI7QStringE3endEv, symObjAddr: 0x91C0, symBinAddr: 0x100009C70, symSize: 0x30 }
  - { offset: 0x97AB2, size: 0x8, addend: 0x0, symName: __ZN9QtPrivate16QMovableArrayOpsI7QStringE10reallocateExN10QArrayData16AllocationOptionE, symObjAddr: 0x91F0, symBinAddr: 0x100009CA0, symSize: 0x80 }
  - { offset: 0x97B05, size: 0x8, addend: 0x0, symName: __ZN17QArrayDataPointerI7QStringE12allocateGrowERKS1_xN10QArrayData14GrowthPositionE, symObjAddr: 0x9270, symBinAddr: 0x100009D20, symSize: 0x230 }
  - { offset: 0x97BA0, size: 0x8, addend: 0x0, symName: __ZN9QtPrivate16QGenericArrayOpsI7QStringE10copyAppendEPKS1_S4_, symObjAddr: 0x94A0, symBinAddr: 0x100009F50, symSize: 0x150 }
  - { offset: 0x97BF3, size: 0x8, addend: 0x0, symName: __ZN9QtPrivate16QGenericArrayOpsI7QStringE10moveAppendEPS1_S3_, symObjAddr: 0x95F0, symBinAddr: 0x10000A0A0, symSize: 0x150 }
  - { offset: 0x97C46, size: 0x8, addend: 0x0, symName: __ZN17QArrayDataPointerI7QStringE4swapERS1_, symObjAddr: 0x9740, symBinAddr: 0x10000A1F0, symSize: 0x60 }
  - { offset: 0x97C7A, size: 0x8, addend: 0x0, symName: __ZN17QArrayDataPointerI7QStringED1Ev, symObjAddr: 0x97A0, symBinAddr: 0x10000A250, symSize: 0x20 }
  - { offset: 0x97CA4, size: 0x8, addend: 0x0, symName: __ZN15QTypedArrayDataI7QStringE19reallocateUnalignedEPS1_PS0_xN10QArrayData16AllocationOptionE, symObjAddr: 0x97C0, symBinAddr: 0x10000A270, symSize: 0x70 }
  - { offset: 0x97D0B, size: 0x8, addend: 0x0, symName: __ZNSt3__14pairIP15QTypedArrayDataI7QStringEPS2_EC1B9nqe210106IS4_S5_Li0EEEOT_OT0_, symObjAddr: 0x9830, symBinAddr: 0x10000A2E0, symSize: 0x30 }
  - { offset: 0x97D69, size: 0x8, addend: 0x0, symName: __ZNSt3__14pairIP15QTypedArrayDataI7QStringEPS2_EC2B9nqe210106IS4_S5_Li0EEEOT_OT0_, symObjAddr: 0x9860, symBinAddr: 0x10000A310, symSize: 0x30 }
  - { offset: 0x97DC6, size: 0x8, addend: 0x0, symName: __Z4qMaxIxERKT_S2_S2_, symObjAddr: 0x9890, symBinAddr: 0x10000A340, symSize: 0x40 }
  - { offset: 0x97E0A, size: 0x8, addend: 0x0, symName: __ZNK17QArrayDataPointerI7QStringE14detachCapacityEx, symObjAddr: 0x98D0, symBinAddr: 0x10000A380, symSize: 0x50 }
  - { offset: 0x97E3F, size: 0x8, addend: 0x0, symName: __ZN15QTypedArrayDataI7QStringE8allocateExN10QArrayData16AllocationOptionE, symObjAddr: 0x9920, symBinAddr: 0x10000A3D0, symSize: 0x60 }
  - { offset: 0x97E8C, size: 0x8, addend: 0x0, symName: __ZN17QArrayDataPointerI7QStringEC1EP15QTypedArrayDataIS0_EPS0_x, symObjAddr: 0x99C0, symBinAddr: 0x10000A470, symSize: 0x40 }
  - { offset: 0x97EE0, size: 0x8, addend: 0x0, symName: __ZNK17QArrayDataPointerI7QStringE5flagsEv, symObjAddr: 0x9A00, symBinAddr: 0x10000A4B0, symSize: 0x40 }
  - { offset: 0x97F06, size: 0x8, addend: 0x0, symName: __ZNK10QArrayData14detachCapacityEx, symObjAddr: 0x9A40, symBinAddr: 0x10000A4F0, symSize: 0x90 }
  - { offset: 0x97F3A, size: 0x8, addend: 0x0, symName: __ZNK6QFlagsIN10QArrayData11ArrayOptionEEanES1_, symObjAddr: 0x9AD0, symBinAddr: 0x10000A580, symSize: 0x40 }
  - { offset: 0x97F6E, size: 0x8, addend: 0x0, symName: __ZNK6QFlagsIN10QArrayData11ArrayOptionEEcvjEv, symObjAddr: 0x9B10, symBinAddr: 0x10000A5C0, symSize: 0x10 }
  - { offset: 0x97F94, size: 0x8, addend: 0x0, symName: __ZN6QFlagsIN10QArrayData11ArrayOptionEECI1N9QtPrivate13QFlagsStorageIS1_EEENSt3__110in_place_tEj, symObjAddr: 0x9B20, symBinAddr: 0x10000A5D0, symSize: 0x30 }
  - { offset: 0x97FD2, size: 0x8, addend: 0x0, symName: __ZN6QFlagsIN10QArrayData11ArrayOptionEECI2N9QtPrivate13QFlagsStorageIS1_EEENSt3__110in_place_tEj, symObjAddr: 0x9B50, symBinAddr: 0x10000A600, symSize: 0x30 }
  - { offset: 0x98010, size: 0x8, addend: 0x0, symName: __ZN9QtPrivate19QFlagsStorageHelperIN10QArrayData11ArrayOptionELi4EECI2NS_13QFlagsStorageIS2_EEENSt3__110in_place_tEj, symObjAddr: 0x9B80, symBinAddr: 0x10000A630, symSize: 0x30 }
  - { offset: 0x9804E, size: 0x8, addend: 0x0, symName: __ZN9QtPrivate13QFlagsStorageIN10QArrayData11ArrayOptionEEC2ENSt3__110in_place_tEj, symObjAddr: 0x9BB0, symBinAddr: 0x10000A660, symSize: 0x20 }
  - { offset: 0x98090, size: 0x8, addend: 0x0, symName: __ZNSt3__110__get_pairILm0EE3getB9nqe210106IP15QTypedArrayDataI7QStringEPS4_EEOT_ONS_4pairIS8_T0_EE, symObjAddr: 0x9BD0, symBinAddr: 0x10000A680, symSize: 0x10 }
  - { offset: 0x980C6, size: 0x8, addend: 0x0, symName: __ZNSt3__110__get_pairILm1EE3getB9nqe210106IP15QTypedArrayDataI7QStringEPS4_EEOT0_ONS_4pairIT_S8_EE, symObjAddr: 0x9BE0, symBinAddr: 0x10000A690, symSize: 0x20 }
  - { offset: 0x980FC, size: 0x8, addend: 0x0, symName: __ZN17QArrayDataPointerI7QStringEC2EP15QTypedArrayDataIS0_EPS0_x, symObjAddr: 0x9C00, symBinAddr: 0x10000A6B0, symSize: 0x40 }
  - { offset: 0x98150, size: 0x8, addend: 0x0, symName: __ZN6QFlagsIN10QArrayData11ArrayOptionEEC1ES1_, symObjAddr: 0x9C40, symBinAddr: 0x10000A6F0, symSize: 0x30 }
  - { offset: 0x98188, size: 0x8, addend: 0x0, symName: __ZN6QFlagsIN10QArrayData11ArrayOptionEEC2ES1_, symObjAddr: 0x9C70, symBinAddr: 0x10000A720, symSize: 0x30 }
  - { offset: 0x981C0, size: 0x8, addend: 0x0, symName: __ZNK17QArrayDataPointerI7QStringE9isMutableEv, symObjAddr: 0x9CA0, symBinAddr: 0x10000A750, symSize: 0x20 }
  - { offset: 0x981E6, size: 0x8, addend: 0x0, symName: __ZNK17QArrayDataPointerI7QStringE8isSharedEv, symObjAddr: 0x9CC0, symBinAddr: 0x10000A770, symSize: 0x40 }
  - { offset: 0x9820C, size: 0x8, addend: 0x0, symName: __ZNK10QArrayData8isSharedEv, symObjAddr: 0x9D00, symBinAddr: 0x10000A7B0, symSize: 0x30 }
  - { offset: 0x98231, size: 0x8, addend: 0x0, symName: __Z11qt_ptr_swapI15QTypedArrayDataI7QStringEEvRPT_S5_, symObjAddr: 0x9D30, symBinAddr: 0x10000A7E0, symSize: 0x40 }
  - { offset: 0x9827E, size: 0x8, addend: 0x0, symName: __Z11qt_ptr_swapI7QStringEvRPT_S3_, symObjAddr: 0x9D70, symBinAddr: 0x10000A820, symSize: 0x40 }
  - { offset: 0x982CC, size: 0x8, addend: 0x0, symName: __ZN17QArrayDataPointerI7QStringED2Ev, symObjAddr: 0x9DF0, symBinAddr: 0x10000A8A0, symSize: 0x50 }
  - { offset: 0x982F6, size: 0x8, addend: 0x0, symName: __ZN17QArrayDataPointerI7QStringE5derefEv, symObjAddr: 0x9E40, symBinAddr: 0x10000A8F0, symSize: 0x40 }
  - { offset: 0x9831C, size: 0x8, addend: 0x0, symName: __ZN9QtPrivate16QGenericArrayOpsI7QStringE10destroyAllEv, symObjAddr: 0x9E80, symBinAddr: 0x10000A930, symSize: 0x90 }
  - { offset: 0x98342, size: 0x8, addend: 0x0, symName: __ZN15QTypedArrayDataI7QStringE10deallocateEP10QArrayData, symObjAddr: 0x9F10, symBinAddr: 0x10000A9C0, symSize: 0x30 }
  - { offset: 0x98365, size: 0x8, addend: 0x0, symName: __ZN10QArrayData5derefEv, symObjAddr: 0x9F40, symBinAddr: 0x10000A9F0, symSize: 0x20 }
  - { offset: 0x9838B, size: 0x8, addend: 0x0, symName: __ZN19QBasicAtomicIntegerIiE5derefEv, symObjAddr: 0x9F60, symBinAddr: 0x10000AA10, symSize: 0x20 }
  - { offset: 0x983B1, size: 0x8, addend: 0x0, symName: __ZN10QAtomicOpsIiE5derefIiEEbRNSt3__16atomicIT_EE, symObjAddr: 0x9F80, symBinAddr: 0x10000AA30, symSize: 0x30 }
  - { offset: 0x983DE, size: 0x8, addend: 0x0, symName: __ZNSt3__113__atomic_baseIiLb1EE9fetch_subB9nqe210106EiNS_12memory_orderE, symObjAddr: 0x9FB0, symBinAddr: 0x10000AA60, symSize: 0x30 }
  - { offset: 0x98420, size: 0x8, addend: 0x0, symName: __ZN7QStringC2EOS_, symObjAddr: 0xA130, symBinAddr: 0x10000ABE0, symSize: 0x30 }
  - { offset: 0x98459, size: 0x8, addend: 0x0, symName: __ZN9QtPrivate16QMovableArrayOpsI7QStringE8InserterC2EP17QArrayDataPointerIS1_Exx, symObjAddr: 0xA160, symBinAddr: 0x10000AC10, symSize: 0x80 }
  - { offset: 0x984B0, size: 0x8, addend: 0x0, symName: __ZN9QtPrivate16QMovableArrayOpsI7QStringE8Inserter10verifyPostEv, symObjAddr: 0xA1E0, symBinAddr: 0x10000AC90, symSize: 0x40 }
  - { offset: 0x984D6, size: 0x8, addend: 0x0, symName: __ZN9QtPrivate16QMovableArrayOpsI7QStringE8InserterD2Ev, symObjAddr: 0xA220, symBinAddr: 0x10000ACD0, symSize: 0x30 }
  - { offset: 0x9851D, size: 0x8, addend: 0x0, symName: __ZN5QListI7QStringE8iteratorC1EPS0_, symObjAddr: 0xA250, symBinAddr: 0x10000AD00, symSize: 0x30 }
  - { offset: 0x98555, size: 0x8, addend: 0x0, symName: __ZN5QListI7QStringE8iteratorC2EPS0_, symObjAddr: 0xA280, symBinAddr: 0x10000AD30, symSize: 0x20 }
  - { offset: 0x9858D, size: 0x8, addend: 0x0, symName: __ZN5QListIS_I7QStringEE3endEv, symObjAddr: 0xA2A0, symBinAddr: 0x10000AD50, symSize: 0x40 }
  - { offset: 0x985B3, size: 0x8, addend: 0x0, symName: __ZNK5QListIS_I7QStringEE8iteratormiEx, symObjAddr: 0xA2E0, symBinAddr: 0x10000AD90, symSize: 0x40 }
  - { offset: 0x985E7, size: 0x8, addend: 0x0, symName: __ZNK5QListIS_I7QStringEE8iteratordeEv, symObjAddr: 0xA320, symBinAddr: 0x10000ADD0, symSize: 0x20 }
  - { offset: 0x9860D, size: 0x8, addend: 0x0, symName: __ZN5QListIS_I7QStringEE6detachEv, symObjAddr: 0xA340, symBinAddr: 0x10000ADF0, symSize: 0x20 }
  - { offset: 0x98633, size: 0x8, addend: 0x0, symName: __ZN17QArrayDataPointerI5QListI7QStringEEptEv, symObjAddr: 0xA360, symBinAddr: 0x10000AE10, symSize: 0x10 }
  - { offset: 0x98659, size: 0x8, addend: 0x0, symName: __ZN17QArrayDataPointerI5QListI7QStringEE3endEv, symObjAddr: 0xA370, symBinAddr: 0x10000AE20, symSize: 0x30 }
  - { offset: 0x9867F, size: 0x8, addend: 0x0, symName: __ZN5QListIS_I7QStringEE8iteratorC1EPS1_, symObjAddr: 0xA3A0, symBinAddr: 0x10000AE50, symSize: 0x30 }
  - { offset: 0x986B7, size: 0x8, addend: 0x0, symName: __ZN17QArrayDataPointerI5QListI7QStringEE6detachEPS3_, symObjAddr: 0xA3D0, symBinAddr: 0x10000AE80, symSize: 0x40 }
  - { offset: 0x986EB, size: 0x8, addend: 0x0, symName: __ZNK17QArrayDataPointerI5QListI7QStringEE11needsDetachEv, symObjAddr: 0xA410, symBinAddr: 0x10000AEC0, symSize: 0x40 }
  - { offset: 0x98711, size: 0x8, addend: 0x0, symName: __ZN17QArrayDataPointerI5QListI7QStringEE17reallocateAndGrowEN10QArrayData14GrowthPositionExPS3_, symObjAddr: 0xA450, symBinAddr: 0x10000AF00, symSize: 0x260 }
  - { offset: 0x9878C, size: 0x8, addend: 0x0, symName: __ZN9QtPrivate16QMovableArrayOpsI5QListI7QStringEE10reallocateExN10QArrayData16AllocationOptionE, symObjAddr: 0xA6B0, symBinAddr: 0x10000B160, symSize: 0x80 }
  - { offset: 0x987DF, size: 0x8, addend: 0x0, symName: __ZNK17QArrayDataPointerI5QListI7QStringEE22constAllocatedCapacityEv, symObjAddr: 0xA730, symBinAddr: 0x10000B1E0, symSize: 0x40 }
  - { offset: 0x98805, size: 0x8, addend: 0x0, symName: __ZNK17QArrayDataPointerI5QListI7QStringEE14freeSpaceAtEndEv, symObjAddr: 0xA770, symBinAddr: 0x10000B220, symSize: 0x60 }
  - { offset: 0x9882B, size: 0x8, addend: 0x0, symName: __ZN17QArrayDataPointerI5QListI7QStringEE12allocateGrowERKS3_xN10QArrayData14GrowthPositionE, symObjAddr: 0xA7D0, symBinAddr: 0x10000B280, symSize: 0x230 }
  - { offset: 0x988C6, size: 0x8, addend: 0x0, symName: __ZN17QArrayDataPointerI5QListI7QStringEE4dataEv, symObjAddr: 0xAA00, symBinAddr: 0x10000B4B0, symSize: 0x20 }
  - { offset: 0x988EC, size: 0x8, addend: 0x0, symName: __ZNK17QArrayDataPointerI5QListI7QStringEE16freeSpaceAtBeginEv, symObjAddr: 0xAA20, symBinAddr: 0x10000B4D0, symSize: 0x60 }
  - { offset: 0x98912, size: 0x8, addend: 0x0, symName: __ZN9QtPrivate16QGenericArrayOpsI5QListI7QStringEE10copyAppendEPKS3_S6_, symObjAddr: 0xAA80, symBinAddr: 0x10000B530, symSize: 0x150 }
  - { offset: 0x98965, size: 0x8, addend: 0x0, symName: __ZN17QArrayDataPointerI5QListI7QStringEE5beginEv, symObjAddr: 0xABD0, symBinAddr: 0x10000B680, symSize: 0x20 }
  - { offset: 0x9898B, size: 0x8, addend: 0x0, symName: __ZN9QtPrivate16QGenericArrayOpsI5QListI7QStringEE10moveAppendEPS3_S5_, symObjAddr: 0xABF0, symBinAddr: 0x10000B6A0, symSize: 0x150 }
  - { offset: 0x989DE, size: 0x8, addend: 0x0, symName: __ZN17QArrayDataPointerI5QListI7QStringEE4swapERS3_, symObjAddr: 0xAD40, symBinAddr: 0x10000B7F0, symSize: 0x60 }
  - { offset: 0x98A12, size: 0x8, addend: 0x0, symName: __ZN17QArrayDataPointerI5QListI7QStringEED1Ev, symObjAddr: 0xADA0, symBinAddr: 0x10000B850, symSize: 0x20 }
  - { offset: 0x98A3C, size: 0x8, addend: 0x0, symName: __ZN15QTypedArrayDataI5QListI7QStringEE19reallocateUnalignedEPS3_PS2_xN10QArrayData16AllocationOptionE, symObjAddr: 0xADC0, symBinAddr: 0x10000B870, symSize: 0x70 }
  - { offset: 0x98AA3, size: 0x8, addend: 0x0, symName: __ZNSt3__14pairIP15QTypedArrayDataI5QListI7QStringEEPS4_EC1B9nqe210106IS6_S7_Li0EEEOT_OT0_, symObjAddr: 0xAE30, symBinAddr: 0x10000B8E0, symSize: 0x30 }
  - { offset: 0x98B01, size: 0x8, addend: 0x0, symName: __ZNSt3__14pairIP15QTypedArrayDataI5QListI7QStringEEPS4_EC2B9nqe210106IS6_S7_Li0EEEOT_OT0_, symObjAddr: 0xAE60, symBinAddr: 0x10000B910, symSize: 0x30 }
  - { offset: 0x98B5F, size: 0x8, addend: 0x0, symName: __ZNK17QArrayDataPointerI5QListI7QStringEE14detachCapacityEx, symObjAddr: 0xAE90, symBinAddr: 0x10000B940, symSize: 0x50 }
  - { offset: 0x98B94, size: 0x8, addend: 0x0, symName: __ZN15QTypedArrayDataI5QListI7QStringEE8allocateExN10QArrayData16AllocationOptionE, symObjAddr: 0xAEE0, symBinAddr: 0x10000B990, symSize: 0x60 }
  - { offset: 0x98BE1, size: 0x8, addend: 0x0, symName: __ZN17QArrayDataPointerI5QListI7QStringEEC1EP15QTypedArrayDataIS2_EPS2_x, symObjAddr: 0xAF80, symBinAddr: 0x10000BA30, symSize: 0x40 }
  - { offset: 0x98C35, size: 0x8, addend: 0x0, symName: __ZNK17QArrayDataPointerI5QListI7QStringEE5flagsEv, symObjAddr: 0xAFC0, symBinAddr: 0x10000BA70, symSize: 0x40 }
  - { offset: 0x98C5B, size: 0x8, addend: 0x0, symName: __ZNSt3__110__get_pairILm0EE3getB9nqe210106IP15QTypedArrayDataI5QListI7QStringEEPS6_EEOT_ONS_4pairISA_T0_EE, symObjAddr: 0xB000, symBinAddr: 0x10000BAB0, symSize: 0x10 }
  - { offset: 0x98C91, size: 0x8, addend: 0x0, symName: __ZNSt3__110__get_pairILm1EE3getB9nqe210106IP15QTypedArrayDataI5QListI7QStringEEPS6_EEOT0_ONS_4pairIT_SA_EE, symObjAddr: 0xB010, symBinAddr: 0x10000BAC0, symSize: 0x20 }
  - { offset: 0x98CC7, size: 0x8, addend: 0x0, symName: __ZN17QArrayDataPointerI5QListI7QStringEEC2EP15QTypedArrayDataIS2_EPS2_x, symObjAddr: 0xB030, symBinAddr: 0x10000BAE0, symSize: 0x40 }
  - { offset: 0x98D1B, size: 0x8, addend: 0x0, symName: __ZN15QTypedArrayDataI5QListI7QStringEE9dataStartEP10QArrayDatax, symObjAddr: 0xB070, symBinAddr: 0x10000BB20, symSize: 0x80 }
  - { offset: 0x98D5A, size: 0x8, addend: 0x0, symName: __ZNK17QArrayDataPointerI5QListI7QStringEE9isMutableEv, symObjAddr: 0xB0F0, symBinAddr: 0x10000BBA0, symSize: 0x20 }
  - { offset: 0x98D80, size: 0x8, addend: 0x0, symName: __ZNK17QArrayDataPointerI5QListI7QStringEE8isSharedEv, symObjAddr: 0xB110, symBinAddr: 0x10000BBC0, symSize: 0x40 }
  - { offset: 0x98DA6, size: 0x8, addend: 0x0, symName: __ZN5QListI7QStringEC1ERKS1_, symObjAddr: 0xB150, symBinAddr: 0x10000BC00, symSize: 0x30 }
  - { offset: 0x98DDB, size: 0x8, addend: 0x0, symName: __ZN5QListI7QStringEC2ERKS1_, symObjAddr: 0xB180, symBinAddr: 0x10000BC30, symSize: 0x30 }
  - { offset: 0x98E10, size: 0x8, addend: 0x0, symName: __ZN17QArrayDataPointerI7QStringEC1ERKS1_, symObjAddr: 0xB1B0, symBinAddr: 0x10000BC60, symSize: 0x30 }
  - { offset: 0x98E48, size: 0x8, addend: 0x0, symName: __ZN17QArrayDataPointerI7QStringEC2ERKS1_, symObjAddr: 0xB1E0, symBinAddr: 0x10000BC90, symSize: 0x50 }
  - { offset: 0x98E80, size: 0x8, addend: 0x0, symName: __ZN17QArrayDataPointerI7QStringE3refEv, symObjAddr: 0xB230, symBinAddr: 0x10000BCE0, symSize: 0x30 }
  - { offset: 0x98EA6, size: 0x8, addend: 0x0, symName: __ZN5QListI7QStringEC1EOS1_, symObjAddr: 0xB260, symBinAddr: 0x10000BD10, symSize: 0x30 }
  - { offset: 0x98EDB, size: 0x8, addend: 0x0, symName: __ZN5QListI7QStringEC2EOS1_, symObjAddr: 0xB290, symBinAddr: 0x10000BD40, symSize: 0x30 }
  - { offset: 0x98F10, size: 0x8, addend: 0x0, symName: __ZN17QArrayDataPointerI7QStringEC1EOS1_, symObjAddr: 0xB2C0, symBinAddr: 0x10000BD70, symSize: 0x30 }
  - { offset: 0x98F48, size: 0x8, addend: 0x0, symName: __ZN17QArrayDataPointerI7QStringEC2EOS1_, symObjAddr: 0xB2F0, symBinAddr: 0x10000BDA0, symSize: 0x90 }
  - { offset: 0x98F7F, size: 0x8, addend: 0x0, symName: __Z11qt_ptr_swapI15QTypedArrayDataI5QListI7QStringEEEvRPT_S7_, symObjAddr: 0xB3E0, symBinAddr: 0x10000BE90, symSize: 0x40 }
  - { offset: 0x98FCC, size: 0x8, addend: 0x0, symName: __Z11qt_ptr_swapI5QListI7QStringEEvRPT_S5_, symObjAddr: 0xB420, symBinAddr: 0x10000BED0, symSize: 0x40 }
  - { offset: 0x9901A, size: 0x8, addend: 0x0, symName: __ZN17QArrayDataPointerI5QListI7QStringEED2Ev, symObjAddr: 0xB460, symBinAddr: 0x10000BF10, symSize: 0x50 }
  - { offset: 0x99044, size: 0x8, addend: 0x0, symName: __ZN17QArrayDataPointerI5QListI7QStringEE5derefEv, symObjAddr: 0xB4B0, symBinAddr: 0x10000BF60, symSize: 0x40 }
  - { offset: 0x9906A, size: 0x8, addend: 0x0, symName: __ZN9QtPrivate16QGenericArrayOpsI5QListI7QStringEE10destroyAllEv, symObjAddr: 0xB4F0, symBinAddr: 0x10000BFA0, symSize: 0x90 }
  - { offset: 0x99090, size: 0x8, addend: 0x0, symName: __ZN15QTypedArrayDataI5QListI7QStringEE10deallocateEP10QArrayData, symObjAddr: 0xB580, symBinAddr: 0x10000C030, symSize: 0x30 }
  - { offset: 0x990B3, size: 0x8, addend: 0x0, symName: __ZN5QListIS_I7QStringEE8iteratorC2EPS1_, symObjAddr: 0xB640, symBinAddr: 0x10000C0F0, symSize: 0x20 }
  - { offset: 0x990EA, size: 0x8, addend: 0x0, symName: __Z13comparesEqualRK7QString13QLatin1String, symObjAddr: 0xB660, symBinAddr: 0x10000C110, symSize: 0x80 }
  - { offset: 0x99128, size: 0x8, addend: 0x0, symName: __ZNK7QString4sizeEv, symObjAddr: 0xB6E0, symBinAddr: 0x10000C190, symSize: 0x50 }
  - { offset: 0x99182, size: 0x8, addend: 0x0, symName: __ZNK13QLatin1String4sizeEv, symObjAddr: 0xB730, symBinAddr: 0x10000C1E0, symSize: 0x20 }
  - { offset: 0x991A8, size: 0x8, addend: 0x0, symName: __ZN11QStringViewC1I7QStringLb1EEERKT_, symObjAddr: 0xB750, symBinAddr: 0x10000C200, symSize: 0x50 }
  - { offset: 0x991F9, size: 0x8, addend: 0x0, symName: __ZZNK7QString4sizeEvENKUlvE_clEv, symObjAddr: 0xB7A0, symBinAddr: 0x10000C250, symSize: 0x50 }
  - { offset: 0x99223, size: 0x8, addend: 0x0, symName: __ZNK7QString5beginEv, symObjAddr: 0xB7F0, symBinAddr: 0x10000C2A0, symSize: 0x20 }
  - { offset: 0x9924B, size: 0x8, addend: 0x0, symName: __ZN11QStringViewC1I5QCharLb1EEEPKT_x, symObjAddr: 0xB810, symBinAddr: 0x10000C2C0, symSize: 0x30 }
  - { offset: 0x992A0, size: 0x8, addend: 0x0, symName: __ZN11QStringViewC2I5QCharLb1EEEPKT_x, symObjAddr: 0xB840, symBinAddr: 0x10000C2F0, symSize: 0x90 }
  - { offset: 0x992F5, size: 0x8, addend: 0x0, symName: __ZN11QStringView10castHelperI5QCharEEPKDsPKT_, symObjAddr: 0xB8D0, symBinAddr: 0x10000C380, symSize: 0x10 }
  - { offset: 0x99321, size: 0x8, addend: 0x0, symName: __ZN13QLatin1StringC2EPKc, symObjAddr: 0xB8E0, symBinAddr: 0x10000C390, symSize: 0x50 }
  - { offset: 0x99359, size: 0x8, addend: 0x0, symName: __ZN5QListIS_I7QStringEE11emplaceBackIJS1_EEERS1_DpOT_, symObjAddr: 0xB980, symBinAddr: 0x10000C430, symSize: 0x70 }
  - { offset: 0x99399, size: 0x8, addend: 0x0, symName: __ZN9QtPrivate16QMovableArrayOpsI5QListI7QStringEE7emplaceIJS3_EEEvxDpOT_, symObjAddr: 0xB9F0, symBinAddr: 0x10000C4A0, symSize: 0x210 }
  - { offset: 0x99424, size: 0x8, addend: 0x0, symName: __ZN17QArrayDataPointerI5QListI7QStringEE13detachAndGrowEN10QArrayData14GrowthPositionExPPKS2_PS3_, symObjAddr: 0xBC00, symBinAddr: 0x10000C6B0, symSize: 0x100 }
  - { offset: 0x994BE, size: 0x8, addend: 0x0, symName: __ZN9QtPrivate16QMovableArrayOpsI5QListI7QStringEE8InserterC1EP17QArrayDataPointerIS3_Exx, symObjAddr: 0xBD00, symBinAddr: 0x10000C7B0, symSize: 0x40 }
  - { offset: 0x99515, size: 0x8, addend: 0x0, symName: __ZN9QtPrivate16QMovableArrayOpsI5QListI7QStringEE8Inserter9insertOneEOS3_, symObjAddr: 0xBD40, symBinAddr: 0x10000C7F0, symSize: 0x40 }
  - { offset: 0x9954A, size: 0x8, addend: 0x0, symName: __ZN9QtPrivate16QMovableArrayOpsI5QListI7QStringEE8InserterD1Ev, symObjAddr: 0xBD80, symBinAddr: 0x10000C830, symSize: 0x20 }
  - { offset: 0x99574, size: 0x8, addend: 0x0, symName: __ZN17QArrayDataPointerI5QListI7QStringEE20tryReadjustFreeSpaceEN10QArrayData14GrowthPositionExPPKS2_, symObjAddr: 0xBDA0, symBinAddr: 0x10000C850, symSize: 0x1E0 }
  - { offset: 0x99604, size: 0x8, addend: 0x0, symName: __ZN17QArrayDataPointerI5QListI7QStringEE8relocateExPPKS2_, symObjAddr: 0xBF80, symBinAddr: 0x10000CA30, symSize: 0x80 }
  - { offset: 0x9965D, size: 0x8, addend: 0x0, symName: __ZNKSt3__14lessIvEclB9nqe210106IRPK5QListI7QStringES8_EEDTltclsr3stdE7forwardIT_Efp_Eclsr3stdE7forwardIT0_Efp0_EEOS9_OSA_, symObjAddr: 0xC1D0, symBinAddr: 0x10000CC80, symSize: 0x30 }
  - { offset: 0x996B3, size: 0x8, addend: 0x0, symName: __ZNK17QArrayDataPointerI5QListI7QStringEE4dataEv, symObjAddr: 0xC200, symBinAddr: 0x10000CCB0, symSize: 0x20 }
  - { offset: 0x996D9, size: 0x8, addend: 0x0, symName: __ZNK17QArrayDataPointerI5QListI7QStringEE5beginEv, symObjAddr: 0xC250, symBinAddr: 0x10000CD00, symSize: 0x20 }
  - { offset: 0x996FF, size: 0x8, addend: 0x0, symName: __ZNK17QArrayDataPointerI5QListI7QStringEE3endEv, symObjAddr: 0xC270, symBinAddr: 0x10000CD20, symSize: 0x30 }
  - { offset: 0x99725, size: 0x8, addend: 0x0, symName: __ZN9QtPrivate16QMovableArrayOpsI5QListI7QStringEE8InserterC2EP17QArrayDataPointerIS3_Exx, symObjAddr: 0xC2A0, symBinAddr: 0x10000CD50, symSize: 0x80 }
  - { offset: 0x9977C, size: 0x8, addend: 0x0, symName: __ZN9QtPrivate16QMovableArrayOpsI5QListI7QStringEE8Inserter10verifyPostEv, symObjAddr: 0xC320, symBinAddr: 0x10000CDD0, symSize: 0x40 }
  - { offset: 0x997A2, size: 0x8, addend: 0x0, symName: __ZN9QtPrivate16QMovableArrayOpsI5QListI7QStringEE8InserterD2Ev, symObjAddr: 0xC360, symBinAddr: 0x10000CE10, symSize: 0x30 }
  - { offset: 0x997E9, size: 0x8, addend: 0x0, symName: __ZN6QDebug7noquoteEv, symObjAddr: 0xC400, symBinAddr: 0x10000CEB0, symSize: 0x20 }
  - { offset: 0x9980F, size: 0x8, addend: 0x0, symName: __ZN14QMessageLoggerC2EPKciS1_, symObjAddr: 0xC420, symBinAddr: 0x10000CED0, symSize: 0x40 }
  - { offset: 0x99863, size: 0x8, addend: 0x0, symName: __ZN18QMessageLogContextC1EPKciS1_S1_, symObjAddr: 0xC460, symBinAddr: 0x10000CF10, symSize: 0x40 }
  - { offset: 0x998C5, size: 0x8, addend: 0x0, symName: __ZN18QMessageLogContextC2EPKciS1_S1_, symObjAddr: 0xC4A0, symBinAddr: 0x10000CF50, symSize: 0x50 }
  - { offset: 0x9992D, size: 0x8, addend: 0x0, symName: __ZN14QByteArrayViewC1IPKcLb1EEERKT_, symObjAddr: 0xC4F0, symBinAddr: 0x10000CFA0, symSize: 0x70 }
  - { offset: 0x99974, size: 0x8, addend: 0x0, symName: __ZN6QDebug10maybeSpaceEv, symObjAddr: 0xC560, symBinAddr: 0x10000D010, symSize: 0x40 }
  - { offset: 0x9999A, size: 0x8, addend: 0x0, symName: __ZN14QByteArrayViewC1IcLb1EEEPKT_x, symObjAddr: 0xC5A0, symBinAddr: 0x10000D050, symSize: 0x30 }
  - { offset: 0x999EF, size: 0x8, addend: 0x0, symName: __ZN14QByteArrayViewC2IcLb1EEEPKT_x, symObjAddr: 0xC5D0, symBinAddr: 0x10000D080, symSize: 0x90 }
  - { offset: 0x99A44, size: 0x8, addend: 0x0, symName: __ZN14QByteArrayView10castHelperEPKc, symObjAddr: 0xC660, symBinAddr: 0x10000D110, symSize: 0x10 }
  - { offset: 0x99A67, size: 0x8, addend: 0x0, symName: __ZN14QSharedPointerIN5Tiled7TilesetEEC2Ev, symObjAddr: 0xC670, symBinAddr: 0x10000D120, symSize: 0x40 }
  - { offset: 0x99A91, size: 0x8, addend: 0x0, symName: __ZN2Qt23totally_ordered_wrapperIPN5Tiled7TilesetEEC1EDn, symObjAddr: 0xC6B0, symBinAddr: 0x10000D160, symSize: 0x30 }
  - { offset: 0x99AC7, size: 0x8, addend: 0x0, symName: __ZN2Qt23totally_ordered_wrapperIPN5Tiled7TilesetEEC1ES3_, symObjAddr: 0xC6E0, symBinAddr: 0x10000D190, symSize: 0x30 }
  - { offset: 0x99B00, size: 0x8, addend: 0x0, symName: __ZN2Qt23totally_ordered_wrapperIPN5Tiled7TilesetEEC2ES3_, symObjAddr: 0xC710, symBinAddr: 0x10000D1C0, symSize: 0x20 }
  - { offset: 0x99B39, size: 0x8, addend: 0x0, symName: __ZN5QListI14QSharedPointerIN5Tiled7TilesetEEEC2Ev, symObjAddr: 0xC730, symBinAddr: 0x10000D1E0, symSize: 0x20 }
  - { offset: 0x99B63, size: 0x8, addend: 0x0, symName: __ZN17QArrayDataPointerI14QSharedPointerIN5Tiled7TilesetEEEC1Ev, symObjAddr: 0xC750, symBinAddr: 0x10000D200, symSize: 0x20 }
  - { offset: 0x99B8D, size: 0x8, addend: 0x0, symName: __ZN17QArrayDataPointerI14QSharedPointerIN5Tiled7TilesetEEEC2Ev, symObjAddr: 0xC770, symBinAddr: 0x10000D220, symSize: 0x30 }
  - { offset: 0x99BB7, size: 0x8, addend: 0x0, symName: __ZNK10QByteArray4dataEv, symObjAddr: 0xC7A0, symBinAddr: 0x10000D250, symSize: 0x50 }
  - { offset: 0x99BDF, size: 0x8, addend: 0x0, symName: __ZNK17QArrayDataPointerIcE4dataEv, symObjAddr: 0xC7F0, symBinAddr: 0x10000D2A0, symSize: 0x20 }
  - { offset: 0x99C05, size: 0x8, addend: 0x0, symName: __ZN10QByteArrayD2Ev, symObjAddr: 0xC810, symBinAddr: 0x10000D2C0, symSize: 0x20 }
  - { offset: 0x99C31, size: 0x8, addend: 0x0, symName: __ZN17QArrayDataPointerIcED1Ev, symObjAddr: 0xC830, symBinAddr: 0x10000D2E0, symSize: 0x20 }
  - { offset: 0x99C5B, size: 0x8, addend: 0x0, symName: __ZN17QArrayDataPointerIcED2Ev, symObjAddr: 0xC850, symBinAddr: 0x10000D300, symSize: 0x40 }
  - { offset: 0x99C85, size: 0x8, addend: 0x0, symName: __ZN17QArrayDataPointerIcE5derefEv, symObjAddr: 0xC890, symBinAddr: 0x10000D340, symSize: 0x40 }
  - { offset: 0x99CAB, size: 0x8, addend: 0x0, symName: __ZN17QArrayDataPointerIcEptEv, symObjAddr: 0xC8D0, symBinAddr: 0x10000D380, symSize: 0x10 }
  - { offset: 0x99CD1, size: 0x8, addend: 0x0, symName: __ZN9QtPrivate12QPodArrayOpsIcE10destroyAllEv, symObjAddr: 0xC8E0, symBinAddr: 0x10000D390, symSize: 0x70 }
  - { offset: 0x99CF7, size: 0x8, addend: 0x0, symName: __ZN15QTypedArrayDataIcE10deallocateEP10QArrayData, symObjAddr: 0xC950, symBinAddr: 0x10000D400, symSize: 0x30 }
  - { offset: 0x99D1A, size: 0x8, addend: 0x0, symName: __ZNK4QMapIiPN5Tiled4TileEE5valueERKiRKS2_, symObjAddr: 0xC980, symBinAddr: 0x10000D430, symSize: 0xB0 }
  - { offset: 0x99D6D, size: 0x8, addend: 0x0, symName: __ZNK9QtPrivate30QExplicitlySharedDataPointerV2I8QMapDataINSt3__13mapIiPN5Tiled4TileENS2_4lessIiEENS2_9allocatorINS2_4pairIKiS6_EEEEEEEEcvbEv, symObjAddr: 0xCA30, symBinAddr: 0x10000D4E0, symSize: 0x30 }
  - { offset: 0x99D93, size: 0x8, addend: 0x0, symName: __ZNK9QtPrivate30QExplicitlySharedDataPointerV2I8QMapDataINSt3__13mapIiPN5Tiled4TileENS2_4lessIiEENS2_9allocatorINS2_4pairIKiS6_EEEEEEEEptEv, symObjAddr: 0xCA60, symBinAddr: 0x10000D510, symSize: 0x20 }
  - { offset: 0x99DB9, size: 0x8, addend: 0x0, symName: __ZNKSt3__13mapIiPN5Tiled4TileENS_4lessIiEENS_9allocatorINS_4pairIKiS3_EEEEE4findB9nqe210106ERS8_, symObjAddr: 0xCA80, symBinAddr: 0x10000D530, symSize: 0x40 }
  - { offset: 0x99DEE, size: 0x8, addend: 0x0, symName: __ZNKSt3__13mapIiPN5Tiled4TileENS_4lessIiEENS_9allocatorINS_4pairIKiS3_EEEEE4cendB9nqe210106Ev, symObjAddr: 0xCAF0, symBinAddr: 0x10000D5A0, symSize: 0x30 }
  - { offset: 0x99E14, size: 0x8, addend: 0x0, symName: __ZNKSt3__120__map_const_iteratorINS_21__tree_const_iteratorINS_12__value_typeIiPN5Tiled4TileEEEPNS_11__tree_nodeIS6_PvEElEEEptB9nqe210106Ev, symObjAddr: 0xCB20, symBinAddr: 0x10000D5D0, symSize: 0x30 }
  - { offset: 0x99E3A, size: 0x8, addend: 0x0, symName: __ZNK2Qt23totally_ordered_wrapperIP8QMapDataINSt3__13mapIiPN5Tiled4TileENS2_4lessIiEENS2_9allocatorINS2_4pairIKiS6_EEEEEEEE3getEv, symObjAddr: 0xCB50, symBinAddr: 0x10000D600, symSize: 0x20 }
  - { offset: 0x99E60, size: 0x8, addend: 0x0, symName: __ZNKSt3__16__treeINS_12__value_typeIiPN5Tiled4TileEEENS_19__map_value_compareIiNS_4pairIKiS4_EENS_4lessIiEELb1EEENS_9allocatorIS9_EEE4findIiEENS_21__tree_const_iteratorIS5_PNS_11__tree_nodeIS5_PvEElEERKT_, symObjAddr: 0xCB70, symBinAddr: 0x10000D620, symSize: 0xD0 }
  - { offset: 0x99EAD, size: 0x8, addend: 0x0, symName: __ZNSt3__120__map_const_iteratorINS_21__tree_const_iteratorINS_12__value_typeIiPN5Tiled4TileEEEPNS_11__tree_nodeIS6_PvEElEEEC1B9nqe210106ESB_, symObjAddr: 0xCC40, symBinAddr: 0x10000D6F0, symSize: 0x30 }
  - { offset: 0x99EE6, size: 0x8, addend: 0x0, symName: __ZNKSt3__16__treeINS_12__value_typeIiPN5Tiled4TileEEENS_19__map_value_compareIiNS_4pairIKiS4_EENS_4lessIiEELb1EEENS_9allocatorIS9_EEE13__lower_boundIiEENS_21__tree_const_iteratorIS5_PNS_11__tree_nodeIS5_PvEElEERKT_SL_PNS_15__tree_end_nodeIPNS_16__tree_node_baseISJ_EEEE, symObjAddr: 0xCC70, symBinAddr: 0x10000D720, symSize: 0x90 }
  - { offset: 0x99F42, size: 0x8, addend: 0x0, symName: __ZNKSt3__16__treeINS_12__value_typeIiPN5Tiled4TileEEENS_19__map_value_compareIiNS_4pairIKiS4_EENS_4lessIiEELb1EEENS_9allocatorIS9_EEE6__rootB9nqe210106Ev, symObjAddr: 0xCD00, symBinAddr: 0x10000D7B0, symSize: 0x20 }
  - { offset: 0x99F68, size: 0x8, addend: 0x0, symName: __ZNKSt3__16__treeINS_12__value_typeIiPN5Tiled4TileEEENS_19__map_value_compareIiNS_4pairIKiS4_EENS_4lessIiEELb1EEENS_9allocatorIS9_EEE10__end_nodeB9nqe210106Ev, symObjAddr: 0xCD20, symBinAddr: 0x10000D7D0, symSize: 0x20 }
  - { offset: 0x99F8E, size: 0x8, addend: 0x0, symName: __ZNKSt3__16__treeINS_12__value_typeIiPN5Tiled4TileEEENS_19__map_value_compareIiNS_4pairIKiS4_EENS_4lessIiEELb1EEENS_9allocatorIS9_EEE3endB9nqe210106Ev, symObjAddr: 0xCD70, symBinAddr: 0x10000D820, symSize: 0x30 }
  - { offset: 0x99FB4, size: 0x8, addend: 0x0, symName: __ZNKSt3__16__treeINS_12__value_typeIiPN5Tiled4TileEEENS_19__map_value_compareIiNS_4pairIKiS4_EENS_4lessIiEELb1EEENS_9allocatorIS9_EEE10value_compB9nqe210106Ev, symObjAddr: 0xCDA0, symBinAddr: 0x10000D850, symSize: 0x20 }
  - { offset: 0x99FDA, size: 0x8, addend: 0x0, symName: __ZNKSt3__119__map_value_compareIiNS_4pairIKiPN5Tiled4TileEEENS_4lessIiEELb1EEclB9nqe210106ERS2_RKS6_, symObjAddr: 0xCDC0, symBinAddr: 0x10000D870, symSize: 0x30 }
  - { offset: 0x9A01E, size: 0x8, addend: 0x0, symName: __ZNKSt3__121__tree_const_iteratorINS_12__value_typeIiPN5Tiled4TileEEEPNS_11__tree_nodeIS5_PvEElEdeB9nqe210106Ev, symObjAddr: 0xCDF0, symBinAddr: 0x10000D8A0, symSize: 0x20 }
  - { offset: 0x9A044, size: 0x8, addend: 0x0, symName: __ZNKSt3__119__map_value_compareIiNS_4pairIKiPN5Tiled4TileEEENS_4lessIiEELb1EEclB9nqe210106ERKS6_RS2_, symObjAddr: 0xCE10, symBinAddr: 0x10000D8C0, symSize: 0x30 }
  - { offset: 0x9A088, size: 0x8, addend: 0x0, symName: __ZNSt3__121__tree_const_iteratorINS_12__value_typeIiPN5Tiled4TileEEEPNS_11__tree_nodeIS5_PvEElEC1B9nqe210106EPNS_15__tree_end_nodeIPNS_16__tree_node_baseIS7_EEEE, symObjAddr: 0xCE40, symBinAddr: 0x10000D8F0, symSize: 0x30 }
  - { offset: 0x9A0C1, size: 0x8, addend: 0x0, symName: __ZNKSt3__14lessIiEclB9nqe210106ERKiS3_, symObjAddr: 0xCE70, symBinAddr: 0x10000D920, symSize: 0x30 }
  - { offset: 0x9A105, size: 0x8, addend: 0x0, symName: __ZNSt3__121__tree_const_iteratorINS_12__value_typeIiPN5Tiled4TileEEEPNS_11__tree_nodeIS5_PvEElEC2B9nqe210106EPNS_15__tree_end_nodeIPNS_16__tree_node_baseIS7_EEEE, symObjAddr: 0xCEA0, symBinAddr: 0x10000D950, symSize: 0x20 }
  - { offset: 0x9A144, size: 0x8, addend: 0x0, symName: __ZNSt3__114pointer_traitsIPNS_15__tree_end_nodeIPNS_16__tree_node_baseIPvEEEEE10pointer_toB9nqe210106ERS6_, symObjAddr: 0xCEC0, symBinAddr: 0x10000D970, symSize: 0x10 }
  - { offset: 0x9A167, size: 0x8, addend: 0x0, symName: __ZNKSt3__121__tree_const_iteratorINS_12__value_typeIiPN5Tiled4TileEEEPNS_11__tree_nodeIS5_PvEElE8__get_npB9nqe210106Ev, symObjAddr: 0xCF00, symBinAddr: 0x10000D9B0, symSize: 0x20 }
  - { offset: 0x9A18D, size: 0x8, addend: 0x0, symName: __ZNSt3__120__map_const_iteratorINS_21__tree_const_iteratorINS_12__value_typeIiPN5Tiled4TileEEEPNS_11__tree_nodeIS6_PvEElEEEC2B9nqe210106ESB_, symObjAddr: 0xCF20, symBinAddr: 0x10000D9D0, symSize: 0x20 }
  - { offset: 0x9A1C6, size: 0x8, addend: 0x0, symName: __ZNKSt3__13mapIiPN5Tiled4TileENS_4lessIiEENS_9allocatorINS_4pairIKiS3_EEEEE3endB9nqe210106Ev, symObjAddr: 0xCF40, symBinAddr: 0x10000D9F0, symSize: 0x30 }
  - { offset: 0x9A1EC, size: 0x8, addend: 0x0, symName: __ZNSt3__114pointer_traitsIPKNS_4pairIKiPN5Tiled4TileEEEE10pointer_toB9nqe210106ERS7_, symObjAddr: 0xCF70, symBinAddr: 0x10000DA20, symSize: 0x10 }
  - { offset: 0x9A20E, size: 0x8, addend: 0x0, symName: __Z6qAlphaj, symObjAddr: 0xCF80, symBinAddr: 0x10000DA30, symSize: 0x10 }
  - { offset: 0x9A23B, size: 0x8, addend: 0x0, symName: __ZNK5QListIPN5Tiled7WangSetEE4sizeEv, symObjAddr: 0xCF90, symBinAddr: 0x10000DA40, symSize: 0x50 }
  - { offset: 0x9A2A4, size: 0x8, addend: 0x0, symName: __ZZNK5QListIPN5Tiled7WangSetEE4sizeEvENKUlvE_clEv, symObjAddr: 0xCFE0, symBinAddr: 0x10000DA90, symSize: 0x50 }
  - { offset: 0x9A2CE, size: 0x8, addend: 0x0, symName: __ZN4QMapI16TileTerrainNamesPN5Tiled4TileEEC2Ev, symObjAddr: 0xD030, symBinAddr: 0x10000DAE0, symSize: 0x20 }
  - { offset: 0x9A2F8, size: 0x8, addend: 0x0, symName: __ZN9QtPrivate30QExplicitlySharedDataPointerV2I8QMapDataINSt3__13mapI16TileTerrainNamesPN5Tiled4TileENS2_4lessIS4_EENS2_9allocatorINS2_4pairIKS4_S7_EEEEEEEEC1Ev, symObjAddr: 0xD050, symBinAddr: 0x10000DB00, symSize: 0x20 }
  - { offset: 0x9A322, size: 0x8, addend: 0x0, symName: __ZN9QtPrivate30QExplicitlySharedDataPointerV2I8QMapDataINSt3__13mapI16TileTerrainNamesPN5Tiled4TileENS2_4lessIS4_EENS2_9allocatorINS2_4pairIKS4_S7_EEEEEEEEC2Ev, symObjAddr: 0xD070, symBinAddr: 0x10000DB20, symSize: 0x30 }
  - { offset: 0x9A34C, size: 0x8, addend: 0x0, symName: __ZN2Qt23totally_ordered_wrapperIP8QMapDataINSt3__13mapI16TileTerrainNamesPN5Tiled4TileENS2_4lessIS4_EENS2_9allocatorINS2_4pairIKS4_S7_EEEEEEEEC1EDn, symObjAddr: 0xD0A0, symBinAddr: 0x10000DB50, symSize: 0x30 }
  - { offset: 0x9A382, size: 0x8, addend: 0x0, symName: __ZN2Qt23totally_ordered_wrapperIP8QMapDataINSt3__13mapI16TileTerrainNamesPN5Tiled4TileENS2_4lessIS4_EENS2_9allocatorINS2_4pairIKS4_S7_EEEEEEEEC1ESH_, symObjAddr: 0xD0D0, symBinAddr: 0x10000DB80, symSize: 0x30 }
  - { offset: 0x9A3BB, size: 0x8, addend: 0x0, symName: __ZN2Qt23totally_ordered_wrapperIP8QMapDataINSt3__13mapI16TileTerrainNamesPN5Tiled4TileENS2_4lessIS4_EENS2_9allocatorINS2_4pairIKS4_S7_EEEEEEEEC2ESH_, symObjAddr: 0xD100, symBinAddr: 0x10000DBB0, symSize: 0x20 }
  - { offset: 0x9A3F4, size: 0x8, addend: 0x0, symName: __ZN4QMapI7QStringPN5Tiled9WangColorEEC2Ev, symObjAddr: 0xD120, symBinAddr: 0x10000DBD0, symSize: 0x20 }
  - { offset: 0x9A41E, size: 0x8, addend: 0x0, symName: __ZN9QtPrivate30QExplicitlySharedDataPointerV2I8QMapDataINSt3__13mapI7QStringPN5Tiled9WangColorENS2_4lessIS4_EENS2_9allocatorINS2_4pairIKS4_S7_EEEEEEEEC1Ev, symObjAddr: 0xD140, symBinAddr: 0x10000DBF0, symSize: 0x20 }
  - { offset: 0x9A448, size: 0x8, addend: 0x0, symName: __ZN9QtPrivate30QExplicitlySharedDataPointerV2I8QMapDataINSt3__13mapI7QStringPN5Tiled9WangColorENS2_4lessIS4_EENS2_9allocatorINS2_4pairIKS4_S7_EEEEEEEEC2Ev, symObjAddr: 0xD160, symBinAddr: 0x10000DC10, symSize: 0x30 }
  - { offset: 0x9A472, size: 0x8, addend: 0x0, symName: __ZN2Qt23totally_ordered_wrapperIP8QMapDataINSt3__13mapI7QStringPN5Tiled9WangColorENS2_4lessIS4_EENS2_9allocatorINS2_4pairIKS4_S7_EEEEEEEEC1EDn, symObjAddr: 0xD190, symBinAddr: 0x10000DC40, symSize: 0x30 }
  - { offset: 0x9A4A8, size: 0x8, addend: 0x0, symName: __ZN2Qt23totally_ordered_wrapperIP8QMapDataINSt3__13mapI7QStringPN5Tiled9WangColorENS2_4lessIS4_EENS2_9allocatorINS2_4pairIKS4_S7_EEEEEEEEC1ESH_, symObjAddr: 0xD1C0, symBinAddr: 0x10000DC70, symSize: 0x30 }
  - { offset: 0x9A4E1, size: 0x8, addend: 0x0, symName: __ZN2Qt23totally_ordered_wrapperIP8QMapDataINSt3__13mapI7QStringPN5Tiled9WangColorENS2_4lessIS4_EENS2_9allocatorINS2_4pairIKS4_S7_EEEEEEEEC2ESH_, symObjAddr: 0xD1F0, symBinAddr: 0x10000DCA0, symSize: 0x20 }
  - { offset: 0x9A519, size: 0x8, addend: 0x0, symName: __ZL6nameOfiRKN5Tiled7WangSetE, symObjAddr: 0xD210, symBinAddr: 0x10000DCC0, symSize: 0x60 }
  - { offset: 0x9A554, size: 0x8, addend: 0x0, symName: __ZNK5Tiled7WangSet7colorAtEi, symObjAddr: 0xD270, symBinAddr: 0x10000DD20, symSize: 0x70 }
  - { offset: 0x9A58B, size: 0x8, addend: 0x0, symName: __ZNK5Tiled7WangSet10colorCountEv, symObjAddr: 0xD2E0, symBinAddr: 0x10000DD90, symSize: 0x30 }
  - { offset: 0x9A5B3, size: 0x8, addend: 0x0, symName: __ZNK5QListI14QSharedPointerIN5Tiled9WangColorEEE2atEx, symObjAddr: 0xD310, symBinAddr: 0x10000DDC0, symSize: 0x70 }
  - { offset: 0x9A5E8, size: 0x8, addend: 0x0, symName: __ZNK5QListI14QSharedPointerIN5Tiled9WangColorEEE4sizeEv, symObjAddr: 0xD380, symBinAddr: 0x10000DE30, symSize: 0x50 }
  - { offset: 0x9A651, size: 0x8, addend: 0x0, symName: __ZZNK5QListI14QSharedPointerIN5Tiled9WangColorEEE4sizeEvENKUlvE_clEv, symObjAddr: 0xD3D0, symBinAddr: 0x10000DE80, symSize: 0x50 }
  - { offset: 0x9A67B, size: 0x8, addend: 0x0, symName: __ZNK17QArrayDataPointerI14QSharedPointerIN5Tiled9WangColorEEEptEv, symObjAddr: 0xD420, symBinAddr: 0x10000DED0, symSize: 0x10 }
  - { offset: 0x9A6A1, size: 0x8, addend: 0x0, symName: __ZNK5QListI14QSharedPointerIN5Tiled9WangColorEEE4dataEv, symObjAddr: 0xD430, symBinAddr: 0x10000DEE0, symSize: 0x30 }
  - { offset: 0x9A6C7, size: 0x8, addend: 0x0, symName: __ZNK17QArrayDataPointerI14QSharedPointerIN5Tiled9WangColorEEE4dataEv, symObjAddr: 0xD460, symBinAddr: 0x10000DF10, symSize: 0x20 }
  - { offset: 0x9A6ED, size: 0x8, addend: 0x0, symName: __ZN16TileTerrainNamesD2Ev, symObjAddr: 0xD480, symBinAddr: 0x10000DF30, symSize: 0x50 }
  - { offset: 0x9A719, size: 0x8, addend: 0x0, symName: __ZNK5QListIS_I7QStringEE4sizeEv, symObjAddr: 0xD4D0, symBinAddr: 0x10000DF80, symSize: 0x50 }
  - { offset: 0x9A782, size: 0x8, addend: 0x0, symName: __ZZNK5QListIS_I7QStringEE4sizeEvENKUlvE_clEv, symObjAddr: 0xD520, symBinAddr: 0x10000DFD0, symSize: 0x50 }
  - { offset: 0x9A7AC, size: 0x8, addend: 0x0, symName: __ZN15TerrainLessThanC2Ev, symObjAddr: 0xD570, symBinAddr: 0x10000E020, symSize: 0x20 }
  - { offset: 0x9A7D9, size: 0x8, addend: 0x0, symName: __ZN4QMapI7QStringiEC1Ev, symObjAddr: 0xD590, symBinAddr: 0x10000E040, symSize: 0x20 }
  - { offset: 0x9A803, size: 0x8, addend: 0x0, symName: __ZN4QMapI7QStringiEC2Ev, symObjAddr: 0xD5B0, symBinAddr: 0x10000E060, symSize: 0x20 }
  - { offset: 0x9A82D, size: 0x8, addend: 0x0, symName: __ZN9QtPrivate30QExplicitlySharedDataPointerV2I8QMapDataINSt3__13mapI7QStringiNS2_4lessIS4_EENS2_9allocatorINS2_4pairIKS4_iEEEEEEEEC1Ev, symObjAddr: 0xD5D0, symBinAddr: 0x10000E080, symSize: 0x20 }
  - { offset: 0x9A857, size: 0x8, addend: 0x0, symName: __ZN9QtPrivate30QExplicitlySharedDataPointerV2I8QMapDataINSt3__13mapI7QStringiNS2_4lessIS4_EENS2_9allocatorINS2_4pairIKS4_iEEEEEEEEC2Ev, symObjAddr: 0xD5F0, symBinAddr: 0x10000E0A0, symSize: 0x30 }
  - { offset: 0x9A881, size: 0x8, addend: 0x0, symName: __ZN2Qt23totally_ordered_wrapperIP8QMapDataINSt3__13mapI7QStringiNS2_4lessIS4_EENS2_9allocatorINS2_4pairIKS4_iEEEEEEEEC1EDn, symObjAddr: 0xD620, symBinAddr: 0x10000E0D0, symSize: 0x30 }
  - { offset: 0x9A8B7, size: 0x8, addend: 0x0, symName: __ZN2Qt23totally_ordered_wrapperIP8QMapDataINSt3__13mapI7QStringiNS2_4lessIS4_EENS2_9allocatorINS2_4pairIKS4_iEEEEEEEEC1ESE_, symObjAddr: 0xD650, symBinAddr: 0x10000E100, symSize: 0x30 }
  - { offset: 0x9A8F0, size: 0x8, addend: 0x0, symName: __ZN2Qt23totally_ordered_wrapperIP8QMapDataINSt3__13mapI7QStringiNS2_4lessIS4_EENS2_9allocatorINS2_4pairIKS4_iEEEEEEEEC2ESE_, symObjAddr: 0xD680, symBinAddr: 0x10000E130, symSize: 0x20 }
  - { offset: 0x9A929, size: 0x8, addend: 0x0, symName: __ZN6QDebugC2ERKS_, symObjAddr: 0xD6A0, symBinAddr: 0x10000E150, symSize: 0x30 }
  - { offset: 0x9A961, size: 0x8, addend: 0x0, symName: __ZNK7QString9constDataEv, symObjAddr: 0xD6D0, symBinAddr: 0x10000E180, symSize: 0x20 }
  - { offset: 0x9A989, size: 0x8, addend: 0x0, symName: __ZNK7QString4dataEv, symObjAddr: 0xD6F0, symBinAddr: 0x10000E1A0, symSize: 0x50 }
  - { offset: 0x9A9B1, size: 0x8, addend: 0x0, symName: __ZNK5QListIPN5Tiled7WangSetEEixEx, symObjAddr: 0xD740, symBinAddr: 0x10000E1F0, symSize: 0x30 }
  - { offset: 0x9A9E6, size: 0x8, addend: 0x0, symName: __ZNK5QListIPN5Tiled7WangSetEE2atEx, symObjAddr: 0xD770, symBinAddr: 0x10000E220, symSize: 0x70 }
  - { offset: 0x9AA1B, size: 0x8, addend: 0x0, symName: __ZNK17QArrayDataPointerIPN5Tiled7WangSetEEptEv, symObjAddr: 0xD7E0, symBinAddr: 0x10000E290, symSize: 0x10 }
  - { offset: 0x9AA41, size: 0x8, addend: 0x0, symName: __ZNK5QListIPN5Tiled7WangSetEE4dataEv, symObjAddr: 0xD7F0, symBinAddr: 0x10000E2A0, symSize: 0x30 }
  - { offset: 0x9AA67, size: 0x8, addend: 0x0, symName: __ZNK17QArrayDataPointerIPN5Tiled7WangSetEE4dataEv, symObjAddr: 0xD820, symBinAddr: 0x10000E2D0, symSize: 0x20 }
  - { offset: 0x9AA8D, size: 0x8, addend: 0x0, symName: __ZN17TerrainSetBuilderC2ERN5Tiled7WangSetE, symObjAddr: 0xD840, symBinAddr: 0x10000E2F0, symSize: 0x20 }
  - { offset: 0x9AAC6, size: 0x8, addend: 0x0, symName: __ZN5QListIPN5Tiled9WangColorEEC2Ev, symObjAddr: 0xD860, symBinAddr: 0x10000E310, symSize: 0x20 }
  - { offset: 0x9AAF0, size: 0x8, addend: 0x0, symName: __ZN17QArrayDataPointerIPN5Tiled9WangColorEEC1Ev, symObjAddr: 0xD880, symBinAddr: 0x10000E330, symSize: 0x20 }
  - { offset: 0x9AB1A, size: 0x8, addend: 0x0, symName: __ZN17QArrayDataPointerIPN5Tiled9WangColorEEC2Ev, symObjAddr: 0xD8A0, symBinAddr: 0x10000E350, symSize: 0x30 }
  - { offset: 0x9AB43, size: 0x8, addend: 0x0, symName: __ZeqRK7QStringS1_, symObjAddr: 0xD8D0, symBinAddr: 0x10000E380, symSize: 0x30 }
  - { offset: 0x9AB96, size: 0x8, addend: 0x0, symName: __Z13comparesEqualRK7QStringS1_, symObjAddr: 0xD900, symBinAddr: 0x10000E3B0, symSize: 0x40 }
  - { offset: 0x9ABD3, size: 0x8, addend: 0x0, symName: __Z13comparesEqualRK11QStringViewS1_, symObjAddr: 0xD940, symBinAddr: 0x10000E3F0, symSize: 0x80 }
  - { offset: 0x9AC11, size: 0x8, addend: 0x0, symName: __ZNK11QStringView4sizeEv, symObjAddr: 0xD9C0, symBinAddr: 0x10000E470, symSize: 0x20 }
  - { offset: 0x9AC43, size: 0x8, addend: 0x0, symName: __ZN14QSharedPointerIN5Tiled9WangColorEE6createIJi7QString6QColoridEEES2_DpOT_, symObjAddr: 0xD9E0, symBinAddr: 0x10000E490, symSize: 0x130 }
  - { offset: 0x9AD00, size: 0x8, addend: 0x0, symName: __ZNK5Tiled9WangColor5colorEv, symObjAddr: 0xDB10, symBinAddr: 0x10000E5C0, symSize: 0x20 }
  - { offset: 0x9AD26, size: 0x8, addend: 0x0, symName: __ZNK5Tiled9WangColor11probabilityEv, symObjAddr: 0xDB30, symBinAddr: 0x10000E5E0, symSize: 0x20 }
  - { offset: 0x9AD4C, size: 0x8, addend: 0x0, symName: __ZN14QSharedPointerIN5Tiled9WangColorEED1Ev, symObjAddr: 0xDB50, symBinAddr: 0x10000E600, symSize: 0x20 }
  - { offset: 0x9AD76, size: 0x8, addend: 0x0, symName: __ZN15QtSharedPointer34ExternalRefCountWithContiguousDataIN5Tiled9WangColorEE7deleterEPNS_20ExternalRefCountDataE, symObjAddr: 0xDB70, symBinAddr: 0x10000E620, symSize: 0x30 }
  - { offset: 0x9ADA7, size: 0x8, addend: 0x0, symName: __ZN15QtSharedPointer34ExternalRefCountWithContiguousDataIN5Tiled9WangColorEE9noDeleterEPNS_20ExternalRefCountDataE, symObjAddr: 0xDBA0, symBinAddr: 0x10000E650, symSize: 0x10 }
  - { offset: 0x9ADC6, size: 0x8, addend: 0x0, symName: __ZN14QSharedPointerIN5Tiled9WangColorEEC1EN2Qt14InitializationE, symObjAddr: 0xDBB0, symBinAddr: 0x10000E660, symSize: 0x30 }
  - { offset: 0x9ADFC, size: 0x8, addend: 0x0, symName: __ZN15QtSharedPointer34ExternalRefCountWithContiguousDataIN5Tiled9WangColorEE6createEPPS2_PFvPNS_20ExternalRefCountDataEE, symObjAddr: 0xDBE0, symBinAddr: 0x10000E690, symSize: 0xA0 }
  - { offset: 0x9AE3B, size: 0x8, addend: 0x0, symName: __ZN2Qt23totally_ordered_wrapperIPN5Tiled9WangColorEE5resetES3_, symObjAddr: 0xDC80, symBinAddr: 0x10000E730, symSize: 0x20 }
  - { offset: 0x9AE70, size: 0x8, addend: 0x0, symName: __ZN15QtSharedPointer20ExternalRefCountData16setQObjectSharedEz, symObjAddr: 0xDCA0, symBinAddr: 0x10000E750, symSize: 0x10 }
  - { offset: 0x9AE98, size: 0x8, addend: 0x0, symName: __ZNK2Qt23totally_ordered_wrapperIPN5Tiled9WangColorEE3getEv, symObjAddr: 0xDCB0, symBinAddr: 0x10000E760, symSize: 0x20 }
  - { offset: 0x9AEBE, size: 0x8, addend: 0x0, symName: __ZN14QSharedPointerIN5Tiled9WangColorEE20enableSharedFromThisEz, symObjAddr: 0xDCD0, symBinAddr: 0x10000E780, symSize: 0x10 }
  - { offset: 0x9AEE6, size: 0x8, addend: 0x0, symName: __ZN5Tiled9WangColorD1Ev, symObjAddr: 0xDCE0, symBinAddr: 0x10000E790, symSize: 0x20 }
  - { offset: 0x9AF12, size: 0x8, addend: 0x0, symName: __ZN5Tiled9WangColorD2Ev, symObjAddr: 0xDD00, symBinAddr: 0x10000E7B0, symSize: 0x50 }
  - { offset: 0x9AF3E, size: 0x8, addend: 0x0, symName: __ZN5QListIiED1Ev, symObjAddr: 0xDD50, symBinAddr: 0x10000E800, symSize: 0x20 }
  - { offset: 0x9AF6A, size: 0x8, addend: 0x0, symName: __ZN5Tiled9WangColorD0Ev, symObjAddr: 0xDD70, symBinAddr: 0x10000E820, symSize: 0x30 }
  - { offset: 0x9AF96, size: 0x8, addend: 0x0, symName: __ZN5QListIiED2Ev, symObjAddr: 0xDDA0, symBinAddr: 0x10000E850, symSize: 0x20 }
  - { offset: 0x9AFC2, size: 0x8, addend: 0x0, symName: __ZN17QArrayDataPointerIiED1Ev, symObjAddr: 0xDDC0, symBinAddr: 0x10000E870, symSize: 0x20 }
  - { offset: 0x9AFEC, size: 0x8, addend: 0x0, symName: __ZN17QArrayDataPointerIiED2Ev, symObjAddr: 0xDDE0, symBinAddr: 0x10000E890, symSize: 0x40 }
  - { offset: 0x9B016, size: 0x8, addend: 0x0, symName: __ZN17QArrayDataPointerIiE5derefEv, symObjAddr: 0xDE20, symBinAddr: 0x10000E8D0, symSize: 0x40 }
  - { offset: 0x9B03C, size: 0x8, addend: 0x0, symName: __ZN17QArrayDataPointerIiEptEv, symObjAddr: 0xDE60, symBinAddr: 0x10000E910, symSize: 0x10 }
  - { offset: 0x9B062, size: 0x8, addend: 0x0, symName: __ZN9QtPrivate12QPodArrayOpsIiE10destroyAllEv, symObjAddr: 0xDE70, symBinAddr: 0x10000E920, symSize: 0x70 }
  - { offset: 0x9B088, size: 0x8, addend: 0x0, symName: __ZN15QTypedArrayDataIiE10deallocateEP10QArrayData, symObjAddr: 0xDEE0, symBinAddr: 0x10000E990, symSize: 0x30 }
  - { offset: 0x9B0AB, size: 0x8, addend: 0x0, symName: __ZN14QSharedPointerIN5Tiled9WangColorEEC2EN2Qt14InitializationE, symObjAddr: 0xDF10, symBinAddr: 0x10000E9C0, symSize: 0x10 }
  - { offset: 0x9B0E1, size: 0x8, addend: 0x0, symName: __ZN15QtSharedPointer20ExternalRefCountDatanwEmPv, symObjAddr: 0xDF20, symBinAddr: 0x10000E9D0, symSize: 0x20 }
  - { offset: 0x9B10E, size: 0x8, addend: 0x0, symName: __ZN15QtSharedPointer20ExternalRefCountDataC1EPFvPS0_E, symObjAddr: 0xDF40, symBinAddr: 0x10000E9F0, symSize: 0x30 }
  - { offset: 0x9B146, size: 0x8, addend: 0x0, symName: __ZN15QtSharedPointer20ExternalRefCountDatadlEPvS1_, symObjAddr: 0xDF70, symBinAddr: 0x10000EA20, symSize: 0x10 }
  - { offset: 0x9B16F, size: 0x8, addend: 0x0, symName: __ZN15QtSharedPointer20ExternalRefCountDataC2EPFvPS0_E, symObjAddr: 0xDF80, symBinAddr: 0x10000EA30, symSize: 0x50 }
  - { offset: 0x9B1A7, size: 0x8, addend: 0x0, symName: __ZN19QBasicAtomicIntegerIiE12storeRelaxedEi, symObjAddr: 0xDFD0, symBinAddr: 0x10000EA80, symSize: 0x30 }
  - { offset: 0x9B1DB, size: 0x8, addend: 0x0, symName: __ZN10QAtomicOpsIiE12storeRelaxedIiEEvRNSt3__16atomicIT_EES4_, symObjAddr: 0xE000, symBinAddr: 0x10000EAB0, symSize: 0x30 }
  - { offset: 0x9B215, size: 0x8, addend: 0x0, symName: __ZNSt3__113__atomic_baseIiLb0EE5storeB9nqe210106EiNS_12memory_orderE, symObjAddr: 0xE030, symBinAddr: 0x10000EAE0, symSize: 0x30 }
  - { offset: 0x9B257, size: 0x8, addend: 0x0, symName: __ZN14QSharedPointerIN5Tiled9WangColorEED2Ev, symObjAddr: 0xE0C0, symBinAddr: 0x10000EB70, symSize: 0x20 }
  - { offset: 0x9B281, size: 0x8, addend: 0x0, symName: __ZN14QSharedPointerIN5Tiled9WangColorEE5derefEv, symObjAddr: 0xE0E0, symBinAddr: 0x10000EB90, symSize: 0x20 }
  - { offset: 0x9B2A7, size: 0x8, addend: 0x0, symName: __ZN14QSharedPointerIN5Tiled9WangColorEE5derefEPN15QtSharedPointer20ExternalRefCountDataE, symObjAddr: 0xE100, symBinAddr: 0x10000EBB0, symSize: 0x70 }
  - { offset: 0x9B2CB, size: 0x8, addend: 0x0, symName: __ZN15QtSharedPointer20ExternalRefCountData7destroyEv, symObjAddr: 0xE170, symBinAddr: 0x10000EC20, symSize: 0x20 }
  - { offset: 0x9B2F1, size: 0x8, addend: 0x0, symName: __ZN15QtSharedPointer20ExternalRefCountDataD1Ev, symObjAddr: 0xE190, symBinAddr: 0x10000EC40, symSize: 0x20 }
  - { offset: 0x9B31B, size: 0x8, addend: 0x0, symName: __ZN15QtSharedPointer20ExternalRefCountDatadlEPv, symObjAddr: 0xE1B0, symBinAddr: 0x10000EC60, symSize: 0x20 }
  - { offset: 0x9B33E, size: 0x8, addend: 0x0, symName: __ZN15QtSharedPointer20ExternalRefCountDataD2Ev, symObjAddr: 0xE1D0, symBinAddr: 0x10000EC80, symSize: 0x70 }
  - { offset: 0x9B368, size: 0x8, addend: 0x0, symName: __ZN5QRectC2Ev, symObjAddr: 0xE240, symBinAddr: 0x10000ECF0, symSize: 0x60 }
  - { offset: 0x9B392, size: 0x8, addend: 0x0, symName: __ZN9QtPrivate16QCheckedIntegers11QCheckedIntIiNS0_13SafeCheckImplIiEENS0_18AssertReportPolicyEEC1Ei, symObjAddr: 0xE2A0, symBinAddr: 0x10000ED50, symSize: 0x30 }
  - { offset: 0x9B3CA, size: 0x8, addend: 0x0, symName: __ZN9QtPrivate16QCheckedIntegers11QCheckedIntIiNS0_13SafeCheckImplIiEENS0_18AssertReportPolicyEEC2Ei, symObjAddr: 0xE2D0, symBinAddr: 0x10000ED80, symSize: 0x20 }
  - { offset: 0x9B402, size: 0x8, addend: 0x0, symName: __ZN5Tiled6WangIdC1Ey, symObjAddr: 0xE2F0, symBinAddr: 0x10000EDA0, symSize: 0x30 }
  - { offset: 0x9B43A, size: 0x8, addend: 0x0, symName: __ZNK17TerrainSetBuilder9terrainIdERK7QString, symObjAddr: 0xE320, symBinAddr: 0x10000EDD0, symSize: 0xD0 }
  - { offset: 0x9B4C1, size: 0x8, addend: 0x0, symName: __ZN5Tiled6WangIdC2Ey, symObjAddr: 0xE3F0, symBinAddr: 0x10000EEA0, symSize: 0x20 }
  - { offset: 0x9B4F9, size: 0x8, addend: 0x0, symName: __ZNK5Tiled9WangColor10colorIndexEv, symObjAddr: 0xE410, symBinAddr: 0x10000EEC0, symSize: 0x20 }
  - { offset: 0x9B51F, size: 0x8, addend: 0x0, symName: __ZN5QListI16TileTerrainNamesEC2Ev, symObjAddr: 0xE430, symBinAddr: 0x10000EEE0, symSize: 0x20 }
  - { offset: 0x9B549, size: 0x8, addend: 0x0, symName: __ZN17QArrayDataPointerI16TileTerrainNamesEC1Ev, symObjAddr: 0xE450, symBinAddr: 0x10000EF00, symSize: 0x20 }
  - { offset: 0x9B573, size: 0x8, addend: 0x0, symName: __ZN17QArrayDataPointerI16TileTerrainNamesEC2Ev, symObjAddr: 0xE470, symBinAddr: 0x10000EF20, symSize: 0x30 }
  - { offset: 0x9B59D, size: 0x8, addend: 0x0, symName: __ZN16TileTerrainNamesC2ERK7QStringS2_S2_S2_, symObjAddr: 0xE4A0, symBinAddr: 0x10000EF50, symSize: 0x70 }
  - { offset: 0x9B5FF, size: 0x8, addend: 0x0, symName: __ZN5QListIPN5Tiled9WangColorEED2Ev, symObjAddr: 0xE510, symBinAddr: 0x10000EFC0, symSize: 0x20 }
  - { offset: 0x9B62B, size: 0x8, addend: 0x0, symName: __ZN17QArrayDataPointerIPN5Tiled9WangColorEED1Ev, symObjAddr: 0xE530, symBinAddr: 0x10000EFE0, symSize: 0x20 }
  - { offset: 0x9B655, size: 0x8, addend: 0x0, symName: __ZN17QArrayDataPointerIPN5Tiled9WangColorEED2Ev, symObjAddr: 0xE550, symBinAddr: 0x10000F000, symSize: 0x40 }
  - { offset: 0x9B67F, size: 0x8, addend: 0x0, symName: __ZN17QArrayDataPointerIPN5Tiled9WangColorEE5derefEv, symObjAddr: 0xE590, symBinAddr: 0x10000F040, symSize: 0x40 }
  - { offset: 0x9B6A5, size: 0x8, addend: 0x0, symName: __ZN17QArrayDataPointerIPN5Tiled9WangColorEEptEv, symObjAddr: 0xE5D0, symBinAddr: 0x10000F080, symSize: 0x10 }
  - { offset: 0x9B6CB, size: 0x8, addend: 0x0, symName: __ZN9QtPrivate12QPodArrayOpsIPN5Tiled9WangColorEE10destroyAllEv, symObjAddr: 0xE5E0, symBinAddr: 0x10000F090, symSize: 0x70 }
  - { offset: 0x9B6F1, size: 0x8, addend: 0x0, symName: __ZN15QTypedArrayDataIPN5Tiled9WangColorEE10deallocateEP10QArrayData, symObjAddr: 0xE650, symBinAddr: 0x10000F100, symSize: 0x30 }
  - { offset: 0x9B714, size: 0x8, addend: 0x0, symName: __ZN4QMapI7QString8QVariantEC2Ev, symObjAddr: 0xE680, symBinAddr: 0x10000F130, symSize: 0x20 }
  - { offset: 0x9B73E, size: 0x8, addend: 0x0, symName: __ZN9QtPrivate30QExplicitlySharedDataPointerV2I8QMapDataINSt3__13mapI7QString8QVariantNS2_4lessIS4_EENS2_9allocatorINS2_4pairIKS4_S5_EEEEEEEEC1Ev, symObjAddr: 0xE6A0, symBinAddr: 0x10000F150, symSize: 0x20 }
  - { offset: 0x9B768, size: 0x8, addend: 0x0, symName: __ZN9QtPrivate30QExplicitlySharedDataPointerV2I8QMapDataINSt3__13mapI7QString8QVariantNS2_4lessIS4_EENS2_9allocatorINS2_4pairIKS4_S5_EEEEEEEEC2Ev, symObjAddr: 0xE6C0, symBinAddr: 0x10000F170, symSize: 0x30 }
  - { offset: 0x9B792, size: 0x8, addend: 0x0, symName: __ZN2Qt23totally_ordered_wrapperIP8QMapDataINSt3__13mapI7QString8QVariantNS2_4lessIS4_EENS2_9allocatorINS2_4pairIKS4_S5_EEEEEEEEC1EDn, symObjAddr: 0xE6F0, symBinAddr: 0x10000F1A0, symSize: 0x30 }
  - { offset: 0x9B7C8, size: 0x8, addend: 0x0, symName: __ZN2Qt23totally_ordered_wrapperIP8QMapDataINSt3__13mapI7QString8QVariantNS2_4lessIS4_EENS2_9allocatorINS2_4pairIKS4_S5_EEEEEEEEC1ESF_, symObjAddr: 0xE720, symBinAddr: 0x10000F1D0, symSize: 0x30 }
  - { offset: 0x9B801, size: 0x8, addend: 0x0, symName: __ZN2Qt23totally_ordered_wrapperIP8QMapDataINSt3__13mapI7QString8QVariantNS2_4lessIS4_EENS2_9allocatorINS2_4pairIKS4_S5_EEEEEEEEC2ESF_, symObjAddr: 0xE750, symBinAddr: 0x10000F200, symSize: 0x20 }
  - { offset: 0x9B83A, size: 0x8, addend: 0x0, symName: __ZN6QDebug7nospaceEv, symObjAddr: 0xE770, symBinAddr: 0x10000F220, symSize: 0x20 }
  - { offset: 0x9B860, size: 0x8, addend: 0x0, symName: __ZN6QDebuglsEc, symObjAddr: 0xE790, symBinAddr: 0x10000F240, symSize: 0x40 }
  - { offset: 0x9B894, size: 0x8, addend: 0x0, symName: __ZN6QDebug5spaceEv, symObjAddr: 0xE7D0, symBinAddr: 0x10000F280, symSize: 0x40 }
  - { offset: 0x9B8BA, size: 0x8, addend: 0x0, symName: __ZN5QListI7QStringElsERKS0_, symObjAddr: 0xE810, symBinAddr: 0x10000F2C0, symSize: 0x30 }
  - { offset: 0x9B8EF, size: 0x8, addend: 0x0, symName: __ZNK19QListSpecialMethodsI7QStringE8containsERKS0_N2Qt15CaseSensitivityE, symObjAddr: 0xE840, symBinAddr: 0x10000F2F0, symSize: 0x60 }
  - { offset: 0x9B931, size: 0x8, addend: 0x0, symName: __ZNK23QListSpecialMethodsBaseI7QStringE4selfEv, symObjAddr: 0xE8A0, symBinAddr: 0x10000F350, symSize: 0x10 }
  - { offset: 0x9B957, size: 0x8, addend: 0x0, symName: __ZN15TerrainLessThanC2ERKS_, symObjAddr: 0xE8B0, symBinAddr: 0x10000F360, symSize: 0x30 }
  - { offset: 0x9B98D, size: 0x8, addend: 0x0, symName: __ZN4QMapI7QStringiEC1ERKS1_, symObjAddr: 0xE8E0, symBinAddr: 0x10000F390, symSize: 0x30 }
  - { offset: 0x9B9C2, size: 0x8, addend: 0x0, symName: __ZN4QMapI7QStringiEC2ERKS1_, symObjAddr: 0xE910, symBinAddr: 0x10000F3C0, symSize: 0x30 }
  - { offset: 0x9B9F7, size: 0x8, addend: 0x0, symName: __ZN9QtPrivate30QExplicitlySharedDataPointerV2I8QMapDataINSt3__13mapI7QStringiNS2_4lessIS4_EENS2_9allocatorINS2_4pairIKS4_iEEEEEEEEC1ERKSE_, symObjAddr: 0xE940, symBinAddr: 0x10000F3F0, symSize: 0x30 }
  - { offset: 0x9BA2F, size: 0x8, addend: 0x0, symName: __ZN9QtPrivate30QExplicitlySharedDataPointerV2I8QMapDataINSt3__13mapI7QStringiNS2_4lessIS4_EENS2_9allocatorINS2_4pairIKS4_iEEEEEEEEC2ERKSE_, symObjAddr: 0xE970, symBinAddr: 0x10000F420, symSize: 0x50 }
  - { offset: 0x9BA67, size: 0x8, addend: 0x0, symName: __ZNK2Qt23totally_ordered_wrapperIP8QMapDataINSt3__13mapI7QStringiNS2_4lessIS4_EENS2_9allocatorINS2_4pairIKS4_iEEEEEEEEcvbEv, symObjAddr: 0xE9C0, symBinAddr: 0x10000F470, symSize: 0x30 }
  - { offset: 0x9BA8D, size: 0x8, addend: 0x0, symName: __ZNK2Qt23totally_ordered_wrapperIP8QMapDataINSt3__13mapI7QStringiNS2_4lessIS4_EENS2_9allocatorINS2_4pairIKS4_iEEEEEEEEptEv, symObjAddr: 0xE9F0, symBinAddr: 0x10000F4A0, symSize: 0x20 }
  - { offset: 0x9BAB3, size: 0x8, addend: 0x0, symName: __ZN19QBasicAtomicIntegerIiE3refEv, symObjAddr: 0xEA10, symBinAddr: 0x10000F4C0, symSize: 0x30 }
  - { offset: 0x9BAD9, size: 0x8, addend: 0x0, symName: __ZNK2Qt23totally_ordered_wrapperIP8QMapDataINSt3__13mapI7QStringiNS2_4lessIS4_EENS2_9allocatorINS2_4pairIKS4_iEEEEEEEE3getEv, symObjAddr: 0xEA40, symBinAddr: 0x10000F4F0, symSize: 0x20 }
  - { offset: 0x9BAFF, size: 0x8, addend: 0x0, symName: __ZN10QAtomicOpsIiE3refIiEEbRNSt3__16atomicIT_EE, symObjAddr: 0xEA60, symBinAddr: 0x10000F510, symSize: 0x30 }
  - { offset: 0x9BB2B, size: 0x8, addend: 0x0, symName: __ZN15TerrainLessThanD2Ev, symObjAddr: 0xEA90, symBinAddr: 0x10000F540, symSize: 0x20 }
  - { offset: 0x9BB58, size: 0x8, addend: 0x0, symName: __ZN4QMapI7QStringiED1Ev, symObjAddr: 0xEAB0, symBinAddr: 0x10000F560, symSize: 0x20 }
  - { offset: 0x9BB84, size: 0x8, addend: 0x0, symName: __ZN4QMapI7QStringiED2Ev, symObjAddr: 0xEAD0, symBinAddr: 0x10000F580, symSize: 0x20 }
  - { offset: 0x9BBB0, size: 0x8, addend: 0x0, symName: __ZN9QtPrivate30QExplicitlySharedDataPointerV2I8QMapDataINSt3__13mapI7QStringiNS2_4lessIS4_EENS2_9allocatorINS2_4pairIKS4_iEEEEEEEED1Ev, symObjAddr: 0xEAF0, symBinAddr: 0x10000F5A0, symSize: 0x20 }
  - { offset: 0x9BBDA, size: 0x8, addend: 0x0, symName: __ZN9QtPrivate30QExplicitlySharedDataPointerV2I8QMapDataINSt3__13mapI7QStringiNS2_4lessIS4_EENS2_9allocatorINS2_4pairIKS4_iEEEEEEEED2Ev, symObjAddr: 0xEB10, symBinAddr: 0x10000F5C0, symSize: 0x70 }
  - { offset: 0x9BC04, size: 0x8, addend: 0x0, symName: __ZN8QMapDataINSt3__13mapI7QStringiNS0_4lessIS2_EENS0_9allocatorINS0_4pairIKS2_iEEEEEEED1Ev, symObjAddr: 0xEB80, symBinAddr: 0x10000F630, symSize: 0x20 }
  - { offset: 0x9BC30, size: 0x8, addend: 0x0, symName: __ZN8QMapDataINSt3__13mapI7QStringiNS0_4lessIS2_EENS0_9allocatorINS0_4pairIKS2_iEEEEEEED2Ev, symObjAddr: 0xEBA0, symBinAddr: 0x10000F650, symSize: 0x20 }
  - { offset: 0x9BC5C, size: 0x8, addend: 0x0, symName: __ZNSt3__13mapI7QStringiNS_4lessIS1_EENS_9allocatorINS_4pairIKS1_iEEEEED1B9nqe210106Ev, symObjAddr: 0xEBC0, symBinAddr: 0x10000F670, symSize: 0x20 }
  - { offset: 0x9BC86, size: 0x8, addend: 0x0, symName: __ZNSt3__13mapI7QStringiNS_4lessIS1_EENS_9allocatorINS_4pairIKS1_iEEEEED2B9nqe210106Ev, symObjAddr: 0xEBE0, symBinAddr: 0x10000F690, symSize: 0x20 }
  - { offset: 0x9BCB0, size: 0x8, addend: 0x0, symName: __ZNSt3__16__treeINS_12__value_typeI7QStringiEENS_19__map_value_compareIS2_NS_4pairIKS2_iEENS_4lessIS2_EELb1EEENS_9allocatorIS7_EEED1Ev, symObjAddr: 0xEC00, symBinAddr: 0x10000F6B0, symSize: 0x20 }
  - { offset: 0x9BCDC, size: 0x8, addend: 0x0, symName: __ZNSt3__16__treeINS_12__value_typeI7QStringiEENS_19__map_value_compareIS2_NS_4pairIKS2_iEENS_4lessIS2_EELb1EEENS_9allocatorIS7_EEED2Ev, symObjAddr: 0xEC20, symBinAddr: 0x10000F6D0, symSize: 0x30 }
  - { offset: 0x9BD08, size: 0x8, addend: 0x0, symName: __ZNSt3__16__treeINS_12__value_typeI7QStringiEENS_19__map_value_compareIS2_NS_4pairIKS2_iEENS_4lessIS2_EELb1EEENS_9allocatorIS7_EEE7destroyEPNS_11__tree_nodeIS3_PvEE, symObjAddr: 0xEC50, symBinAddr: 0x10000F700, symSize: 0x80 }
  - { offset: 0x9BD54, size: 0x8, addend: 0x0, symName: __ZNKSt3__16__treeINS_12__value_typeI7QStringiEENS_19__map_value_compareIS2_NS_4pairIKS2_iEENS_4lessIS2_EELb1EEENS_9allocatorIS7_EEE6__rootB9nqe210106Ev, symObjAddr: 0xECD0, symBinAddr: 0x10000F780, symSize: 0x20 }
  - { offset: 0x9BD7A, size: 0x8, addend: 0x0, symName: __ZNSt3__16__treeINS_12__value_typeI7QStringiEENS_19__map_value_compareIS2_NS_4pairIKS2_iEENS_4lessIS2_EELb1EEENS_9allocatorIS7_EEE12__node_allocB9nqe210106Ev, symObjAddr: 0xECF0, symBinAddr: 0x10000F7A0, symSize: 0x20 }
  - { offset: 0x9BDA0, size: 0x8, addend: 0x0, symName: __ZNSt3__116allocator_traitsINS_9allocatorINS_11__tree_nodeINS_12__value_typeI7QStringiEEPvEEEEE7destroyB9nqe210106INS_4pairIKS4_iEELi0EEEvRS8_PT_, symObjAddr: 0xED10, symBinAddr: 0x10000F7C0, symSize: 0x20 }
  - { offset: 0x9BDDF, size: 0x8, addend: 0x0, symName: __ZNSt3__116allocator_traitsINS_9allocatorINS_11__tree_nodeINS_12__value_typeI7QStringiEEPvEEEEE10deallocateB9nqe210106ERS8_PS7_m, symObjAddr: 0xED30, symBinAddr: 0x10000F7E0, symSize: 0x30 }
  - { offset: 0x9BE21, size: 0x8, addend: 0x0, symName: __ZNSt3__14pairIK7QStringiED1Ev, symObjAddr: 0xED80, symBinAddr: 0x10000F830, symSize: 0x20 }
  - { offset: 0x9BE4D, size: 0x8, addend: 0x0, symName: __ZNSt3__14pairIK7QStringiED2Ev, symObjAddr: 0xEDA0, symBinAddr: 0x10000F850, symSize: 0x20 }
  - { offset: 0x9BE79, size: 0x8, addend: 0x0, symName: __ZNSt3__19allocatorINS_11__tree_nodeINS_12__value_typeI7QStringiEEPvEEE10deallocateB9nqe210106EPS6_m, symObjAddr: 0xEDC0, symBinAddr: 0x10000F870, symSize: 0x30 }
  - { offset: 0x9BEBB, size: 0x8, addend: 0x0, symName: __ZNKSt3__16__treeINS_12__value_typeI7QStringiEENS_19__map_value_compareIS2_NS_4pairIKS2_iEENS_4lessIS2_EELb1EEENS_9allocatorIS7_EEE10__end_nodeB9nqe210106Ev, symObjAddr: 0xEE60, symBinAddr: 0x10000F910, symSize: 0x20 }
  - { offset: 0x9BEE1, size: 0x8, addend: 0x0, symName: __ZN16TileTerrainNamesC2ERK7QString, symObjAddr: 0xEE80, symBinAddr: 0x10000F930, symSize: 0x60 }
  - { offset: 0x9BF19, size: 0x8, addend: 0x0, symName: __ZN7QPointFC1Edd, symObjAddr: 0xEEE0, symBinAddr: 0x10000F990, symSize: 0x30 }
  - { offset: 0x9BF63, size: 0x8, addend: 0x0, symName: __ZN7QPointFC2Edd, symObjAddr: 0xEF10, symBinAddr: 0x10000F9C0, symSize: 0x30 }
  - { offset: 0x9BFAD, size: 0x8, addend: 0x0, symName: __ZN6QFlagsIN2Qt19ImageConversionFlagEEC2ES1_, symObjAddr: 0xEF40, symBinAddr: 0x10000F9F0, symSize: 0x30 }
  - { offset: 0x9BFE5, size: 0x8, addend: 0x0, symName: __ZN9QtPrivate19QFlagsStorageHelperIN2Qt19ImageConversionFlagELi4EECI2NS_13QFlagsStorageIS2_EEENSt3__110in_place_tEj, symObjAddr: 0xEF70, symBinAddr: 0x10000FA20, symSize: 0x30 }
  - { offset: 0x9C023, size: 0x8, addend: 0x0, symName: __ZN9QtPrivate13QFlagsStorageIN2Qt19ImageConversionFlagEEC2ENSt3__110in_place_tEj, symObjAddr: 0xEFA0, symBinAddr: 0x10000FA50, symSize: 0x20 }
  - { offset: 0x9C065, size: 0x8, addend: 0x0, symName: __ZN7QPixmapC1EOS_, symObjAddr: 0xEFC0, symBinAddr: 0x10000FA70, symSize: 0x30 }
  - { offset: 0x9C09D, size: 0x8, addend: 0x0, symName: __ZN7QPixmap4swapERS_, symObjAddr: 0xEFF0, symBinAddr: 0x10000FAA0, symSize: 0x30 }
  - { offset: 0x9C0D1, size: 0x8, addend: 0x0, symName: __ZN7QPixmapC2EOS_, symObjAddr: 0xF020, symBinAddr: 0x10000FAD0, symSize: 0x50 }
  - { offset: 0x9C109, size: 0x8, addend: 0x0, symName: __ZN28QExplicitlySharedDataPointerI15QPlatformPixmapEC1EOS1_, symObjAddr: 0xF070, symBinAddr: 0x10000FB20, symSize: 0x30 }
  - { offset: 0x9C142, size: 0x8, addend: 0x0, symName: __ZN28QExplicitlySharedDataPointerI15QPlatformPixmapEC2EOS1_, symObjAddr: 0xF0A0, symBinAddr: 0x10000FB50, symSize: 0x60 }
  - { offset: 0x9C17B, size: 0x8, addend: 0x0, symName: __ZNK2Qt23totally_ordered_wrapperIP15QPlatformPixmapE3getEv, symObjAddr: 0xF140, symBinAddr: 0x10000FBF0, symSize: 0x20 }
  - { offset: 0x9C1A1, size: 0x8, addend: 0x0, symName: __ZN22QSharedDataPointerBaseI28QExplicitlySharedDataPointer15QPlatformPixmapEC2EPS1_, symObjAddr: 0xF160, symBinAddr: 0x10000FC10, symSize: 0x30 }
  - { offset: 0x9C1D9, size: 0x8, addend: 0x0, symName: __ZN2Qt23totally_ordered_wrapperIP15QPlatformPixmapEC1EDn, symObjAddr: 0xF190, symBinAddr: 0x10000FC40, symSize: 0x30 }
  - { offset: 0x9C20F, size: 0x8, addend: 0x0, symName: __ZN2Qt23totally_ordered_wrapperIP15QPlatformPixmapEC1ES2_, symObjAddr: 0xF1C0, symBinAddr: 0x10000FC70, symSize: 0x30 }
  - { offset: 0x9C248, size: 0x8, addend: 0x0, symName: __ZN2Qt23totally_ordered_wrapperIP15QPlatformPixmapEC2ES2_, symObjAddr: 0xF1F0, symBinAddr: 0x10000FCA0, symSize: 0x20 }
  - { offset: 0x9C281, size: 0x8, addend: 0x0, symName: __ZN22QSharedDataPointerBaseI28QExplicitlySharedDataPointer15QPlatformPixmapE4swapERS0_IS1_E, symObjAddr: 0xF210, symBinAddr: 0x10000FCC0, symSize: 0x30 }
  - { offset: 0x9C2B4, size: 0x8, addend: 0x0, symName: __Z11qt_ptr_swapI15QPlatformPixmapEvRPT_S3_, symObjAddr: 0xF270, symBinAddr: 0x10000FD20, symSize: 0x40 }
  - { offset: 0x9C302, size: 0x8, addend: 0x0, symName: __ZN5QListI7QStringED2Ev, symObjAddr: 0xF2B0, symBinAddr: 0x10000FD60, symSize: 0x20 }
  - { offset: 0x9C32E, size: 0x8, addend: 0x0, symName: __ZN9QtPrivate30QExplicitlySharedDataPointerV2I8QMapDataINSt3__13mapI7QString8QVariantNS2_4lessIS4_EENS2_9allocatorINS2_4pairIKS4_S5_EEEEEEEEaSERKSF_, symObjAddr: 0xF2D0, symBinAddr: 0x10000FD80, symSize: 0x50 }
  - { offset: 0x9C370, size: 0x8, addend: 0x0, symName: __ZN9QtPrivate30QExplicitlySharedDataPointerV2I8QMapDataINSt3__13mapI7QString8QVariantNS2_4lessIS4_EENS2_9allocatorINS2_4pairIKS4_S5_EEEEEEEEC1ERKSF_, symObjAddr: 0xF320, symBinAddr: 0x10000FDD0, symSize: 0x30 }
  - { offset: 0x9C3A8, size: 0x8, addend: 0x0, symName: __ZN9QtPrivate30QExplicitlySharedDataPointerV2I8QMapDataINSt3__13mapI7QString8QVariantNS2_4lessIS4_EENS2_9allocatorINS2_4pairIKS4_S5_EEEEEEEE4swapERSF_, symObjAddr: 0xF350, symBinAddr: 0x10000FE00, symSize: 0x30 }
  - { offset: 0x9C3DC, size: 0x8, addend: 0x0, symName: __ZN9QtPrivate30QExplicitlySharedDataPointerV2I8QMapDataINSt3__13mapI7QString8QVariantNS2_4lessIS4_EENS2_9allocatorINS2_4pairIKS4_S5_EEEEEEEED1Ev, symObjAddr: 0xF380, symBinAddr: 0x10000FE30, symSize: 0x20 }
  - { offset: 0x9C406, size: 0x8, addend: 0x0, symName: __ZN9QtPrivate30QExplicitlySharedDataPointerV2I8QMapDataINSt3__13mapI7QString8QVariantNS2_4lessIS4_EENS2_9allocatorINS2_4pairIKS4_S5_EEEEEEEEC2ERKSF_, symObjAddr: 0xF3A0, symBinAddr: 0x10000FE50, symSize: 0x50 }
  - { offset: 0x9C43E, size: 0x8, addend: 0x0, symName: __ZNK2Qt23totally_ordered_wrapperIP8QMapDataINSt3__13mapI7QString8QVariantNS2_4lessIS4_EENS2_9allocatorINS2_4pairIKS4_S5_EEEEEEEEcvbEv, symObjAddr: 0xF3F0, symBinAddr: 0x10000FEA0, symSize: 0x30 }
  - { offset: 0x9C464, size: 0x8, addend: 0x0, symName: __ZNK2Qt23totally_ordered_wrapperIP8QMapDataINSt3__13mapI7QString8QVariantNS2_4lessIS4_EENS2_9allocatorINS2_4pairIKS4_S5_EEEEEEEEptEv, symObjAddr: 0xF420, symBinAddr: 0x10000FED0, symSize: 0x20 }
  - { offset: 0x9C48A, size: 0x8, addend: 0x0, symName: __ZNK2Qt23totally_ordered_wrapperIP8QMapDataINSt3__13mapI7QString8QVariantNS2_4lessIS4_EENS2_9allocatorINS2_4pairIKS4_S5_EEEEEEEE3getEv, symObjAddr: 0xF440, symBinAddr: 0x10000FEF0, symSize: 0x20 }
  - { offset: 0x9C4AF, size: 0x8, addend: 0x0, symName: __Z11qt_ptr_swapI8QMapDataINSt3__13mapI7QString8QVariantNS1_4lessIS3_EENS1_9allocatorINS1_4pairIKS3_S4_EEEEEEEEvRPT_SG_, symObjAddr: 0xF490, symBinAddr: 0x10000FF40, symSize: 0x40 }
  - { offset: 0x9C4FD, size: 0x8, addend: 0x0, symName: __ZN9QtPrivate30QExplicitlySharedDataPointerV2I8QMapDataINSt3__13mapI7QString8QVariantNS2_4lessIS4_EENS2_9allocatorINS2_4pairIKS4_S5_EEEEEEEED2Ev, symObjAddr: 0xF4D0, symBinAddr: 0x10000FF80, symSize: 0x70 }
  - { offset: 0x9C527, size: 0x8, addend: 0x0, symName: __ZN8QMapDataINSt3__13mapI7QString8QVariantNS0_4lessIS2_EENS0_9allocatorINS0_4pairIKS2_S3_EEEEEEED1Ev, symObjAddr: 0xF540, symBinAddr: 0x10000FFF0, symSize: 0x20 }
  - { offset: 0x9C553, size: 0x8, addend: 0x0, symName: __ZN8QMapDataINSt3__13mapI7QString8QVariantNS0_4lessIS2_EENS0_9allocatorINS0_4pairIKS2_S3_EEEEEEED2Ev, symObjAddr: 0xF560, symBinAddr: 0x100010010, symSize: 0x20 }
  - { offset: 0x9C57F, size: 0x8, addend: 0x0, symName: __ZNSt3__13mapI7QString8QVariantNS_4lessIS1_EENS_9allocatorINS_4pairIKS1_S2_EEEEED1B9nqe210106Ev, symObjAddr: 0xF580, symBinAddr: 0x100010030, symSize: 0x20 }
  - { offset: 0x9C5A9, size: 0x8, addend: 0x0, symName: __ZNSt3__13mapI7QString8QVariantNS_4lessIS1_EENS_9allocatorINS_4pairIKS1_S2_EEEEED2B9nqe210106Ev, symObjAddr: 0xF5A0, symBinAddr: 0x100010050, symSize: 0x20 }
  - { offset: 0x9C5D3, size: 0x8, addend: 0x0, symName: __ZNSt3__16__treeINS_12__value_typeI7QString8QVariantEENS_19__map_value_compareIS2_NS_4pairIKS2_S3_EENS_4lessIS2_EELb1EEENS_9allocatorIS8_EEED1Ev, symObjAddr: 0xF5C0, symBinAddr: 0x100010070, symSize: 0x20 }
  - { offset: 0x9C5FF, size: 0x8, addend: 0x0, symName: __ZNSt3__16__treeINS_12__value_typeI7QString8QVariantEENS_19__map_value_compareIS2_NS_4pairIKS2_S3_EENS_4lessIS2_EELb1EEENS_9allocatorIS8_EEED2Ev, symObjAddr: 0xF5E0, symBinAddr: 0x100010090, symSize: 0x30 }
  - { offset: 0x9C62B, size: 0x8, addend: 0x0, symName: __ZNSt3__16__treeINS_12__value_typeI7QString8QVariantEENS_19__map_value_compareIS2_NS_4pairIKS2_S3_EENS_4lessIS2_EELb1EEENS_9allocatorIS8_EEE7destroyEPNS_11__tree_nodeIS4_PvEE, symObjAddr: 0xF610, symBinAddr: 0x1000100C0, symSize: 0x80 }
  - { offset: 0x9C677, size: 0x8, addend: 0x0, symName: __ZNKSt3__16__treeINS_12__value_typeI7QString8QVariantEENS_19__map_value_compareIS2_NS_4pairIKS2_S3_EENS_4lessIS2_EELb1EEENS_9allocatorIS8_EEE6__rootB9nqe210106Ev, symObjAddr: 0xF690, symBinAddr: 0x100010140, symSize: 0x20 }
  - { offset: 0x9C69D, size: 0x8, addend: 0x0, symName: __ZNSt3__16__treeINS_12__value_typeI7QString8QVariantEENS_19__map_value_compareIS2_NS_4pairIKS2_S3_EENS_4lessIS2_EELb1EEENS_9allocatorIS8_EEE12__node_allocB9nqe210106Ev, symObjAddr: 0xF6B0, symBinAddr: 0x100010160, symSize: 0x20 }
  - { offset: 0x9C6C3, size: 0x8, addend: 0x0, symName: __ZNSt3__116allocator_traitsINS_9allocatorINS_11__tree_nodeINS_12__value_typeI7QString8QVariantEEPvEEEEE7destroyB9nqe210106INS_4pairIKS4_S5_EELi0EEEvRS9_PT_, symObjAddr: 0xF6D0, symBinAddr: 0x100010180, symSize: 0x20 }
  - { offset: 0x9C702, size: 0x8, addend: 0x0, symName: __ZNSt3__116allocator_traitsINS_9allocatorINS_11__tree_nodeINS_12__value_typeI7QString8QVariantEEPvEEEEE10deallocateB9nqe210106ERS9_PS8_m, symObjAddr: 0xF6F0, symBinAddr: 0x1000101A0, symSize: 0x30 }
  - { offset: 0x9C744, size: 0x8, addend: 0x0, symName: __ZNSt3__14pairIK7QString8QVariantED1Ev, symObjAddr: 0xF740, symBinAddr: 0x1000101F0, symSize: 0x20 }
  - { offset: 0x9C770, size: 0x8, addend: 0x0, symName: __ZNSt3__14pairIK7QString8QVariantED2Ev, symObjAddr: 0xF760, symBinAddr: 0x100010210, symSize: 0x30 }
  - { offset: 0x9C79C, size: 0x8, addend: 0x0, symName: __ZNSt3__19allocatorINS_11__tree_nodeINS_12__value_typeI7QString8QVariantEEPvEEE10deallocateB9nqe210106EPS7_m, symObjAddr: 0xF790, symBinAddr: 0x100010240, symSize: 0x30 }
  - { offset: 0x9C7DE, size: 0x8, addend: 0x0, symName: __ZNKSt3__16__treeINS_12__value_typeI7QString8QVariantEENS_19__map_value_compareIS2_NS_4pairIKS2_S3_EENS_4lessIS2_EELb1EEENS_9allocatorIS8_EEE10__end_nodeB9nqe210106Ev, symObjAddr: 0xF810, symBinAddr: 0x1000102C0, symSize: 0x20 }
  - { offset: 0x9C804, size: 0x8, addend: 0x0, symName: __ZN4QMapI7QString8QVariantED2Ev, symObjAddr: 0xF830, symBinAddr: 0x1000102E0, symSize: 0x20 }
  - { offset: 0x9C830, size: 0x8, addend: 0x0, symName: __ZNK5QListIPN5Tiled4TileEE4sizeEv, symObjAddr: 0xF850, symBinAddr: 0x100010300, symSize: 0x50 }
  - { offset: 0x9C899, size: 0x8, addend: 0x0, symName: __ZZNK5QListIPN5Tiled4TileEE4sizeEvENKUlvE_clEv, symObjAddr: 0xF8A0, symBinAddr: 0x100010350, symSize: 0x50 }
  - { offset: 0x9C8C3, size: 0x8, addend: 0x0, symName: __ZN7QStringC2Ev, symObjAddr: 0xF8F0, symBinAddr: 0x1000103A0, symSize: 0x20 }
  - { offset: 0x9C8EF, size: 0x8, addend: 0x0, symName: __ZN17QArrayDataPointerIDsEC1Ev, symObjAddr: 0xF910, symBinAddr: 0x1000103C0, symSize: 0x20 }
  - { offset: 0x9C919, size: 0x8, addend: 0x0, symName: __ZN17QArrayDataPointerIDsEC2Ev, symObjAddr: 0xF930, symBinAddr: 0x1000103E0, symSize: 0x30 }
  - { offset: 0x9C943, size: 0x8, addend: 0x0, symName: __ZN5QListI16TileTerrainNamesED2Ev, symObjAddr: 0xF960, symBinAddr: 0x100010410, symSize: 0x20 }
  - { offset: 0x9C96F, size: 0x8, addend: 0x0, symName: __ZN17QArrayDataPointerI16TileTerrainNamesED1Ev, symObjAddr: 0xF980, symBinAddr: 0x100010430, symSize: 0x20 }
  - { offset: 0x9C999, size: 0x8, addend: 0x0, symName: __ZN17QArrayDataPointerI16TileTerrainNamesED2Ev, symObjAddr: 0xF9A0, symBinAddr: 0x100010450, symSize: 0x50 }
  - { offset: 0x9C9C3, size: 0x8, addend: 0x0, symName: __ZN17QArrayDataPointerI16TileTerrainNamesE5derefEv, symObjAddr: 0xF9F0, symBinAddr: 0x1000104A0, symSize: 0x40 }
  - { offset: 0x9C9E9, size: 0x8, addend: 0x0, symName: __ZN17QArrayDataPointerI16TileTerrainNamesEptEv, symObjAddr: 0xFA30, symBinAddr: 0x1000104E0, symSize: 0x10 }
  - { offset: 0x9CA0F, size: 0x8, addend: 0x0, symName: __ZN9QtPrivate16QGenericArrayOpsI16TileTerrainNamesE10destroyAllEv, symObjAddr: 0xFA40, symBinAddr: 0x1000104F0, symSize: 0x90 }
  - { offset: 0x9CA35, size: 0x8, addend: 0x0, symName: __ZN15QTypedArrayDataI16TileTerrainNamesE10deallocateEP10QArrayData, symObjAddr: 0xFAD0, symBinAddr: 0x100010580, symSize: 0x30 }
  - { offset: 0x9CA58, size: 0x8, addend: 0x0, symName: __ZN17QArrayDataPointerI16TileTerrainNamesE5beginEv, symObjAddr: 0xFB30, symBinAddr: 0x1000105E0, symSize: 0x20 }
  - { offset: 0x9CA7E, size: 0x8, addend: 0x0, symName: __ZN17QArrayDataPointerI16TileTerrainNamesE3endEv, symObjAddr: 0xFB50, symBinAddr: 0x100010600, symSize: 0x30 }
  - { offset: 0x9CAA4, size: 0x8, addend: 0x0, symName: __ZN17QArrayDataPointerI16TileTerrainNamesE4dataEv, symObjAddr: 0xFBE0, symBinAddr: 0x100010690, symSize: 0x20 }
  - { offset: 0x9CACA, size: 0x8, addend: 0x0, symName: __ZN4QMapI7QStringPN5Tiled9WangColorEED2Ev, symObjAddr: 0xFC00, symBinAddr: 0x1000106B0, symSize: 0x20 }
  - { offset: 0x9CAF6, size: 0x8, addend: 0x0, symName: __ZN9QtPrivate30QExplicitlySharedDataPointerV2I8QMapDataINSt3__13mapI7QStringPN5Tiled9WangColorENS2_4lessIS4_EENS2_9allocatorINS2_4pairIKS4_S7_EEEEEEEED1Ev, symObjAddr: 0xFC20, symBinAddr: 0x1000106D0, symSize: 0x20 }
  - { offset: 0x9CB20, size: 0x8, addend: 0x0, symName: __ZN9QtPrivate30QExplicitlySharedDataPointerV2I8QMapDataINSt3__13mapI7QStringPN5Tiled9WangColorENS2_4lessIS4_EENS2_9allocatorINS2_4pairIKS4_S7_EEEEEEEED2Ev, symObjAddr: 0xFC40, symBinAddr: 0x1000106F0, symSize: 0x70 }
  - { offset: 0x9CB4A, size: 0x8, addend: 0x0, symName: __ZNK2Qt23totally_ordered_wrapperIP8QMapDataINSt3__13mapI7QStringPN5Tiled9WangColorENS2_4lessIS4_EENS2_9allocatorINS2_4pairIKS4_S7_EEEEEEEEcvbEv, symObjAddr: 0xFCB0, symBinAddr: 0x100010760, symSize: 0x30 }
  - { offset: 0x9CB70, size: 0x8, addend: 0x0, symName: __ZNK2Qt23totally_ordered_wrapperIP8QMapDataINSt3__13mapI7QStringPN5Tiled9WangColorENS2_4lessIS4_EENS2_9allocatorINS2_4pairIKS4_S7_EEEEEEEEptEv, symObjAddr: 0xFCE0, symBinAddr: 0x100010790, symSize: 0x20 }
  - { offset: 0x9CB96, size: 0x8, addend: 0x0, symName: __ZNK2Qt23totally_ordered_wrapperIP8QMapDataINSt3__13mapI7QStringPN5Tiled9WangColorENS2_4lessIS4_EENS2_9allocatorINS2_4pairIKS4_S7_EEEEEEEE3getEv, symObjAddr: 0xFD00, symBinAddr: 0x1000107B0, symSize: 0x20 }
  - { offset: 0x9CBBC, size: 0x8, addend: 0x0, symName: __ZN8QMapDataINSt3__13mapI7QStringPN5Tiled9WangColorENS0_4lessIS2_EENS0_9allocatorINS0_4pairIKS2_S5_EEEEEEED1Ev, symObjAddr: 0xFD20, symBinAddr: 0x1000107D0, symSize: 0x20 }
  - { offset: 0x9CBE8, size: 0x8, addend: 0x0, symName: __ZN8QMapDataINSt3__13mapI7QStringPN5Tiled9WangColorENS0_4lessIS2_EENS0_9allocatorINS0_4pairIKS2_S5_EEEEEEED2Ev, symObjAddr: 0xFD40, symBinAddr: 0x1000107F0, symSize: 0x20 }
  - { offset: 0x9CC14, size: 0x8, addend: 0x0, symName: __ZNSt3__13mapI7QStringPN5Tiled9WangColorENS_4lessIS1_EENS_9allocatorINS_4pairIKS1_S4_EEEEED1B9nqe210106Ev, symObjAddr: 0xFD60, symBinAddr: 0x100010810, symSize: 0x20 }
  - { offset: 0x9CC3E, size: 0x8, addend: 0x0, symName: __ZNSt3__13mapI7QStringPN5Tiled9WangColorENS_4lessIS1_EENS_9allocatorINS_4pairIKS1_S4_EEEEED2B9nqe210106Ev, symObjAddr: 0xFD80, symBinAddr: 0x100010830, symSize: 0x20 }
  - { offset: 0x9CC68, size: 0x8, addend: 0x0, symName: __ZNSt3__16__treeINS_12__value_typeI7QStringPN5Tiled9WangColorEEENS_19__map_value_compareIS2_NS_4pairIKS2_S5_EENS_4lessIS2_EELb1EEENS_9allocatorISA_EEED1Ev, symObjAddr: 0xFDA0, symBinAddr: 0x100010850, symSize: 0x20 }
  - { offset: 0x9CC94, size: 0x8, addend: 0x0, symName: __ZNSt3__16__treeINS_12__value_typeI7QStringPN5Tiled9WangColorEEENS_19__map_value_compareIS2_NS_4pairIKS2_S5_EENS_4lessIS2_EELb1EEENS_9allocatorISA_EEED2Ev, symObjAddr: 0xFDC0, symBinAddr: 0x100010870, symSize: 0x30 }
  - { offset: 0x9CCC0, size: 0x8, addend: 0x0, symName: __ZNSt3__16__treeINS_12__value_typeI7QStringPN5Tiled9WangColorEEENS_19__map_value_compareIS2_NS_4pairIKS2_S5_EENS_4lessIS2_EELb1EEENS_9allocatorISA_EEE7destroyEPNS_11__tree_nodeIS6_PvEE, symObjAddr: 0xFDF0, symBinAddr: 0x1000108A0, symSize: 0x80 }
  - { offset: 0x9CD0C, size: 0x8, addend: 0x0, symName: __ZNKSt3__16__treeINS_12__value_typeI7QStringPN5Tiled9WangColorEEENS_19__map_value_compareIS2_NS_4pairIKS2_S5_EENS_4lessIS2_EELb1EEENS_9allocatorISA_EEE6__rootB9nqe210106Ev, symObjAddr: 0xFE70, symBinAddr: 0x100010920, symSize: 0x20 }
  - { offset: 0x9CD32, size: 0x8, addend: 0x0, symName: __ZNSt3__16__treeINS_12__value_typeI7QStringPN5Tiled9WangColorEEENS_19__map_value_compareIS2_NS_4pairIKS2_S5_EENS_4lessIS2_EELb1EEENS_9allocatorISA_EEE12__node_allocB9nqe210106Ev, symObjAddr: 0xFE90, symBinAddr: 0x100010940, symSize: 0x20 }
  - { offset: 0x9CD58, size: 0x8, addend: 0x0, symName: __ZNSt3__116allocator_traitsINS_9allocatorINS_11__tree_nodeINS_12__value_typeI7QStringPN5Tiled9WangColorEEEPvEEEEE7destroyB9nqe210106INS_4pairIKS4_S7_EELi0EEEvRSB_PT_, symObjAddr: 0xFEB0, symBinAddr: 0x100010960, symSize: 0x20 }
  - { offset: 0x9CD97, size: 0x8, addend: 0x0, symName: __ZNSt3__116allocator_traitsINS_9allocatorINS_11__tree_nodeINS_12__value_typeI7QStringPN5Tiled9WangColorEEEPvEEEEE10deallocateB9nqe210106ERSB_PSA_m, symObjAddr: 0xFED0, symBinAddr: 0x100010980, symSize: 0x30 }
  - { offset: 0x9CDD9, size: 0x8, addend: 0x0, symName: __ZNSt3__14pairIK7QStringPN5Tiled9WangColorEED1Ev, symObjAddr: 0xFF20, symBinAddr: 0x1000109D0, symSize: 0x20 }
  - { offset: 0x9CE05, size: 0x8, addend: 0x0, symName: __ZNSt3__14pairIK7QStringPN5Tiled9WangColorEED2Ev, symObjAddr: 0xFF40, symBinAddr: 0x1000109F0, symSize: 0x20 }
  - { offset: 0x9CE31, size: 0x8, addend: 0x0, symName: __ZNSt3__19allocatorINS_11__tree_nodeINS_12__value_typeI7QStringPN5Tiled9WangColorEEEPvEEE10deallocateB9nqe210106EPS9_m, symObjAddr: 0xFF60, symBinAddr: 0x100010A10, symSize: 0x30 }
  - { offset: 0x9CE73, size: 0x8, addend: 0x0, symName: __ZNKSt3__16__treeINS_12__value_typeI7QStringPN5Tiled9WangColorEEENS_19__map_value_compareIS2_NS_4pairIKS2_S5_EENS_4lessIS2_EELb1EEENS_9allocatorISA_EEE10__end_nodeB9nqe210106Ev, symObjAddr: 0xFFE0, symBinAddr: 0x100010A90, symSize: 0x20 }
  - { offset: 0x9CE99, size: 0x8, addend: 0x0, symName: __ZN4QMapI16TileTerrainNamesPN5Tiled4TileEED2Ev, symObjAddr: 0x10000, symBinAddr: 0x100010AB0, symSize: 0x20 }
  - { offset: 0x9CEC5, size: 0x8, addend: 0x0, symName: __ZN9QtPrivate30QExplicitlySharedDataPointerV2I8QMapDataINSt3__13mapI16TileTerrainNamesPN5Tiled4TileENS2_4lessIS4_EENS2_9allocatorINS2_4pairIKS4_S7_EEEEEEEED1Ev, symObjAddr: 0x10020, symBinAddr: 0x100010AD0, symSize: 0x20 }
  - { offset: 0x9CEEF, size: 0x8, addend: 0x0, symName: __ZN9QtPrivate30QExplicitlySharedDataPointerV2I8QMapDataINSt3__13mapI16TileTerrainNamesPN5Tiled4TileENS2_4lessIS4_EENS2_9allocatorINS2_4pairIKS4_S7_EEEEEEEED2Ev, symObjAddr: 0x10040, symBinAddr: 0x100010AF0, symSize: 0x70 }
  - { offset: 0x9CF19, size: 0x8, addend: 0x0, symName: __ZNK2Qt23totally_ordered_wrapperIP8QMapDataINSt3__13mapI16TileTerrainNamesPN5Tiled4TileENS2_4lessIS4_EENS2_9allocatorINS2_4pairIKS4_S7_EEEEEEEEcvbEv, symObjAddr: 0x100B0, symBinAddr: 0x100010B60, symSize: 0x30 }
  - { offset: 0x9CF3F, size: 0x8, addend: 0x0, symName: __ZNK2Qt23totally_ordered_wrapperIP8QMapDataINSt3__13mapI16TileTerrainNamesPN5Tiled4TileENS2_4lessIS4_EENS2_9allocatorINS2_4pairIKS4_S7_EEEEEEEEptEv, symObjAddr: 0x100E0, symBinAddr: 0x100010B90, symSize: 0x20 }
  - { offset: 0x9CF65, size: 0x8, addend: 0x0, symName: __ZNK2Qt23totally_ordered_wrapperIP8QMapDataINSt3__13mapI16TileTerrainNamesPN5Tiled4TileENS2_4lessIS4_EENS2_9allocatorINS2_4pairIKS4_S7_EEEEEEEE3getEv, symObjAddr: 0x10100, symBinAddr: 0x100010BB0, symSize: 0x20 }
  - { offset: 0x9CF8B, size: 0x8, addend: 0x0, symName: __ZN8QMapDataINSt3__13mapI16TileTerrainNamesPN5Tiled4TileENS0_4lessIS2_EENS0_9allocatorINS0_4pairIKS2_S5_EEEEEEED1Ev, symObjAddr: 0x10120, symBinAddr: 0x100010BD0, symSize: 0x20 }
  - { offset: 0x9CFB7, size: 0x8, addend: 0x0, symName: __ZN8QMapDataINSt3__13mapI16TileTerrainNamesPN5Tiled4TileENS0_4lessIS2_EENS0_9allocatorINS0_4pairIKS2_S5_EEEEEEED2Ev, symObjAddr: 0x10140, symBinAddr: 0x100010BF0, symSize: 0x20 }
  - { offset: 0x9CFE3, size: 0x8, addend: 0x0, symName: __ZNSt3__13mapI16TileTerrainNamesPN5Tiled4TileENS_4lessIS1_EENS_9allocatorINS_4pairIKS1_S4_EEEEED1B9nqe210106Ev, symObjAddr: 0x10160, symBinAddr: 0x100010C10, symSize: 0x20 }
  - { offset: 0x9D00D, size: 0x8, addend: 0x0, symName: __ZNSt3__13mapI16TileTerrainNamesPN5Tiled4TileENS_4lessIS1_EENS_9allocatorINS_4pairIKS1_S4_EEEEED2B9nqe210106Ev, symObjAddr: 0x10180, symBinAddr: 0x100010C30, symSize: 0x20 }
  - { offset: 0x9D037, size: 0x8, addend: 0x0, symName: __ZNSt3__16__treeINS_12__value_typeI16TileTerrainNamesPN5Tiled4TileEEENS_19__map_value_compareIS2_NS_4pairIKS2_S5_EENS_4lessIS2_EELb1EEENS_9allocatorISA_EEED1Ev, symObjAddr: 0x101A0, symBinAddr: 0x100010C50, symSize: 0x20 }
  - { offset: 0x9D063, size: 0x8, addend: 0x0, symName: __ZNSt3__16__treeINS_12__value_typeI16TileTerrainNamesPN5Tiled4TileEEENS_19__map_value_compareIS2_NS_4pairIKS2_S5_EENS_4lessIS2_EELb1EEENS_9allocatorISA_EEED2Ev, symObjAddr: 0x101C0, symBinAddr: 0x100010C70, symSize: 0x30 }
  - { offset: 0x9D08F, size: 0x8, addend: 0x0, symName: __ZNSt3__16__treeINS_12__value_typeI16TileTerrainNamesPN5Tiled4TileEEENS_19__map_value_compareIS2_NS_4pairIKS2_S5_EENS_4lessIS2_EELb1EEENS_9allocatorISA_EEE7destroyEPNS_11__tree_nodeIS6_PvEE, symObjAddr: 0x101F0, symBinAddr: 0x100010CA0, symSize: 0x80 }
  - { offset: 0x9D0DB, size: 0x8, addend: 0x0, symName: __ZNKSt3__16__treeINS_12__value_typeI16TileTerrainNamesPN5Tiled4TileEEENS_19__map_value_compareIS2_NS_4pairIKS2_S5_EENS_4lessIS2_EELb1EEENS_9allocatorISA_EEE6__rootB9nqe210106Ev, symObjAddr: 0x10270, symBinAddr: 0x100010D20, symSize: 0x20 }
  - { offset: 0x9D101, size: 0x8, addend: 0x0, symName: __ZNSt3__16__treeINS_12__value_typeI16TileTerrainNamesPN5Tiled4TileEEENS_19__map_value_compareIS2_NS_4pairIKS2_S5_EENS_4lessIS2_EELb1EEENS_9allocatorISA_EEE12__node_allocB9nqe210106Ev, symObjAddr: 0x10290, symBinAddr: 0x100010D40, symSize: 0x20 }
  - { offset: 0x9D127, size: 0x8, addend: 0x0, symName: __ZNSt3__116allocator_traitsINS_9allocatorINS_11__tree_nodeINS_12__value_typeI16TileTerrainNamesPN5Tiled4TileEEEPvEEEEE7destroyB9nqe210106INS_4pairIKS4_S7_EELi0EEEvRSB_PT_, symObjAddr: 0x102B0, symBinAddr: 0x100010D60, symSize: 0x20 }
  - { offset: 0x9D166, size: 0x8, addend: 0x0, symName: __ZNSt3__116allocator_traitsINS_9allocatorINS_11__tree_nodeINS_12__value_typeI16TileTerrainNamesPN5Tiled4TileEEEPvEEEEE10deallocateB9nqe210106ERSB_PSA_m, symObjAddr: 0x102D0, symBinAddr: 0x100010D80, symSize: 0x30 }
  - { offset: 0x9D1A8, size: 0x8, addend: 0x0, symName: __ZNSt3__14pairIK16TileTerrainNamesPN5Tiled4TileEED1Ev, symObjAddr: 0x10320, symBinAddr: 0x100010DD0, symSize: 0x20 }
  - { offset: 0x9D1D4, size: 0x8, addend: 0x0, symName: __ZNSt3__14pairIK16TileTerrainNamesPN5Tiled4TileEED2Ev, symObjAddr: 0x10340, symBinAddr: 0x100010DF0, symSize: 0x20 }
  - { offset: 0x9D200, size: 0x8, addend: 0x0, symName: __ZNSt3__19allocatorINS_11__tree_nodeINS_12__value_typeI16TileTerrainNamesPN5Tiled4TileEEEPvEEE10deallocateB9nqe210106EPS9_m, symObjAddr: 0x10360, symBinAddr: 0x100010E10, symSize: 0x30 }
  - { offset: 0x9D242, size: 0x8, addend: 0x0, symName: __ZNKSt3__16__treeINS_12__value_typeI16TileTerrainNamesPN5Tiled4TileEEENS_19__map_value_compareIS2_NS_4pairIKS2_S5_EENS_4lessIS2_EELb1EEENS_9allocatorISA_EEE10__end_nodeB9nqe210106Ev, symObjAddr: 0x103E0, symBinAddr: 0x100010E90, symSize: 0x20 }
  - { offset: 0x9D268, size: 0x8, addend: 0x0, symName: __ZN5QListI14QSharedPointerIN5Tiled7TilesetEEED2Ev, symObjAddr: 0x10400, symBinAddr: 0x100010EB0, symSize: 0x20 }
  - { offset: 0x9D294, size: 0x8, addend: 0x0, symName: __ZN17QArrayDataPointerI14QSharedPointerIN5Tiled7TilesetEEED1Ev, symObjAddr: 0x10420, symBinAddr: 0x100010ED0, symSize: 0x20 }
  - { offset: 0x9D2BE, size: 0x8, addend: 0x0, symName: __ZN17QArrayDataPointerI14QSharedPointerIN5Tiled7TilesetEEED2Ev, symObjAddr: 0x10440, symBinAddr: 0x100010EF0, symSize: 0x50 }
  - { offset: 0x9D2E8, size: 0x8, addend: 0x0, symName: __ZN17QArrayDataPointerI14QSharedPointerIN5Tiled7TilesetEEE5derefEv, symObjAddr: 0x10490, symBinAddr: 0x100010F40, symSize: 0x40 }
  - { offset: 0x9D30E, size: 0x8, addend: 0x0, symName: __ZN17QArrayDataPointerI14QSharedPointerIN5Tiled7TilesetEEEptEv, symObjAddr: 0x104D0, symBinAddr: 0x100010F80, symSize: 0x10 }
  - { offset: 0x9D334, size: 0x8, addend: 0x0, symName: __ZN9QtPrivate16QGenericArrayOpsI14QSharedPointerIN5Tiled7TilesetEEE10destroyAllEv, symObjAddr: 0x104E0, symBinAddr: 0x100010F90, symSize: 0x90 }
  - { offset: 0x9D35A, size: 0x8, addend: 0x0, symName: __ZN15QTypedArrayDataI14QSharedPointerIN5Tiled7TilesetEEE10deallocateEP10QArrayData, symObjAddr: 0x10570, symBinAddr: 0x100011020, symSize: 0x30 }
  - { offset: 0x9D37D, size: 0x8, addend: 0x0, symName: __ZN17QArrayDataPointerI14QSharedPointerIN5Tiled7TilesetEEE5beginEv, symObjAddr: 0x105D0, symBinAddr: 0x100011080, symSize: 0x20 }
  - { offset: 0x9D3A3, size: 0x8, addend: 0x0, symName: __ZN17QArrayDataPointerI14QSharedPointerIN5Tiled7TilesetEEE3endEv, symObjAddr: 0x105F0, symBinAddr: 0x1000110A0, symSize: 0x30 }
  - { offset: 0x9D3C9, size: 0x8, addend: 0x0, symName: __ZN17QArrayDataPointerI14QSharedPointerIN5Tiled7TilesetEEE4dataEv, symObjAddr: 0x10680, symBinAddr: 0x100011130, symSize: 0x20 }
  - { offset: 0x9D3EF, size: 0x8, addend: 0x0, symName: __ZN12_GLOBAL__N_118CommandLineOptionsD2Ev, symObjAddr: 0x106A0, symBinAddr: 0x100011150, symSize: 0x50 }
  - { offset: 0x9D41B, size: 0x8, addend: 0x0, symName: __ZN5QListIS_I7QStringEED1Ev, symObjAddr: 0x106F0, symBinAddr: 0x1000111A0, symSize: 0x20 }
  - { offset: 0x9D447, size: 0x8, addend: 0x0, symName: __ZN5QListIS_I7QStringEED2Ev, symObjAddr: 0x10710, symBinAddr: 0x1000111C0, symSize: 0x20 }
  - { offset: 0x9D473, size: 0x8, addend: 0x0, symName: __ZN17QArrayDataPointerIDsED2Ev, symObjAddr: 0x10730, symBinAddr: 0x1000111E0, symSize: 0x40 }
  - { offset: 0x9D49D, size: 0x8, addend: 0x0, symName: __ZN17QArrayDataPointerIDsE5derefEv, symObjAddr: 0x10770, symBinAddr: 0x100011220, symSize: 0x40 }
  - { offset: 0x9D4C3, size: 0x8, addend: 0x0, symName: __ZN17QArrayDataPointerIDsEptEv, symObjAddr: 0x107B0, symBinAddr: 0x100011260, symSize: 0x10 }
  - { offset: 0x9D4E9, size: 0x8, addend: 0x0, symName: __ZN9QtPrivate12QPodArrayOpsIDsE10destroyAllEv, symObjAddr: 0x107C0, symBinAddr: 0x100011270, symSize: 0x70 }
  - { offset: 0x9D50F, size: 0x8, addend: 0x0, symName: __ZN15QTypedArrayDataIDsE10deallocateEP10QArrayData, symObjAddr: 0x10830, symBinAddr: 0x1000112E0, symSize: 0x30 }
  - { offset: 0x9D532, size: 0x8, addend: 0x0, symName: __ZN14QSharedPointerIN5Tiled7TilesetEED2Ev, symObjAddr: 0x10860, symBinAddr: 0x100011310, symSize: 0x20 }
  - { offset: 0x9D55C, size: 0x8, addend: 0x0, symName: __ZN14QSharedPointerIN5Tiled7TilesetEE5derefEv, symObjAddr: 0x10880, symBinAddr: 0x100011330, symSize: 0x20 }
  - { offset: 0x9D582, size: 0x8, addend: 0x0, symName: __ZN14QSharedPointerIN5Tiled7TilesetEE5derefEPN15QtSharedPointer20ExternalRefCountDataE, symObjAddr: 0x108A0, symBinAddr: 0x100011350, symSize: 0x70 }
  - { offset: 0x9D5A6, size: 0x8, addend: 0x0, symName: __ZNK17QArrayDataPointerI14QSharedPointerIN5Tiled9WangColorEEE10constBeginEv, symObjAddr: 0x10910, symBinAddr: 0x1000113C0, symSize: 0x20 }
  - { offset: 0x9D5CC, size: 0x8, addend: 0x0, symName: __ZN5QListI14QSharedPointerIN5Tiled9WangColorEEE14const_iteratorC1EPKS3_, symObjAddr: 0x10930, symBinAddr: 0x1000113E0, symSize: 0x30 }
  - { offset: 0x9D604, size: 0x8, addend: 0x0, symName: __ZN5QListI14QSharedPointerIN5Tiled9WangColorEEE14const_iteratorC2EPKS3_, symObjAddr: 0x10960, symBinAddr: 0x100011410, symSize: 0x20 }
  - { offset: 0x9D63C, size: 0x8, addend: 0x0, symName: __ZNK17QArrayDataPointerI14QSharedPointerIN5Tiled9WangColorEEE8constEndEv, symObjAddr: 0x10980, symBinAddr: 0x100011430, symSize: 0x30 }
  - { offset: 0x9D662, size: 0x8, addend: 0x0, symName: __ZN17QArrayDataPointerIDsEC1EP15QTypedArrayDataIDsEPDsx, symObjAddr: 0x109B0, symBinAddr: 0x100011460, symSize: 0x40 }
  - { offset: 0x9D6B6, size: 0x8, addend: 0x0, symName: __ZN17QArrayDataPointerIDsEC2EP15QTypedArrayDataIDsEPDsx, symObjAddr: 0x109F0, symBinAddr: 0x1000114A0, symSize: 0x40 }
  - { offset: 0x9D70A, size: 0x8, addend: 0x0, symName: __ZN14QSharedPointerIN5Tiled7TilesetEEC1EOS2_, symObjAddr: 0x10A30, symBinAddr: 0x1000114E0, symSize: 0x30 }
  - { offset: 0x9D743, size: 0x8, addend: 0x0, symName: __ZN14QSharedPointerIN5Tiled7TilesetEE4swapERS2_, symObjAddr: 0x10A60, symBinAddr: 0x100011510, symSize: 0x30 }
  - { offset: 0x9D778, size: 0x8, addend: 0x0, symName: __ZN14QSharedPointerIN5Tiled7TilesetEEC2EOS2_, symObjAddr: 0x10A90, symBinAddr: 0x100011540, symSize: 0x70 }
  - { offset: 0x9D7B1, size: 0x8, addend: 0x0, symName: __ZNK2Qt23totally_ordered_wrapperIPN5Tiled7TilesetEE3getEv, symObjAddr: 0x10B00, symBinAddr: 0x1000115B0, symSize: 0x20 }
  - { offset: 0x9D7D7, size: 0x8, addend: 0x0, symName: __ZN14QSharedPointerIN5Tiled7TilesetEE12internalSwapERS2_, symObjAddr: 0x10B20, symBinAddr: 0x1000115D0, symSize: 0x40 }
  - { offset: 0x9D80B, size: 0x8, addend: 0x0, symName: __Z11qt_ptr_swapIN15QtSharedPointer20ExternalRefCountDataEEvRPT_S4_, symObjAddr: 0x10B60, symBinAddr: 0x100011610, symSize: 0x40 }
  - { offset: 0x9D858, size: 0x8, addend: 0x0, symName: __Z11qt_ptr_swapIN5Tiled7TilesetEEvRPT_S4_, symObjAddr: 0x10BD0, symBinAddr: 0x100011680, symSize: 0x40 }
  - { offset: 0x9D8A6, size: 0x8, addend: 0x0, symName: __ZNK14QSharedPointerIN5Tiled7TilesetEE6isNullEv, symObjAddr: 0x10C10, symBinAddr: 0x1000116C0, symSize: 0x30 }
  - { offset: 0x9D8CC, size: 0x8, addend: 0x0, symName: __ZN5QListI14QSharedPointerIN5Tiled7TilesetEEE11emplaceBackIJRKS3_EEERS3_DpOT_, symObjAddr: 0x10C40, symBinAddr: 0x1000116F0, symSize: 0x70 }
  - { offset: 0x9D90C, size: 0x8, addend: 0x0, symName: __ZN9QtPrivate16QMovableArrayOpsI14QSharedPointerIN5Tiled7TilesetEEE7emplaceIJRKS4_EEEvxDpOT_, symObjAddr: 0x10CB0, symBinAddr: 0x100011760, symSize: 0x210 }
  - { offset: 0x9D997, size: 0x8, addend: 0x0, symName: __ZNK5QListI14QSharedPointerIN5Tiled7TilesetEEE8iteratormiEx, symObjAddr: 0x10EC0, symBinAddr: 0x100011970, symSize: 0x40 }
  - { offset: 0x9D9CB, size: 0x8, addend: 0x0, symName: __ZNK17QArrayDataPointerI14QSharedPointerIN5Tiled7TilesetEEE11needsDetachEv, symObjAddr: 0x10F00, symBinAddr: 0x1000119B0, symSize: 0x40 }
  - { offset: 0x9D9F1, size: 0x8, addend: 0x0, symName: __ZNK17QArrayDataPointerI14QSharedPointerIN5Tiled7TilesetEEE14freeSpaceAtEndEv, symObjAddr: 0x10F40, symBinAddr: 0x1000119F0, symSize: 0x60 }
  - { offset: 0x9DA17, size: 0x8, addend: 0x0, symName: __ZN14QSharedPointerIN5Tiled7TilesetEEC1ERKS2_, symObjAddr: 0x10FA0, symBinAddr: 0x100011A50, symSize: 0x30 }
  - { offset: 0x9DA50, size: 0x8, addend: 0x0, symName: __ZNK17QArrayDataPointerI14QSharedPointerIN5Tiled7TilesetEEE16freeSpaceAtBeginEv, symObjAddr: 0x10FD0, symBinAddr: 0x100011A80, symSize: 0x60 }
  - { offset: 0x9DA76, size: 0x8, addend: 0x0, symName: __ZN17QArrayDataPointerI14QSharedPointerIN5Tiled7TilesetEEE13detachAndGrowEN10QArrayData14GrowthPositionExPPKS3_PS4_, symObjAddr: 0x11030, symBinAddr: 0x100011AE0, symSize: 0x100 }
  - { offset: 0x9DB10, size: 0x8, addend: 0x0, symName: __ZN9QtPrivate16QMovableArrayOpsI14QSharedPointerIN5Tiled7TilesetEEE8InserterC1EP17QArrayDataPointerIS4_Exx, symObjAddr: 0x11130, symBinAddr: 0x100011BE0, symSize: 0x40 }
  - { offset: 0x9DB67, size: 0x8, addend: 0x0, symName: __ZN9QtPrivate16QMovableArrayOpsI14QSharedPointerIN5Tiled7TilesetEEE8Inserter9insertOneEOS4_, symObjAddr: 0x11170, symBinAddr: 0x100011C20, symSize: 0x40 }
  - { offset: 0x9DB9C, size: 0x8, addend: 0x0, symName: __ZN9QtPrivate16QMovableArrayOpsI14QSharedPointerIN5Tiled7TilesetEEE8InserterD1Ev, symObjAddr: 0x111B0, symBinAddr: 0x100011C60, symSize: 0x20 }
  - { offset: 0x9DBC6, size: 0x8, addend: 0x0, symName: __ZN14QSharedPointerIN5Tiled7TilesetEEC2ERKS2_, symObjAddr: 0x111D0, symBinAddr: 0x100011C80, symSize: 0x60 }
  - { offset: 0x9DBFF, size: 0x8, addend: 0x0, symName: __ZNK14QSharedPointerIN5Tiled7TilesetEE3refEv, symObjAddr: 0x11230, symBinAddr: 0x100011CE0, symSize: 0x40 }
  - { offset: 0x9DC25, size: 0x8, addend: 0x0, symName: __ZN15QTypedArrayDataI14QSharedPointerIN5Tiled7TilesetEEE9dataStartEP10QArrayDatax, symObjAddr: 0x11270, symBinAddr: 0x100011D20, symSize: 0x80 }
  - { offset: 0x9DC64, size: 0x8, addend: 0x0, symName: __ZN17QArrayDataPointerI14QSharedPointerIN5Tiled7TilesetEEE20tryReadjustFreeSpaceEN10QArrayData14GrowthPositionExPPKS3_, symObjAddr: 0x112F0, symBinAddr: 0x100011DA0, symSize: 0x1E0 }
  - { offset: 0x9DCF4, size: 0x8, addend: 0x0, symName: __ZN17QArrayDataPointerI14QSharedPointerIN5Tiled7TilesetEEE17reallocateAndGrowEN10QArrayData14GrowthPositionExPS4_, symObjAddr: 0x114D0, symBinAddr: 0x100011F80, symSize: 0x260 }
  - { offset: 0x9DD6F, size: 0x8, addend: 0x0, symName: __ZNK17QArrayDataPointerI14QSharedPointerIN5Tiled7TilesetEEE22constAllocatedCapacityEv, symObjAddr: 0x11730, symBinAddr: 0x1000121E0, symSize: 0x40 }
  - { offset: 0x9DD95, size: 0x8, addend: 0x0, symName: __ZN17QArrayDataPointerI14QSharedPointerIN5Tiled7TilesetEEE8relocateExPPKS3_, symObjAddr: 0x11770, symBinAddr: 0x100012220, symSize: 0x80 }
  - { offset: 0x9DDEE, size: 0x8, addend: 0x0, symName: __ZNKSt3__14lessIvEclB9nqe210106IRPK14QSharedPointerIN5Tiled7TilesetEES9_EEDTltclsr3stdE7forwardIT_Efp_Eclsr3stdE7forwardIT0_Efp0_EEOSA_OSB_, symObjAddr: 0x119C0, symBinAddr: 0x100012470, symSize: 0x30 }
  - { offset: 0x9DE44, size: 0x8, addend: 0x0, symName: __ZNK17QArrayDataPointerI14QSharedPointerIN5Tiled7TilesetEEE4dataEv, symObjAddr: 0x119F0, symBinAddr: 0x1000124A0, symSize: 0x20 }
  - { offset: 0x9DE6A, size: 0x8, addend: 0x0, symName: __ZNK17QArrayDataPointerI14QSharedPointerIN5Tiled7TilesetEEE5beginEv, symObjAddr: 0x11A30, symBinAddr: 0x1000124E0, symSize: 0x20 }
  - { offset: 0x9DE90, size: 0x8, addend: 0x0, symName: __ZNK17QArrayDataPointerI14QSharedPointerIN5Tiled7TilesetEEE3endEv, symObjAddr: 0x11A50, symBinAddr: 0x100012500, symSize: 0x30 }
  - { offset: 0x9DEB6, size: 0x8, addend: 0x0, symName: __ZN9QtPrivate16QMovableArrayOpsI14QSharedPointerIN5Tiled7TilesetEEE10reallocateExN10QArrayData16AllocationOptionE, symObjAddr: 0x11A80, symBinAddr: 0x100012530, symSize: 0x80 }
  - { offset: 0x9DF09, size: 0x8, addend: 0x0, symName: __ZN17QArrayDataPointerI14QSharedPointerIN5Tiled7TilesetEEE12allocateGrowERKS4_xN10QArrayData14GrowthPositionE, symObjAddr: 0x11B00, symBinAddr: 0x1000125B0, symSize: 0x230 }
  - { offset: 0x9DFA4, size: 0x8, addend: 0x0, symName: __ZN9QtPrivate16QGenericArrayOpsI14QSharedPointerIN5Tiled7TilesetEEE10copyAppendEPKS4_S7_, symObjAddr: 0x11D30, symBinAddr: 0x1000127E0, symSize: 0x150 }
  - { offset: 0x9DFF7, size: 0x8, addend: 0x0, symName: __ZN9QtPrivate16QGenericArrayOpsI14QSharedPointerIN5Tiled7TilesetEEE10moveAppendEPS4_S6_, symObjAddr: 0x11E80, symBinAddr: 0x100012930, symSize: 0x150 }
  - { offset: 0x9E04A, size: 0x8, addend: 0x0, symName: __ZN17QArrayDataPointerI14QSharedPointerIN5Tiled7TilesetEEE4swapERS4_, symObjAddr: 0x11FD0, symBinAddr: 0x100012A80, symSize: 0x60 }
  - { offset: 0x9E07E, size: 0x8, addend: 0x0, symName: __ZN15QTypedArrayDataI14QSharedPointerIN5Tiled7TilesetEEE19reallocateUnalignedEPS4_PS3_xN10QArrayData16AllocationOptionE, symObjAddr: 0x12030, symBinAddr: 0x100012AE0, symSize: 0x70 }
  - { offset: 0x9E0E5, size: 0x8, addend: 0x0, symName: __ZNSt3__14pairIP15QTypedArrayDataI14QSharedPointerIN5Tiled7TilesetEEEPS5_EC1B9nqe210106IS7_S8_Li0EEEOT_OT0_, symObjAddr: 0x120A0, symBinAddr: 0x100012B50, symSize: 0x30 }
  - { offset: 0x9E143, size: 0x8, addend: 0x0, symName: __ZNSt3__14pairIP15QTypedArrayDataI14QSharedPointerIN5Tiled7TilesetEEEPS5_EC2B9nqe210106IS7_S8_Li0EEEOT_OT0_, symObjAddr: 0x120D0, symBinAddr: 0x100012B80, symSize: 0x30 }
  - { offset: 0x9E1A1, size: 0x8, addend: 0x0, symName: __ZNK17QArrayDataPointerI14QSharedPointerIN5Tiled7TilesetEEE14detachCapacityEx, symObjAddr: 0x12100, symBinAddr: 0x100012BB0, symSize: 0x50 }
  - { offset: 0x9E1D6, size: 0x8, addend: 0x0, symName: __ZN15QTypedArrayDataI14QSharedPointerIN5Tiled7TilesetEEE8allocateExN10QArrayData16AllocationOptionE, symObjAddr: 0x12150, symBinAddr: 0x100012C00, symSize: 0x60 }
  - { offset: 0x9E223, size: 0x8, addend: 0x0, symName: __ZN17QArrayDataPointerI14QSharedPointerIN5Tiled7TilesetEEEC1EP15QTypedArrayDataIS3_EPS3_x, symObjAddr: 0x121F0, symBinAddr: 0x100012CA0, symSize: 0x40 }
  - { offset: 0x9E277, size: 0x8, addend: 0x0, symName: __ZNK17QArrayDataPointerI14QSharedPointerIN5Tiled7TilesetEEE5flagsEv, symObjAddr: 0x12230, symBinAddr: 0x100012CE0, symSize: 0x40 }
  - { offset: 0x9E29D, size: 0x8, addend: 0x0, symName: __ZNSt3__110__get_pairILm0EE3getB9nqe210106IP15QTypedArrayDataI14QSharedPointerIN5Tiled7TilesetEEEPS7_EEOT_ONS_4pairISB_T0_EE, symObjAddr: 0x12270, symBinAddr: 0x100012D20, symSize: 0x10 }
  - { offset: 0x9E2D3, size: 0x8, addend: 0x0, symName: __ZNSt3__110__get_pairILm1EE3getB9nqe210106IP15QTypedArrayDataI14QSharedPointerIN5Tiled7TilesetEEEPS7_EEOT0_ONS_4pairIT_SB_EE, symObjAddr: 0x12280, symBinAddr: 0x100012D30, symSize: 0x20 }
  - { offset: 0x9E309, size: 0x8, addend: 0x0, symName: __ZN17QArrayDataPointerI14QSharedPointerIN5Tiled7TilesetEEEC2EP15QTypedArrayDataIS3_EPS3_x, symObjAddr: 0x122A0, symBinAddr: 0x100012D50, symSize: 0x40 }
  - { offset: 0x9E35D, size: 0x8, addend: 0x0, symName: __ZNK17QArrayDataPointerI14QSharedPointerIN5Tiled7TilesetEEE9isMutableEv, symObjAddr: 0x122E0, symBinAddr: 0x100012D90, symSize: 0x20 }
  - { offset: 0x9E383, size: 0x8, addend: 0x0, symName: __ZNK17QArrayDataPointerI14QSharedPointerIN5Tiled7TilesetEEE8isSharedEv, symObjAddr: 0x12300, symBinAddr: 0x100012DB0, symSize: 0x40 }
  - { offset: 0x9E3A8, size: 0x8, addend: 0x0, symName: __Z11qt_ptr_swapI15QTypedArrayDataI14QSharedPointerIN5Tiled7TilesetEEEEvRPT_S8_, symObjAddr: 0x12340, symBinAddr: 0x100012DF0, symSize: 0x40 }
  - { offset: 0x9E3F5, size: 0x8, addend: 0x0, symName: __Z11qt_ptr_swapI14QSharedPointerIN5Tiled7TilesetEEEvRPT_S6_, symObjAddr: 0x12380, symBinAddr: 0x100012E30, symSize: 0x40 }
  - { offset: 0x9E443, size: 0x8, addend: 0x0, symName: __ZN9QtPrivate16QMovableArrayOpsI14QSharedPointerIN5Tiled7TilesetEEE8InserterC2EP17QArrayDataPointerIS4_Exx, symObjAddr: 0x123C0, symBinAddr: 0x100012E70, symSize: 0x80 }
  - { offset: 0x9E49A, size: 0x8, addend: 0x0, symName: __ZN9QtPrivate16QMovableArrayOpsI14QSharedPointerIN5Tiled7TilesetEEE8Inserter10verifyPostEv, symObjAddr: 0x12440, symBinAddr: 0x100012EF0, symSize: 0x40 }
  - { offset: 0x9E4C0, size: 0x8, addend: 0x0, symName: __ZN9QtPrivate16QMovableArrayOpsI14QSharedPointerIN5Tiled7TilesetEEE8InserterD2Ev, symObjAddr: 0x12480, symBinAddr: 0x100012F30, symSize: 0x30 }
  - { offset: 0x9E507, size: 0x8, addend: 0x0, symName: __ZN5QListI14QSharedPointerIN5Tiled7TilesetEEE8iteratorC1EPS3_, symObjAddr: 0x124B0, symBinAddr: 0x100012F60, symSize: 0x30 }
  - { offset: 0x9E53F, size: 0x8, addend: 0x0, symName: __ZN5QListI14QSharedPointerIN5Tiled7TilesetEEE8iteratorC2EPS3_, symObjAddr: 0x124E0, symBinAddr: 0x100012F90, symSize: 0x20 }
  - { offset: 0x9E577, size: 0x8, addend: 0x0, symName: __ZNK17QArrayDataPointerI7QStringE10constBeginEv, symObjAddr: 0x12500, symBinAddr: 0x100012FB0, symSize: 0x20 }
  - { offset: 0x9E59D, size: 0x8, addend: 0x0, symName: __ZN5QListI7QStringE14const_iteratorC1EPKS0_, symObjAddr: 0x12520, symBinAddr: 0x100012FD0, symSize: 0x30 }
  - { offset: 0x9E5D5, size: 0x8, addend: 0x0, symName: __ZN5QListI7QStringE14const_iteratorC2EPKS0_, symObjAddr: 0x12550, symBinAddr: 0x100013000, symSize: 0x20 }
  - { offset: 0x9E60D, size: 0x8, addend: 0x0, symName: __ZNK17QArrayDataPointerI7QStringE8constEndEv, symObjAddr: 0x12570, symBinAddr: 0x100013020, symSize: 0x30 }
  - { offset: 0x9E633, size: 0x8, addend: 0x0, symName: __ZNK5QListI14QSharedPointerIN5Tiled7TilesetEEE7isEmptyEv, symObjAddr: 0x125A0, symBinAddr: 0x100013050, symSize: 0x30 }
  - { offset: 0x9E659, size: 0x8, addend: 0x0, symName: __ZNK5QListI14QSharedPointerIN5Tiled7TilesetEEE4sizeEv, symObjAddr: 0x125D0, symBinAddr: 0x100013080, symSize: 0x50 }
  - { offset: 0x9E6C2, size: 0x8, addend: 0x0, symName: __ZZNK5QListI14QSharedPointerIN5Tiled7TilesetEEE4sizeEvENKUlvE_clEv, symObjAddr: 0x12620, symBinAddr: 0x1000130D0, symSize: 0x50 }
  - { offset: 0x9E6EC, size: 0x8, addend: 0x0, symName: __ZN14QSharedPointerIN5Tiled7TilesetEE6createIJR7QStringRiS6_EEES2_DpOT_, symObjAddr: 0x12670, symBinAddr: 0x100013120, symSize: 0x1A0 }
  - { offset: 0x9E780, size: 0x8, addend: 0x0, symName: __ZN15QtSharedPointer34ExternalRefCountWithContiguousDataIN5Tiled7TilesetEE7deleterEPNS_20ExternalRefCountDataE, symObjAddr: 0x12810, symBinAddr: 0x1000132C0, symSize: 0x30 }
  - { offset: 0x9E7B1, size: 0x8, addend: 0x0, symName: __ZN15QtSharedPointer34ExternalRefCountWithContiguousDataIN5Tiled7TilesetEE9noDeleterEPNS_20ExternalRefCountDataE, symObjAddr: 0x12840, symBinAddr: 0x1000132F0, symSize: 0x10 }
  - { offset: 0x9E7D0, size: 0x8, addend: 0x0, symName: __ZN14QSharedPointerIN5Tiled7TilesetEEC1EN2Qt14InitializationE, symObjAddr: 0x12850, symBinAddr: 0x100013300, symSize: 0x30 }
  - { offset: 0x9E806, size: 0x8, addend: 0x0, symName: __ZN15QtSharedPointer34ExternalRefCountWithContiguousDataIN5Tiled7TilesetEE6createEPPS2_PFvPNS_20ExternalRefCountDataEE, symObjAddr: 0x12880, symBinAddr: 0x100013330, symSize: 0xA0 }
  - { offset: 0x9E845, size: 0x8, addend: 0x0, symName: __ZN2Qt23totally_ordered_wrapperIPN5Tiled7TilesetEE5resetES3_, symObjAddr: 0x12920, symBinAddr: 0x1000133D0, symSize: 0x20 }
  - { offset: 0x9E87F, size: 0x8, addend: 0x0, symName: __ZN14QSharedPointerIN5Tiled7TilesetEE20enableSharedFromThisIS1_EEvPK21QEnableSharedFromThisIT_E, symObjAddr: 0x12940, symBinAddr: 0x1000133F0, symSize: 0x70 }
  - { offset: 0x9E8BD, size: 0x8, addend: 0x0, symName: __ZN14QSharedPointerIN5Tiled7TilesetEEC2EN2Qt14InitializationE, symObjAddr: 0x129B0, symBinAddr: 0x100013460, symSize: 0x10 }
  - { offset: 0x9E8F3, size: 0x8, addend: 0x0, symName: __ZNK21QEnableSharedFromThisIN5Tiled7TilesetEE27initializeFromSharedPointerIS1_EEvRK14QSharedPointerIT_E, symObjAddr: 0x129C0, symBinAddr: 0x100013470, symSize: 0x30 }
  - { offset: 0x9E931, size: 0x8, addend: 0x0, symName: __ZNKR14QSharedPointerIN5Tiled7TilesetEE9constCastIS1_EES_IT_Ev, symObjAddr: 0x129F0, symBinAddr: 0x1000134A0, symSize: 0x30 }
  - { offset: 0x9E960, size: 0x8, addend: 0x0, symName: __ZN12QWeakPointerIN5Tiled7TilesetEEaSERK14QSharedPointerIS1_E, symObjAddr: 0x12A20, symBinAddr: 0x1000134D0, symSize: 0x50 }
  - { offset: 0x9E995, size: 0x8, addend: 0x0, symName: __ZN12QWeakPointerIN5Tiled7TilesetEE11internalSetEPN15QtSharedPointer20ExternalRefCountDataEPS1_, symObjAddr: 0x12A70, symBinAddr: 0x100013520, symSize: 0x90 }
  - { offset: 0x9E9D8, size: 0x8, addend: 0x0, symName: __Z23qSharedPointerConstCastIN5Tiled7TilesetES1_E14QSharedPointerIT_ERKS2_IT0_E, symObjAddr: 0x12B00, symBinAddr: 0x1000135B0, symSize: 0x50 }
  - { offset: 0x9EA27, size: 0x8, addend: 0x0, symName: __ZN14QSharedPointerIN5Tiled7TilesetEE11internalSetEPN15QtSharedPointer20ExternalRefCountDataEPS1_, symObjAddr: 0x12BD0, symBinAddr: 0x100013680, symSize: 0xF0 }
  - { offset: 0x9EA88, size: 0x8, addend: 0x0, symName: __ZN19QBasicAtomicIntegerIiE17testAndSetRelaxedEii, symObjAddr: 0x12CC0, symBinAddr: 0x100013770, symSize: 0x30 }
  - { offset: 0x9EACA, size: 0x8, addend: 0x0, symName: __ZN10QAtomicOpsIiE17testAndSetRelaxedIiEEbRNSt3__16atomicIT_EES4_S4_PS4_, symObjAddr: 0x12CF0, symBinAddr: 0x1000137A0, symSize: 0x50 }
  - { offset: 0x9EB33, size: 0x8, addend: 0x0, symName: __ZNSt3__113__atomic_baseIiLb0EE23compare_exchange_strongB9nqe210106ERiiNS_12memory_orderES3_, symObjAddr: 0x12D40, symBinAddr: 0x1000137F0, symSize: 0x40 }
  - { offset: 0x9EB91, size: 0x8, addend: 0x0, symName: __ZNSt3__110unique_ptrIN5Tiled7WangSetENS_14default_deleteIS2_EEEC1B9nqe210106ILb1EvEEPS2_, symObjAddr: 0x13290, symBinAddr: 0x100013D40, symSize: 0x30 }
  - { offset: 0x9EBD4, size: 0x8, addend: 0x0, symName: __ZNSt3__110unique_ptrIN5Tiled7WangSetENS_14default_deleteIS2_EEEC2B9nqe210106ILb1EvEEPS2_, symObjAddr: 0x132C0, symBinAddr: 0x100013D70, symSize: 0x20 }
  - { offset: 0x9EC17, size: 0x8, addend: 0x0, symName: __ZNSt3__110unique_ptrIN5Tiled7WangSetENS_14default_deleteIS2_EEED2B9nqe210106Ev, symObjAddr: 0x132E0, symBinAddr: 0x100013D90, symSize: 0x20 }
  - { offset: 0x9EC41, size: 0x8, addend: 0x0, symName: __ZNSt3__110unique_ptrIN5Tiled7WangSetENS_14default_deleteIS2_EEE5resetB9nqe210106EPS2_, symObjAddr: 0x13300, symBinAddr: 0x100013DB0, symSize: 0x40 }
  - { offset: 0x9EC85, size: 0x8, addend: 0x0, symName: __ZNKSt3__114default_deleteIN5Tiled7WangSetEEclB9nqe210106EPS2_, symObjAddr: 0x13340, symBinAddr: 0x100013DF0, symSize: 0x30 }
  - { offset: 0x9ECB9, size: 0x8, addend: 0x0, symName: __ZN5QListI14QSharedPointerIN5Tiled7TilesetEEE6detachEv, symObjAddr: 0x13370, symBinAddr: 0x100013E20, symSize: 0x20 }
  - { offset: 0x9ECDF, size: 0x8, addend: 0x0, symName: __ZN17QArrayDataPointerI14QSharedPointerIN5Tiled7TilesetEEE6detachEPS4_, symObjAddr: 0x13390, symBinAddr: 0x100013E40, symSize: 0x40 }
  - { offset: 0x9ED13, size: 0x8, addend: 0x0, symName: __ZNK17QArrayDataPointerIPN5Tiled7WangSetEE10constBeginEv, symObjAddr: 0x133D0, symBinAddr: 0x100013E80, symSize: 0x20 }
  - { offset: 0x9ED39, size: 0x8, addend: 0x0, symName: __ZN5QListIPN5Tiled7WangSetEE14const_iteratorC1EPKS2_, symObjAddr: 0x133F0, symBinAddr: 0x100013EA0, symSize: 0x30 }
  - { offset: 0x9ED71, size: 0x8, addend: 0x0, symName: __ZN5QListIPN5Tiled7WangSetEE14const_iteratorC2EPKS2_, symObjAddr: 0x13420, symBinAddr: 0x100013ED0, symSize: 0x20 }
  - { offset: 0x9EDA9, size: 0x8, addend: 0x0, symName: __ZNK17QArrayDataPointerIPN5Tiled7WangSetEE8constEndEv, symObjAddr: 0x13440, symBinAddr: 0x100013EF0, symSize: 0x30 }
  - { offset: 0x9EDCF, size: 0x8, addend: 0x0, symName: __ZNK17QArrayDataPointerIPN5Tiled4TileEEptEv, symObjAddr: 0x13470, symBinAddr: 0x100013F20, symSize: 0x10 }
  - { offset: 0x9EDF5, size: 0x8, addend: 0x0, symName: __ZNK17QArrayDataPointerIPN5Tiled4TileEE10constBeginEv, symObjAddr: 0x13480, symBinAddr: 0x100013F30, symSize: 0x20 }
  - { offset: 0x9EE1B, size: 0x8, addend: 0x0, symName: __ZN5QListIPN5Tiled4TileEE14const_iteratorC1EPKS2_, symObjAddr: 0x134A0, symBinAddr: 0x100013F50, symSize: 0x30 }
  - { offset: 0x9EE53, size: 0x8, addend: 0x0, symName: __ZNK17QArrayDataPointerIPN5Tiled4TileEE4dataEv, symObjAddr: 0x134D0, symBinAddr: 0x100013F80, symSize: 0x20 }
  - { offset: 0x9EE79, size: 0x8, addend: 0x0, symName: __ZN5QListIPN5Tiled4TileEE14const_iteratorC2EPKS2_, symObjAddr: 0x134F0, symBinAddr: 0x100013FA0, symSize: 0x20 }
  - { offset: 0x9EEB1, size: 0x8, addend: 0x0, symName: __ZNK17QArrayDataPointerIPN5Tiled4TileEE8constEndEv, symObjAddr: 0x13510, symBinAddr: 0x100013FC0, symSize: 0x30 }
  - { offset: 0x9EED7, size: 0x8, addend: 0x0, symName: __ZNK9QtPrivate30QExplicitlySharedDataPointerV2I8QMapDataINSt3__13mapI16TileTerrainNamesPN5Tiled4TileENS2_4lessIS4_EENS2_9allocatorINS2_4pairIKS4_S7_EEEEEEEEcvbEv, symObjAddr: 0x13540, symBinAddr: 0x100013FF0, symSize: 0x30 }
  - { offset: 0x9EEFD, size: 0x8, addend: 0x0, symName: __ZNK9QtPrivate30QExplicitlySharedDataPointerV2I8QMapDataINSt3__13mapI16TileTerrainNamesPN5Tiled4TileENS2_4lessIS4_EENS2_9allocatorINS2_4pairIKS4_S7_EEEEEEEEptEv, symObjAddr: 0x13570, symBinAddr: 0x100014020, symSize: 0x20 }
  - { offset: 0x9EF23, size: 0x8, addend: 0x0, symName: __ZNKSt3__13mapI16TileTerrainNamesPN5Tiled4TileENS_4lessIS1_EENS_9allocatorINS_4pairIKS1_S4_EEEEE4findB9nqe210106ERS9_, symObjAddr: 0x13590, symBinAddr: 0x100014040, symSize: 0x40 }
  - { offset: 0x9EF58, size: 0x8, addend: 0x0, symName: __ZNKSt3__13mapI16TileTerrainNamesPN5Tiled4TileENS_4lessIS1_EENS_9allocatorINS_4pairIKS1_S4_EEEEE3endB9nqe210106Ev, symObjAddr: 0x13600, symBinAddr: 0x1000140B0, symSize: 0x30 }
  - { offset: 0x9EF7E, size: 0x8, addend: 0x0, symName: __ZNKSt3__16__treeINS_12__value_typeI16TileTerrainNamesPN5Tiled4TileEEENS_19__map_value_compareIS2_NS_4pairIKS2_S5_EENS_4lessIS2_EELb1EEENS_9allocatorISA_EEE4findIS2_EENS_21__tree_const_iteratorIS6_PNS_11__tree_nodeIS6_PvEElEERKT_, symObjAddr: 0x13630, symBinAddr: 0x1000140E0, symSize: 0xD0 }
  - { offset: 0x9EFCB, size: 0x8, addend: 0x0, symName: __ZNSt3__120__map_const_iteratorINS_21__tree_const_iteratorINS_12__value_typeI16TileTerrainNamesPN5Tiled4TileEEEPNS_11__tree_nodeIS7_PvEElEEEC1B9nqe210106ESC_, symObjAddr: 0x13700, symBinAddr: 0x1000141B0, symSize: 0x30 }
  - { offset: 0x9F004, size: 0x8, addend: 0x0, symName: __ZNKSt3__16__treeINS_12__value_typeI16TileTerrainNamesPN5Tiled4TileEEENS_19__map_value_compareIS2_NS_4pairIKS2_S5_EENS_4lessIS2_EELb1EEENS_9allocatorISA_EEE13__lower_boundIS2_EENS_21__tree_const_iteratorIS6_PNS_11__tree_nodeIS6_PvEElEERKT_SM_PNS_15__tree_end_nodeIPNS_16__tree_node_baseISK_EEEE, symObjAddr: 0x13730, symBinAddr: 0x1000141E0, symSize: 0x90 }
  - { offset: 0x9F060, size: 0x8, addend: 0x0, symName: __ZNKSt3__16__treeINS_12__value_typeI16TileTerrainNamesPN5Tiled4TileEEENS_19__map_value_compareIS2_NS_4pairIKS2_S5_EENS_4lessIS2_EELb1EEENS_9allocatorISA_EEE3endB9nqe210106Ev, symObjAddr: 0x137F0, symBinAddr: 0x1000142A0, symSize: 0x30 }
  - { offset: 0x9F086, size: 0x8, addend: 0x0, symName: __ZNKSt3__16__treeINS_12__value_typeI16TileTerrainNamesPN5Tiled4TileEEENS_19__map_value_compareIS2_NS_4pairIKS2_S5_EENS_4lessIS2_EELb1EEENS_9allocatorISA_EEE10value_compB9nqe210106Ev, symObjAddr: 0x13820, symBinAddr: 0x1000142D0, symSize: 0x20 }
  - { offset: 0x9F0AC, size: 0x8, addend: 0x0, symName: __ZNKSt3__119__map_value_compareI16TileTerrainNamesNS_4pairIKS1_PN5Tiled4TileEEENS_4lessIS1_EELb1EEclB9nqe210106ERS3_RKS7_, symObjAddr: 0x13840, symBinAddr: 0x1000142F0, symSize: 0x30 }
  - { offset: 0x9F0F0, size: 0x8, addend: 0x0, symName: __ZNKSt3__121__tree_const_iteratorINS_12__value_typeI16TileTerrainNamesPN5Tiled4TileEEEPNS_11__tree_nodeIS6_PvEElEdeB9nqe210106Ev, symObjAddr: 0x13870, symBinAddr: 0x100014320, symSize: 0x20 }
  - { offset: 0x9F116, size: 0x8, addend: 0x0, symName: __ZNKSt3__119__map_value_compareI16TileTerrainNamesNS_4pairIKS1_PN5Tiled4TileEEENS_4lessIS1_EELb1EEclB9nqe210106ERKS7_RS3_, symObjAddr: 0x13890, symBinAddr: 0x100014340, symSize: 0x30 }
  - { offset: 0x9F15A, size: 0x8, addend: 0x0, symName: __ZNSt3__121__tree_const_iteratorINS_12__value_typeI16TileTerrainNamesPN5Tiled4TileEEEPNS_11__tree_nodeIS6_PvEElEC1B9nqe210106EPNS_15__tree_end_nodeIPNS_16__tree_node_baseIS8_EEEE, symObjAddr: 0x138C0, symBinAddr: 0x100014370, symSize: 0x30 }
  - { offset: 0x9F193, size: 0x8, addend: 0x0, symName: __ZNKSt3__14lessI16TileTerrainNamesEclB9nqe210106ERKS1_S4_, symObjAddr: 0x138F0, symBinAddr: 0x1000143A0, symSize: 0x30 }
  - { offset: 0x9F1D7, size: 0x8, addend: 0x0, symName: __ZNK16TileTerrainNamesltERKS_, symObjAddr: 0x13920, symBinAddr: 0x1000143D0, symSize: 0xE0 }
  - { offset: 0x9F20B, size: 0x8, addend: 0x0, symName: __ZneRK7QStringS1_, symObjAddr: 0x13A00, symBinAddr: 0x1000144B0, symSize: 0x30 }
  - { offset: 0x9F248, size: 0x8, addend: 0x0, symName: __ZltRK7QStringS1_, symObjAddr: 0x13A30, symBinAddr: 0x1000144E0, symSize: 0x40 }
  - { offset: 0x9F29B, size: 0x8, addend: 0x0, symName: __Z15compareThreeWayRK7QStringS1_, symObjAddr: 0x13AC0, symBinAddr: 0x100014570, symSize: 0x50 }
  - { offset: 0x9F2F0, size: 0x8, addend: 0x0, symName: __ZN9QtPrivate25CompareAgainstLiteralZeroC1EMS0_FvvE, symObjAddr: 0x13B30, symBinAddr: 0x1000145E0, symSize: 0x50 }
  - { offset: 0x9F324, size: 0x8, addend: 0x0, symName: __ZN9QtPrivate25CompareAgainstLiteralZeroC2EMS0_FvvE, symObjAddr: 0x13B80, symBinAddr: 0x100014630, symSize: 0x30 }
  - { offset: 0x9F357, size: 0x8, addend: 0x0, symName: __Z15compareThreeWayRK11QStringViewS1_, symObjAddr: 0x13BB0, symBinAddr: 0x100014660, symSize: 0x70 }
  - { offset: 0x9F3A4, size: 0x8, addend: 0x0, symName: __ZNSt3__121__tree_const_iteratorINS_12__value_typeI16TileTerrainNamesPN5Tiled4TileEEEPNS_11__tree_nodeIS6_PvEElEC2B9nqe210106EPNS_15__tree_end_nodeIPNS_16__tree_node_baseIS8_EEEE, symObjAddr: 0x13C70, symBinAddr: 0x100014720, symSize: 0x20 }
  - { offset: 0x9F3DD, size: 0x8, addend: 0x0, symName: __ZNKSt3__121__tree_const_iteratorINS_12__value_typeI16TileTerrainNamesPN5Tiled4TileEEEPNS_11__tree_nodeIS6_PvEElE8__get_npB9nqe210106Ev, symObjAddr: 0x13CC0, symBinAddr: 0x100014770, symSize: 0x20 }
  - { offset: 0x9F403, size: 0x8, addend: 0x0, symName: __ZNSt3__120__map_const_iteratorINS_21__tree_const_iteratorINS_12__value_typeI16TileTerrainNamesPN5Tiled4TileEEEPNS_11__tree_nodeIS7_PvEElEEEC2B9nqe210106ESC_, symObjAddr: 0x13CE0, symBinAddr: 0x100014790, symSize: 0x20 }
  - { offset: 0x9F43C, size: 0x8, addend: 0x0, symName: __ZN4QMapI16TileTerrainNamesPN5Tiled4TileEE28referenceHoldingDetachExceptERKS0_, symObjAddr: 0x13D00, symBinAddr: 0x1000147B0, symSize: 0x170 }
  - { offset: 0x9F496, size: 0x8, addend: 0x0, symName: __ZN9QtPrivate30QExplicitlySharedDataPointerV2I8QMapDataINSt3__13mapI16TileTerrainNamesPN5Tiled4TileENS2_4lessIS4_EENS2_9allocatorINS2_4pairIKS4_S7_EEEEEEEEptEv, symObjAddr: 0x13E70, symBinAddr: 0x100014920, symSize: 0x20 }
  - { offset: 0x9F4BC, size: 0x8, addend: 0x0, symName: __ZNSt3__13mapI16TileTerrainNamesPN5Tiled4TileENS_4lessIS1_EENS_9allocatorINS_4pairIKS1_S4_EEEEE16insert_or_assignB9nqe210106IRKS4_EENS8_INS_14__map_iteratorINS_15__tree_iteratorINS_12__value_typeIS1_S4_EEPNS_11__tree_nodeISJ_PvEElEEEEbEERS9_OT_, symObjAddr: 0x13E90, symBinAddr: 0x100014940, symSize: 0x160 }
  - { offset: 0x9F518, size: 0x8, addend: 0x0, symName: __ZN4QMapI16TileTerrainNamesPN5Tiled4TileEE8iteratorC1ENSt3__114__map_iteratorINS6_15__tree_iteratorINS6_12__value_typeIS0_S3_EEPNS6_11__tree_nodeISA_PvEElEEEE, symObjAddr: 0x13FF0, symBinAddr: 0x100014AA0, symSize: 0x30 }
  - { offset: 0x9F551, size: 0x8, addend: 0x0, symName: __ZN9QtPrivate30QExplicitlySharedDataPointerV2I8QMapDataINSt3__13mapI16TileTerrainNamesPN5Tiled4TileENS2_4lessIS4_EENS2_9allocatorINS2_4pairIKS4_S7_EEEEEEEE5resetEPSG_, symObjAddr: 0x14020, symBinAddr: 0x100014AD0, symSize: 0xA0 }
  - { offset: 0x9F585, size: 0x8, addend: 0x0, symName: __ZN8QMapDataINSt3__13mapI16TileTerrainNamesPN5Tiled4TileENS0_4lessIS2_EENS0_9allocatorINS0_4pairIKS2_S5_EEEEEEEC1Ev, symObjAddr: 0x140C0, symBinAddr: 0x100014B70, symSize: 0x20 }
  - { offset: 0x9F5AF, size: 0x8, addend: 0x0, symName: __ZNK9QtPrivate30QExplicitlySharedDataPointerV2I8QMapDataINSt3__13mapI16TileTerrainNamesPN5Tiled4TileENS2_4lessIS4_EENS2_9allocatorINS2_4pairIKS4_S7_EEEEEEEE8isSharedEv, symObjAddr: 0x140E0, symBinAddr: 0x100014B90, symSize: 0x50 }
  - { offset: 0x9F5D5, size: 0x8, addend: 0x0, symName: __ZN4QMapI16TileTerrainNamesPN5Tiled4TileEEC1ERKS4_, symObjAddr: 0x14130, symBinAddr: 0x100014BE0, symSize: 0x30 }
  - { offset: 0x9F60A, size: 0x8, addend: 0x0, symName: __ZN9QtPrivate30QExplicitlySharedDataPointerV2I8QMapDataINSt3__13mapI16TileTerrainNamesPN5Tiled4TileENS2_4lessIS4_EENS2_9allocatorINS2_4pairIKS4_S7_EEEEEEEEC1EPSG_, symObjAddr: 0x14160, symBinAddr: 0x100014C10, symSize: 0x30 }
  - { offset: 0x9F642, size: 0x8, addend: 0x0, symName: __ZN8QMapDataINSt3__13mapI16TileTerrainNamesPN5Tiled4TileENS0_4lessIS2_EENS0_9allocatorINS0_4pairIKS2_S5_EEEEEEE21copyIfNotEquivalentToERKSD_RSA_, symObjAddr: 0x14190, symBinAddr: 0x100014C40, symSize: 0x1B0 }
  - { offset: 0x9F6FA, size: 0x8, addend: 0x0, symName: __ZN9QtPrivate30QExplicitlySharedDataPointerV2I8QMapDataINSt3__13mapI16TileTerrainNamesPN5Tiled4TileENS2_4lessIS4_EENS2_9allocatorINS2_4pairIKS4_S7_EEEEEEEE4swapERSH_, symObjAddr: 0x14340, symBinAddr: 0x100014DF0, symSize: 0x30 }
  - { offset: 0x9F72E, size: 0x8, addend: 0x0, symName: __ZN2Qt23totally_ordered_wrapperIP8QMapDataINSt3__13mapI16TileTerrainNamesPN5Tiled4TileENS2_4lessIS4_EENS2_9allocatorINS2_4pairIKS4_S7_EEEEEEEE5resetESH_, symObjAddr: 0x14370, symBinAddr: 0x100014E20, symSize: 0x20 }
  - { offset: 0x9F763, size: 0x8, addend: 0x0, symName: __ZN8QMapDataINSt3__13mapI16TileTerrainNamesPN5Tiled4TileENS0_4lessIS2_EENS0_9allocatorINS0_4pairIKS2_S5_EEEEEEEC2Ev, symObjAddr: 0x14390, symBinAddr: 0x100014E40, symSize: 0x30 }
  - { offset: 0x9F78D, size: 0x8, addend: 0x0, symName: __ZN11QSharedDataC2Ev, symObjAddr: 0x143C0, symBinAddr: 0x100014E70, symSize: 0x20 }
  - { offset: 0x9F7B7, size: 0x8, addend: 0x0, symName: __ZNSt3__13mapI16TileTerrainNamesPN5Tiled4TileENS_4lessIS1_EENS_9allocatorINS_4pairIKS1_S4_EEEEEC1B9nqe210106Ev, symObjAddr: 0x143E0, symBinAddr: 0x100014E90, symSize: 0x20 }
  - { offset: 0x9F7E1, size: 0x8, addend: 0x0, symName: __ZN10QAtomicIntC1Ei, symObjAddr: 0x14400, symBinAddr: 0x100014EB0, symSize: 0x30 }
  - { offset: 0x9F819, size: 0x8, addend: 0x0, symName: __ZN10QAtomicIntC2Ei, symObjAddr: 0x14430, symBinAddr: 0x100014EE0, symSize: 0x30 }
  - { offset: 0x9F851, size: 0x8, addend: 0x0, symName: __ZN14QAtomicIntegerIiEC2Ei, symObjAddr: 0x14460, symBinAddr: 0x100014F10, symSize: 0x30 }
  - { offset: 0x9F889, size: 0x8, addend: 0x0, symName: __ZN19QBasicAtomicIntegerIiEC2Ei, symObjAddr: 0x14490, symBinAddr: 0x100014F40, symSize: 0x30 }
  - { offset: 0x9F8C1, size: 0x8, addend: 0x0, symName: __ZNSt3__16atomicIiEC1B9nqe210106Ei, symObjAddr: 0x144C0, symBinAddr: 0x100014F70, symSize: 0x30 }
  - { offset: 0x9F8F9, size: 0x8, addend: 0x0, symName: __ZNSt3__16atomicIiEC2B9nqe210106Ei, symObjAddr: 0x144F0, symBinAddr: 0x100014FA0, symSize: 0x30 }
  - { offset: 0x9F931, size: 0x8, addend: 0x0, symName: __ZNSt3__113__atomic_baseIiLb1EEC2B9nqe210106Ei, symObjAddr: 0x14520, symBinAddr: 0x100014FD0, symSize: 0x30 }
  - { offset: 0x9F969, size: 0x8, addend: 0x0, symName: __ZNSt3__113__atomic_baseIiLb0EEC2B9nqe210106Ei, symObjAddr: 0x14550, symBinAddr: 0x100015000, symSize: 0x30 }
  - { offset: 0x9F9A1, size: 0x8, addend: 0x0, symName: __ZNSt3__117__cxx_atomic_implIiNS_22__cxx_atomic_base_implIiEEEC1B9nqe210106Ei, symObjAddr: 0x14580, symBinAddr: 0x100015030, symSize: 0x30 }
  - { offset: 0x9F9D9, size: 0x8, addend: 0x0, symName: __ZNSt3__117__cxx_atomic_implIiNS_22__cxx_atomic_base_implIiEEEC2B9nqe210106Ei, symObjAddr: 0x145B0, symBinAddr: 0x100015060, symSize: 0x30 }
  - { offset: 0x9FA11, size: 0x8, addend: 0x0, symName: __ZNSt3__122__cxx_atomic_base_implIiEC2Ei, symObjAddr: 0x145E0, symBinAddr: 0x100015090, symSize: 0x20 }
  - { offset: 0x9FA49, size: 0x8, addend: 0x0, symName: __ZNSt3__13mapI16TileTerrainNamesPN5Tiled4TileENS_4lessIS1_EENS_9allocatorINS_4pairIKS1_S4_EEEEEC2B9nqe210106Ev, symObjAddr: 0x14600, symBinAddr: 0x1000150B0, symSize: 0x30 }
  - { offset: 0x9FA73, size: 0x8, addend: 0x0, symName: __ZNSt3__119__map_value_compareI16TileTerrainNamesNS_4pairIKS1_PN5Tiled4TileEEENS_4lessIS1_EELb1EEC1B9nqe210106ES9_, symObjAddr: 0x14630, symBinAddr: 0x1000150E0, symSize: 0x20 }
  - { offset: 0x9FAAC, size: 0x8, addend: 0x0, symName: __ZNSt3__16__treeINS_12__value_typeI16TileTerrainNamesPN5Tiled4TileEEENS_19__map_value_compareIS2_NS_4pairIKS2_S5_EENS_4lessIS2_EELb1EEENS_9allocatorISA_EEEC1ERKSD_, symObjAddr: 0x14650, symBinAddr: 0x100015100, symSize: 0x30 }
  - { offset: 0x9FAE7, size: 0x8, addend: 0x0, symName: __ZNSt3__119__map_value_compareI16TileTerrainNamesNS_4pairIKS1_PN5Tiled4TileEEENS_4lessIS1_EELb1EEC2B9nqe210106ES9_, symObjAddr: 0x14680, symBinAddr: 0x100015130, symSize: 0x10 }
  - { offset: 0x9FB20, size: 0x8, addend: 0x0, symName: __ZNSt3__16__treeINS_12__value_typeI16TileTerrainNamesPN5Tiled4TileEEENS_19__map_value_compareIS2_NS_4pairIKS2_S5_EENS_4lessIS2_EELb1EEENS_9allocatorISA_EEEC2ERKSD_, symObjAddr: 0x14690, symBinAddr: 0x100015140, symSize: 0x60 }
  - { offset: 0x9FB5B, size: 0x8, addend: 0x0, symName: __ZNSt3__115__tree_end_nodeIPNS_16__tree_node_baseIPvEEEC1B9nqe210106Ev, symObjAddr: 0x146F0, symBinAddr: 0x1000151A0, symSize: 0x20 }
  - { offset: 0x9FB85, size: 0x8, addend: 0x0, symName: __ZNSt3__19allocatorINS_11__tree_nodeINS_12__value_typeI16TileTerrainNamesPN5Tiled4TileEEEPvEEEC1B9nqe210106Ev, symObjAddr: 0x14710, symBinAddr: 0x1000151C0, symSize: 0x20 }
  - { offset: 0x9FBAF, size: 0x8, addend: 0x0, symName: __ZNSt3__16__treeINS_12__value_typeI16TileTerrainNamesPN5Tiled4TileEEENS_19__map_value_compareIS2_NS_4pairIKS2_S5_EENS_4lessIS2_EELb1EEENS_9allocatorISA_EEE10__end_nodeB9nqe210106Ev, symObjAddr: 0x14730, symBinAddr: 0x1000151E0, symSize: 0x20 }
  - { offset: 0x9FBD5, size: 0x8, addend: 0x0, symName: __ZNSt3__16__treeINS_12__value_typeI16TileTerrainNamesPN5Tiled4TileEEENS_19__map_value_compareIS2_NS_4pairIKS2_S5_EENS_4lessIS2_EELb1EEENS_9allocatorISA_EEE12__begin_nodeB9nqe210106Ev, symObjAddr: 0x14750, symBinAddr: 0x100015200, symSize: 0x10 }
  - { offset: 0x9FBFB, size: 0x8, addend: 0x0, symName: __ZNSt3__115__tree_end_nodeIPNS_16__tree_node_baseIPvEEEC2B9nqe210106Ev, symObjAddr: 0x14760, symBinAddr: 0x100015210, symSize: 0x20 }
  - { offset: 0x9FC25, size: 0x8, addend: 0x0, symName: __ZNSt3__19allocatorINS_11__tree_nodeINS_12__value_typeI16TileTerrainNamesPN5Tiled4TileEEEPvEEEC2B9nqe210106Ev, symObjAddr: 0x14780, symBinAddr: 0x100015230, symSize: 0x20 }
  - { offset: 0x9FC4F, size: 0x8, addend: 0x0, symName: __ZNSt3__116__non_trivial_ifILb1ENS_9allocatorINS_11__tree_nodeINS_12__value_typeI16TileTerrainNamesPN5Tiled4TileEEEPvEEEEEC2B9nqe210106Ev, symObjAddr: 0x147A0, symBinAddr: 0x100015250, symSize: 0x10 }
  - { offset: 0x9FC79, size: 0x8, addend: 0x0, symName: __ZN4QMapI16TileTerrainNamesPN5Tiled4TileEEC2ERKS4_, symObjAddr: 0x147B0, symBinAddr: 0x100015260, symSize: 0x30 }
  - { offset: 0x9FCAE, size: 0x8, addend: 0x0, symName: __ZN9QtPrivate30QExplicitlySharedDataPointerV2I8QMapDataINSt3__13mapI16TileTerrainNamesPN5Tiled4TileENS2_4lessIS4_EENS2_9allocatorINS2_4pairIKS4_S7_EEEEEEEEC1ERKSH_, symObjAddr: 0x147E0, symBinAddr: 0x100015290, symSize: 0x30 }
  - { offset: 0x9FCE6, size: 0x8, addend: 0x0, symName: __ZN9QtPrivate30QExplicitlySharedDataPointerV2I8QMapDataINSt3__13mapI16TileTerrainNamesPN5Tiled4TileENS2_4lessIS4_EENS2_9allocatorINS2_4pairIKS4_S7_EEEEEEEEC2ERKSH_, symObjAddr: 0x14810, symBinAddr: 0x1000152C0, symSize: 0x50 }
  - { offset: 0x9FD1E, size: 0x8, addend: 0x0, symName: __ZN9QtPrivate30QExplicitlySharedDataPointerV2I8QMapDataINSt3__13mapI16TileTerrainNamesPN5Tiled4TileENS2_4lessIS4_EENS2_9allocatorINS2_4pairIKS4_S7_EEEEEEEEC2EPSG_, symObjAddr: 0x14860, symBinAddr: 0x100015310, symSize: 0x50 }
  - { offset: 0x9FD56, size: 0x8, addend: 0x0, symName: __ZNKSt3__13mapI16TileTerrainNamesPN5Tiled4TileENS_4lessIS1_EENS_9allocatorINS_4pairIKS1_S4_EEEEE5emptyB9nqe210106Ev, symObjAddr: 0x148B0, symBinAddr: 0x100015360, symSize: 0x30 }
  - { offset: 0x9FD7C, size: 0x8, addend: 0x0, symName: __ZNKSt3__13mapI16TileTerrainNamesPN5Tiled4TileENS_4lessIS1_EENS_9allocatorINS_4pairIKS1_S4_EEEEE6cbeginB9nqe210106Ev, symObjAddr: 0x148E0, symBinAddr: 0x100015390, symSize: 0x30 }
  - { offset: 0x9FDA2, size: 0x8, addend: 0x0, symName: __ZNKSt3__13mapI16TileTerrainNamesPN5Tiled4TileENS_4lessIS1_EENS_9allocatorINS_4pairIKS1_S4_EEEEE4cendB9nqe210106Ev, symObjAddr: 0x14910, symBinAddr: 0x1000153C0, symSize: 0x30 }
  - { offset: 0x9FDC8, size: 0x8, addend: 0x0, symName: __ZNKSt3__13mapI16TileTerrainNamesPN5Tiled4TileENS_4lessIS1_EENS_9allocatorINS_4pairIKS1_S4_EEEEE8key_compB9nqe210106Ev, symObjAddr: 0x14940, symBinAddr: 0x1000153F0, symSize: 0x30 }
  - { offset: 0x9FDEE, size: 0x8, addend: 0x0, symName: __ZNKSt3__120__map_const_iteratorINS_21__tree_const_iteratorINS_12__value_typeI16TileTerrainNamesPN5Tiled4TileEEEPNS_11__tree_nodeIS7_PvEElEEEptB9nqe210106Ev, symObjAddr: 0x14970, symBinAddr: 0x100015420, symSize: 0x30 }
  - { offset: 0x9FE1E, size: 0x8, addend: 0x0, symName: __ZZN8QMapDataINSt3__13mapI16TileTerrainNamesPN5Tiled4TileENS0_4lessIS2_EENS0_9allocatorINS0_4pairIKS2_S5_EEEEEEE21copyIfNotEquivalentToERKSD_RSA_ENKUlT_E_clINS0_20__map_const_iteratorINS0_21__tree_const_iteratorINS0_12__value_typeIS2_S5_EEPNS0_11__tree_nodeISO_PvEElEEEEEEDaSI_, symObjAddr: 0x149A0, symBinAddr: 0x100015450, symSize: 0x60 }
  - { offset: 0x9FE5F, size: 0x8, addend: 0x0, symName: __ZNSt3__120__map_const_iteratorINS_21__tree_const_iteratorINS_12__value_typeI16TileTerrainNamesPN5Tiled4TileEEEPNS_11__tree_nodeIS7_PvEElEEEppB9nqe210106Ev, symObjAddr: 0x14A00, symBinAddr: 0x1000154B0, symSize: 0x30 }
  - { offset: 0x9FE85, size: 0x8, addend: 0x0, symName: __ZNKSt3__16__treeINS_12__value_typeI16TileTerrainNamesPN5Tiled4TileEEENS_19__map_value_compareIS2_NS_4pairIKS2_S5_EENS_4lessIS2_EELb1EEENS_9allocatorISA_EEE4sizeB9nqe210106Ev, symObjAddr: 0x14A30, symBinAddr: 0x1000154E0, symSize: 0x20 }
  - { offset: 0x9FEAB, size: 0x8, addend: 0x0, symName: __ZNKSt3__13mapI16TileTerrainNamesPN5Tiled4TileENS_4lessIS1_EENS_9allocatorINS_4pairIKS1_S4_EEEEE5beginB9nqe210106Ev, symObjAddr: 0x14A50, symBinAddr: 0x100015500, symSize: 0x30 }
  - { offset: 0x9FED1, size: 0x8, addend: 0x0, symName: __ZNKSt3__16__treeINS_12__value_typeI16TileTerrainNamesPN5Tiled4TileEEENS_19__map_value_compareIS2_NS_4pairIKS2_S5_EENS_4lessIS2_EELb1EEENS_9allocatorISA_EEE5beginB9nqe210106Ev, symObjAddr: 0x14A80, symBinAddr: 0x100015530, symSize: 0x30 }
  - { offset: 0x9FEF7, size: 0x8, addend: 0x0, symName: __ZNKSt3__16__treeINS_12__value_typeI16TileTerrainNamesPN5Tiled4TileEEENS_19__map_value_compareIS2_NS_4pairIKS2_S5_EENS_4lessIS2_EELb1EEENS_9allocatorISA_EEE12__begin_nodeB9nqe210106Ev, symObjAddr: 0x14AB0, symBinAddr: 0x100015560, symSize: 0x10 }
  - { offset: 0x9FF1D, size: 0x8, addend: 0x0, symName: __ZNKSt3__119__map_value_compareI16TileTerrainNamesNS_4pairIKS1_PN5Tiled4TileEEENS_4lessIS1_EELb1EE8key_compB9nqe210106Ev, symObjAddr: 0x14AC0, symBinAddr: 0x100015570, symSize: 0x10 }
  - { offset: 0x9FF43, size: 0x8, addend: 0x0, symName: __ZNSt3__114pointer_traitsIPKNS_4pairIK16TileTerrainNamesPN5Tiled4TileEEEE10pointer_toB9nqe210106ERS8_, symObjAddr: 0x14AD0, symBinAddr: 0x100015580, symSize: 0x10 }
  - { offset: 0x9FF66, size: 0x8, addend: 0x0, symName: __ZNSt3__13mapI16TileTerrainNamesPN5Tiled4TileENS_4lessIS1_EENS_9allocatorINS_4pairIKS1_S4_EEEEE6insertB9nqe210106ENS_20__map_const_iteratorINS_21__tree_const_iteratorINS_12__value_typeIS1_S4_EEPNS_11__tree_nodeISG_PvEElEEEERKSA_, symObjAddr: 0x14AE0, symBinAddr: 0x100015590, symSize: 0x50 }
  - { offset: 0x9FFAA, size: 0x8, addend: 0x0, symName: __ZNKSt3__120__map_const_iteratorINS_21__tree_const_iteratorINS_12__value_typeI16TileTerrainNamesPN5Tiled4TileEEEPNS_11__tree_nodeIS7_PvEElEEEdeB9nqe210106Ev, symObjAddr: 0x14B30, symBinAddr: 0x1000155E0, symSize: 0x20 }
  - { offset: 0x9FFD0, size: 0x8, addend: 0x0, symName: __ZNSt3__16__treeINS_12__value_typeI16TileTerrainNamesPN5Tiled4TileEEENS_19__map_value_compareIS2_NS_4pairIKS2_S5_EENS_4lessIS2_EELb1EEENS_9allocatorISA_EEE21__emplace_hint_uniqueB9nqe210106IRKSA_EENS_15__tree_iteratorIS6_PNS_11__tree_nodeIS6_PvEElEENS_21__tree_const_iteratorIS6_SO_lEEOT_, symObjAddr: 0x14B50, symBinAddr: 0x100015600, symSize: 0x40 }
  - { offset: 0xA001D, size: 0x8, addend: 0x0, symName: __ZNSt3__114__map_iteratorINS_15__tree_iteratorINS_12__value_typeI16TileTerrainNamesPN5Tiled4TileEEEPNS_11__tree_nodeIS7_PvEElEEEC1B9nqe210106ESC_, symObjAddr: 0x14B90, symBinAddr: 0x100015640, symSize: 0x30 }
  - { offset: 0xA0056, size: 0x8, addend: 0x0, symName: __ZNSt3__16__treeINS_12__value_typeI16TileTerrainNamesPN5Tiled4TileEEENS_19__map_value_compareIS2_NS_4pairIKS2_S5_EENS_4lessIS2_EELb1EEENS_9allocatorISA_EEE33__emplace_hint_unique_extract_keyB9nqe210106IRKSA_EENS_15__tree_iteratorIS6_PNS_11__tree_nodeIS6_PvEElEENS_21__tree_const_iteratorIS6_SO_lEEOT_NS_23__extract_key_first_tagE, symObjAddr: 0x14BC0, symBinAddr: 0x100015670, symSize: 0x60 }
  - { offset: 0xA00AF, size: 0x8, addend: 0x0, symName: __ZNSt3__16__treeINS_12__value_typeI16TileTerrainNamesPN5Tiled4TileEEENS_19__map_value_compareIS2_NS_4pairIKS2_S5_EENS_4lessIS2_EELb1EEENS_9allocatorISA_EEE30__emplace_hint_unique_key_argsIS2_JRKSA_EEENS8_INS_15__tree_iteratorIS6_PNS_11__tree_nodeIS6_PvEElEEbEENS_21__tree_const_iteratorIS6_SO_lEERKT_DpOT0_, symObjAddr: 0x14C20, symBinAddr: 0x1000156D0, symSize: 0x110 }
  - { offset: 0xA0182, size: 0x8, addend: 0x0, symName: __ZNSt3__16__treeINS_12__value_typeI16TileTerrainNamesPN5Tiled4TileEEENS_19__map_value_compareIS2_NS_4pairIKS2_S5_EENS_4lessIS2_EELb1EEENS_9allocatorISA_EEE12__find_equalIS2_EERPNS_16__tree_node_baseIPvEENS_21__tree_const_iteratorIS6_PNS_11__tree_nodeIS6_SJ_EElEERPNS_15__tree_end_nodeISL_EESM_RKT_, symObjAddr: 0x14D30, symBinAddr: 0x1000157E0, symSize: 0x2F0 }
  - { offset: 0xA0229, size: 0x8, addend: 0x0, symName: __ZNSt3__16__treeINS_12__value_typeI16TileTerrainNamesPN5Tiled4TileEEENS_19__map_value_compareIS2_NS_4pairIKS2_S5_EENS_4lessIS2_EELb1EEENS_9allocatorISA_EEE16__construct_nodeIJRKSA_EEENS_10unique_ptrINS_11__tree_nodeIS6_PvEENS_22__tree_node_destructorINSE_ISN_EEEEEEDpOT_, symObjAddr: 0x15020, symBinAddr: 0x100015AD0, symSize: 0xE0 }
  - { offset: 0xA0288, size: 0x8, addend: 0x0, symName: __ZNSt3__16__treeINS_12__value_typeI16TileTerrainNamesPN5Tiled4TileEEENS_19__map_value_compareIS2_NS_4pairIKS2_S5_EENS_4lessIS2_EELb1EEENS_9allocatorISA_EEE16__insert_node_atEPNS_15__tree_end_nodeIPNS_16__tree_node_baseIPvEEEERSL_SL_, symObjAddr: 0x15100, symBinAddr: 0x100015BB0, symSize: 0xB0 }
  - { offset: 0xA02DD, size: 0x8, addend: 0x0, symName: __ZNKSt3__110unique_ptrINS_11__tree_nodeINS_12__value_typeI16TileTerrainNamesPN5Tiled4TileEEEPvEENS_22__tree_node_destructorINS_9allocatorIS9_EEEEE3getB9nqe210106Ev, symObjAddr: 0x151B0, symBinAddr: 0x100015C60, symSize: 0x20 }
  - { offset: 0xA0303, size: 0x8, addend: 0x0, symName: __ZNSt3__110unique_ptrINS_11__tree_nodeINS_12__value_typeI16TileTerrainNamesPN5Tiled4TileEEEPvEENS_22__tree_node_destructorINS_9allocatorIS9_EEEEE7releaseB9nqe210106Ev, symObjAddr: 0x151D0, symBinAddr: 0x100015C80, symSize: 0x20 }
  - { offset: 0xA0338, size: 0x8, addend: 0x0, symName: __ZNSt3__110unique_ptrINS_11__tree_nodeINS_12__value_typeI16TileTerrainNamesPN5Tiled4TileEEEPvEENS_22__tree_node_destructorINS_9allocatorIS9_EEEEED1B9nqe210106Ev, symObjAddr: 0x151F0, symBinAddr: 0x100015CA0, symSize: 0x20 }
  - { offset: 0xA0362, size: 0x8, addend: 0x0, symName: __ZNSt3__115__tree_iteratorINS_12__value_typeI16TileTerrainNamesPN5Tiled4TileEEEPNS_11__tree_nodeIS6_PvEElEC1B9nqe210106ESA_, symObjAddr: 0x15210, symBinAddr: 0x100015CC0, symSize: 0x30 }
  - { offset: 0xA03A1, size: 0x8, addend: 0x0, symName: __ZNSt3__14pairINS_15__tree_iteratorINS_12__value_typeI16TileTerrainNamesPN5Tiled4TileEEEPNS_11__tree_nodeIS7_PvEElEEbEC1B9nqe210106ISC_RbLi0EEEOT_OT0_, symObjAddr: 0x15240, symBinAddr: 0x100015CF0, symSize: 0x30 }
  - { offset: 0xA03FF, size: 0x8, addend: 0x0, symName: __ZNSt3__16__treeINS_12__value_typeI16TileTerrainNamesPN5Tiled4TileEEENS_19__map_value_compareIS2_NS_4pairIKS2_S5_EENS_4lessIS2_EELb1EEENS_9allocatorISA_EEE3endB9nqe210106Ev, symObjAddr: 0x15270, symBinAddr: 0x100015D20, symSize: 0x30 }
  - { offset: 0xA0425, size: 0x8, addend: 0x0, symName: __ZNSt3__121__tree_const_iteratorINS_12__value_typeI16TileTerrainNamesPN5Tiled4TileEEEPNS_11__tree_nodeIS6_PvEElEC1B9nqe210106ENS_15__tree_iteratorIS6_SA_lEE, symObjAddr: 0x152A0, symBinAddr: 0x100015D50, symSize: 0x30 }
  - { offset: 0xA045E, size: 0x8, addend: 0x0, symName: __ZNSt3__16__treeINS_12__value_typeI16TileTerrainNamesPN5Tiled4TileEEENS_19__map_value_compareIS2_NS_4pairIKS2_S5_EENS_4lessIS2_EELb1EEENS_9allocatorISA_EEE10value_compB9nqe210106Ev, symObjAddr: 0x152D0, symBinAddr: 0x100015D80, symSize: 0x20 }
  - { offset: 0xA0484, size: 0x8, addend: 0x0, symName: __ZNSt3__16__treeINS_12__value_typeI16TileTerrainNamesPN5Tiled4TileEEENS_19__map_value_compareIS2_NS_4pairIKS2_S5_EENS_4lessIS2_EELb1EEENS_9allocatorISA_EEE5beginB9nqe210106Ev, symObjAddr: 0x152F0, symBinAddr: 0x100015DA0, symSize: 0x30 }
  - { offset: 0xA04AA, size: 0x8, addend: 0x0, symName: __ZNSt3__121__tree_const_iteratorINS_12__value_typeI16TileTerrainNamesPN5Tiled4TileEEEPNS_11__tree_nodeIS6_PvEElEmmB9nqe210106Ev, symObjAddr: 0x15320, symBinAddr: 0x100015DD0, symSize: 0x30 }
  - { offset: 0xA04D0, size: 0x8, addend: 0x0, symName: __ZNSt3__16__treeINS_12__value_typeI16TileTerrainNamesPN5Tiled4TileEEENS_19__map_value_compareIS2_NS_4pairIKS2_S5_EENS_4lessIS2_EELb1EEENS_9allocatorISA_EEE12__find_equalIS2_EERPNS_16__tree_node_baseIPvEERPNS_15__tree_end_nodeISL_EERKT_, symObjAddr: 0x15350, symBinAddr: 0x100015E00, symSize: 0x150 }
  - { offset: 0xA053B, size: 0x8, addend: 0x0, symName: __ZNSt3__115__tree_iteratorINS_12__value_typeI16TileTerrainNamesPN5Tiled4TileEEEPNS_11__tree_nodeIS6_PvEElEC1B9nqe210106EPNS_15__tree_end_nodeIPNS_16__tree_node_baseIS8_EEEE, symObjAddr: 0x154D0, symBinAddr: 0x100015F80, symSize: 0x30 }
  - { offset: 0xA0574, size: 0x8, addend: 0x0, symName: __ZNSt3__115__tree_iteratorINS_12__value_typeI16TileTerrainNamesPN5Tiled4TileEEEPNS_11__tree_nodeIS6_PvEElEC2B9nqe210106EPNS_15__tree_end_nodeIPNS_16__tree_node_baseIS8_EEEE, symObjAddr: 0x15500, symBinAddr: 0x100015FB0, symSize: 0x20 }
  - { offset: 0xA05AD, size: 0x8, addend: 0x0, symName: __ZNSt3__121__tree_const_iteratorINS_12__value_typeI16TileTerrainNamesPN5Tiled4TileEEEPNS_11__tree_nodeIS6_PvEElEC2B9nqe210106ENS_15__tree_iteratorIS6_SA_lEE, symObjAddr: 0x15520, symBinAddr: 0x100015FD0, symSize: 0x20 }
  - { offset: 0xA05E6, size: 0x8, addend: 0x0, symName: __ZNKSt3__116__tree_node_baseIPvE15__parent_unsafeB9nqe210106Ev, symObjAddr: 0x15620, symBinAddr: 0x1000160D0, symSize: 0x20 }
  - { offset: 0xA060C, size: 0x8, addend: 0x0, symName: __ZNKSt3__16__treeINS_12__value_typeI16TileTerrainNamesPN5Tiled4TileEEENS_19__map_value_compareIS2_NS_4pairIKS2_S5_EENS_4lessIS2_EELb1EEENS_9allocatorISA_EEE10__root_ptrB9nqe210106Ev, symObjAddr: 0x15640, symBinAddr: 0x1000160F0, symSize: 0x20 }
  - { offset: 0xA0632, size: 0x8, addend: 0x0, symName: __ZNSt3__121__tree_const_iteratorINS_12__value_typeI16TileTerrainNamesPN5Tiled4TileEEEPNS_11__tree_nodeIS6_PvEElEppB9nqe210106Ev, symObjAddr: 0x15710, symBinAddr: 0x1000161C0, symSize: 0x30 }
  - { offset: 0xA0658, size: 0x8, addend: 0x0, symName: __ZNSt3__116allocator_traitsINS_9allocatorINS_11__tree_nodeINS_12__value_typeI16TileTerrainNamesPN5Tiled4TileEEEPvEEEEE8allocateB9nqe210106ERSB_m, symObjAddr: 0x157E0, symBinAddr: 0x100016290, symSize: 0x30 }
  - { offset: 0xA068B, size: 0x8, addend: 0x0, symName: __ZNSt3__122__tree_node_destructorINS_9allocatorINS_11__tree_nodeINS_12__value_typeI16TileTerrainNamesPN5Tiled4TileEEEPvEEEEEC1B9nqe210106ERSB_b, symObjAddr: 0x15810, symBinAddr: 0x1000162C0, symSize: 0x40 }
  - { offset: 0xA06D9, size: 0x8, addend: 0x0, symName: __ZNSt3__110unique_ptrINS_11__tree_nodeINS_12__value_typeI16TileTerrainNamesPN5Tiled4TileEEEPvEENS_22__tree_node_destructorINS_9allocatorIS9_EEEEEC1B9nqe210106ILb1EvEEPS9_NS_16__dependent_typeINS_27__unique_ptr_deleter_sfinaeISD_EEXT_EE20__good_rval_ref_typeE, symObjAddr: 0x15850, symBinAddr: 0x100016300, symSize: 0x30 }
  - { offset: 0xA072A, size: 0x8, addend: 0x0, symName: __ZNSt3__116allocator_traitsINS_9allocatorINS_11__tree_nodeINS_12__value_typeI16TileTerrainNamesPN5Tiled4TileEEEPvEEEEE9constructB9nqe210106INS_4pairIKS4_S7_EEJRKSG_ELi0EEEvRSB_PT_DpOT0_, symObjAddr: 0x15880, symBinAddr: 0x100016330, symSize: 0x30 }
  - { offset: 0xA0786, size: 0x8, addend: 0x0, symName: __ZNKSt3__110unique_ptrINS_11__tree_nodeINS_12__value_typeI16TileTerrainNamesPN5Tiled4TileEEEPvEENS_22__tree_node_destructorINS_9allocatorIS9_EEEEEptB9nqe210106Ev, symObjAddr: 0x158B0, symBinAddr: 0x100016360, symSize: 0x20 }
  - { offset: 0xA07AC, size: 0x8, addend: 0x0, symName: __ZNSt3__110unique_ptrINS_11__tree_nodeINS_12__value_typeI16TileTerrainNamesPN5Tiled4TileEEEPvEENS_22__tree_node_destructorINS_9allocatorIS9_EEEEE11get_deleterB9nqe210106Ev, symObjAddr: 0x158D0, symBinAddr: 0x100016380, symSize: 0x20 }
  - { offset: 0xA07D2, size: 0x8, addend: 0x0, symName: __ZNSt3__19allocatorINS_11__tree_nodeINS_12__value_typeI16TileTerrainNamesPN5Tiled4TileEEEPvEEE8allocateB9nqe210106Em, symObjAddr: 0x158F0, symBinAddr: 0x1000163A0, symSize: 0x50 }
  - { offset: 0xA0811, size: 0x8, addend: 0x0, symName: __ZNSt3__116allocator_traitsINS_9allocatorINS_11__tree_nodeINS_12__value_typeI16TileTerrainNamesPN5Tiled4TileEEEPvEEEEE8max_sizeB9nqe210106ISB_Li0EEEmRKSB_, symObjAddr: 0x15940, symBinAddr: 0x1000163F0, symSize: 0x20 }
  - { offset: 0xA0844, size: 0x8, addend: 0x0, symName: __ZNKSt3__19allocatorINS_11__tree_nodeINS_12__value_typeI16TileTerrainNamesPN5Tiled4TileEEEPvEEE8max_sizeB9nqe210106Ev, symObjAddr: 0x15A00, symBinAddr: 0x1000164B0, symSize: 0x20 }
  - { offset: 0xA086A, size: 0x8, addend: 0x0, symName: __ZNSt3__122__tree_node_destructorINS_9allocatorINS_11__tree_nodeINS_12__value_typeI16TileTerrainNamesPN5Tiled4TileEEEPvEEEEEC2B9nqe210106ERSB_b, symObjAddr: 0x15A20, symBinAddr: 0x1000164D0, symSize: 0x30 }
  - { offset: 0xA08B2, size: 0x8, addend: 0x0, symName: __ZNSt3__110unique_ptrINS_11__tree_nodeINS_12__value_typeI16TileTerrainNamesPN5Tiled4TileEEEPvEENS_22__tree_node_destructorINS_9allocatorIS9_EEEEEC2B9nqe210106ILb1EvEEPS9_NS_16__dependent_typeINS_27__unique_ptr_deleter_sfinaeISD_EEXT_EE20__good_rval_ref_typeE, symObjAddr: 0x15A50, symBinAddr: 0x100016500, symSize: 0x50 }
  - { offset: 0xA0908, size: 0x8, addend: 0x0, symName: __ZNSt3__125__compressed_pair_paddingINS_22__tree_node_destructorINS_9allocatorINS_11__tree_nodeINS_12__value_typeI16TileTerrainNamesPN5Tiled4TileEEEPvEEEEEELb0EEC1Ev, symObjAddr: 0x15AA0, symBinAddr: 0x100016550, symSize: 0x20 }
  - { offset: 0xA0934, size: 0x8, addend: 0x0, symName: __ZNSt3__125__compressed_pair_paddingINS_22__tree_node_destructorINS_9allocatorINS_11__tree_nodeINS_12__value_typeI16TileTerrainNamesPN5Tiled4TileEEEPvEEEEEELb0EEC2Ev, symObjAddr: 0x15AC0, symBinAddr: 0x100016570, symSize: 0x40 }
  - { offset: 0xA0960, size: 0x8, addend: 0x0, symName: __ZNSt3__19allocatorINS_11__tree_nodeINS_12__value_typeI16TileTerrainNamesPN5Tiled4TileEEEPvEEE9constructB9nqe210106INS_4pairIKS3_S6_EEJRKSE_EEEvPT_DpOT0_, symObjAddr: 0x15B00, symBinAddr: 0x1000165B0, symSize: 0x30 }
  - { offset: 0xA09B6, size: 0x8, addend: 0x0, symName: __ZNSt3__14pairIK16TileTerrainNamesPN5Tiled4TileEEC1B9nqe210106ERKS6_, symObjAddr: 0x15B30, symBinAddr: 0x1000165E0, symSize: 0x30 }
  - { offset: 0xA09EA, size: 0x8, addend: 0x0, symName: __ZNSt3__14pairIK16TileTerrainNamesPN5Tiled4TileEEC2B9nqe210106ERKS6_, symObjAddr: 0x15B60, symBinAddr: 0x100016610, symSize: 0x40 }
  - { offset: 0xA0A1E, size: 0x8, addend: 0x0, symName: __ZN16TileTerrainNamesC1ERKS_, symObjAddr: 0x15BA0, symBinAddr: 0x100016650, symSize: 0x30 }
  - { offset: 0xA0A53, size: 0x8, addend: 0x0, symName: __ZN16TileTerrainNamesC2ERKS_, symObjAddr: 0x15BD0, symBinAddr: 0x100016680, symSize: 0x70 }
  - { offset: 0xA0A88, size: 0x8, addend: 0x0, symName: __ZNSt3__16__treeINS_12__value_typeI16TileTerrainNamesPN5Tiled4TileEEENS_19__map_value_compareIS2_NS_4pairIKS2_S5_EENS_4lessIS2_EELb1EEENS_9allocatorISA_EEE4sizeB9nqe210106Ev, symObjAddr: 0x15E50, symBinAddr: 0x100016900, symSize: 0x20 }
  - { offset: 0xA0AAE, size: 0x8, addend: 0x0, symName: __ZNSt3__116__tree_node_baseIPvE12__set_parentB9nqe210106EPS2_, symObjAddr: 0x15FE0, symBinAddr: 0x100016A90, symSize: 0x20 }
  - { offset: 0xA0AE3, size: 0x8, addend: 0x0, symName: __ZNSt3__110unique_ptrINS_11__tree_nodeINS_12__value_typeI16TileTerrainNamesPN5Tiled4TileEEEPvEENS_22__tree_node_destructorINS_9allocatorIS9_EEEEED2B9nqe210106Ev, symObjAddr: 0x16000, symBinAddr: 0x100016AB0, symSize: 0x20 }
  - { offset: 0xA0B0D, size: 0x8, addend: 0x0, symName: __ZNSt3__110unique_ptrINS_11__tree_nodeINS_12__value_typeI16TileTerrainNamesPN5Tiled4TileEEEPvEENS_22__tree_node_destructorINS_9allocatorIS9_EEEEE5resetB9nqe210106EPS9_, symObjAddr: 0x16020, symBinAddr: 0x100016AD0, symSize: 0x50 }
  - { offset: 0xA0B51, size: 0x8, addend: 0x0, symName: __ZNSt3__122__tree_node_destructorINS_9allocatorINS_11__tree_nodeINS_12__value_typeI16TileTerrainNamesPN5Tiled4TileEEEPvEEEEEclB9nqe210106EPSA_, symObjAddr: 0x16070, symBinAddr: 0x100016B20, symSize: 0x60 }
  - { offset: 0xA0B86, size: 0x8, addend: 0x0, symName: __ZNSt3__115__tree_iteratorINS_12__value_typeI16TileTerrainNamesPN5Tiled4TileEEEPNS_11__tree_nodeIS6_PvEElEC2B9nqe210106ESA_, symObjAddr: 0x160D0, symBinAddr: 0x100016B80, symSize: 0x20 }
  - { offset: 0xA0BBF, size: 0x8, addend: 0x0, symName: __ZNSt3__14pairINS_15__tree_iteratorINS_12__value_typeI16TileTerrainNamesPN5Tiled4TileEEEPNS_11__tree_nodeIS7_PvEElEEbEC2B9nqe210106ISC_RbLi0EEEOT_OT0_, symObjAddr: 0x160F0, symBinAddr: 0x100016BA0, symSize: 0x30 }
  - { offset: 0xA0C1D, size: 0x8, addend: 0x0, symName: __ZNSt3__114__map_iteratorINS_15__tree_iteratorINS_12__value_typeI16TileTerrainNamesPN5Tiled4TileEEEPNS_11__tree_nodeIS7_PvEElEEEC2B9nqe210106ESC_, symObjAddr: 0x16120, symBinAddr: 0x100016BD0, symSize: 0x20 }
  - { offset: 0xA0C55, size: 0x8, addend: 0x0, symName: __Z11qt_ptr_swapI8QMapDataINSt3__13mapI16TileTerrainNamesPN5Tiled4TileENS1_4lessIS3_EENS1_9allocatorINS1_4pairIKS3_S6_EEEEEEEEvRPT_SI_, symObjAddr: 0x16170, symBinAddr: 0x100016C20, symSize: 0x40 }
  - { offset: 0xA0CA3, size: 0x8, addend: 0x0, symName: __ZNSt3__13mapI16TileTerrainNamesPN5Tiled4TileENS_4lessIS1_EENS_9allocatorINS_4pairIKS1_S4_EEEEE11lower_boundB9nqe210106ERS9_, symObjAddr: 0x161B0, symBinAddr: 0x100016C60, symSize: 0x40 }
  - { offset: 0xA0CD8, size: 0x8, addend: 0x0, symName: __ZNSt3__13mapI16TileTerrainNamesPN5Tiled4TileENS_4lessIS1_EENS_9allocatorINS_4pairIKS1_S4_EEEEE3endB9nqe210106Ev, symObjAddr: 0x16220, symBinAddr: 0x100016CD0, symSize: 0x30 }
  - { offset: 0xA0CFE, size: 0x8, addend: 0x0, symName: __ZNKSt3__114__map_iteratorINS_15__tree_iteratorINS_12__value_typeI16TileTerrainNamesPN5Tiled4TileEEEPNS_11__tree_nodeIS7_PvEElEEEptB9nqe210106Ev, symObjAddr: 0x16250, symBinAddr: 0x100016D00, symSize: 0x30 }
  - { offset: 0xA0D24, size: 0x8, addend: 0x0, symName: __ZNSt3__13mapI16TileTerrainNamesPN5Tiled4TileENS_4lessIS1_EENS_9allocatorINS_4pairIKS1_S4_EEEEE12emplace_hintB9nqe210106IJRS9_RKS4_EEENS_14__map_iteratorINS_15__tree_iteratorINS_12__value_typeIS1_S4_EEPNS_11__tree_nodeISK_PvEElEEEENS_20__map_const_iteratorINS_21__tree_const_iteratorISK_SO_lEEEEDpOT_, symObjAddr: 0x162E0, symBinAddr: 0x100016D90, symSize: 0x50 }
  - { offset: 0xA0D87, size: 0x8, addend: 0x0, symName: __ZNSt3__120__map_const_iteratorINS_21__tree_const_iteratorINS_12__value_typeI16TileTerrainNamesPN5Tiled4TileEEEPNS_11__tree_nodeIS7_PvEElEEEC1B9nqe210106ENS_14__map_iteratorINS_15__tree_iteratorIS7_SB_lEEEE, symObjAddr: 0x16330, symBinAddr: 0x100016DE0, symSize: 0x30 }
  - { offset: 0xA0DC0, size: 0x8, addend: 0x0, symName: __ZNSt3__16__treeINS_12__value_typeI16TileTerrainNamesPN5Tiled4TileEEENS_19__map_value_compareIS2_NS_4pairIKS2_S5_EENS_4lessIS2_EELb1EEENS_9allocatorISA_EEE11lower_boundB9nqe210106IS2_EENS_15__tree_iteratorIS6_PNS_11__tree_nodeIS6_PvEElEERKT_, symObjAddr: 0x16360, symBinAddr: 0x100016E10, symSize: 0x60 }
  - { offset: 0xA0DFE, size: 0x8, addend: 0x0, symName: __ZNSt3__16__treeINS_12__value_typeI16TileTerrainNamesPN5Tiled4TileEEENS_19__map_value_compareIS2_NS_4pairIKS2_S5_EENS_4lessIS2_EELb1EEENS_9allocatorISA_EEE13__lower_boundIS2_EENS_15__tree_iteratorIS6_PNS_11__tree_nodeIS6_PvEElEERKT_SM_PNS_15__tree_end_nodeIPNS_16__tree_node_baseISK_EEEE, symObjAddr: 0x163C0, symBinAddr: 0x100016E70, symSize: 0x90 }
  - { offset: 0xA0E5A, size: 0x8, addend: 0x0, symName: __ZNSt3__114pointer_traitsIPNS_4pairIK16TileTerrainNamesPN5Tiled4TileEEEE10pointer_toB9nqe210106ERS7_, symObjAddr: 0x164B0, symBinAddr: 0x100016F60, symSize: 0x10 }
  - { offset: 0xA0E7D, size: 0x8, addend: 0x0, symName: __ZNKSt3__115__tree_iteratorINS_12__value_typeI16TileTerrainNamesPN5Tiled4TileEEEPNS_11__tree_nodeIS6_PvEElEdeB9nqe210106Ev, symObjAddr: 0x164C0, symBinAddr: 0x100016F70, symSize: 0x20 }
  - { offset: 0xA0EA3, size: 0x8, addend: 0x0, symName: __ZNKSt3__115__tree_iteratorINS_12__value_typeI16TileTerrainNamesPN5Tiled4TileEEEPNS_11__tree_nodeIS6_PvEElE8__get_npB9nqe210106Ev, symObjAddr: 0x164E0, symBinAddr: 0x100016F90, symSize: 0x20 }
  - { offset: 0xA0ECF, size: 0x8, addend: 0x0, symName: __ZNSt3__14pairINS_14__map_iteratorINS_15__tree_iteratorINS_12__value_typeI16TileTerrainNamesPN5Tiled4TileEEEPNS_11__tree_nodeIS8_PvEElEEEEbEC1B9nqe210106IRSE_bLi0EEEOT_OT0_, symObjAddr: 0x16500, symBinAddr: 0x100016FB0, symSize: 0x30 }
  - { offset: 0xA0F2D, size: 0x8, addend: 0x0, symName: __ZNSt3__14pairINS_14__map_iteratorINS_15__tree_iteratorINS_12__value_typeI16TileTerrainNamesPN5Tiled4TileEEEPNS_11__tree_nodeIS8_PvEElEEEEbEC2B9nqe210106IRSE_bLi0EEEOT_OT0_, symObjAddr: 0x16530, symBinAddr: 0x100016FE0, symSize: 0x30 }
  - { offset: 0xA0F91, size: 0x8, addend: 0x0, symName: __ZNSt3__14pairINS_14__map_iteratorINS_15__tree_iteratorINS_12__value_typeI16TileTerrainNamesPN5Tiled4TileEEEPNS_11__tree_nodeIS8_PvEElEEEEbEC1B9nqe210106ISE_bLi0EEEOT_OT0_, symObjAddr: 0x16560, symBinAddr: 0x100017010, symSize: 0x30 }
  - { offset: 0xA0FEF, size: 0x8, addend: 0x0, symName: __ZNSt3__14pairINS_14__map_iteratorINS_15__tree_iteratorINS_12__value_typeI16TileTerrainNamesPN5Tiled4TileEEEPNS_11__tree_nodeIS8_PvEElEEEEbEC2B9nqe210106ISE_bLi0EEEOT_OT0_, symObjAddr: 0x16590, symBinAddr: 0x100017040, symSize: 0x30 }
  - { offset: 0xA104D, size: 0x8, addend: 0x0, symName: __ZNSt3__16__treeINS_12__value_typeI16TileTerrainNamesPN5Tiled4TileEEENS_19__map_value_compareIS2_NS_4pairIKS2_S5_EENS_4lessIS2_EELb1EEENS_9allocatorISA_EEE21__emplace_hint_uniqueB9nqe210106IRS9_RKS5_Li0EEENS_15__tree_iteratorIS6_PNS_11__tree_nodeIS6_PvEElEENS_21__tree_const_iteratorIS6_SP_lEEOT_OT0_, symObjAddr: 0x165C0, symBinAddr: 0x100017070, symSize: 0x60 }
  - { offset: 0xA10B8, size: 0x8, addend: 0x0, symName: __ZNSt3__16__treeINS_12__value_typeI16TileTerrainNamesPN5Tiled4TileEEENS_19__map_value_compareIS2_NS_4pairIKS2_S5_EENS_4lessIS2_EELb1EEENS_9allocatorISA_EEE30__emplace_hint_unique_key_argsIS2_JRS9_RKS5_EEENS8_INS_15__tree_iteratorIS6_PNS_11__tree_nodeIS6_PvEElEEbEENS_21__tree_const_iteratorIS6_SP_lEERKT_DpOT0_, symObjAddr: 0x16620, symBinAddr: 0x1000170D0, symSize: 0x110 }
  - { offset: 0xA11A0, size: 0x8, addend: 0x0, symName: __ZNSt3__16__treeINS_12__value_typeI16TileTerrainNamesPN5Tiled4TileEEENS_19__map_value_compareIS2_NS_4pairIKS2_S5_EENS_4lessIS2_EELb1EEENS_9allocatorISA_EEE16__construct_nodeIJRS9_RKS5_EEENS_10unique_ptrINS_11__tree_nodeIS6_PvEENS_22__tree_node_destructorINSE_ISO_EEEEEEDpOT_, symObjAddr: 0x16730, symBinAddr: 0x1000171E0, symSize: 0xF0 }
  - { offset: 0xA1213, size: 0x8, addend: 0x0, symName: __ZNSt3__116allocator_traitsINS_9allocatorINS_11__tree_nodeINS_12__value_typeI16TileTerrainNamesPN5Tiled4TileEEEPvEEEEE9constructB9nqe210106INS_4pairIKS4_S7_EEJRSF_RKS7_ELi0EEEvRSB_PT_DpOT0_, symObjAddr: 0x16820, symBinAddr: 0x1000172D0, symSize: 0x40 }
  - { offset: 0xA1283, size: 0x8, addend: 0x0, symName: __ZNSt3__19allocatorINS_11__tree_nodeINS_12__value_typeI16TileTerrainNamesPN5Tiled4TileEEEPvEEE9constructB9nqe210106INS_4pairIKS3_S6_EEJRSD_RKS6_EEEvPT_DpOT0_, symObjAddr: 0x16860, symBinAddr: 0x100017310, symSize: 0x30 }
  - { offset: 0xA12EC, size: 0x8, addend: 0x0, symName: __ZNSt3__14pairIK16TileTerrainNamesPN5Tiled4TileEEC1B9nqe210106INS_25__check_pair_constructionIS2_S5_EELi0EEERS2_RKS5_, symObjAddr: 0x16890, symBinAddr: 0x100017340, symSize: 0x30 }
  - { offset: 0xA1341, size: 0x8, addend: 0x0, symName: __ZNSt3__14pairIK16TileTerrainNamesPN5Tiled4TileEEC2B9nqe210106INS_25__check_pair_constructionIS2_S5_EELi0EEERS2_RKS5_, symObjAddr: 0x168C0, symBinAddr: 0x100017370, symSize: 0x40 }
  - { offset: 0xA1396, size: 0x8, addend: 0x0, symName: __ZNSt3__120__map_const_iteratorINS_21__tree_const_iteratorINS_12__value_typeI16TileTerrainNamesPN5Tiled4TileEEEPNS_11__tree_nodeIS7_PvEElEEEC2B9nqe210106ENS_14__map_iteratorINS_15__tree_iteratorIS7_SB_lEEEE, symObjAddr: 0x16900, symBinAddr: 0x1000173B0, symSize: 0x30 }
  - { offset: 0xA13CF, size: 0x8, addend: 0x0, symName: __ZN4QMapI16TileTerrainNamesPN5Tiled4TileEE8iteratorC2ENSt3__114__map_iteratorINS6_15__tree_iteratorINS6_12__value_typeIS0_S3_EEPNS6_11__tree_nodeISA_PvEElEEEE, symObjAddr: 0x16930, symBinAddr: 0x1000173E0, symSize: 0x20 }
  - { offset: 0xA1408, size: 0x8, addend: 0x0, symName: __ZNK9QtPrivate30QExplicitlySharedDataPointerV2I8QMapDataINSt3__13mapI7QStringPN5Tiled9WangColorENS2_4lessIS4_EENS2_9allocatorINS2_4pairIKS4_S7_EEEEEEEEcvbEv, symObjAddr: 0x16950, symBinAddr: 0x100017400, symSize: 0x30 }
  - { offset: 0xA142E, size: 0x8, addend: 0x0, symName: __ZNK9QtPrivate30QExplicitlySharedDataPointerV2I8QMapDataINSt3__13mapI7QStringPN5Tiled9WangColorENS2_4lessIS4_EENS2_9allocatorINS2_4pairIKS4_S7_EEEEEEEEptEv, symObjAddr: 0x16980, symBinAddr: 0x100017430, symSize: 0x20 }
  - { offset: 0xA1454, size: 0x8, addend: 0x0, symName: __ZNKSt3__13mapI7QStringPN5Tiled9WangColorENS_4lessIS1_EENS_9allocatorINS_4pairIKS1_S4_EEEEE4findB9nqe210106ERS9_, symObjAddr: 0x169A0, symBinAddr: 0x100017450, symSize: 0x40 }
  - { offset: 0xA1489, size: 0x8, addend: 0x0, symName: __ZNKSt3__13mapI7QStringPN5Tiled9WangColorENS_4lessIS1_EENS_9allocatorINS_4pairIKS1_S4_EEEEE3endB9nqe210106Ev, symObjAddr: 0x16A10, symBinAddr: 0x1000174C0, symSize: 0x30 }
  - { offset: 0xA14AF, size: 0x8, addend: 0x0, symName: __ZNKSt3__16__treeINS_12__value_typeI7QStringPN5Tiled9WangColorEEENS_19__map_value_compareIS2_NS_4pairIKS2_S5_EENS_4lessIS2_EELb1EEENS_9allocatorISA_EEE4findIS2_EENS_21__tree_const_iteratorIS6_PNS_11__tree_nodeIS6_PvEElEERKT_, symObjAddr: 0x16A40, symBinAddr: 0x1000174F0, symSize: 0xD0 }
  - { offset: 0xA14FC, size: 0x8, addend: 0x0, symName: __ZNSt3__120__map_const_iteratorINS_21__tree_const_iteratorINS_12__value_typeI7QStringPN5Tiled9WangColorEEEPNS_11__tree_nodeIS7_PvEElEEEC1B9nqe210106ESC_, symObjAddr: 0x16B10, symBinAddr: 0x1000175C0, symSize: 0x30 }
  - { offset: 0xA1535, size: 0x8, addend: 0x0, symName: __ZNKSt3__16__treeINS_12__value_typeI7QStringPN5Tiled9WangColorEEENS_19__map_value_compareIS2_NS_4pairIKS2_S5_EENS_4lessIS2_EELb1EEENS_9allocatorISA_EEE13__lower_boundIS2_EENS_21__tree_const_iteratorIS6_PNS_11__tree_nodeIS6_PvEElEERKT_SM_PNS_15__tree_end_nodeIPNS_16__tree_node_baseISK_EEEE, symObjAddr: 0x16B40, symBinAddr: 0x1000175F0, symSize: 0x90 }
  - { offset: 0xA1591, size: 0x8, addend: 0x0, symName: __ZNKSt3__16__treeINS_12__value_typeI7QStringPN5Tiled9WangColorEEENS_19__map_value_compareIS2_NS_4pairIKS2_S5_EENS_4lessIS2_EELb1EEENS_9allocatorISA_EEE3endB9nqe210106Ev, symObjAddr: 0x16C00, symBinAddr: 0x1000176B0, symSize: 0x30 }
  - { offset: 0xA15B7, size: 0x8, addend: 0x0, symName: __ZNKSt3__16__treeINS_12__value_typeI7QStringPN5Tiled9WangColorEEENS_19__map_value_compareIS2_NS_4pairIKS2_S5_EENS_4lessIS2_EELb1EEENS_9allocatorISA_EEE10value_compB9nqe210106Ev, symObjAddr: 0x16C30, symBinAddr: 0x1000176E0, symSize: 0x20 }
  - { offset: 0xA15DD, size: 0x8, addend: 0x0, symName: __ZNKSt3__119__map_value_compareI7QStringNS_4pairIKS1_PN5Tiled9WangColorEEENS_4lessIS1_EELb1EEclB9nqe210106ERS3_RKS7_, symObjAddr: 0x16C50, symBinAddr: 0x100017700, symSize: 0x30 }
  - { offset: 0xA1621, size: 0x8, addend: 0x0, symName: __ZNKSt3__121__tree_const_iteratorINS_12__value_typeI7QStringPN5Tiled9WangColorEEEPNS_11__tree_nodeIS6_PvEElEdeB9nqe210106Ev, symObjAddr: 0x16C80, symBinAddr: 0x100017730, symSize: 0x20 }
  - { offset: 0xA1647, size: 0x8, addend: 0x0, symName: __ZNKSt3__119__map_value_compareI7QStringNS_4pairIKS1_PN5Tiled9WangColorEEENS_4lessIS1_EELb1EEclB9nqe210106ERKS7_RS3_, symObjAddr: 0x16CA0, symBinAddr: 0x100017750, symSize: 0x30 }
  - { offset: 0xA168B, size: 0x8, addend: 0x0, symName: __ZNSt3__121__tree_const_iteratorINS_12__value_typeI7QStringPN5Tiled9WangColorEEEPNS_11__tree_nodeIS6_PvEElEC1B9nqe210106EPNS_15__tree_end_nodeIPNS_16__tree_node_baseIS8_EEEE, symObjAddr: 0x16CD0, symBinAddr: 0x100017780, symSize: 0x30 }
  - { offset: 0xA16C4, size: 0x8, addend: 0x0, symName: __ZNKSt3__14lessI7QStringEclB9nqe210106ERKS1_S4_, symObjAddr: 0x16D00, symBinAddr: 0x1000177B0, symSize: 0x30 }
  - { offset: 0xA1708, size: 0x8, addend: 0x0, symName: __ZNSt3__121__tree_const_iteratorINS_12__value_typeI7QStringPN5Tiled9WangColorEEEPNS_11__tree_nodeIS6_PvEElEC2B9nqe210106EPNS_15__tree_end_nodeIPNS_16__tree_node_baseIS8_EEEE, symObjAddr: 0x16D30, symBinAddr: 0x1000177E0, symSize: 0x20 }
  - { offset: 0xA1741, size: 0x8, addend: 0x0, symName: __ZNKSt3__121__tree_const_iteratorINS_12__value_typeI7QStringPN5Tiled9WangColorEEEPNS_11__tree_nodeIS6_PvEElE8__get_npB9nqe210106Ev, symObjAddr: 0x16D80, symBinAddr: 0x100017830, symSize: 0x20 }
  - { offset: 0xA1767, size: 0x8, addend: 0x0, symName: __ZNSt3__120__map_const_iteratorINS_21__tree_const_iteratorINS_12__value_typeI7QStringPN5Tiled9WangColorEEEPNS_11__tree_nodeIS7_PvEElEEEC2B9nqe210106ESC_, symObjAddr: 0x16DA0, symBinAddr: 0x100017850, symSize: 0x20 }
  - { offset: 0xA17A0, size: 0x8, addend: 0x0, symName: __ZN4QMapI7QStringPN5Tiled9WangColorEE28referenceHoldingDetachExceptERKS0_, symObjAddr: 0x16DC0, symBinAddr: 0x100017870, symSize: 0x170 }
  - { offset: 0xA17FA, size: 0x8, addend: 0x0, symName: __ZN9QtPrivate30QExplicitlySharedDataPointerV2I8QMapDataINSt3__13mapI7QStringPN5Tiled9WangColorENS2_4lessIS4_EENS2_9allocatorINS2_4pairIKS4_S7_EEEEEEEEptEv, symObjAddr: 0x16F30, symBinAddr: 0x1000179E0, symSize: 0x20 }
  - { offset: 0xA1820, size: 0x8, addend: 0x0, symName: __ZNSt3__13mapI7QStringPN5Tiled9WangColorENS_4lessIS1_EENS_9allocatorINS_4pairIKS1_S4_EEEEE16insert_or_assignB9nqe210106IRKS4_EENS8_INS_14__map_iteratorINS_15__tree_iteratorINS_12__value_typeIS1_S4_EEPNS_11__tree_nodeISJ_PvEElEEEEbEERS9_OT_, symObjAddr: 0x16F50, symBinAddr: 0x100017A00, symSize: 0x160 }
  - { offset: 0xA187C, size: 0x8, addend: 0x0, symName: __ZN4QMapI7QStringPN5Tiled9WangColorEE8iteratorC1ENSt3__114__map_iteratorINS6_15__tree_iteratorINS6_12__value_typeIS0_S3_EEPNS6_11__tree_nodeISA_PvEElEEEE, symObjAddr: 0x170B0, symBinAddr: 0x100017B60, symSize: 0x30 }
  - { offset: 0xA18B5, size: 0x8, addend: 0x0, symName: __ZN9QtPrivate30QExplicitlySharedDataPointerV2I8QMapDataINSt3__13mapI7QStringPN5Tiled9WangColorENS2_4lessIS4_EENS2_9allocatorINS2_4pairIKS4_S7_EEEEEEEE5resetEPSG_, symObjAddr: 0x170E0, symBinAddr: 0x100017B90, symSize: 0xA0 }
  - { offset: 0xA18E9, size: 0x8, addend: 0x0, symName: __ZN8QMapDataINSt3__13mapI7QStringPN5Tiled9WangColorENS0_4lessIS2_EENS0_9allocatorINS0_4pairIKS2_S5_EEEEEEEC1Ev, symObjAddr: 0x17180, symBinAddr: 0x100017C30, symSize: 0x20 }
  - { offset: 0xA1913, size: 0x8, addend: 0x0, symName: __ZNK9QtPrivate30QExplicitlySharedDataPointerV2I8QMapDataINSt3__13mapI7QStringPN5Tiled9WangColorENS2_4lessIS4_EENS2_9allocatorINS2_4pairIKS4_S7_EEEEEEEE8isSharedEv, symObjAddr: 0x171A0, symBinAddr: 0x100017C50, symSize: 0x50 }
  - { offset: 0xA1939, size: 0x8, addend: 0x0, symName: __ZN4QMapI7QStringPN5Tiled9WangColorEEC1ERKS4_, symObjAddr: 0x171F0, symBinAddr: 0x100017CA0, symSize: 0x30 }
  - { offset: 0xA196E, size: 0x8, addend: 0x0, symName: __ZN9QtPrivate30QExplicitlySharedDataPointerV2I8QMapDataINSt3__13mapI7QStringPN5Tiled9WangColorENS2_4lessIS4_EENS2_9allocatorINS2_4pairIKS4_S7_EEEEEEEEC1EPSG_, symObjAddr: 0x17220, symBinAddr: 0x100017CD0, symSize: 0x30 }
  - { offset: 0xA19A6, size: 0x8, addend: 0x0, symName: __ZN8QMapDataINSt3__13mapI7QStringPN5Tiled9WangColorENS0_4lessIS2_EENS0_9allocatorINS0_4pairIKS2_S5_EEEEEEE21copyIfNotEquivalentToERKSD_RSA_, symObjAddr: 0x17250, symBinAddr: 0x100017D00, symSize: 0x1B0 }
  - { offset: 0xA1A5E, size: 0x8, addend: 0x0, symName: __ZN9QtPrivate30QExplicitlySharedDataPointerV2I8QMapDataINSt3__13mapI7QStringPN5Tiled9WangColorENS2_4lessIS4_EENS2_9allocatorINS2_4pairIKS4_S7_EEEEEEEE4swapERSH_, symObjAddr: 0x17400, symBinAddr: 0x100017EB0, symSize: 0x30 }
  - { offset: 0xA1A92, size: 0x8, addend: 0x0, symName: __ZN2Qt23totally_ordered_wrapperIP8QMapDataINSt3__13mapI7QStringPN5Tiled9WangColorENS2_4lessIS4_EENS2_9allocatorINS2_4pairIKS4_S7_EEEEEEEE5resetESH_, symObjAddr: 0x17430, symBinAddr: 0x100017EE0, symSize: 0x20 }
  - { offset: 0xA1AC7, size: 0x8, addend: 0x0, symName: __ZN8QMapDataINSt3__13mapI7QStringPN5Tiled9WangColorENS0_4lessIS2_EENS0_9allocatorINS0_4pairIKS2_S5_EEEEEEEC2Ev, symObjAddr: 0x17450, symBinAddr: 0x100017F00, symSize: 0x30 }
  - { offset: 0xA1AF1, size: 0x8, addend: 0x0, symName: __ZNSt3__13mapI7QStringPN5Tiled9WangColorENS_4lessIS1_EENS_9allocatorINS_4pairIKS1_S4_EEEEEC1B9nqe210106Ev, symObjAddr: 0x17480, symBinAddr: 0x100017F30, symSize: 0x20 }
  - { offset: 0xA1B1B, size: 0x8, addend: 0x0, symName: __ZNSt3__13mapI7QStringPN5Tiled9WangColorENS_4lessIS1_EENS_9allocatorINS_4pairIKS1_S4_EEEEEC2B9nqe210106Ev, symObjAddr: 0x174A0, symBinAddr: 0x100017F50, symSize: 0x30 }
  - { offset: 0xA1B45, size: 0x8, addend: 0x0, symName: __ZNSt3__119__map_value_compareI7QStringNS_4pairIKS1_PN5Tiled9WangColorEEENS_4lessIS1_EELb1EEC1B9nqe210106ES9_, symObjAddr: 0x174D0, symBinAddr: 0x100017F80, symSize: 0x20 }
  - { offset: 0xA1B7E, size: 0x8, addend: 0x0, symName: __ZNSt3__16__treeINS_12__value_typeI7QStringPN5Tiled9WangColorEEENS_19__map_value_compareIS2_NS_4pairIKS2_S5_EENS_4lessIS2_EELb1EEENS_9allocatorISA_EEEC1ERKSD_, symObjAddr: 0x174F0, symBinAddr: 0x100017FA0, symSize: 0x30 }
  - { offset: 0xA1BB9, size: 0x8, addend: 0x0, symName: __ZNSt3__119__map_value_compareI7QStringNS_4pairIKS1_PN5Tiled9WangColorEEENS_4lessIS1_EELb1EEC2B9nqe210106ES9_, symObjAddr: 0x17520, symBinAddr: 0x100017FD0, symSize: 0x10 }
  - { offset: 0xA1BF2, size: 0x8, addend: 0x0, symName: __ZNSt3__16__treeINS_12__value_typeI7QStringPN5Tiled9WangColorEEENS_19__map_value_compareIS2_NS_4pairIKS2_S5_EENS_4lessIS2_EELb1EEENS_9allocatorISA_EEEC2ERKSD_, symObjAddr: 0x17530, symBinAddr: 0x100017FE0, symSize: 0x60 }
  - { offset: 0xA1C2D, size: 0x8, addend: 0x0, symName: __ZNSt3__19allocatorINS_11__tree_nodeINS_12__value_typeI7QStringPN5Tiled9WangColorEEEPvEEEC1B9nqe210106Ev, symObjAddr: 0x17590, symBinAddr: 0x100018040, symSize: 0x20 }
  - { offset: 0xA1C57, size: 0x8, addend: 0x0, symName: __ZNSt3__16__treeINS_12__value_typeI7QStringPN5Tiled9WangColorEEENS_19__map_value_compareIS2_NS_4pairIKS2_S5_EENS_4lessIS2_EELb1EEENS_9allocatorISA_EEE10__end_nodeB9nqe210106Ev, symObjAddr: 0x175B0, symBinAddr: 0x100018060, symSize: 0x20 }
  - { offset: 0xA1C7D, size: 0x8, addend: 0x0, symName: __ZNSt3__16__treeINS_12__value_typeI7QStringPN5Tiled9WangColorEEENS_19__map_value_compareIS2_NS_4pairIKS2_S5_EENS_4lessIS2_EELb1EEENS_9allocatorISA_EEE12__begin_nodeB9nqe210106Ev, symObjAddr: 0x175D0, symBinAddr: 0x100018080, symSize: 0x10 }
  - { offset: 0xA1CA3, size: 0x8, addend: 0x0, symName: __ZNSt3__19allocatorINS_11__tree_nodeINS_12__value_typeI7QStringPN5Tiled9WangColorEEEPvEEEC2B9nqe210106Ev, symObjAddr: 0x175E0, symBinAddr: 0x100018090, symSize: 0x20 }
  - { offset: 0xA1CCD, size: 0x8, addend: 0x0, symName: __ZNSt3__116__non_trivial_ifILb1ENS_9allocatorINS_11__tree_nodeINS_12__value_typeI7QStringPN5Tiled9WangColorEEEPvEEEEEC2B9nqe210106Ev, symObjAddr: 0x17600, symBinAddr: 0x1000180B0, symSize: 0x10 }
  - { offset: 0xA1CF7, size: 0x8, addend: 0x0, symName: __ZN4QMapI7QStringPN5Tiled9WangColorEEC2ERKS4_, symObjAddr: 0x17610, symBinAddr: 0x1000180C0, symSize: 0x30 }
  - { offset: 0xA1D2C, size: 0x8, addend: 0x0, symName: __ZN9QtPrivate30QExplicitlySharedDataPointerV2I8QMapDataINSt3__13mapI7QStringPN5Tiled9WangColorENS2_4lessIS4_EENS2_9allocatorINS2_4pairIKS4_S7_EEEEEEEEC1ERKSH_, symObjAddr: 0x17640, symBinAddr: 0x1000180F0, symSize: 0x30 }
  - { offset: 0xA1D64, size: 0x8, addend: 0x0, symName: __ZN9QtPrivate30QExplicitlySharedDataPointerV2I8QMapDataINSt3__13mapI7QStringPN5Tiled9WangColorENS2_4lessIS4_EENS2_9allocatorINS2_4pairIKS4_S7_EEEEEEEEC2ERKSH_, symObjAddr: 0x17670, symBinAddr: 0x100018120, symSize: 0x50 }
  - { offset: 0xA1D9C, size: 0x8, addend: 0x0, symName: __ZN9QtPrivate30QExplicitlySharedDataPointerV2I8QMapDataINSt3__13mapI7QStringPN5Tiled9WangColorENS2_4lessIS4_EENS2_9allocatorINS2_4pairIKS4_S7_EEEEEEEEC2EPSG_, symObjAddr: 0x176C0, symBinAddr: 0x100018170, symSize: 0x50 }
  - { offset: 0xA1DD4, size: 0x8, addend: 0x0, symName: __ZNKSt3__13mapI7QStringPN5Tiled9WangColorENS_4lessIS1_EENS_9allocatorINS_4pairIKS1_S4_EEEEE5emptyB9nqe210106Ev, symObjAddr: 0x17710, symBinAddr: 0x1000181C0, symSize: 0x30 }
  - { offset: 0xA1DFA, size: 0x8, addend: 0x0, symName: __ZNKSt3__13mapI7QStringPN5Tiled9WangColorENS_4lessIS1_EENS_9allocatorINS_4pairIKS1_S4_EEEEE6cbeginB9nqe210106Ev, symObjAddr: 0x17740, symBinAddr: 0x1000181F0, symSize: 0x30 }
  - { offset: 0xA1E20, size: 0x8, addend: 0x0, symName: __ZNKSt3__13mapI7QStringPN5Tiled9WangColorENS_4lessIS1_EENS_9allocatorINS_4pairIKS1_S4_EEEEE4cendB9nqe210106Ev, symObjAddr: 0x17770, symBinAddr: 0x100018220, symSize: 0x30 }
  - { offset: 0xA1E46, size: 0x8, addend: 0x0, symName: __ZNKSt3__13mapI7QStringPN5Tiled9WangColorENS_4lessIS1_EENS_9allocatorINS_4pairIKS1_S4_EEEEE8key_compB9nqe210106Ev, symObjAddr: 0x177A0, symBinAddr: 0x100018250, symSize: 0x30 }
  - { offset: 0xA1E6C, size: 0x8, addend: 0x0, symName: __ZNKSt3__120__map_const_iteratorINS_21__tree_const_iteratorINS_12__value_typeI7QStringPN5Tiled9WangColorEEEPNS_11__tree_nodeIS7_PvEElEEEptB9nqe210106Ev, symObjAddr: 0x177D0, symBinAddr: 0x100018280, symSize: 0x30 }
  - { offset: 0xA1E9C, size: 0x8, addend: 0x0, symName: __ZZN8QMapDataINSt3__13mapI7QStringPN5Tiled9WangColorENS0_4lessIS2_EENS0_9allocatorINS0_4pairIKS2_S5_EEEEEEE21copyIfNotEquivalentToERKSD_RSA_ENKUlT_E_clINS0_20__map_const_iteratorINS0_21__tree_const_iteratorINS0_12__value_typeIS2_S5_EEPNS0_11__tree_nodeISO_PvEElEEEEEEDaSI_, symObjAddr: 0x17800, symBinAddr: 0x1000182B0, symSize: 0x60 }
  - { offset: 0xA1EDD, size: 0x8, addend: 0x0, symName: __ZNSt3__120__map_const_iteratorINS_21__tree_const_iteratorINS_12__value_typeI7QStringPN5Tiled9WangColorEEEPNS_11__tree_nodeIS7_PvEElEEEppB9nqe210106Ev, symObjAddr: 0x17860, symBinAddr: 0x100018310, symSize: 0x30 }
  - { offset: 0xA1F03, size: 0x8, addend: 0x0, symName: __ZNKSt3__16__treeINS_12__value_typeI7QStringPN5Tiled9WangColorEEENS_19__map_value_compareIS2_NS_4pairIKS2_S5_EENS_4lessIS2_EELb1EEENS_9allocatorISA_EEE4sizeB9nqe210106Ev, symObjAddr: 0x17890, symBinAddr: 0x100018340, symSize: 0x20 }
  - { offset: 0xA1F29, size: 0x8, addend: 0x0, symName: __ZNKSt3__13mapI7QStringPN5Tiled9WangColorENS_4lessIS1_EENS_9allocatorINS_4pairIKS1_S4_EEEEE5beginB9nqe210106Ev, symObjAddr: 0x178B0, symBinAddr: 0x100018360, symSize: 0x30 }
  - { offset: 0xA1F4F, size: 0x8, addend: 0x0, symName: __ZNKSt3__16__treeINS_12__value_typeI7QStringPN5Tiled9WangColorEEENS_19__map_value_compareIS2_NS_4pairIKS2_S5_EENS_4lessIS2_EELb1EEENS_9allocatorISA_EEE5beginB9nqe210106Ev, symObjAddr: 0x178E0, symBinAddr: 0x100018390, symSize: 0x30 }
  - { offset: 0xA1F75, size: 0x8, addend: 0x0, symName: __ZNKSt3__16__treeINS_12__value_typeI7QStringPN5Tiled9WangColorEEENS_19__map_value_compareIS2_NS_4pairIKS2_S5_EENS_4lessIS2_EELb1EEENS_9allocatorISA_EEE12__begin_nodeB9nqe210106Ev, symObjAddr: 0x17910, symBinAddr: 0x1000183C0, symSize: 0x10 }
  - { offset: 0xA1F9B, size: 0x8, addend: 0x0, symName: __ZNKSt3__119__map_value_compareI7QStringNS_4pairIKS1_PN5Tiled9WangColorEEENS_4lessIS1_EELb1EE8key_compB9nqe210106Ev, symObjAddr: 0x17920, symBinAddr: 0x1000183D0, symSize: 0x10 }
  - { offset: 0xA1FC1, size: 0x8, addend: 0x0, symName: __ZNSt3__114pointer_traitsIPKNS_4pairIK7QStringPN5Tiled9WangColorEEEE10pointer_toB9nqe210106ERS8_, symObjAddr: 0x17930, symBinAddr: 0x1000183E0, symSize: 0x10 }
  - { offset: 0xA1FE4, size: 0x8, addend: 0x0, symName: __ZNSt3__13mapI7QStringPN5Tiled9WangColorENS_4lessIS1_EENS_9allocatorINS_4pairIKS1_S4_EEEEE6insertB9nqe210106ENS_20__map_const_iteratorINS_21__tree_const_iteratorINS_12__value_typeIS1_S4_EEPNS_11__tree_nodeISG_PvEElEEEERKSA_, symObjAddr: 0x17940, symBinAddr: 0x1000183F0, symSize: 0x50 }
  - { offset: 0xA2028, size: 0x8, addend: 0x0, symName: __ZNKSt3__120__map_const_iteratorINS_21__tree_const_iteratorINS_12__value_typeI7QStringPN5Tiled9WangColorEEEPNS_11__tree_nodeIS7_PvEElEEEdeB9nqe210106Ev, symObjAddr: 0x17990, symBinAddr: 0x100018440, symSize: 0x20 }
  - { offset: 0xA204E, size: 0x8, addend: 0x0, symName: __ZNSt3__16__treeINS_12__value_typeI7QStringPN5Tiled9WangColorEEENS_19__map_value_compareIS2_NS_4pairIKS2_S5_EENS_4lessIS2_EELb1EEENS_9allocatorISA_EEE21__emplace_hint_uniqueB9nqe210106IRKSA_EENS_15__tree_iteratorIS6_PNS_11__tree_nodeIS6_PvEElEENS_21__tree_const_iteratorIS6_SO_lEEOT_, symObjAddr: 0x179B0, symBinAddr: 0x100018460, symSize: 0x40 }
  - { offset: 0xA209B, size: 0x8, addend: 0x0, symName: __ZNSt3__114__map_iteratorINS_15__tree_iteratorINS_12__value_typeI7QStringPN5Tiled9WangColorEEEPNS_11__tree_nodeIS7_PvEElEEEC1B9nqe210106ESC_, symObjAddr: 0x179F0, symBinAddr: 0x1000184A0, symSize: 0x30 }
  - { offset: 0xA20D4, size: 0x8, addend: 0x0, symName: __ZNSt3__16__treeINS_12__value_typeI7QStringPN5Tiled9WangColorEEENS_19__map_value_compareIS2_NS_4pairIKS2_S5_EENS_4lessIS2_EELb1EEENS_9allocatorISA_EEE33__emplace_hint_unique_extract_keyB9nqe210106IRKSA_EENS_15__tree_iteratorIS6_PNS_11__tree_nodeIS6_PvEElEENS_21__tree_const_iteratorIS6_SO_lEEOT_NS_23__extract_key_first_tagE, symObjAddr: 0x17A20, symBinAddr: 0x1000184D0, symSize: 0x60 }
  - { offset: 0xA212D, size: 0x8, addend: 0x0, symName: __ZNSt3__16__treeINS_12__value_typeI7QStringPN5Tiled9WangColorEEENS_19__map_value_compareIS2_NS_4pairIKS2_S5_EENS_4lessIS2_EELb1EEENS_9allocatorISA_EEE30__emplace_hint_unique_key_argsIS2_JRKSA_EEENS8_INS_15__tree_iteratorIS6_PNS_11__tree_nodeIS6_PvEElEEbEENS_21__tree_const_iteratorIS6_SO_lEERKT_DpOT0_, symObjAddr: 0x17A80, symBinAddr: 0x100018530, symSize: 0x110 }
  - { offset: 0xA2200, size: 0x8, addend: 0x0, symName: __ZNSt3__16__treeINS_12__value_typeI7QStringPN5Tiled9WangColorEEENS_19__map_value_compareIS2_NS_4pairIKS2_S5_EENS_4lessIS2_EELb1EEENS_9allocatorISA_EEE12__find_equalIS2_EERPNS_16__tree_node_baseIPvEENS_21__tree_const_iteratorIS6_PNS_11__tree_nodeIS6_SJ_EElEERPNS_15__tree_end_nodeISL_EESM_RKT_, symObjAddr: 0x17B90, symBinAddr: 0x100018640, symSize: 0x2F0 }
  - { offset: 0xA22A7, size: 0x8, addend: 0x0, symName: __ZNSt3__16__treeINS_12__value_typeI7QStringPN5Tiled9WangColorEEENS_19__map_value_compareIS2_NS_4pairIKS2_S5_EENS_4lessIS2_EELb1EEENS_9allocatorISA_EEE16__construct_nodeIJRKSA_EEENS_10unique_ptrINS_11__tree_nodeIS6_PvEENS_22__tree_node_destructorINSE_ISN_EEEEEEDpOT_, symObjAddr: 0x17E80, symBinAddr: 0x100018930, symSize: 0xE0 }
  - { offset: 0xA2306, size: 0x8, addend: 0x0, symName: __ZNSt3__16__treeINS_12__value_typeI7QStringPN5Tiled9WangColorEEENS_19__map_value_compareIS2_NS_4pairIKS2_S5_EENS_4lessIS2_EELb1EEENS_9allocatorISA_EEE16__insert_node_atEPNS_15__tree_end_nodeIPNS_16__tree_node_baseIPvEEEERSL_SL_, symObjAddr: 0x17F60, symBinAddr: 0x100018A10, symSize: 0xB0 }
  - { offset: 0xA235B, size: 0x8, addend: 0x0, symName: __ZNKSt3__110unique_ptrINS_11__tree_nodeINS_12__value_typeI7QStringPN5Tiled9WangColorEEEPvEENS_22__tree_node_destructorINS_9allocatorIS9_EEEEE3getB9nqe210106Ev, symObjAddr: 0x18010, symBinAddr: 0x100018AC0, symSize: 0x20 }
  - { offset: 0xA2381, size: 0x8, addend: 0x0, symName: __ZNSt3__110unique_ptrINS_11__tree_nodeINS_12__value_typeI7QStringPN5Tiled9WangColorEEEPvEENS_22__tree_node_destructorINS_9allocatorIS9_EEEEE7releaseB9nqe210106Ev, symObjAddr: 0x18030, symBinAddr: 0x100018AE0, symSize: 0x20 }
  - { offset: 0xA23B6, size: 0x8, addend: 0x0, symName: __ZNSt3__110unique_ptrINS_11__tree_nodeINS_12__value_typeI7QStringPN5Tiled9WangColorEEEPvEENS_22__tree_node_destructorINS_9allocatorIS9_EEEEED1B9nqe210106Ev, symObjAddr: 0x18050, symBinAddr: 0x100018B00, symSize: 0x20 }
  - { offset: 0xA23E0, size: 0x8, addend: 0x0, symName: __ZNSt3__115__tree_iteratorINS_12__value_typeI7QStringPN5Tiled9WangColorEEEPNS_11__tree_nodeIS6_PvEElEC1B9nqe210106ESA_, symObjAddr: 0x18070, symBinAddr: 0x100018B20, symSize: 0x30 }
  - { offset: 0xA241F, size: 0x8, addend: 0x0, symName: __ZNSt3__14pairINS_15__tree_iteratorINS_12__value_typeI7QStringPN5Tiled9WangColorEEEPNS_11__tree_nodeIS7_PvEElEEbEC1B9nqe210106ISC_RbLi0EEEOT_OT0_, symObjAddr: 0x180A0, symBinAddr: 0x100018B50, symSize: 0x30 }
  - { offset: 0xA247D, size: 0x8, addend: 0x0, symName: __ZNSt3__16__treeINS_12__value_typeI7QStringPN5Tiled9WangColorEEENS_19__map_value_compareIS2_NS_4pairIKS2_S5_EENS_4lessIS2_EELb1EEENS_9allocatorISA_EEE3endB9nqe210106Ev, symObjAddr: 0x180D0, symBinAddr: 0x100018B80, symSize: 0x30 }
  - { offset: 0xA24A3, size: 0x8, addend: 0x0, symName: __ZNSt3__121__tree_const_iteratorINS_12__value_typeI7QStringPN5Tiled9WangColorEEEPNS_11__tree_nodeIS6_PvEElEC1B9nqe210106ENS_15__tree_iteratorIS6_SA_lEE, symObjAddr: 0x18100, symBinAddr: 0x100018BB0, symSize: 0x30 }
  - { offset: 0xA24DC, size: 0x8, addend: 0x0, symName: __ZNSt3__16__treeINS_12__value_typeI7QStringPN5Tiled9WangColorEEENS_19__map_value_compareIS2_NS_4pairIKS2_S5_EENS_4lessIS2_EELb1EEENS_9allocatorISA_EEE10value_compB9nqe210106Ev, symObjAddr: 0x18130, symBinAddr: 0x100018BE0, symSize: 0x20 }
  - { offset: 0xA2502, size: 0x8, addend: 0x0, symName: __ZNSt3__16__treeINS_12__value_typeI7QStringPN5Tiled9WangColorEEENS_19__map_value_compareIS2_NS_4pairIKS2_S5_EENS_4lessIS2_EELb1EEENS_9allocatorISA_EEE5beginB9nqe210106Ev, symObjAddr: 0x18150, symBinAddr: 0x100018C00, symSize: 0x30 }
  - { offset: 0xA2528, size: 0x8, addend: 0x0, symName: __ZNSt3__121__tree_const_iteratorINS_12__value_typeI7QStringPN5Tiled9WangColorEEEPNS_11__tree_nodeIS6_PvEElEmmB9nqe210106Ev, symObjAddr: 0x18180, symBinAddr: 0x100018C30, symSize: 0x30 }
  - { offset: 0xA254E, size: 0x8, addend: 0x0, symName: __ZNSt3__16__treeINS_12__value_typeI7QStringPN5Tiled9WangColorEEENS_19__map_value_compareIS2_NS_4pairIKS2_S5_EENS_4lessIS2_EELb1EEENS_9allocatorISA_EEE12__find_equalIS2_EERPNS_16__tree_node_baseIPvEERPNS_15__tree_end_nodeISL_EERKT_, symObjAddr: 0x181B0, symBinAddr: 0x100018C60, symSize: 0x150 }
  - { offset: 0xA25B9, size: 0x8, addend: 0x0, symName: __ZNSt3__115__tree_iteratorINS_12__value_typeI7QStringPN5Tiled9WangColorEEEPNS_11__tree_nodeIS6_PvEElEC1B9nqe210106EPNS_15__tree_end_nodeIPNS_16__tree_node_baseIS8_EEEE, symObjAddr: 0x18330, symBinAddr: 0x100018DE0, symSize: 0x30 }
  - { offset: 0xA25F2, size: 0x8, addend: 0x0, symName: __ZNSt3__115__tree_iteratorINS_12__value_typeI7QStringPN5Tiled9WangColorEEEPNS_11__tree_nodeIS6_PvEElEC2B9nqe210106EPNS_15__tree_end_nodeIPNS_16__tree_node_baseIS8_EEEE, symObjAddr: 0x18360, symBinAddr: 0x100018E10, symSize: 0x20 }
  - { offset: 0xA262B, size: 0x8, addend: 0x0, symName: __ZNSt3__121__tree_const_iteratorINS_12__value_typeI7QStringPN5Tiled9WangColorEEEPNS_11__tree_nodeIS6_PvEElEC2B9nqe210106ENS_15__tree_iteratorIS6_SA_lEE, symObjAddr: 0x18380, symBinAddr: 0x100018E30, symSize: 0x20 }
  - { offset: 0xA2664, size: 0x8, addend: 0x0, symName: __ZNKSt3__16__treeINS_12__value_typeI7QStringPN5Tiled9WangColorEEENS_19__map_value_compareIS2_NS_4pairIKS2_S5_EENS_4lessIS2_EELb1EEENS_9allocatorISA_EEE10__root_ptrB9nqe210106Ev, symObjAddr: 0x183A0, symBinAddr: 0x100018E50, symSize: 0x20 }
  - { offset: 0xA268A, size: 0x8, addend: 0x0, symName: __ZNSt3__121__tree_const_iteratorINS_12__value_typeI7QStringPN5Tiled9WangColorEEEPNS_11__tree_nodeIS6_PvEElEppB9nqe210106Ev, symObjAddr: 0x18460, symBinAddr: 0x100018F10, symSize: 0x30 }
  - { offset: 0xA26B0, size: 0x8, addend: 0x0, symName: __ZNSt3__116allocator_traitsINS_9allocatorINS_11__tree_nodeINS_12__value_typeI7QStringPN5Tiled9WangColorEEEPvEEEEE8allocateB9nqe210106ERSB_m, symObjAddr: 0x18490, symBinAddr: 0x100018F40, symSize: 0x30 }
  - { offset: 0xA26E3, size: 0x8, addend: 0x0, symName: __ZNSt3__122__tree_node_destructorINS_9allocatorINS_11__tree_nodeINS_12__value_typeI7QStringPN5Tiled9WangColorEEEPvEEEEEC1B9nqe210106ERSB_b, symObjAddr: 0x184C0, symBinAddr: 0x100018F70, symSize: 0x40 }
  - { offset: 0xA2731, size: 0x8, addend: 0x0, symName: __ZNSt3__110unique_ptrINS_11__tree_nodeINS_12__value_typeI7QStringPN5Tiled9WangColorEEEPvEENS_22__tree_node_destructorINS_9allocatorIS9_EEEEEC1B9nqe210106ILb1EvEEPS9_NS_16__dependent_typeINS_27__unique_ptr_deleter_sfinaeISD_EEXT_EE20__good_rval_ref_typeE, symObjAddr: 0x18500, symBinAddr: 0x100018FB0, symSize: 0x30 }
  - { offset: 0xA2782, size: 0x8, addend: 0x0, symName: __ZNSt3__116allocator_traitsINS_9allocatorINS_11__tree_nodeINS_12__value_typeI7QStringPN5Tiled9WangColorEEEPvEEEEE9constructB9nqe210106INS_4pairIKS4_S7_EEJRKSG_ELi0EEEvRSB_PT_DpOT0_, symObjAddr: 0x18530, symBinAddr: 0x100018FE0, symSize: 0x30 }
  - { offset: 0xA27DE, size: 0x8, addend: 0x0, symName: __ZNKSt3__110unique_ptrINS_11__tree_nodeINS_12__value_typeI7QStringPN5Tiled9WangColorEEEPvEENS_22__tree_node_destructorINS_9allocatorIS9_EEEEEptB9nqe210106Ev, symObjAddr: 0x18560, symBinAddr: 0x100019010, symSize: 0x20 }
  - { offset: 0xA2804, size: 0x8, addend: 0x0, symName: __ZNSt3__110unique_ptrINS_11__tree_nodeINS_12__value_typeI7QStringPN5Tiled9WangColorEEEPvEENS_22__tree_node_destructorINS_9allocatorIS9_EEEEE11get_deleterB9nqe210106Ev, symObjAddr: 0x18580, symBinAddr: 0x100019030, symSize: 0x20 }
  - { offset: 0xA282A, size: 0x8, addend: 0x0, symName: __ZNSt3__19allocatorINS_11__tree_nodeINS_12__value_typeI7QStringPN5Tiled9WangColorEEEPvEEE8allocateB9nqe210106Em, symObjAddr: 0x185A0, symBinAddr: 0x100019050, symSize: 0x50 }
  - { offset: 0xA2869, size: 0x8, addend: 0x0, symName: __ZNSt3__116allocator_traitsINS_9allocatorINS_11__tree_nodeINS_12__value_typeI7QStringPN5Tiled9WangColorEEEPvEEEEE8max_sizeB9nqe210106ISB_Li0EEEmRKSB_, symObjAddr: 0x185F0, symBinAddr: 0x1000190A0, symSize: 0x20 }
  - { offset: 0xA289C, size: 0x8, addend: 0x0, symName: __ZNKSt3__19allocatorINS_11__tree_nodeINS_12__value_typeI7QStringPN5Tiled9WangColorEEEPvEEE8max_sizeB9nqe210106Ev, symObjAddr: 0x18670, symBinAddr: 0x100019120, symSize: 0x20 }
  - { offset: 0xA28C2, size: 0x8, addend: 0x0, symName: __ZNSt3__122__tree_node_destructorINS_9allocatorINS_11__tree_nodeINS_12__value_typeI7QStringPN5Tiled9WangColorEEEPvEEEEEC2B9nqe210106ERSB_b, symObjAddr: 0x18690, symBinAddr: 0x100019140, symSize: 0x30 }
  - { offset: 0xA290A, size: 0x8, addend: 0x0, symName: __ZNSt3__110unique_ptrINS_11__tree_nodeINS_12__value_typeI7QStringPN5Tiled9WangColorEEEPvEENS_22__tree_node_destructorINS_9allocatorIS9_EEEEEC2B9nqe210106ILb1EvEEPS9_NS_16__dependent_typeINS_27__unique_ptr_deleter_sfinaeISD_EEXT_EE20__good_rval_ref_typeE, symObjAddr: 0x186C0, symBinAddr: 0x100019170, symSize: 0x50 }
  - { offset: 0xA2960, size: 0x8, addend: 0x0, symName: __ZNSt3__125__compressed_pair_paddingINS_22__tree_node_destructorINS_9allocatorINS_11__tree_nodeINS_12__value_typeI7QStringPN5Tiled9WangColorEEEPvEEEEEELb0EEC1Ev, symObjAddr: 0x18710, symBinAddr: 0x1000191C0, symSize: 0x20 }
  - { offset: 0xA298C, size: 0x8, addend: 0x0, symName: __ZNSt3__125__compressed_pair_paddingINS_22__tree_node_destructorINS_9allocatorINS_11__tree_nodeINS_12__value_typeI7QStringPN5Tiled9WangColorEEEPvEEEEEELb0EEC2Ev, symObjAddr: 0x18730, symBinAddr: 0x1000191E0, symSize: 0x40 }
  - { offset: 0xA29B8, size: 0x8, addend: 0x0, symName: __ZNSt3__19allocatorINS_11__tree_nodeINS_12__value_typeI7QStringPN5Tiled9WangColorEEEPvEEE9constructB9nqe210106INS_4pairIKS3_S6_EEJRKSE_EEEvPT_DpOT0_, symObjAddr: 0x18770, symBinAddr: 0x100019220, symSize: 0x30 }
  - { offset: 0xA2A0E, size: 0x8, addend: 0x0, symName: __ZNSt3__14pairIK7QStringPN5Tiled9WangColorEEC1B9nqe210106ERKS6_, symObjAddr: 0x187A0, symBinAddr: 0x100019250, symSize: 0x30 }
  - { offset: 0xA2A42, size: 0x8, addend: 0x0, symName: __ZNSt3__14pairIK7QStringPN5Tiled9WangColorEEC2B9nqe210106ERKS6_, symObjAddr: 0x187D0, symBinAddr: 0x100019280, symSize: 0x40 }
  - { offset: 0xA2A76, size: 0x8, addend: 0x0, symName: __ZNSt3__16__treeINS_12__value_typeI7QStringPN5Tiled9WangColorEEENS_19__map_value_compareIS2_NS_4pairIKS2_S5_EENS_4lessIS2_EELb1EEENS_9allocatorISA_EEE4sizeB9nqe210106Ev, symObjAddr: 0x18810, symBinAddr: 0x1000192C0, symSize: 0x20 }
  - { offset: 0xA2A9C, size: 0x8, addend: 0x0, symName: __ZNSt3__110unique_ptrINS_11__tree_nodeINS_12__value_typeI7QStringPN5Tiled9WangColorEEEPvEENS_22__tree_node_destructorINS_9allocatorIS9_EEEEED2B9nqe210106Ev, symObjAddr: 0x18830, symBinAddr: 0x1000192E0, symSize: 0x20 }
  - { offset: 0xA2AC6, size: 0x8, addend: 0x0, symName: __ZNSt3__110unique_ptrINS_11__tree_nodeINS_12__value_typeI7QStringPN5Tiled9WangColorEEEPvEENS_22__tree_node_destructorINS_9allocatorIS9_EEEEE5resetB9nqe210106EPS9_, symObjAddr: 0x18850, symBinAddr: 0x100019300, symSize: 0x50 }
  - { offset: 0xA2B0A, size: 0x8, addend: 0x0, symName: __ZNSt3__122__tree_node_destructorINS_9allocatorINS_11__tree_nodeINS_12__value_typeI7QStringPN5Tiled9WangColorEEEPvEEEEEclB9nqe210106EPSA_, symObjAddr: 0x188A0, symBinAddr: 0x100019350, symSize: 0x60 }
  - { offset: 0xA2B3F, size: 0x8, addend: 0x0, symName: __ZNSt3__115__tree_iteratorINS_12__value_typeI7QStringPN5Tiled9WangColorEEEPNS_11__tree_nodeIS6_PvEElEC2B9nqe210106ESA_, symObjAddr: 0x18900, symBinAddr: 0x1000193B0, symSize: 0x20 }
  - { offset: 0xA2B78, size: 0x8, addend: 0x0, symName: __ZNSt3__14pairINS_15__tree_iteratorINS_12__value_typeI7QStringPN5Tiled9WangColorEEEPNS_11__tree_nodeIS7_PvEElEEbEC2B9nqe210106ISC_RbLi0EEEOT_OT0_, symObjAddr: 0x18920, symBinAddr: 0x1000193D0, symSize: 0x30 }
  - { offset: 0xA2BD6, size: 0x8, addend: 0x0, symName: __ZNSt3__114__map_iteratorINS_15__tree_iteratorINS_12__value_typeI7QStringPN5Tiled9WangColorEEEPNS_11__tree_nodeIS7_PvEElEEEC2B9nqe210106ESC_, symObjAddr: 0x18950, symBinAddr: 0x100019400, symSize: 0x20 }
  - { offset: 0xA2C0E, size: 0x8, addend: 0x0, symName: __Z11qt_ptr_swapI8QMapDataINSt3__13mapI7QStringPN5Tiled9WangColorENS1_4lessIS3_EENS1_9allocatorINS1_4pairIKS3_S6_EEEEEEEEvRPT_SI_, symObjAddr: 0x189A0, symBinAddr: 0x100019450, symSize: 0x40 }
  - { offset: 0xA2C5C, size: 0x8, addend: 0x0, symName: __ZNSt3__13mapI7QStringPN5Tiled9WangColorENS_4lessIS1_EENS_9allocatorINS_4pairIKS1_S4_EEEEE11lower_boundB9nqe210106ERS9_, symObjAddr: 0x189E0, symBinAddr: 0x100019490, symSize: 0x40 }
  - { offset: 0xA2C91, size: 0x8, addend: 0x0, symName: __ZNSt3__13mapI7QStringPN5Tiled9WangColorENS_4lessIS1_EENS_9allocatorINS_4pairIKS1_S4_EEEEE3endB9nqe210106Ev, symObjAddr: 0x18A50, symBinAddr: 0x100019500, symSize: 0x30 }
  - { offset: 0xA2CB7, size: 0x8, addend: 0x0, symName: __ZNKSt3__114__map_iteratorINS_15__tree_iteratorINS_12__value_typeI7QStringPN5Tiled9WangColorEEEPNS_11__tree_nodeIS7_PvEElEEEptB9nqe210106Ev, symObjAddr: 0x18A80, symBinAddr: 0x100019530, symSize: 0x30 }
  - { offset: 0xA2CDD, size: 0x8, addend: 0x0, symName: __ZNSt3__13mapI7QStringPN5Tiled9WangColorENS_4lessIS1_EENS_9allocatorINS_4pairIKS1_S4_EEEEE12emplace_hintB9nqe210106IJRS9_RKS4_EEENS_14__map_iteratorINS_15__tree_iteratorINS_12__value_typeIS1_S4_EEPNS_11__tree_nodeISK_PvEElEEEENS_20__map_const_iteratorINS_21__tree_const_iteratorISK_SO_lEEEEDpOT_, symObjAddr: 0x18B10, symBinAddr: 0x1000195C0, symSize: 0x50 }
  - { offset: 0xA2D40, size: 0x8, addend: 0x0, symName: __ZNSt3__120__map_const_iteratorINS_21__tree_const_iteratorINS_12__value_typeI7QStringPN5Tiled9WangColorEEEPNS_11__tree_nodeIS7_PvEElEEEC1B9nqe210106ENS_14__map_iteratorINS_15__tree_iteratorIS7_SB_lEEEE, symObjAddr: 0x18B60, symBinAddr: 0x100019610, symSize: 0x30 }
  - { offset: 0xA2D79, size: 0x8, addend: 0x0, symName: __ZNSt3__16__treeINS_12__value_typeI7QStringPN5Tiled9WangColorEEENS_19__map_value_compareIS2_NS_4pairIKS2_S5_EENS_4lessIS2_EELb1EEENS_9allocatorISA_EEE11lower_boundB9nqe210106IS2_EENS_15__tree_iteratorIS6_PNS_11__tree_nodeIS6_PvEElEERKT_, symObjAddr: 0x18B90, symBinAddr: 0x100019640, symSize: 0x60 }
  - { offset: 0xA2DB7, size: 0x8, addend: 0x0, symName: __ZNSt3__16__treeINS_12__value_typeI7QStringPN5Tiled9WangColorEEENS_19__map_value_compareIS2_NS_4pairIKS2_S5_EENS_4lessIS2_EELb1EEENS_9allocatorISA_EEE13__lower_boundIS2_EENS_15__tree_iteratorIS6_PNS_11__tree_nodeIS6_PvEElEERKT_SM_PNS_15__tree_end_nodeIPNS_16__tree_node_baseISK_EEEE, symObjAddr: 0x18BF0, symBinAddr: 0x1000196A0, symSize: 0x90 }
  - { offset: 0xA2E13, size: 0x8, addend: 0x0, symName: __ZNSt3__114pointer_traitsIPNS_4pairIK7QStringPN5Tiled9WangColorEEEE10pointer_toB9nqe210106ERS7_, symObjAddr: 0x18CE0, symBinAddr: 0x100019790, symSize: 0x10 }
  - { offset: 0xA2E36, size: 0x8, addend: 0x0, symName: __ZNKSt3__115__tree_iteratorINS_12__value_typeI7QStringPN5Tiled9WangColorEEEPNS_11__tree_nodeIS6_PvEElEdeB9nqe210106Ev, symObjAddr: 0x18CF0, symBinAddr: 0x1000197A0, symSize: 0x20 }
  - { offset: 0xA2E5C, size: 0x8, addend: 0x0, symName: __ZNKSt3__115__tree_iteratorINS_12__value_typeI7QStringPN5Tiled9WangColorEEEPNS_11__tree_nodeIS6_PvEElE8__get_npB9nqe210106Ev, symObjAddr: 0x18D10, symBinAddr: 0x1000197C0, symSize: 0x20 }
  - { offset: 0xA2E82, size: 0x8, addend: 0x0, symName: __ZNSt3__14pairINS_14__map_iteratorINS_15__tree_iteratorINS_12__value_typeI7QStringPN5Tiled9WangColorEEEPNS_11__tree_nodeIS8_PvEElEEEEbEC1B9nqe210106IRSE_bLi0EEEOT_OT0_, symObjAddr: 0x18D30, symBinAddr: 0x1000197E0, symSize: 0x30 }
  - { offset: 0xA2EE0, size: 0x8, addend: 0x0, symName: __ZNSt3__14pairINS_14__map_iteratorINS_15__tree_iteratorINS_12__value_typeI7QStringPN5Tiled9WangColorEEEPNS_11__tree_nodeIS8_PvEElEEEEbEC2B9nqe210106IRSE_bLi0EEEOT_OT0_, symObjAddr: 0x18D60, symBinAddr: 0x100019810, symSize: 0x30 }
  - { offset: 0xA2F44, size: 0x8, addend: 0x0, symName: __ZNSt3__14pairINS_14__map_iteratorINS_15__tree_iteratorINS_12__value_typeI7QStringPN5Tiled9WangColorEEEPNS_11__tree_nodeIS8_PvEElEEEEbEC1B9nqe210106ISE_bLi0EEEOT_OT0_, symObjAddr: 0x18D90, symBinAddr: 0x100019840, symSize: 0x30 }
  - { offset: 0xA2FA2, size: 0x8, addend: 0x0, symName: __ZNSt3__14pairINS_14__map_iteratorINS_15__tree_iteratorINS_12__value_typeI7QStringPN5Tiled9WangColorEEEPNS_11__tree_nodeIS8_PvEElEEEEbEC2B9nqe210106ISE_bLi0EEEOT_OT0_, symObjAddr: 0x18DC0, symBinAddr: 0x100019870, symSize: 0x30 }
  - { offset: 0xA3000, size: 0x8, addend: 0x0, symName: __ZNSt3__16__treeINS_12__value_typeI7QStringPN5Tiled9WangColorEEENS_19__map_value_compareIS2_NS_4pairIKS2_S5_EENS_4lessIS2_EELb1EEENS_9allocatorISA_EEE21__emplace_hint_uniqueB9nqe210106IRS9_RKS5_Li0EEENS_15__tree_iteratorIS6_PNS_11__tree_nodeIS6_PvEElEENS_21__tree_const_iteratorIS6_SP_lEEOT_OT0_, symObjAddr: 0x18DF0, symBinAddr: 0x1000198A0, symSize: 0x60 }
  - { offset: 0xA306B, size: 0x8, addend: 0x0, symName: __ZNSt3__16__treeINS_12__value_typeI7QStringPN5Tiled9WangColorEEENS_19__map_value_compareIS2_NS_4pairIKS2_S5_EENS_4lessIS2_EELb1EEENS_9allocatorISA_EEE30__emplace_hint_unique_key_argsIS2_JRS9_RKS5_EEENS8_INS_15__tree_iteratorIS6_PNS_11__tree_nodeIS6_PvEElEEbEENS_21__tree_const_iteratorIS6_SP_lEERKT_DpOT0_, symObjAddr: 0x18E50, symBinAddr: 0x100019900, symSize: 0x110 }
  - { offset: 0xA3153, size: 0x8, addend: 0x0, symName: __ZNSt3__16__treeINS_12__value_typeI7QStringPN5Tiled9WangColorEEENS_19__map_value_compareIS2_NS_4pairIKS2_S5_EENS_4lessIS2_EELb1EEENS_9allocatorISA_EEE16__construct_nodeIJRS9_RKS5_EEENS_10unique_ptrINS_11__tree_nodeIS6_PvEENS_22__tree_node_destructorINSE_ISO_EEEEEEDpOT_, symObjAddr: 0x18F60, symBinAddr: 0x100019A10, symSize: 0xF0 }
  - { offset: 0xA31C6, size: 0x8, addend: 0x0, symName: __ZNSt3__116allocator_traitsINS_9allocatorINS_11__tree_nodeINS_12__value_typeI7QStringPN5Tiled9WangColorEEEPvEEEEE9constructB9nqe210106INS_4pairIKS4_S7_EEJRSF_RKS7_ELi0EEEvRSB_PT_DpOT0_, symObjAddr: 0x19050, symBinAddr: 0x100019B00, symSize: 0x40 }
  - { offset: 0xA3236, size: 0x8, addend: 0x0, symName: __ZNSt3__19allocatorINS_11__tree_nodeINS_12__value_typeI7QStringPN5Tiled9WangColorEEEPvEEE9constructB9nqe210106INS_4pairIKS3_S6_EEJRSD_RKS6_EEEvPT_DpOT0_, symObjAddr: 0x19090, symBinAddr: 0x100019B40, symSize: 0x30 }
  - { offset: 0xA329F, size: 0x8, addend: 0x0, symName: __ZNSt3__14pairIK7QStringPN5Tiled9WangColorEEC1B9nqe210106INS_25__check_pair_constructionIS2_S5_EELi0EEERS2_RKS5_, symObjAddr: 0x190C0, symBinAddr: 0x100019B70, symSize: 0x30 }
  - { offset: 0xA32F4, size: 0x8, addend: 0x0, symName: __ZNSt3__14pairIK7QStringPN5Tiled9WangColorEEC2B9nqe210106INS_25__check_pair_constructionIS2_S5_EELi0EEERS2_RKS5_, symObjAddr: 0x190F0, symBinAddr: 0x100019BA0, symSize: 0x40 }
  - { offset: 0xA3349, size: 0x8, addend: 0x0, symName: __ZNSt3__120__map_const_iteratorINS_21__tree_const_iteratorINS_12__value_typeI7QStringPN5Tiled9WangColorEEEPNS_11__tree_nodeIS7_PvEElEEEC2B9nqe210106ENS_14__map_iteratorINS_15__tree_iteratorIS7_SB_lEEEE, symObjAddr: 0x19130, symBinAddr: 0x100019BE0, symSize: 0x30 }
  - { offset: 0xA3382, size: 0x8, addend: 0x0, symName: __ZN4QMapI7QStringPN5Tiled9WangColorEE8iteratorC2ENSt3__114__map_iteratorINS6_15__tree_iteratorINS6_12__value_typeIS0_S3_EEPNS6_11__tree_nodeISA_PvEElEEEE, symObjAddr: 0x19160, symBinAddr: 0x100019C10, symSize: 0x20 }
  - { offset: 0xA33BB, size: 0x8, addend: 0x0, symName: __ZNK17QArrayDataPointerI5QListI7QStringEEptEv, symObjAddr: 0x19180, symBinAddr: 0x100019C30, symSize: 0x10 }
  - { offset: 0xA33E1, size: 0x8, addend: 0x0, symName: __ZNK17QArrayDataPointerI5QListI7QStringEE10constBeginEv, symObjAddr: 0x19190, symBinAddr: 0x100019C40, symSize: 0x20 }
  - { offset: 0xA3407, size: 0x8, addend: 0x0, symName: __ZN5QListIS_I7QStringEE14const_iteratorC1EPKS1_, symObjAddr: 0x191B0, symBinAddr: 0x100019C60, symSize: 0x30 }
  - { offset: 0xA343F, size: 0x8, addend: 0x0, symName: __ZN5QListIS_I7QStringEE14const_iteratorC2EPKS1_, symObjAddr: 0x191E0, symBinAddr: 0x100019C90, symSize: 0x20 }
  - { offset: 0xA3477, size: 0x8, addend: 0x0, symName: __ZNK17QArrayDataPointerI5QListI7QStringEE8constEndEv, symObjAddr: 0x19200, symBinAddr: 0x100019CB0, symSize: 0x30 }
  - { offset: 0xA349D, size: 0x8, addend: 0x0, symName: __ZN6QDebugC1EOS_, symObjAddr: 0x19390, symBinAddr: 0x100019E40, symSize: 0x30 }
  - { offset: 0xA34D5, size: 0x8, addend: 0x0, symName: __ZN6QDebugC2EOS_, symObjAddr: 0x193C0, symBinAddr: 0x100019E70, symSize: 0x40 }
  - { offset: 0xA350D, size: 0x8, addend: 0x0, symName: __ZN4QMapI7QStringiE28referenceHoldingDetachExceptERKS0_, symObjAddr: 0x19430, symBinAddr: 0x100019EE0, symSize: 0x170 }
  - { offset: 0xA3567, size: 0x8, addend: 0x0, symName: __ZN9QtPrivate30QExplicitlySharedDataPointerV2I8QMapDataINSt3__13mapI7QStringiNS2_4lessIS4_EENS2_9allocatorINS2_4pairIKS4_iEEEEEEEEptEv, symObjAddr: 0x195A0, symBinAddr: 0x10001A050, symSize: 0x20 }
  - { offset: 0xA358D, size: 0x8, addend: 0x0, symName: __ZNSt3__13mapI7QStringiNS_4lessIS1_EENS_9allocatorINS_4pairIKS1_iEEEEE16insert_or_assignB9nqe210106IRKiEENS5_INS_14__map_iteratorINS_15__tree_iteratorINS_12__value_typeIS1_iEEPNS_11__tree_nodeISG_PvEElEEEEbEERS6_OT_, symObjAddr: 0x195C0, symBinAddr: 0x10001A070, symSize: 0x160 }
  - { offset: 0xA35E9, size: 0x8, addend: 0x0, symName: __ZN4QMapI7QStringiE8iteratorC1ENSt3__114__map_iteratorINS3_15__tree_iteratorINS3_12__value_typeIS0_iEEPNS3_11__tree_nodeIS7_PvEElEEEE, symObjAddr: 0x19720, symBinAddr: 0x10001A1D0, symSize: 0x30 }
  - { offset: 0xA3622, size: 0x8, addend: 0x0, symName: __ZNK9QtPrivate30QExplicitlySharedDataPointerV2I8QMapDataINSt3__13mapI7QStringiNS2_4lessIS4_EENS2_9allocatorINS2_4pairIKS4_iEEEEEEEEcvbEv, symObjAddr: 0x19750, symBinAddr: 0x10001A200, symSize: 0x30 }
  - { offset: 0xA3648, size: 0x8, addend: 0x0, symName: __ZN9QtPrivate30QExplicitlySharedDataPointerV2I8QMapDataINSt3__13mapI7QStringiNS2_4lessIS4_EENS2_9allocatorINS2_4pairIKS4_iEEEEEEEE5resetEPSD_, symObjAddr: 0x19780, symBinAddr: 0x10001A230, symSize: 0xA0 }
  - { offset: 0xA367C, size: 0x8, addend: 0x0, symName: __ZN8QMapDataINSt3__13mapI7QStringiNS0_4lessIS2_EENS0_9allocatorINS0_4pairIKS2_iEEEEEEEC1Ev, symObjAddr: 0x19820, symBinAddr: 0x10001A2D0, symSize: 0x20 }
  - { offset: 0xA36A6, size: 0x8, addend: 0x0, symName: __ZNK9QtPrivate30QExplicitlySharedDataPointerV2I8QMapDataINSt3__13mapI7QStringiNS2_4lessIS4_EENS2_9allocatorINS2_4pairIKS4_iEEEEEEEE8isSharedEv, symObjAddr: 0x19840, symBinAddr: 0x10001A2F0, symSize: 0x50 }
  - { offset: 0xA36CC, size: 0x8, addend: 0x0, symName: __ZN9QtPrivate30QExplicitlySharedDataPointerV2I8QMapDataINSt3__13mapI7QStringiNS2_4lessIS4_EENS2_9allocatorINS2_4pairIKS4_iEEEEEEEEC1EPSD_, symObjAddr: 0x19890, symBinAddr: 0x10001A340, symSize: 0x30 }
  - { offset: 0xA3704, size: 0x8, addend: 0x0, symName: __ZN8QMapDataINSt3__13mapI7QStringiNS0_4lessIS2_EENS0_9allocatorINS0_4pairIKS2_iEEEEEEE21copyIfNotEquivalentToERKSA_RS7_, symObjAddr: 0x198C0, symBinAddr: 0x10001A370, symSize: 0x1B0 }
  - { offset: 0xA37BC, size: 0x8, addend: 0x0, symName: __ZN9QtPrivate30QExplicitlySharedDataPointerV2I8QMapDataINSt3__13mapI7QStringiNS2_4lessIS4_EENS2_9allocatorINS2_4pairIKS4_iEEEEEEEE4swapERSE_, symObjAddr: 0x19A70, symBinAddr: 0x10001A520, symSize: 0x30 }
  - { offset: 0xA37F0, size: 0x8, addend: 0x0, symName: __ZN2Qt23totally_ordered_wrapperIP8QMapDataINSt3__13mapI7QStringiNS2_4lessIS4_EENS2_9allocatorINS2_4pairIKS4_iEEEEEEEE5resetESE_, symObjAddr: 0x19AA0, symBinAddr: 0x10001A550, symSize: 0x20 }
  - { offset: 0xA3825, size: 0x8, addend: 0x0, symName: __ZN8QMapDataINSt3__13mapI7QStringiNS0_4lessIS2_EENS0_9allocatorINS0_4pairIKS2_iEEEEEEEC2Ev, symObjAddr: 0x19AC0, symBinAddr: 0x10001A570, symSize: 0x30 }
  - { offset: 0xA384F, size: 0x8, addend: 0x0, symName: __ZNSt3__13mapI7QStringiNS_4lessIS1_EENS_9allocatorINS_4pairIKS1_iEEEEEC1B9nqe210106Ev, symObjAddr: 0x19AF0, symBinAddr: 0x10001A5A0, symSize: 0x20 }
  - { offset: 0xA3879, size: 0x8, addend: 0x0, symName: __ZNSt3__13mapI7QStringiNS_4lessIS1_EENS_9allocatorINS_4pairIKS1_iEEEEEC2B9nqe210106Ev, symObjAddr: 0x19B10, symBinAddr: 0x10001A5C0, symSize: 0x30 }
  - { offset: 0xA38A3, size: 0x8, addend: 0x0, symName: __ZNSt3__119__map_value_compareI7QStringNS_4pairIKS1_iEENS_4lessIS1_EELb1EEC1B9nqe210106ES6_, symObjAddr: 0x19B40, symBinAddr: 0x10001A5F0, symSize: 0x20 }
  - { offset: 0xA38DC, size: 0x8, addend: 0x0, symName: __ZNSt3__16__treeINS_12__value_typeI7QStringiEENS_19__map_value_compareIS2_NS_4pairIKS2_iEENS_4lessIS2_EELb1EEENS_9allocatorIS7_EEEC1ERKSA_, symObjAddr: 0x19B60, symBinAddr: 0x10001A610, symSize: 0x30 }
  - { offset: 0xA3917, size: 0x8, addend: 0x0, symName: __ZNSt3__119__map_value_compareI7QStringNS_4pairIKS1_iEENS_4lessIS1_EELb1EEC2B9nqe210106ES6_, symObjAddr: 0x19B90, symBinAddr: 0x10001A640, symSize: 0x10 }
  - { offset: 0xA3950, size: 0x8, addend: 0x0, symName: __ZNSt3__16__treeINS_12__value_typeI7QStringiEENS_19__map_value_compareIS2_NS_4pairIKS2_iEENS_4lessIS2_EELb1EEENS_9allocatorIS7_EEEC2ERKSA_, symObjAddr: 0x19BA0, symBinAddr: 0x10001A650, symSize: 0x60 }
  - { offset: 0xA398B, size: 0x8, addend: 0x0, symName: __ZNSt3__19allocatorINS_11__tree_nodeINS_12__value_typeI7QStringiEEPvEEEC1B9nqe210106Ev, symObjAddr: 0x19C00, symBinAddr: 0x10001A6B0, symSize: 0x20 }
  - { offset: 0xA39B5, size: 0x8, addend: 0x0, symName: __ZNSt3__16__treeINS_12__value_typeI7QStringiEENS_19__map_value_compareIS2_NS_4pairIKS2_iEENS_4lessIS2_EELb1EEENS_9allocatorIS7_EEE10__end_nodeB9nqe210106Ev, symObjAddr: 0x19C20, symBinAddr: 0x10001A6D0, symSize: 0x20 }
  - { offset: 0xA39DB, size: 0x8, addend: 0x0, symName: __ZNSt3__16__treeINS_12__value_typeI7QStringiEENS_19__map_value_compareIS2_NS_4pairIKS2_iEENS_4lessIS2_EELb1EEENS_9allocatorIS7_EEE12__begin_nodeB9nqe210106Ev, symObjAddr: 0x19C40, symBinAddr: 0x10001A6F0, symSize: 0x10 }
  - { offset: 0xA3A01, size: 0x8, addend: 0x0, symName: __ZNSt3__19allocatorINS_11__tree_nodeINS_12__value_typeI7QStringiEEPvEEEC2B9nqe210106Ev, symObjAddr: 0x19C50, symBinAddr: 0x10001A700, symSize: 0x20 }
  - { offset: 0xA3A2B, size: 0x8, addend: 0x0, symName: __ZNSt3__116__non_trivial_ifILb1ENS_9allocatorINS_11__tree_nodeINS_12__value_typeI7QStringiEEPvEEEEEC2B9nqe210106Ev, symObjAddr: 0x19C70, symBinAddr: 0x10001A720, symSize: 0x10 }
  - { offset: 0xA3A55, size: 0x8, addend: 0x0, symName: __ZN9QtPrivate30QExplicitlySharedDataPointerV2I8QMapDataINSt3__13mapI7QStringiNS2_4lessIS4_EENS2_9allocatorINS2_4pairIKS4_iEEEEEEEEC2EPSD_, symObjAddr: 0x19C80, symBinAddr: 0x10001A730, symSize: 0x50 }
  - { offset: 0xA3A8D, size: 0x8, addend: 0x0, symName: __ZNKSt3__13mapI7QStringiNS_4lessIS1_EENS_9allocatorINS_4pairIKS1_iEEEEE5emptyB9nqe210106Ev, symObjAddr: 0x19CD0, symBinAddr: 0x10001A780, symSize: 0x30 }
  - { offset: 0xA3AB3, size: 0x8, addend: 0x0, symName: __ZNKSt3__13mapI7QStringiNS_4lessIS1_EENS_9allocatorINS_4pairIKS1_iEEEEE6cbeginB9nqe210106Ev, symObjAddr: 0x19D00, symBinAddr: 0x10001A7B0, symSize: 0x30 }
  - { offset: 0xA3AD9, size: 0x8, addend: 0x0, symName: __ZNKSt3__13mapI7QStringiNS_4lessIS1_EENS_9allocatorINS_4pairIKS1_iEEEEE4cendB9nqe210106Ev, symObjAddr: 0x19D30, symBinAddr: 0x10001A7E0, symSize: 0x30 }
  - { offset: 0xA3AFF, size: 0x8, addend: 0x0, symName: __ZNKSt3__13mapI7QStringiNS_4lessIS1_EENS_9allocatorINS_4pairIKS1_iEEEEE8key_compB9nqe210106Ev, symObjAddr: 0x19D60, symBinAddr: 0x10001A810, symSize: 0x30 }
  - { offset: 0xA3B25, size: 0x8, addend: 0x0, symName: __ZNKSt3__120__map_const_iteratorINS_21__tree_const_iteratorINS_12__value_typeI7QStringiEEPNS_11__tree_nodeIS4_PvEElEEEptB9nqe210106Ev, symObjAddr: 0x19DC0, symBinAddr: 0x10001A870, symSize: 0x30 }
  - { offset: 0xA3B55, size: 0x8, addend: 0x0, symName: __ZZN8QMapDataINSt3__13mapI7QStringiNS0_4lessIS2_EENS0_9allocatorINS0_4pairIKS2_iEEEEEEE21copyIfNotEquivalentToERKSA_RS7_ENKUlT_E_clINS0_20__map_const_iteratorINS0_21__tree_const_iteratorINS0_12__value_typeIS2_iEEPNS0_11__tree_nodeISL_PvEElEEEEEEDaSF_, symObjAddr: 0x19DF0, symBinAddr: 0x10001A8A0, symSize: 0x60 }
  - { offset: 0xA3B96, size: 0x8, addend: 0x0, symName: __ZNSt3__120__map_const_iteratorINS_21__tree_const_iteratorINS_12__value_typeI7QStringiEEPNS_11__tree_nodeIS4_PvEElEEEppB9nqe210106Ev, symObjAddr: 0x19E50, symBinAddr: 0x10001A900, symSize: 0x30 }
  - { offset: 0xA3BBC, size: 0x8, addend: 0x0, symName: __ZNKSt3__16__treeINS_12__value_typeI7QStringiEENS_19__map_value_compareIS2_NS_4pairIKS2_iEENS_4lessIS2_EELb1EEENS_9allocatorIS7_EEE4sizeB9nqe210106Ev, symObjAddr: 0x19E80, symBinAddr: 0x10001A930, symSize: 0x20 }
  - { offset: 0xA3BE2, size: 0x8, addend: 0x0, symName: __ZNKSt3__13mapI7QStringiNS_4lessIS1_EENS_9allocatorINS_4pairIKS1_iEEEEE5beginB9nqe210106Ev, symObjAddr: 0x19EA0, symBinAddr: 0x10001A950, symSize: 0x30 }
  - { offset: 0xA3C08, size: 0x8, addend: 0x0, symName: __ZNKSt3__16__treeINS_12__value_typeI7QStringiEENS_19__map_value_compareIS2_NS_4pairIKS2_iEENS_4lessIS2_EELb1EEENS_9allocatorIS7_EEE5beginB9nqe210106Ev, symObjAddr: 0x19ED0, symBinAddr: 0x10001A980, symSize: 0x30 }
  - { offset: 0xA3C2E, size: 0x8, addend: 0x0, symName: __ZNSt3__120__map_const_iteratorINS_21__tree_const_iteratorINS_12__value_typeI7QStringiEEPNS_11__tree_nodeIS4_PvEElEEEC1B9nqe210106ES9_, symObjAddr: 0x19F00, symBinAddr: 0x10001A9B0, symSize: 0x30 }
  - { offset: 0xA3C67, size: 0x8, addend: 0x0, symName: __ZNKSt3__16__treeINS_12__value_typeI7QStringiEENS_19__map_value_compareIS2_NS_4pairIKS2_iEENS_4lessIS2_EELb1EEENS_9allocatorIS7_EEE12__begin_nodeB9nqe210106Ev, symObjAddr: 0x19F30, symBinAddr: 0x10001A9E0, symSize: 0x10 }
  - { offset: 0xA3C8D, size: 0x8, addend: 0x0, symName: __ZNSt3__121__tree_const_iteratorINS_12__value_typeI7QStringiEEPNS_11__tree_nodeIS3_PvEElEC1B9nqe210106EPNS_15__tree_end_nodeIPNS_16__tree_node_baseIS5_EEEE, symObjAddr: 0x19F40, symBinAddr: 0x10001A9F0, symSize: 0x30 }
  - { offset: 0xA3CC6, size: 0x8, addend: 0x0, symName: __ZNSt3__121__tree_const_iteratorINS_12__value_typeI7QStringiEEPNS_11__tree_nodeIS3_PvEElEC2B9nqe210106EPNS_15__tree_end_nodeIPNS_16__tree_node_baseIS5_EEEE, symObjAddr: 0x19F70, symBinAddr: 0x10001AA20, symSize: 0x20 }
  - { offset: 0xA3CFF, size: 0x8, addend: 0x0, symName: __ZNSt3__120__map_const_iteratorINS_21__tree_const_iteratorINS_12__value_typeI7QStringiEEPNS_11__tree_nodeIS4_PvEElEEEC2B9nqe210106ES9_, symObjAddr: 0x19F90, symBinAddr: 0x10001AA40, symSize: 0x20 }
  - { offset: 0xA3D38, size: 0x8, addend: 0x0, symName: __ZNKSt3__13mapI7QStringiNS_4lessIS1_EENS_9allocatorINS_4pairIKS1_iEEEEE3endB9nqe210106Ev, symObjAddr: 0x19FB0, symBinAddr: 0x10001AA60, symSize: 0x30 }
  - { offset: 0xA3D5E, size: 0x8, addend: 0x0, symName: __ZNKSt3__16__treeINS_12__value_typeI7QStringiEENS_19__map_value_compareIS2_NS_4pairIKS2_iEENS_4lessIS2_EELb1EEENS_9allocatorIS7_EEE3endB9nqe210106Ev, symObjAddr: 0x19FE0, symBinAddr: 0x10001AA90, symSize: 0x30 }
  - { offset: 0xA3D84, size: 0x8, addend: 0x0, symName: __ZNKSt3__16__treeINS_12__value_typeI7QStringiEENS_19__map_value_compareIS2_NS_4pairIKS2_iEENS_4lessIS2_EELb1EEENS_9allocatorIS7_EEE10value_compB9nqe210106Ev, symObjAddr: 0x1A010, symBinAddr: 0x10001AAC0, symSize: 0x20 }
  - { offset: 0xA3DAA, size: 0x8, addend: 0x0, symName: __ZNKSt3__119__map_value_compareI7QStringNS_4pairIKS1_iEENS_4lessIS1_EELb1EE8key_compB9nqe210106Ev, symObjAddr: 0x1A030, symBinAddr: 0x10001AAE0, symSize: 0x10 }
  - { offset: 0xA3DD0, size: 0x8, addend: 0x0, symName: __ZNSt3__114pointer_traitsIPKNS_4pairIK7QStringiEEE10pointer_toB9nqe210106ERS5_, symObjAddr: 0x1A0A0, symBinAddr: 0x10001AB50, symSize: 0x10 }
  - { offset: 0xA3DF3, size: 0x8, addend: 0x0, symName: __ZNKSt3__121__tree_const_iteratorINS_12__value_typeI7QStringiEEPNS_11__tree_nodeIS3_PvEElEdeB9nqe210106Ev, symObjAddr: 0x1A0B0, symBinAddr: 0x10001AB60, symSize: 0x20 }
  - { offset: 0xA3E19, size: 0x8, addend: 0x0, symName: __ZNKSt3__121__tree_const_iteratorINS_12__value_typeI7QStringiEEPNS_11__tree_nodeIS3_PvEElE8__get_npB9nqe210106Ev, symObjAddr: 0x1A0D0, symBinAddr: 0x10001AB80, symSize: 0x20 }
  - { offset: 0xA3E3F, size: 0x8, addend: 0x0, symName: __ZNSt3__13mapI7QStringiNS_4lessIS1_EENS_9allocatorINS_4pairIKS1_iEEEEE6insertB9nqe210106ENS_20__map_const_iteratorINS_21__tree_const_iteratorINS_12__value_typeIS1_iEEPNS_11__tree_nodeISD_PvEElEEEERKS7_, symObjAddr: 0x1A0F0, symBinAddr: 0x10001ABA0, symSize: 0x50 }
  - { offset: 0xA3E83, size: 0x8, addend: 0x0, symName: __ZNKSt3__120__map_const_iteratorINS_21__tree_const_iteratorINS_12__value_typeI7QStringiEEPNS_11__tree_nodeIS4_PvEElEEEdeB9nqe210106Ev, symObjAddr: 0x1A140, symBinAddr: 0x10001ABF0, symSize: 0x20 }
  - { offset: 0xA3EA9, size: 0x8, addend: 0x0, symName: __ZNSt3__16__treeINS_12__value_typeI7QStringiEENS_19__map_value_compareIS2_NS_4pairIKS2_iEENS_4lessIS2_EELb1EEENS_9allocatorIS7_EEE21__emplace_hint_uniqueB9nqe210106IRKS7_EENS_15__tree_iteratorIS3_PNS_11__tree_nodeIS3_PvEElEENS_21__tree_const_iteratorIS3_SL_lEEOT_, symObjAddr: 0x1A160, symBinAddr: 0x10001AC10, symSize: 0x40 }
  - { offset: 0xA3EF6, size: 0x8, addend: 0x0, symName: __ZNSt3__114__map_iteratorINS_15__tree_iteratorINS_12__value_typeI7QStringiEEPNS_11__tree_nodeIS4_PvEElEEEC1B9nqe210106ES9_, symObjAddr: 0x1A1A0, symBinAddr: 0x10001AC50, symSize: 0x30 }
  - { offset: 0xA3F2F, size: 0x8, addend: 0x0, symName: __ZNSt3__16__treeINS_12__value_typeI7QStringiEENS_19__map_value_compareIS2_NS_4pairIKS2_iEENS_4lessIS2_EELb1EEENS_9allocatorIS7_EEE33__emplace_hint_unique_extract_keyB9nqe210106IRKS7_EENS_15__tree_iteratorIS3_PNS_11__tree_nodeIS3_PvEElEENS_21__tree_const_iteratorIS3_SL_lEEOT_NS_23__extract_key_first_tagE, symObjAddr: 0x1A1D0, symBinAddr: 0x10001AC80, symSize: 0x60 }
  - { offset: 0xA3F88, size: 0x8, addend: 0x0, symName: __ZNSt3__16__treeINS_12__value_typeI7QStringiEENS_19__map_value_compareIS2_NS_4pairIKS2_iEENS_4lessIS2_EELb1EEENS_9allocatorIS7_EEE30__emplace_hint_unique_key_argsIS2_JRKS7_EEENS5_INS_15__tree_iteratorIS3_PNS_11__tree_nodeIS3_PvEElEEbEENS_21__tree_const_iteratorIS3_SL_lEERKT_DpOT0_, symObjAddr: 0x1A230, symBinAddr: 0x10001ACE0, symSize: 0x110 }
  - { offset: 0xA405B, size: 0x8, addend: 0x0, symName: __ZNSt3__16__treeINS_12__value_typeI7QStringiEENS_19__map_value_compareIS2_NS_4pairIKS2_iEENS_4lessIS2_EELb1EEENS_9allocatorIS7_EEE12__find_equalIS2_EERPNS_16__tree_node_baseIPvEENS_21__tree_const_iteratorIS3_PNS_11__tree_nodeIS3_SG_EElEERPNS_15__tree_end_nodeISI_EESJ_RKT_, symObjAddr: 0x1A340, symBinAddr: 0x10001ADF0, symSize: 0x2F0 }
  - { offset: 0xA4102, size: 0x8, addend: 0x0, symName: __ZNSt3__16__treeINS_12__value_typeI7QStringiEENS_19__map_value_compareIS2_NS_4pairIKS2_iEENS_4lessIS2_EELb1EEENS_9allocatorIS7_EEE16__construct_nodeIJRKS7_EEENS_10unique_ptrINS_11__tree_nodeIS3_PvEENS_22__tree_node_destructorINSB_ISK_EEEEEEDpOT_, symObjAddr: 0x1A630, symBinAddr: 0x10001B0E0, symSize: 0xE0 }
  - { offset: 0xA4161, size: 0x8, addend: 0x0, symName: __ZNSt3__16__treeINS_12__value_typeI7QStringiEENS_19__map_value_compareIS2_NS_4pairIKS2_iEENS_4lessIS2_EELb1EEENS_9allocatorIS7_EEE16__insert_node_atEPNS_15__tree_end_nodeIPNS_16__tree_node_baseIPvEEEERSI_SI_, symObjAddr: 0x1A710, symBinAddr: 0x10001B1C0, symSize: 0xB0 }
  - { offset: 0xA41B6, size: 0x8, addend: 0x0, symName: __ZNKSt3__110unique_ptrINS_11__tree_nodeINS_12__value_typeI7QStringiEEPvEENS_22__tree_node_destructorINS_9allocatorIS6_EEEEE3getB9nqe210106Ev, symObjAddr: 0x1A7C0, symBinAddr: 0x10001B270, symSize: 0x20 }
  - { offset: 0xA41DC, size: 0x8, addend: 0x0, symName: __ZNSt3__110unique_ptrINS_11__tree_nodeINS_12__value_typeI7QStringiEEPvEENS_22__tree_node_destructorINS_9allocatorIS6_EEEEE7releaseB9nqe210106Ev, symObjAddr: 0x1A7E0, symBinAddr: 0x10001B290, symSize: 0x20 }
  - { offset: 0xA4211, size: 0x8, addend: 0x0, symName: __ZNSt3__110unique_ptrINS_11__tree_nodeINS_12__value_typeI7QStringiEEPvEENS_22__tree_node_destructorINS_9allocatorIS6_EEEEED1B9nqe210106Ev, symObjAddr: 0x1A800, symBinAddr: 0x10001B2B0, symSize: 0x20 }
  - { offset: 0xA423B, size: 0x8, addend: 0x0, symName: __ZNSt3__115__tree_iteratorINS_12__value_typeI7QStringiEEPNS_11__tree_nodeIS3_PvEElEC1B9nqe210106ES7_, symObjAddr: 0x1A820, symBinAddr: 0x10001B2D0, symSize: 0x30 }
  - { offset: 0xA427A, size: 0x8, addend: 0x0, symName: __ZNSt3__14pairINS_15__tree_iteratorINS_12__value_typeI7QStringiEEPNS_11__tree_nodeIS4_PvEElEEbEC1B9nqe210106IS9_RbLi0EEEOT_OT0_, symObjAddr: 0x1A850, symBinAddr: 0x10001B300, symSize: 0x30 }
  - { offset: 0xA42D8, size: 0x8, addend: 0x0, symName: __ZNSt3__16__treeINS_12__value_typeI7QStringiEENS_19__map_value_compareIS2_NS_4pairIKS2_iEENS_4lessIS2_EELb1EEENS_9allocatorIS7_EEE3endB9nqe210106Ev, symObjAddr: 0x1A880, symBinAddr: 0x10001B330, symSize: 0x30 }
  - { offset: 0xA42FE, size: 0x8, addend: 0x0, symName: __ZNSt3__121__tree_const_iteratorINS_12__value_typeI7QStringiEEPNS_11__tree_nodeIS3_PvEElEC1B9nqe210106ENS_15__tree_iteratorIS3_S7_lEE, symObjAddr: 0x1A8B0, symBinAddr: 0x10001B360, symSize: 0x30 }
  - { offset: 0xA4337, size: 0x8, addend: 0x0, symName: __ZNSt3__16__treeINS_12__value_typeI7QStringiEENS_19__map_value_compareIS2_NS_4pairIKS2_iEENS_4lessIS2_EELb1EEENS_9allocatorIS7_EEE10value_compB9nqe210106Ev, symObjAddr: 0x1A8E0, symBinAddr: 0x10001B390, symSize: 0x20 }
  - { offset: 0xA435D, size: 0x8, addend: 0x0, symName: __ZNKSt3__119__map_value_compareI7QStringNS_4pairIKS1_iEENS_4lessIS1_EELb1EEclB9nqe210106ERS3_RKS4_, symObjAddr: 0x1A900, symBinAddr: 0x10001B3B0, symSize: 0x30 }
  - { offset: 0xA43A1, size: 0x8, addend: 0x0, symName: __ZNSt3__16__treeINS_12__value_typeI7QStringiEENS_19__map_value_compareIS2_NS_4pairIKS2_iEENS_4lessIS2_EELb1EEENS_9allocatorIS7_EEE5beginB9nqe210106Ev, symObjAddr: 0x1A930, symBinAddr: 0x10001B3E0, symSize: 0x30 }
  - { offset: 0xA43C7, size: 0x8, addend: 0x0, symName: __ZNKSt3__119__map_value_compareI7QStringNS_4pairIKS1_iEENS_4lessIS1_EELb1EEclB9nqe210106ERKS4_RS3_, symObjAddr: 0x1A960, symBinAddr: 0x10001B410, symSize: 0x30 }
  - { offset: 0xA440B, size: 0x8, addend: 0x0, symName: __ZNSt3__121__tree_const_iteratorINS_12__value_typeI7QStringiEEPNS_11__tree_nodeIS3_PvEElEmmB9nqe210106Ev, symObjAddr: 0x1A990, symBinAddr: 0x10001B440, symSize: 0x30 }
  - { offset: 0xA4431, size: 0x8, addend: 0x0, symName: __ZNSt3__16__treeINS_12__value_typeI7QStringiEENS_19__map_value_compareIS2_NS_4pairIKS2_iEENS_4lessIS2_EELb1EEENS_9allocatorIS7_EEE12__find_equalIS2_EERPNS_16__tree_node_baseIPvEERPNS_15__tree_end_nodeISI_EERKT_, symObjAddr: 0x1A9C0, symBinAddr: 0x10001B470, symSize: 0x150 }
  - { offset: 0xA449C, size: 0x8, addend: 0x0, symName: __ZNSt3__115__tree_iteratorINS_12__value_typeI7QStringiEEPNS_11__tree_nodeIS3_PvEElEC1B9nqe210106EPNS_15__tree_end_nodeIPNS_16__tree_node_baseIS5_EEEE, symObjAddr: 0x1AB40, symBinAddr: 0x10001B5F0, symSize: 0x30 }
  - { offset: 0xA44D5, size: 0x8, addend: 0x0, symName: __ZNSt3__115__tree_iteratorINS_12__value_typeI7QStringiEEPNS_11__tree_nodeIS3_PvEElEC2B9nqe210106EPNS_15__tree_end_nodeIPNS_16__tree_node_baseIS5_EEEE, symObjAddr: 0x1AB70, symBinAddr: 0x10001B620, symSize: 0x20 }
  - { offset: 0xA450E, size: 0x8, addend: 0x0, symName: __ZNSt3__121__tree_const_iteratorINS_12__value_typeI7QStringiEEPNS_11__tree_nodeIS3_PvEElEC2B9nqe210106ENS_15__tree_iteratorIS3_S7_lEE, symObjAddr: 0x1AB90, symBinAddr: 0x10001B640, symSize: 0x20 }
  - { offset: 0xA4547, size: 0x8, addend: 0x0, symName: __ZNKSt3__16__treeINS_12__value_typeI7QStringiEENS_19__map_value_compareIS2_NS_4pairIKS2_iEENS_4lessIS2_EELb1EEENS_9allocatorIS7_EEE10__root_ptrB9nqe210106Ev, symObjAddr: 0x1ABB0, symBinAddr: 0x10001B660, symSize: 0x20 }
  - { offset: 0xA456D, size: 0x8, addend: 0x0, symName: __ZNSt3__121__tree_const_iteratorINS_12__value_typeI7QStringiEEPNS_11__tree_nodeIS3_PvEElEppB9nqe210106Ev, symObjAddr: 0x1AC70, symBinAddr: 0x10001B720, symSize: 0x30 }
  - { offset: 0xA4593, size: 0x8, addend: 0x0, symName: __ZNSt3__116allocator_traitsINS_9allocatorINS_11__tree_nodeINS_12__value_typeI7QStringiEEPvEEEEE8allocateB9nqe210106ERS8_m, symObjAddr: 0x1ACA0, symBinAddr: 0x10001B750, symSize: 0x30 }
  - { offset: 0xA45C6, size: 0x8, addend: 0x0, symName: __ZNSt3__122__tree_node_destructorINS_9allocatorINS_11__tree_nodeINS_12__value_typeI7QStringiEEPvEEEEEC1B9nqe210106ERS8_b, symObjAddr: 0x1ACD0, symBinAddr: 0x10001B780, symSize: 0x40 }
  - { offset: 0xA4614, size: 0x8, addend: 0x0, symName: __ZNSt3__110unique_ptrINS_11__tree_nodeINS_12__value_typeI7QStringiEEPvEENS_22__tree_node_destructorINS_9allocatorIS6_EEEEEC1B9nqe210106ILb1EvEEPS6_NS_16__dependent_typeINS_27__unique_ptr_deleter_sfinaeISA_EEXT_EE20__good_rval_ref_typeE, symObjAddr: 0x1AD10, symBinAddr: 0x10001B7C0, symSize: 0x30 }
  - { offset: 0xA4665, size: 0x8, addend: 0x0, symName: __ZNSt3__116allocator_traitsINS_9allocatorINS_11__tree_nodeINS_12__value_typeI7QStringiEEPvEEEEE9constructB9nqe210106INS_4pairIKS4_iEEJRKSD_ELi0EEEvRS8_PT_DpOT0_, symObjAddr: 0x1AD40, symBinAddr: 0x10001B7F0, symSize: 0x30 }
  - { offset: 0xA46C1, size: 0x8, addend: 0x0, symName: __ZNKSt3__110unique_ptrINS_11__tree_nodeINS_12__value_typeI7QStringiEEPvEENS_22__tree_node_destructorINS_9allocatorIS6_EEEEEptB9nqe210106Ev, symObjAddr: 0x1AD70, symBinAddr: 0x10001B820, symSize: 0x20 }
  - { offset: 0xA46E7, size: 0x8, addend: 0x0, symName: __ZNSt3__110unique_ptrINS_11__tree_nodeINS_12__value_typeI7QStringiEEPvEENS_22__tree_node_destructorINS_9allocatorIS6_EEEEE11get_deleterB9nqe210106Ev, symObjAddr: 0x1AD90, symBinAddr: 0x10001B840, symSize: 0x20 }
  - { offset: 0xA470D, size: 0x8, addend: 0x0, symName: __ZNSt3__19allocatorINS_11__tree_nodeINS_12__value_typeI7QStringiEEPvEEE8allocateB9nqe210106Em, symObjAddr: 0x1ADB0, symBinAddr: 0x10001B860, symSize: 0x50 }
  - { offset: 0xA474C, size: 0x8, addend: 0x0, symName: __ZNSt3__116allocator_traitsINS_9allocatorINS_11__tree_nodeINS_12__value_typeI7QStringiEEPvEEEEE8max_sizeB9nqe210106IS8_Li0EEEmRKS8_, symObjAddr: 0x1AE00, symBinAddr: 0x10001B8B0, symSize: 0x20 }
  - { offset: 0xA477F, size: 0x8, addend: 0x0, symName: __ZNKSt3__19allocatorINS_11__tree_nodeINS_12__value_typeI7QStringiEEPvEEE8max_sizeB9nqe210106Ev, symObjAddr: 0x1AE80, symBinAddr: 0x10001B930, symSize: 0x20 }
  - { offset: 0xA47A5, size: 0x8, addend: 0x0, symName: __ZNSt3__122__tree_node_destructorINS_9allocatorINS_11__tree_nodeINS_12__value_typeI7QStringiEEPvEEEEEC2B9nqe210106ERS8_b, symObjAddr: 0x1AEA0, symBinAddr: 0x10001B950, symSize: 0x30 }
  - { offset: 0xA47ED, size: 0x8, addend: 0x0, symName: __ZNSt3__110unique_ptrINS_11__tree_nodeINS_12__value_typeI7QStringiEEPvEENS_22__tree_node_destructorINS_9allocatorIS6_EEEEEC2B9nqe210106ILb1EvEEPS6_NS_16__dependent_typeINS_27__unique_ptr_deleter_sfinaeISA_EEXT_EE20__good_rval_ref_typeE, symObjAddr: 0x1AED0, symBinAddr: 0x10001B980, symSize: 0x50 }
  - { offset: 0xA4843, size: 0x8, addend: 0x0, symName: __ZNSt3__125__compressed_pair_paddingINS_22__tree_node_destructorINS_9allocatorINS_11__tree_nodeINS_12__value_typeI7QStringiEEPvEEEEEELb0EEC1Ev, symObjAddr: 0x1AF20, symBinAddr: 0x10001B9D0, symSize: 0x20 }
  - { offset: 0xA486F, size: 0x8, addend: 0x0, symName: __ZNSt3__125__compressed_pair_paddingINS_22__tree_node_destructorINS_9allocatorINS_11__tree_nodeINS_12__value_typeI7QStringiEEPvEEEEEELb0EEC2Ev, symObjAddr: 0x1AF40, symBinAddr: 0x10001B9F0, symSize: 0x40 }
  - { offset: 0xA489B, size: 0x8, addend: 0x0, symName: __ZNSt3__19allocatorINS_11__tree_nodeINS_12__value_typeI7QStringiEEPvEEE9constructB9nqe210106INS_4pairIKS3_iEEJRKSB_EEEvPT_DpOT0_, symObjAddr: 0x1AF80, symBinAddr: 0x10001BA30, symSize: 0x30 }
  - { offset: 0xA48F1, size: 0x8, addend: 0x0, symName: __ZNSt3__14pairIK7QStringiEC1B9nqe210106ERKS3_, symObjAddr: 0x1AFB0, symBinAddr: 0x10001BA60, symSize: 0x30 }
  - { offset: 0xA4925, size: 0x8, addend: 0x0, symName: __ZNSt3__14pairIK7QStringiEC2B9nqe210106ERKS3_, symObjAddr: 0x1AFE0, symBinAddr: 0x10001BA90, symSize: 0x40 }
  - { offset: 0xA4959, size: 0x8, addend: 0x0, symName: __ZNSt3__16__treeINS_12__value_typeI7QStringiEENS_19__map_value_compareIS2_NS_4pairIKS2_iEENS_4lessIS2_EELb1EEENS_9allocatorIS7_EEE4sizeB9nqe210106Ev, symObjAddr: 0x1B020, symBinAddr: 0x10001BAD0, symSize: 0x20 }
  - { offset: 0xA497F, size: 0x8, addend: 0x0, symName: __ZNSt3__110unique_ptrINS_11__tree_nodeINS_12__value_typeI7QStringiEEPvEENS_22__tree_node_destructorINS_9allocatorIS6_EEEEED2B9nqe210106Ev, symObjAddr: 0x1B040, symBinAddr: 0x10001BAF0, symSize: 0x20 }
  - { offset: 0xA49A9, size: 0x8, addend: 0x0, symName: __ZNSt3__110unique_ptrINS_11__tree_nodeINS_12__value_typeI7QStringiEEPvEENS_22__tree_node_destructorINS_9allocatorIS6_EEEEE5resetB9nqe210106EPS6_, symObjAddr: 0x1B060, symBinAddr: 0x10001BB10, symSize: 0x50 }
  - { offset: 0xA49ED, size: 0x8, addend: 0x0, symName: __ZNSt3__122__tree_node_destructorINS_9allocatorINS_11__tree_nodeINS_12__value_typeI7QStringiEEPvEEEEEclB9nqe210106EPS7_, symObjAddr: 0x1B0B0, symBinAddr: 0x10001BB60, symSize: 0x60 }
  - { offset: 0xA4A22, size: 0x8, addend: 0x0, symName: __ZNSt3__115__tree_iteratorINS_12__value_typeI7QStringiEEPNS_11__tree_nodeIS3_PvEElEC2B9nqe210106ES7_, symObjAddr: 0x1B110, symBinAddr: 0x10001BBC0, symSize: 0x20 }
  - { offset: 0xA4A5B, size: 0x8, addend: 0x0, symName: __ZNSt3__14pairINS_15__tree_iteratorINS_12__value_typeI7QStringiEEPNS_11__tree_nodeIS4_PvEElEEbEC2B9nqe210106IS9_RbLi0EEEOT_OT0_, symObjAddr: 0x1B130, symBinAddr: 0x10001BBE0, symSize: 0x30 }
  - { offset: 0xA4AB9, size: 0x8, addend: 0x0, symName: __ZNSt3__114__map_iteratorINS_15__tree_iteratorINS_12__value_typeI7QStringiEEPNS_11__tree_nodeIS4_PvEElEEEC2B9nqe210106ES9_, symObjAddr: 0x1B160, symBinAddr: 0x10001BC10, symSize: 0x20 }
  - { offset: 0xA4AF1, size: 0x8, addend: 0x0, symName: __Z11qt_ptr_swapI8QMapDataINSt3__13mapI7QStringiNS1_4lessIS3_EENS1_9allocatorINS1_4pairIKS3_iEEEEEEEEvRPT_SF_, symObjAddr: 0x1B1B0, symBinAddr: 0x10001BC60, symSize: 0x40 }
  - { offset: 0xA4B3F, size: 0x8, addend: 0x0, symName: __ZNSt3__13mapI7QStringiNS_4lessIS1_EENS_9allocatorINS_4pairIKS1_iEEEEE11lower_boundB9nqe210106ERS6_, symObjAddr: 0x1B1F0, symBinAddr: 0x10001BCA0, symSize: 0x40 }
  - { offset: 0xA4B74, size: 0x8, addend: 0x0, symName: __ZNSt3__13mapI7QStringiNS_4lessIS1_EENS_9allocatorINS_4pairIKS1_iEEEEE3endB9nqe210106Ev, symObjAddr: 0x1B260, symBinAddr: 0x10001BD10, symSize: 0x30 }
  - { offset: 0xA4B9A, size: 0x8, addend: 0x0, symName: __ZNKSt3__114__map_iteratorINS_15__tree_iteratorINS_12__value_typeI7QStringiEEPNS_11__tree_nodeIS4_PvEElEEEptB9nqe210106Ev, symObjAddr: 0x1B290, symBinAddr: 0x10001BD40, symSize: 0x30 }
  - { offset: 0xA4BC0, size: 0x8, addend: 0x0, symName: __ZNSt3__13mapI7QStringiNS_4lessIS1_EENS_9allocatorINS_4pairIKS1_iEEEEE12emplace_hintB9nqe210106IJRS6_RKiEEENS_14__map_iteratorINS_15__tree_iteratorINS_12__value_typeIS1_iEEPNS_11__tree_nodeISH_PvEElEEEENS_20__map_const_iteratorINS_21__tree_const_iteratorISH_SL_lEEEEDpOT_, symObjAddr: 0x1B320, symBinAddr: 0x10001BDD0, symSize: 0x50 }
  - { offset: 0xA4C23, size: 0x8, addend: 0x0, symName: __ZNSt3__120__map_const_iteratorINS_21__tree_const_iteratorINS_12__value_typeI7QStringiEEPNS_11__tree_nodeIS4_PvEElEEEC1B9nqe210106ENS_14__map_iteratorINS_15__tree_iteratorIS4_S8_lEEEE, symObjAddr: 0x1B370, symBinAddr: 0x10001BE20, symSize: 0x30 }
  - { offset: 0xA4C5C, size: 0x8, addend: 0x0, symName: __ZNSt3__16__treeINS_12__value_typeI7QStringiEENS_19__map_value_compareIS2_NS_4pairIKS2_iEENS_4lessIS2_EELb1EEENS_9allocatorIS7_EEE11lower_boundB9nqe210106IS2_EENS_15__tree_iteratorIS3_PNS_11__tree_nodeIS3_PvEElEERKT_, symObjAddr: 0x1B3A0, symBinAddr: 0x10001BE50, symSize: 0x60 }
  - { offset: 0xA4C9A, size: 0x8, addend: 0x0, symName: __ZNSt3__16__treeINS_12__value_typeI7QStringiEENS_19__map_value_compareIS2_NS_4pairIKS2_iEENS_4lessIS2_EELb1EEENS_9allocatorIS7_EEE13__lower_boundIS2_EENS_15__tree_iteratorIS3_PNS_11__tree_nodeIS3_PvEElEERKT_SJ_PNS_15__tree_end_nodeIPNS_16__tree_node_baseISH_EEEE, symObjAddr: 0x1B400, symBinAddr: 0x10001BEB0, symSize: 0x90 }
  - { offset: 0xA4CF6, size: 0x8, addend: 0x0, symName: __ZNSt3__114pointer_traitsIPNS_4pairIK7QStringiEEE10pointer_toB9nqe210106ERS4_, symObjAddr: 0x1B4F0, symBinAddr: 0x10001BFA0, symSize: 0x10 }
  - { offset: 0xA4D19, size: 0x8, addend: 0x0, symName: __ZNKSt3__115__tree_iteratorINS_12__value_typeI7QStringiEEPNS_11__tree_nodeIS3_PvEElEdeB9nqe210106Ev, symObjAddr: 0x1B500, symBinAddr: 0x10001BFB0, symSize: 0x20 }
  - { offset: 0xA4D3F, size: 0x8, addend: 0x0, symName: __ZNKSt3__115__tree_iteratorINS_12__value_typeI7QStringiEEPNS_11__tree_nodeIS3_PvEElE8__get_npB9nqe210106Ev, symObjAddr: 0x1B520, symBinAddr: 0x10001BFD0, symSize: 0x20 }
  - { offset: 0xA4D65, size: 0x8, addend: 0x0, symName: __ZNSt3__14pairINS_14__map_iteratorINS_15__tree_iteratorINS_12__value_typeI7QStringiEEPNS_11__tree_nodeIS5_PvEElEEEEbEC1B9nqe210106IRSB_bLi0EEEOT_OT0_, symObjAddr: 0x1B540, symBinAddr: 0x10001BFF0, symSize: 0x30 }
  - { offset: 0xA4DC3, size: 0x8, addend: 0x0, symName: __ZNSt3__14pairINS_14__map_iteratorINS_15__tree_iteratorINS_12__value_typeI7QStringiEEPNS_11__tree_nodeIS5_PvEElEEEEbEC2B9nqe210106IRSB_bLi0EEEOT_OT0_, symObjAddr: 0x1B570, symBinAddr: 0x10001C020, symSize: 0x30 }
  - { offset: 0xA4E27, size: 0x8, addend: 0x0, symName: __ZNSt3__14pairINS_14__map_iteratorINS_15__tree_iteratorINS_12__value_typeI7QStringiEEPNS_11__tree_nodeIS5_PvEElEEEEbEC1B9nqe210106ISB_bLi0EEEOT_OT0_, symObjAddr: 0x1B5A0, symBinAddr: 0x10001C050, symSize: 0x30 }
  - { offset: 0xA4E85, size: 0x8, addend: 0x0, symName: __ZNSt3__14pairINS_14__map_iteratorINS_15__tree_iteratorINS_12__value_typeI7QStringiEEPNS_11__tree_nodeIS5_PvEElEEEEbEC2B9nqe210106ISB_bLi0EEEOT_OT0_, symObjAddr: 0x1B5D0, symBinAddr: 0x10001C080, symSize: 0x30 }
  - { offset: 0xA4EE3, size: 0x8, addend: 0x0, symName: __ZNSt3__16__treeINS_12__value_typeI7QStringiEENS_19__map_value_compareIS2_NS_4pairIKS2_iEENS_4lessIS2_EELb1EEENS_9allocatorIS7_EEE21__emplace_hint_uniqueB9nqe210106IRS6_RKiLi0EEENS_15__tree_iteratorIS3_PNS_11__tree_nodeIS3_PvEElEENS_21__tree_const_iteratorIS3_SM_lEEOT_OT0_, symObjAddr: 0x1B600, symBinAddr: 0x10001C0B0, symSize: 0x60 }
  - { offset: 0xA4F4E, size: 0x8, addend: 0x0, symName: __ZNSt3__16__treeINS_12__value_typeI7QStringiEENS_19__map_value_compareIS2_NS_4pairIKS2_iEENS_4lessIS2_EELb1EEENS_9allocatorIS7_EEE30__emplace_hint_unique_key_argsIS2_JRS6_RKiEEENS5_INS_15__tree_iteratorIS3_PNS_11__tree_nodeIS3_PvEElEEbEENS_21__tree_const_iteratorIS3_SM_lEERKT_DpOT0_, symObjAddr: 0x1B660, symBinAddr: 0x10001C110, symSize: 0x110 }
  - { offset: 0xA5036, size: 0x8, addend: 0x0, symName: __ZNSt3__16__treeINS_12__value_typeI7QStringiEENS_19__map_value_compareIS2_NS_4pairIKS2_iEENS_4lessIS2_EELb1EEENS_9allocatorIS7_EEE16__construct_nodeIJRS6_RKiEEENS_10unique_ptrINS_11__tree_nodeIS3_PvEENS_22__tree_node_destructorINSB_ISL_EEEEEEDpOT_, symObjAddr: 0x1B770, symBinAddr: 0x10001C220, symSize: 0xF0 }
  - { offset: 0xA50A9, size: 0x8, addend: 0x0, symName: __ZNSt3__116allocator_traitsINS_9allocatorINS_11__tree_nodeINS_12__value_typeI7QStringiEEPvEEEEE9constructB9nqe210106INS_4pairIKS4_iEEJRSC_RKiELi0EEEvRS8_PT_DpOT0_, symObjAddr: 0x1B860, symBinAddr: 0x10001C310, symSize: 0x40 }
  - { offset: 0xA5119, size: 0x8, addend: 0x0, symName: __ZNSt3__19allocatorINS_11__tree_nodeINS_12__value_typeI7QStringiEEPvEEE9constructB9nqe210106INS_4pairIKS3_iEEJRSA_RKiEEEvPT_DpOT0_, symObjAddr: 0x1B8A0, symBinAddr: 0x10001C350, symSize: 0x30 }
  - { offset: 0xA5182, size: 0x8, addend: 0x0, symName: __ZNSt3__14pairIK7QStringiEC1B9nqe210106INS_25__check_pair_constructionIS2_iEELi0EEERS2_RKi, symObjAddr: 0x1B8D0, symBinAddr: 0x10001C380, symSize: 0x30 }
  - { offset: 0xA51D7, size: 0x8, addend: 0x0, symName: __ZNSt3__14pairIK7QStringiEC2B9nqe210106INS_25__check_pair_constructionIS2_iEELi0EEERS2_RKi, symObjAddr: 0x1B900, symBinAddr: 0x10001C3B0, symSize: 0x40 }
  - { offset: 0xA522C, size: 0x8, addend: 0x0, symName: __ZNSt3__120__map_const_iteratorINS_21__tree_const_iteratorINS_12__value_typeI7QStringiEEPNS_11__tree_nodeIS4_PvEElEEEC2B9nqe210106ENS_14__map_iteratorINS_15__tree_iteratorIS4_S8_lEEEE, symObjAddr: 0x1B940, symBinAddr: 0x10001C3F0, symSize: 0x30 }
  - { offset: 0xA5265, size: 0x8, addend: 0x0, symName: __ZN4QMapI7QStringiE8iteratorC2ENSt3__114__map_iteratorINS3_15__tree_iteratorINS3_12__value_typeIS0_iEEPNS3_11__tree_nodeIS7_PvEElEEEE, symObjAddr: 0x1B970, symBinAddr: 0x10001C420, symSize: 0x20 }
  - { offset: 0xA529E, size: 0x8, addend: 0x0, symName: __ZNK8QMapDataINSt3__13mapI7QStringPN5Tiled9WangColorENS0_4lessIS2_EENS0_9allocatorINS0_4pairIKS2_S5_EEEEEEE4keysEv, symObjAddr: 0x1B990, symBinAddr: 0x10001C440, symSize: 0xF0 }
  - { offset: 0xA5309, size: 0x8, addend: 0x0, symName: __ZN5QListI7QStringE7reserveEx, symObjAddr: 0x1BA80, symBinAddr: 0x10001C530, symSize: 0x1F0 }
  - { offset: 0xA535F, size: 0x8, addend: 0x0, symName: __ZNKSt3__13mapI7QStringPN5Tiled9WangColorENS_4lessIS1_EENS_9allocatorINS_4pairIKS1_S4_EEEEE4sizeB9nqe210106Ev, symObjAddr: 0x1BC70, symBinAddr: 0x10001C720, symSize: 0x20 }
  - { offset: 0xA5385, size: 0x8, addend: 0x0, symName: __ZNK5QListI7QStringE8capacityEv, symObjAddr: 0x1BD70, symBinAddr: 0x10001C820, symSize: 0x30 }
  - { offset: 0xA53AB, size: 0x8, addend: 0x0, symName: __ZN17QArrayDataPointerI7QStringE7setFlagE6QFlagsIN10QArrayData11ArrayOptionEE, symObjAddr: 0x1BDA0, symBinAddr: 0x10001C850, symSize: 0x60 }
  - { offset: 0xA53E0, size: 0x8, addend: 0x0, symName: __ZN17QArrayDataPointerI7QStringEC1ExxN10QArrayData16AllocationOptionE, symObjAddr: 0x1BE00, symBinAddr: 0x10001C8B0, symSize: 0x50 }
  - { offset: 0xA5434, size: 0x8, addend: 0x0, symName: __ZN17QArrayDataPointerI7QStringE5d_ptrEv, symObjAddr: 0x1BE50, symBinAddr: 0x10001C900, symSize: 0x20 }
  - { offset: 0xA545A, size: 0x8, addend: 0x0, symName: __ZN6QFlagsIN10QArrayData11ArrayOptionEEoRES2_, symObjAddr: 0x1BE70, symBinAddr: 0x10001C920, symSize: 0x20 }
  - { offset: 0xA548E, size: 0x8, addend: 0x0, symName: __ZN17QArrayDataPointerI7QStringEC1ENSt3__14pairIP15QTypedArrayDataIS0_EPS0_EEx, symObjAddr: 0x1BE90, symBinAddr: 0x10001C940, symSize: 0x40 }
  - { offset: 0xA54D4, size: 0x8, addend: 0x0, symName: __ZN17QArrayDataPointerI7QStringEC2ENSt3__14pairIP15QTypedArrayDataIS0_EPS0_EEx, symObjAddr: 0x1BED0, symBinAddr: 0x10001C980, symSize: 0x40 }
  - { offset: 0xA5524, size: 0x8, addend: 0x0, symName: __ZZNK8QMapDataINSt3__13mapI7QStringPN5Tiled9WangColorENS0_4lessIS2_EENS0_9allocatorINS0_4pairIKS2_S5_EEEEEEE4keysEvENKUlRKT_E_clISB_EEDaSH_, symObjAddr: 0x1BF10, symBinAddr: 0x10001C9C0, symSize: 0x30 }
  - { offset: 0xA5565, size: 0x8, addend: 0x0, symName: __ZNSt3__120back_insert_iteratorI5QListI7QStringEEdeB9nqe210106Ev, symObjAddr: 0x1BF40, symBinAddr: 0x10001C9F0, symSize: 0x10 }
  - { offset: 0xA558B, size: 0x8, addend: 0x0, symName: __ZNSt3__120back_insert_iteratorI5QListI7QStringEEaSB9nqe210106EOS2_, symObjAddr: 0x1BF50, symBinAddr: 0x10001CA00, symSize: 0x30 }
  - { offset: 0xA55BF, size: 0x8, addend: 0x0, symName: __ZNSt3__120back_insert_iteratorI5QListI7QStringEEppB9nqe210106Ev, symObjAddr: 0x1BF80, symBinAddr: 0x10001CA30, symSize: 0x10 }
  - { offset: 0xA55E5, size: 0x8, addend: 0x0, symName: __ZN5QListI7QStringE9push_backEOS0_, symObjAddr: 0x1BF90, symBinAddr: 0x10001CA40, symSize: 0x30 }
  - { offset: 0xA561A, size: 0x8, addend: 0x0, symName: __ZN5QListI7QStringE6appendEOS0_, symObjAddr: 0x1BFC0, symBinAddr: 0x10001CA70, symSize: 0x30 }
  - { offset: 0xA564F, size: 0x8, addend: 0x0, symName: __ZN5QListI7QStringE11emplaceBackIJS0_EEERS0_DpOT_, symObjAddr: 0x1BFF0, symBinAddr: 0x10001CAA0, symSize: 0x70 }
  - { offset: 0xA568F, size: 0x8, addend: 0x0, symName: __ZN9QtPrivate16QMovableArrayOpsI7QStringE7emplaceIJS1_EEEvxDpOT_, symObjAddr: 0x1C060, symBinAddr: 0x10001CB10, symSize: 0x210 }
  - { offset: 0xA571A, size: 0x8, addend: 0x0, symName: __ZNSt3__120back_insert_iteratorI5QListI7QStringEEC1B9nqe210106ERS3_, symObjAddr: 0x1C270, symBinAddr: 0x10001CD20, symSize: 0x30 }
  - { offset: 0xA5752, size: 0x8, addend: 0x0, symName: __ZNSt3__120back_insert_iteratorI5QListI7QStringEEC2B9nqe210106ERS3_, symObjAddr: 0x1C2A0, symBinAddr: 0x10001CD50, symSize: 0x20 }
  - { offset: 0xA578A, size: 0x8, addend: 0x0, symName: __ZNK9QtPrivate30QExplicitlySharedDataPointerV2I8QMapDataINSt3__13mapI7QStringiNS2_4lessIS4_EENS2_9allocatorINS2_4pairIKS4_iEEEEEEEEptEv, symObjAddr: 0x1C2C0, symBinAddr: 0x10001CD70, symSize: 0x20 }
  - { offset: 0xA57B0, size: 0x8, addend: 0x0, symName: __ZNK8QMapDataINSt3__13mapI7QStringiNS0_4lessIS2_EENS0_9allocatorINS0_4pairIKS2_iEEEEEEE4keysEv, symObjAddr: 0x1C2E0, symBinAddr: 0x10001CD90, symSize: 0xF0 }
  - { offset: 0xA581B, size: 0x8, addend: 0x0, symName: __ZNKSt3__13mapI7QStringiNS_4lessIS1_EENS_9allocatorINS_4pairIKS1_iEEEEE4sizeB9nqe210106Ev, symObjAddr: 0x1C3D0, symBinAddr: 0x10001CE80, symSize: 0x20 }
  - { offset: 0xA584B, size: 0x8, addend: 0x0, symName: __ZZNK8QMapDataINSt3__13mapI7QStringiNS0_4lessIS2_EENS0_9allocatorINS0_4pairIKS2_iEEEEEEE4keysEvENKUlRKT_E_clIS8_EEDaSE_, symObjAddr: 0x1C4A0, symBinAddr: 0x10001CF50, symSize: 0x30 }
  - { offset: 0xA588C, size: 0x8, addend: 0x0, symName: __ZNKSt3__13mapI7QStringiNS_4lessIS1_EENS_9allocatorINS_4pairIKS1_iEEEEE4findB9nqe210106ERS6_, symObjAddr: 0x1C4D0, symBinAddr: 0x10001CF80, symSize: 0x40 }
  - { offset: 0xA58C1, size: 0x8, addend: 0x0, symName: __ZNKSt3__16__treeINS_12__value_typeI7QStringiEENS_19__map_value_compareIS2_NS_4pairIKS2_iEENS_4lessIS2_EELb1EEENS_9allocatorIS7_EEE4findIS2_EENS_21__tree_const_iteratorIS3_PNS_11__tree_nodeIS3_PvEElEERKT_, symObjAddr: 0x1C510, symBinAddr: 0x10001CFC0, symSize: 0xD0 }
  - { offset: 0xA590E, size: 0x8, addend: 0x0, symName: __ZNKSt3__16__treeINS_12__value_typeI7QStringiEENS_19__map_value_compareIS2_NS_4pairIKS2_iEENS_4lessIS2_EELb1EEENS_9allocatorIS7_EEE13__lower_boundIS2_EENS_21__tree_const_iteratorIS3_PNS_11__tree_nodeIS3_PvEElEERKT_SJ_PNS_15__tree_end_nodeIPNS_16__tree_node_baseISH_EEEE, symObjAddr: 0x1C5E0, symBinAddr: 0x10001D090, symSize: 0x90 }
  - { offset: 0xA596A, size: 0x8, addend: 0x0, symName: __ZN4QMapI7QStringPN5Tiled9WangColorEE6detachEv, symObjAddr: 0x1C670, symBinAddr: 0x10001D120, symSize: 0x60 }
  - { offset: 0xA5990, size: 0x8, addend: 0x0, symName: __ZNSt3__13mapI7QStringPN5Tiled9WangColorENS_4lessIS1_EENS_9allocatorINS_4pairIKS1_S4_EEEEE5beginB9nqe210106Ev, symObjAddr: 0x1C6D0, symBinAddr: 0x10001D180, symSize: 0x30 }
  - { offset: 0xA59B6, size: 0x8, addend: 0x0, symName: __ZN9QtPrivate30QExplicitlySharedDataPointerV2I8QMapDataINSt3__13mapI7QStringPN5Tiled9WangColorENS2_4lessIS4_EENS2_9allocatorINS2_4pairIKS4_S7_EEEEEEEE6detachEv, symObjAddr: 0x1C700, symBinAddr: 0x10001D1B0, symSize: 0xE0 }
  - { offset: 0xA59F0, size: 0x8, addend: 0x0, symName: __ZNK2Qt23totally_ordered_wrapperIP8QMapDataINSt3__13mapI7QStringPN5Tiled9WangColorENS2_4lessIS4_EENS2_9allocatorINS2_4pairIKS4_S7_EEEEEEEEdeISG_Lb1EEERT_v, symObjAddr: 0x1C7E0, symBinAddr: 0x10001D290, symSize: 0x20 }
  - { offset: 0xA5A25, size: 0x8, addend: 0x0, symName: __ZN8QMapDataINSt3__13mapI7QStringPN5Tiled9WangColorENS0_4lessIS2_EENS0_9allocatorINS0_4pairIKS2_S5_EEEEEEEC1ERKSE_, symObjAddr: 0x1C800, symBinAddr: 0x10001D2B0, symSize: 0x30 }
  - { offset: 0xA5A5A, size: 0x8, addend: 0x0, symName: __ZN8QMapDataINSt3__13mapI7QStringPN5Tiled9WangColorENS0_4lessIS2_EENS0_9allocatorINS0_4pairIKS2_S5_EEEEEEEC2ERKSE_, symObjAddr: 0x1C830, symBinAddr: 0x10001D2E0, symSize: 0x40 }
  - { offset: 0xA5A8F, size: 0x8, addend: 0x0, symName: __ZN11QSharedDataC2ERKS_, symObjAddr: 0x1C870, symBinAddr: 0x10001D320, symSize: 0x30 }
  - { offset: 0xA5AC3, size: 0x8, addend: 0x0, symName: __ZNSt3__13mapI7QStringPN5Tiled9WangColorENS_4lessIS1_EENS_9allocatorINS_4pairIKS1_S4_EEEEEC1B9nqe210106ERKSC_, symObjAddr: 0x1C8A0, symBinAddr: 0x10001D350, symSize: 0x30 }
  - { offset: 0xA5AFC, size: 0x8, addend: 0x0, symName: __ZNSt3__13mapI7QStringPN5Tiled9WangColorENS_4lessIS1_EENS_9allocatorINS_4pairIKS1_S4_EEEEEC2B9nqe210106ERKSC_, symObjAddr: 0x1C8D0, symBinAddr: 0x10001D380, symSize: 0x80 }
  - { offset: 0xA5B35, size: 0x8, addend: 0x0, symName: __ZNSt3__16__treeINS_12__value_typeI7QStringPN5Tiled9WangColorEEENS_19__map_value_compareIS2_NS_4pairIKS2_S5_EENS_4lessIS2_EELb1EEENS_9allocatorISA_EEEC1ERKSG_, symObjAddr: 0x1C950, symBinAddr: 0x10001D400, symSize: 0x30 }
  - { offset: 0xA5B70, size: 0x8, addend: 0x0, symName: __ZNSt3__13mapI7QStringPN5Tiled9WangColorENS_4lessIS1_EENS_9allocatorINS_4pairIKS1_S4_EEEEE6insertB9nqe210106INS_20__map_const_iteratorINS_21__tree_const_iteratorINS_12__value_typeIS1_S4_EEPNS_11__tree_nodeISH_PvEElEEEEEEvT_SO_, symObjAddr: 0x1C980, symBinAddr: 0x10001D430, symSize: 0x80 }
  - { offset: 0xA5BDA, size: 0x8, addend: 0x0, symName: __ZNSt3__16__treeINS_12__value_typeI7QStringPN5Tiled9WangColorEEENS_19__map_value_compareIS2_NS_4pairIKS2_S5_EENS_4lessIS2_EELb1EEENS_9allocatorISA_EEEC2ERKSG_, symObjAddr: 0x1CA00, symBinAddr: 0x10001D4B0, symSize: 0x80 }
  - { offset: 0xA5C15, size: 0x8, addend: 0x0, symName: __ZNSt3__116allocator_traitsINS_9allocatorINS_11__tree_nodeINS_12__value_typeI7QStringPN5Tiled9WangColorEEEPvEEEEE37select_on_container_copy_constructionB9nqe210106ISB_Li0EEESB_RKSB_, symObjAddr: 0x1CA80, symBinAddr: 0x10001D530, symSize: 0x10 }
  - { offset: 0xA5C48, size: 0x8, addend: 0x0, symName: __ZNKSt3__16__treeINS_12__value_typeI7QStringPN5Tiled9WangColorEEENS_19__map_value_compareIS2_NS_4pairIKS2_S5_EENS_4lessIS2_EELb1EEENS_9allocatorISA_EEE12__node_allocB9nqe210106Ev, symObjAddr: 0x1CA90, symBinAddr: 0x10001D540, symSize: 0x20 }
  - { offset: 0xA5C6E, size: 0x8, addend: 0x0, symName: __ZNSt3__114__map_iteratorINS_15__tree_iteratorINS_12__value_typeI7QStringPN5Tiled9WangColorEEEPNS_11__tree_nodeIS7_PvEElEEEppB9nqe210106Ev, symObjAddr: 0x1CAB0, symBinAddr: 0x10001D560, symSize: 0x30 }
  - { offset: 0xA5C94, size: 0x8, addend: 0x0, symName: __ZNSt3__115__tree_iteratorINS_12__value_typeI7QStringPN5Tiled9WangColorEEEPNS_11__tree_nodeIS6_PvEElEppB9nqe210106Ev, symObjAddr: 0x1CAE0, symBinAddr: 0x10001D590, symSize: 0x30 }
  - { offset: 0xA5CBA, size: 0x8, addend: 0x0, symName: __ZN5QListIPN5Tiled9WangColorEE11emplaceBackIJRS2_EEES5_DpOT_, symObjAddr: 0x1CB10, symBinAddr: 0x10001D5C0, symSize: 0x70 }
  - { offset: 0xA5CFA, size: 0x8, addend: 0x0, symName: __ZN9QtPrivate12QPodArrayOpsIPN5Tiled9WangColorEE7emplaceIJRS3_EEEvxDpOT_, symObjAddr: 0x1CB80, symBinAddr: 0x10001D630, symSize: 0x140 }
  - { offset: 0xA5D7F, size: 0x8, addend: 0x0, symName: __ZNK5QListIPN5Tiled9WangColorEE8iteratormiEx, symObjAddr: 0x1CCC0, symBinAddr: 0x10001D770, symSize: 0x40 }
  - { offset: 0xA5DB3, size: 0x8, addend: 0x0, symName: __ZNK17QArrayDataPointerIPN5Tiled9WangColorEE11needsDetachEv, symObjAddr: 0x1CD00, symBinAddr: 0x10001D7B0, symSize: 0x40 }
  - { offset: 0xA5DD9, size: 0x8, addend: 0x0, symName: __ZNK17QArrayDataPointerIPN5Tiled9WangColorEE14freeSpaceAtEndEv, symObjAddr: 0x1CD40, symBinAddr: 0x10001D7F0, symSize: 0x60 }
  - { offset: 0xA5DFF, size: 0x8, addend: 0x0, symName: __ZN17QArrayDataPointerIPN5Tiled9WangColorEE3endEv, symObjAddr: 0x1CDA0, symBinAddr: 0x10001D850, symSize: 0x30 }
  - { offset: 0xA5E25, size: 0x8, addend: 0x0, symName: __ZNK17QArrayDataPointerIPN5Tiled9WangColorEE16freeSpaceAtBeginEv, symObjAddr: 0x1CDD0, symBinAddr: 0x10001D880, symSize: 0x60 }
  - { offset: 0xA5E4B, size: 0x8, addend: 0x0, symName: __ZN17QArrayDataPointerIPN5Tiled9WangColorEE5beginEv, symObjAddr: 0x1CE30, symBinAddr: 0x10001D8E0, symSize: 0x20 }
  - { offset: 0xA5E71, size: 0x8, addend: 0x0, symName: __ZN17QArrayDataPointerIPN5Tiled9WangColorEE13detachAndGrowEN10QArrayData14GrowthPositionExPPKS2_PS3_, symObjAddr: 0x1CE50, symBinAddr: 0x10001D900, symSize: 0x100 }
  - { offset: 0xA5EEB, size: 0x8, addend: 0x0, symName: __ZN9QtPrivate12QPodArrayOpsIPN5Tiled9WangColorEE10createHoleEN10QArrayData14GrowthPositionExx, symObjAddr: 0x1CF50, symBinAddr: 0x10001DA00, symSize: 0x150 }
  - { offset: 0xA5F49, size: 0x8, addend: 0x0, symName: __ZN17QArrayDataPointerIPN5Tiled9WangColorEE4dataEv, symObjAddr: 0x1D0A0, symBinAddr: 0x10001DB50, symSize: 0x20 }
  - { offset: 0xA5F6F, size: 0x8, addend: 0x0, symName: __ZN15QTypedArrayDataIPN5Tiled9WangColorEE9dataStartEP10QArrayDatax, symObjAddr: 0x1D0C0, symBinAddr: 0x10001DB70, symSize: 0x80 }
  - { offset: 0xA5FAE, size: 0x8, addend: 0x0, symName: __ZN17QArrayDataPointerIPN5Tiled9WangColorEE20tryReadjustFreeSpaceEN10QArrayData14GrowthPositionExPPKS2_, symObjAddr: 0x1D140, symBinAddr: 0x10001DBF0, symSize: 0x1E0 }
  - { offset: 0xA603E, size: 0x8, addend: 0x0, symName: __ZN17QArrayDataPointerIPN5Tiled9WangColorEE17reallocateAndGrowEN10QArrayData14GrowthPositionExPS3_, symObjAddr: 0x1D320, symBinAddr: 0x10001DDD0, symSize: 0x260 }
  - { offset: 0xA60B9, size: 0x8, addend: 0x0, symName: __ZNK17QArrayDataPointerIPN5Tiled9WangColorEE22constAllocatedCapacityEv, symObjAddr: 0x1D580, symBinAddr: 0x10001E030, symSize: 0x40 }
  - { offset: 0xA60DF, size: 0x8, addend: 0x0, symName: __ZN17QArrayDataPointerIPN5Tiled9WangColorEE8relocateExPPKS2_, symObjAddr: 0x1D5C0, symBinAddr: 0x10001E070, symSize: 0x80 }
  - { offset: 0xA6138, size: 0x8, addend: 0x0, symName: __ZNKSt3__14lessIvEclB9nqe210106IRPKPN5Tiled9WangColorES8_EEDTltclsr3stdE7forwardIT_Efp_Eclsr3stdE7forwardIT0_Efp0_EEOS9_OSA_, symObjAddr: 0x1D810, symBinAddr: 0x10001E2C0, symSize: 0x30 }
  - { offset: 0xA618E, size: 0x8, addend: 0x0, symName: __ZNK17QArrayDataPointerIPN5Tiled9WangColorEE4dataEv, symObjAddr: 0x1D840, symBinAddr: 0x10001E2F0, symSize: 0x20 }
  - { offset: 0xA61B4, size: 0x8, addend: 0x0, symName: __ZNK17QArrayDataPointerIPN5Tiled9WangColorEE5beginEv, symObjAddr: 0x1D880, symBinAddr: 0x10001E330, symSize: 0x20 }
  - { offset: 0xA61DA, size: 0x8, addend: 0x0, symName: __ZNK17QArrayDataPointerIPN5Tiled9WangColorEE3endEv, symObjAddr: 0x1D8A0, symBinAddr: 0x10001E350, symSize: 0x30 }
  - { offset: 0xA6200, size: 0x8, addend: 0x0, symName: __ZN9QtPrivate12QPodArrayOpsIPN5Tiled9WangColorEE10reallocateExN10QArrayData16AllocationOptionE, symObjAddr: 0x1D8D0, symBinAddr: 0x10001E380, symSize: 0x80 }
  - { offset: 0xA6253, size: 0x8, addend: 0x0, symName: __ZN17QArrayDataPointerIPN5Tiled9WangColorEE12allocateGrowERKS3_xN10QArrayData14GrowthPositionE, symObjAddr: 0x1D950, symBinAddr: 0x10001E400, symSize: 0x230 }
  - { offset: 0xA62EE, size: 0x8, addend: 0x0, symName: __ZN9QtPrivate12QPodArrayOpsIPN5Tiled9WangColorEE10copyAppendEPKS3_S6_, symObjAddr: 0x1DB80, symBinAddr: 0x10001E630, symSize: 0x140 }
  - { offset: 0xA6330, size: 0x8, addend: 0x0, symName: __ZN9QtPrivate12QPodArrayOpsIPN5Tiled9WangColorEE10moveAppendEPS3_S5_, symObjAddr: 0x1DCC0, symBinAddr: 0x10001E770, symSize: 0x30 }
  - { offset: 0xA6372, size: 0x8, addend: 0x0, symName: __ZN17QArrayDataPointerIPN5Tiled9WangColorEE4swapERS3_, symObjAddr: 0x1DCF0, symBinAddr: 0x10001E7A0, symSize: 0x60 }
  - { offset: 0xA63A6, size: 0x8, addend: 0x0, symName: __ZN15QTypedArrayDataIPN5Tiled9WangColorEE19reallocateUnalignedEPS3_PS2_xN10QArrayData16AllocationOptionE, symObjAddr: 0x1DD50, symBinAddr: 0x10001E800, symSize: 0x70 }
  - { offset: 0xA640D, size: 0x8, addend: 0x0, symName: __ZNSt3__14pairIP15QTypedArrayDataIPN5Tiled9WangColorEEPS4_EC1B9nqe210106IS6_S7_Li0EEEOT_OT0_, symObjAddr: 0x1DDC0, symBinAddr: 0x10001E870, symSize: 0x30 }
  - { offset: 0xA646B, size: 0x8, addend: 0x0, symName: __ZNSt3__14pairIP15QTypedArrayDataIPN5Tiled9WangColorEEPS4_EC2B9nqe210106IS6_S7_Li0EEEOT_OT0_, symObjAddr: 0x1DDF0, symBinAddr: 0x10001E8A0, symSize: 0x30 }
  - { offset: 0xA64C9, size: 0x8, addend: 0x0, symName: __ZNK17QArrayDataPointerIPN5Tiled9WangColorEE14detachCapacityEx, symObjAddr: 0x1DE20, symBinAddr: 0x10001E8D0, symSize: 0x50 }
  - { offset: 0xA64FE, size: 0x8, addend: 0x0, symName: __ZN15QTypedArrayDataIPN5Tiled9WangColorEE8allocateExN10QArrayData16AllocationOptionE, symObjAddr: 0x1DE70, symBinAddr: 0x10001E920, symSize: 0x60 }
  - { offset: 0xA654B, size: 0x8, addend: 0x0, symName: __ZN17QArrayDataPointerIPN5Tiled9WangColorEEC1EP15QTypedArrayDataIS2_EPS2_x, symObjAddr: 0x1DF10, symBinAddr: 0x10001E9C0, symSize: 0x40 }
  - { offset: 0xA659F, size: 0x8, addend: 0x0, symName: __ZNK17QArrayDataPointerIPN5Tiled9WangColorEE5flagsEv, symObjAddr: 0x1DF50, symBinAddr: 0x10001EA00, symSize: 0x40 }
  - { offset: 0xA65C5, size: 0x8, addend: 0x0, symName: __ZNSt3__110__get_pairILm0EE3getB9nqe210106IP15QTypedArrayDataIPN5Tiled9WangColorEEPS6_EEOT_ONS_4pairISA_T0_EE, symObjAddr: 0x1DF90, symBinAddr: 0x10001EA40, symSize: 0x10 }
  - { offset: 0xA65FB, size: 0x8, addend: 0x0, symName: __ZNSt3__110__get_pairILm1EE3getB9nqe210106IP15QTypedArrayDataIPN5Tiled9WangColorEEPS6_EEOT0_ONS_4pairIT_SA_EE, symObjAddr: 0x1DFA0, symBinAddr: 0x10001EA50, symSize: 0x20 }
  - { offset: 0xA6631, size: 0x8, addend: 0x0, symName: __ZN17QArrayDataPointerIPN5Tiled9WangColorEEC2EP15QTypedArrayDataIS2_EPS2_x, symObjAddr: 0x1DFC0, symBinAddr: 0x10001EA70, symSize: 0x40 }
  - { offset: 0xA6685, size: 0x8, addend: 0x0, symName: __ZNK17QArrayDataPointerIPN5Tiled9WangColorEE9isMutableEv, symObjAddr: 0x1E000, symBinAddr: 0x10001EAB0, symSize: 0x20 }
  - { offset: 0xA66AB, size: 0x8, addend: 0x0, symName: __ZNK17QArrayDataPointerIPN5Tiled9WangColorEE8isSharedEv, symObjAddr: 0x1E020, symBinAddr: 0x10001EAD0, symSize: 0x40 }
  - { offset: 0xA66D0, size: 0x8, addend: 0x0, symName: __Z11qt_ptr_swapI15QTypedArrayDataIPN5Tiled9WangColorEEEvRPT_S7_, symObjAddr: 0x1E060, symBinAddr: 0x10001EB10, symSize: 0x40 }
  - { offset: 0xA671D, size: 0x8, addend: 0x0, symName: __Z11qt_ptr_swapIPN5Tiled9WangColorEEvRPT_S5_, symObjAddr: 0x1E0A0, symBinAddr: 0x10001EB50, symSize: 0x40 }
  - { offset: 0xA676B, size: 0x8, addend: 0x0, symName: __ZN5QListIPN5Tiled9WangColorEE8iteratorC1EPS2_, symObjAddr: 0x1E0E0, symBinAddr: 0x10001EB90, symSize: 0x30 }
  - { offset: 0xA67A3, size: 0x8, addend: 0x0, symName: __ZN5QListIPN5Tiled9WangColorEE8iteratorC2EPS2_, symObjAddr: 0x1E110, symBinAddr: 0x10001EBC0, symSize: 0x20 }
  - { offset: 0xA67DB, size: 0x8, addend: 0x0, symName: __ZN5QListIPN5Tiled9WangColorEE6detachEv, symObjAddr: 0x1E130, symBinAddr: 0x10001EBE0, symSize: 0x20 }
  - { offset: 0xA6801, size: 0x8, addend: 0x0, symName: __ZN17QArrayDataPointerIPN5Tiled9WangColorEE6detachEPS3_, symObjAddr: 0x1E150, symBinAddr: 0x10001EC00, symSize: 0x40 }
  - { offset: 0xA6835, size: 0x8, addend: 0x0, symName: __ZN4QMapI7QStringPN5Tiled9WangColorEE22referenceHoldingDetachEv, symObjAddr: 0x1E190, symBinAddr: 0x10001EC40, symSize: 0xE0 }
  - { offset: 0xA6871, size: 0x8, addend: 0x0, symName: __ZNSt3__13mapI7QStringPN5Tiled9WangColorENS_4lessIS1_EENS_9allocatorINS_4pairIKS1_S4_EEEEE4findB9nqe210106ERS9_, symObjAddr: 0x1E270, symBinAddr: 0x10001ED20, symSize: 0x40 }
  - { offset: 0xA68A6, size: 0x8, addend: 0x0, symName: __ZNSt3__13mapI7QStringPN5Tiled9WangColorENS_4lessIS1_EENS_9allocatorINS_4pairIKS1_S4_EEEEE6insertB9nqe210106EOSA_, symObjAddr: 0x1E2E0, symBinAddr: 0x10001ED90, symSize: 0x50 }
  - { offset: 0xA68E1, size: 0x8, addend: 0x0, symName: __ZNSt3__14pairIK7QStringPN5Tiled9WangColorEEC1B9nqe210106IRS2_S5_Li0EEEOT_OT0_, symObjAddr: 0x1E330, symBinAddr: 0x10001EDE0, symSize: 0x30 }
  - { offset: 0xA693F, size: 0x8, addend: 0x0, symName: __ZNSt3__16__treeINS_12__value_typeI7QStringPN5Tiled9WangColorEEENS_19__map_value_compareIS2_NS_4pairIKS2_S5_EENS_4lessIS2_EELb1EEENS_9allocatorISA_EEE4findIS2_EENS_15__tree_iteratorIS6_PNS_11__tree_nodeIS6_PvEElEERKT_, symObjAddr: 0x1E360, symBinAddr: 0x10001EE10, symSize: 0xD0 }
  - { offset: 0xA698C, size: 0x8, addend: 0x0, symName: __ZNSt3__16__treeINS_12__value_typeI7QStringPN5Tiled9WangColorEEENS_19__map_value_compareIS2_NS_4pairIKS2_S5_EENS_4lessIS2_EELb1EEENS_9allocatorISA_EEE16__emplace_uniqueB9nqe210106ISA_EENS8_INS_15__tree_iteratorIS6_PNS_11__tree_nodeIS6_PvEElEEbEEOT_, symObjAddr: 0x1E430, symBinAddr: 0x10001EEE0, symSize: 0x40 }
  - { offset: 0xA69CA, size: 0x8, addend: 0x0, symName: __ZNSt3__14pairINS_14__map_iteratorINS_15__tree_iteratorINS_12__value_typeI7QStringPN5Tiled9WangColorEEEPNS_11__tree_nodeIS8_PvEElEEEEbEC1B9nqe210106ISD_bLi0EEEONS0_IT_T0_EE, symObjAddr: 0x1E470, symBinAddr: 0x10001EF20, symSize: 0x30 }
  - { offset: 0xA6A1A, size: 0x8, addend: 0x0, symName: __ZNSt3__16__treeINS_12__value_typeI7QStringPN5Tiled9WangColorEEENS_19__map_value_compareIS2_NS_4pairIKS2_S5_EENS_4lessIS2_EELb1EEENS_9allocatorISA_EEE28__emplace_unique_extract_keyB9nqe210106ISA_EENS8_INS_15__tree_iteratorIS6_PNS_11__tree_nodeIS6_PvEElEEbEEOT_NS_23__extract_key_first_tagE, symObjAddr: 0x1E4A0, symBinAddr: 0x10001EF50, symSize: 0x50 }
  - { offset: 0xA6A64, size: 0x8, addend: 0x0, symName: __ZNSt3__16__treeINS_12__value_typeI7QStringPN5Tiled9WangColorEEENS_19__map_value_compareIS2_NS_4pairIKS2_S5_EENS_4lessIS2_EELb1EEENS_9allocatorISA_EEE25__emplace_unique_key_argsIS2_JSA_EEENS8_INS_15__tree_iteratorIS6_PNS_11__tree_nodeIS6_PvEElEEbEERKT_DpOT0_, symObjAddr: 0x1E4F0, symBinAddr: 0x10001EFA0, symSize: 0xE0 }
  - { offset: 0xA6B17, size: 0x8, addend: 0x0, symName: __ZNSt3__16__treeINS_12__value_typeI7QStringPN5Tiled9WangColorEEENS_19__map_value_compareIS2_NS_4pairIKS2_S5_EENS_4lessIS2_EELb1EEENS_9allocatorISA_EEE16__construct_nodeIJSA_EEENS_10unique_ptrINS_11__tree_nodeIS6_PvEENS_22__tree_node_destructorINSE_ISL_EEEEEEDpOT_, symObjAddr: 0x1E5D0, symBinAddr: 0x10001F080, symSize: 0xE0 }
  - { offset: 0xA6B76, size: 0x8, addend: 0x0, symName: __ZNSt3__116allocator_traitsINS_9allocatorINS_11__tree_nodeINS_12__value_typeI7QStringPN5Tiled9WangColorEEEPvEEEEE9constructB9nqe210106INS_4pairIKS4_S7_EEJSG_ELi0EEEvRSB_PT_DpOT0_, symObjAddr: 0x1E6B0, symBinAddr: 0x10001F160, symSize: 0x30 }
  - { offset: 0xA6BD2, size: 0x8, addend: 0x0, symName: __ZNSt3__19allocatorINS_11__tree_nodeINS_12__value_typeI7QStringPN5Tiled9WangColorEEEPvEEE9constructB9nqe210106INS_4pairIKS3_S6_EEJSE_EEEvPT_DpOT0_, symObjAddr: 0x1E6E0, symBinAddr: 0x10001F190, symSize: 0x30 }
  - { offset: 0xA6C28, size: 0x8, addend: 0x0, symName: __ZNSt3__14pairIK7QStringPN5Tiled9WangColorEEC1B9nqe210106EOS6_, symObjAddr: 0x1E710, symBinAddr: 0x10001F1C0, symSize: 0x30 }
  - { offset: 0xA6C5C, size: 0x8, addend: 0x0, symName: __ZNSt3__14pairIK7QStringPN5Tiled9WangColorEEC2B9nqe210106EOS6_, symObjAddr: 0x1E740, symBinAddr: 0x10001F1F0, symSize: 0x40 }
  - { offset: 0xA6C90, size: 0x8, addend: 0x0, symName: __ZNSt3__14pairINS_14__map_iteratorINS_15__tree_iteratorINS_12__value_typeI7QStringPN5Tiled9WangColorEEEPNS_11__tree_nodeIS8_PvEElEEEEbEC2B9nqe210106ISD_bLi0EEEONS0_IT_T0_EE, symObjAddr: 0x1E780, symBinAddr: 0x10001F230, symSize: 0x50 }
  - { offset: 0xA6CE0, size: 0x8, addend: 0x0, symName: __ZNSt3__14pairIK7QStringPN5Tiled9WangColorEEC2B9nqe210106IRS2_S5_Li0EEEOT_OT0_, symObjAddr: 0x1E7D0, symBinAddr: 0x10001F280, symSize: 0x40 }
  - { offset: 0xA6D3E, size: 0x8, addend: 0x0, symName: __ZN5QListI16TileTerrainNamesE11emplaceBackIJS0_EEERS0_DpOT_, symObjAddr: 0x1E810, symBinAddr: 0x10001F2C0, symSize: 0x70 }
  - { offset: 0xA6D7E, size: 0x8, addend: 0x0, symName: __ZN9QtPrivate16QGenericArrayOpsI16TileTerrainNamesE7emplaceIJS1_EEEvxDpOT_, symObjAddr: 0x1E880, symBinAddr: 0x10001F330, symSize: 0x270 }
  - { offset: 0xA6E0C, size: 0x8, addend: 0x0, symName: __ZNK5QListI16TileTerrainNamesE8iteratormiEx, symObjAddr: 0x1EAF0, symBinAddr: 0x10001F5A0, symSize: 0x40 }
  - { offset: 0xA6E40, size: 0x8, addend: 0x0, symName: __ZNK17QArrayDataPointerI16TileTerrainNamesE11needsDetachEv, symObjAddr: 0x1EB30, symBinAddr: 0x10001F5E0, symSize: 0x40 }
  - { offset: 0xA6E66, size: 0x8, addend: 0x0, symName: __ZNK17QArrayDataPointerI16TileTerrainNamesE14freeSpaceAtEndEv, symObjAddr: 0x1EB70, symBinAddr: 0x10001F620, symSize: 0x60 }
  - { offset: 0xA6E8C, size: 0x8, addend: 0x0, symName: __ZN16TileTerrainNamesC1EOS_, symObjAddr: 0x1EBD0, symBinAddr: 0x10001F680, symSize: 0x30 }
  - { offset: 0xA6EC1, size: 0x8, addend: 0x0, symName: __ZNK17QArrayDataPointerI16TileTerrainNamesE16freeSpaceAtBeginEv, symObjAddr: 0x1EC00, symBinAddr: 0x10001F6B0, symSize: 0x60 }
  - { offset: 0xA6EE7, size: 0x8, addend: 0x0, symName: __ZN17QArrayDataPointerI16TileTerrainNamesE13detachAndGrowEN10QArrayData14GrowthPositionExPPKS0_PS1_, symObjAddr: 0x1EC60, symBinAddr: 0x10001F710, symSize: 0x100 }
  - { offset: 0xA6F61, size: 0x8, addend: 0x0, symName: __ZN9QtPrivate16QGenericArrayOpsI16TileTerrainNamesE8InserterC1EP17QArrayDataPointerIS1_E, symObjAddr: 0x1ED60, symBinAddr: 0x10001F810, symSize: 0x30 }
  - { offset: 0xA6F9A, size: 0x8, addend: 0x0, symName: __ZN9QtPrivate16QGenericArrayOpsI16TileTerrainNamesE8Inserter9insertOneExOS1_, symObjAddr: 0x1ED90, symBinAddr: 0x10001F840, symSize: 0x110 }
  - { offset: 0xA6FFB, size: 0x8, addend: 0x0, symName: __ZN9QtPrivate16QGenericArrayOpsI16TileTerrainNamesE8InserterD1Ev, symObjAddr: 0x1EEA0, symBinAddr: 0x10001F950, symSize: 0x20 }
  - { offset: 0xA7025, size: 0x8, addend: 0x0, symName: __ZN16TileTerrainNamesC2EOS_, symObjAddr: 0x1EEC0, symBinAddr: 0x10001F970, symSize: 0x70 }
  - { offset: 0xA705A, size: 0x8, addend: 0x0, symName: __ZN15QTypedArrayDataI16TileTerrainNamesE9dataStartEP10QArrayDatax, symObjAddr: 0x1EF30, symBinAddr: 0x10001F9E0, symSize: 0x80 }
  - { offset: 0xA7099, size: 0x8, addend: 0x0, symName: __ZN17QArrayDataPointerI16TileTerrainNamesE20tryReadjustFreeSpaceEN10QArrayData14GrowthPositionExPPKS0_, symObjAddr: 0x1EFB0, symBinAddr: 0x10001FA60, symSize: 0x1E0 }
  - { offset: 0xA7129, size: 0x8, addend: 0x0, symName: __ZN17QArrayDataPointerI16TileTerrainNamesE17reallocateAndGrowEN10QArrayData14GrowthPositionExPS1_, symObjAddr: 0x1F190, symBinAddr: 0x10001FC40, symSize: 0x200 }
  - { offset: 0xA71A4, size: 0x8, addend: 0x0, symName: __ZNK17QArrayDataPointerI16TileTerrainNamesE22constAllocatedCapacityEv, symObjAddr: 0x1F390, symBinAddr: 0x10001FE40, symSize: 0x40 }
  - { offset: 0xA71CA, size: 0x8, addend: 0x0, symName: __ZN17QArrayDataPointerI16TileTerrainNamesE8relocateExPPKS0_, symObjAddr: 0x1F3D0, symBinAddr: 0x10001FE80, symSize: 0x80 }
  - { offset: 0xA722D, size: 0x8, addend: 0x0, symName: __ZZN9QtPrivate30q_relocate_overlap_n_left_moveIP16TileTerrainNamesxEEvT_T0_S3_EN10DestructorC1ERS2_, symObjAddr: 0x1FAD0, symBinAddr: 0x100020580, symSize: 0x30 }
  - { offset: 0xA7265, size: 0x8, addend: 0x0, symName: __ZZN9QtPrivate30q_relocate_overlap_n_left_moveIP16TileTerrainNamesxEEvT_T0_S3_EN10Destructor6freezeEv, symObjAddr: 0x1FB40, symBinAddr: 0x1000205F0, symSize: 0x30 }
  - { offset: 0xA728F, size: 0x8, addend: 0x0, symName: __ZN16TileTerrainNamesaSEOS_, symObjAddr: 0x1FB70, symBinAddr: 0x100020620, symSize: 0x70 }
  - { offset: 0xA72C0, size: 0x8, addend: 0x0, symName: __ZZN9QtPrivate30q_relocate_overlap_n_left_moveIP16TileTerrainNamesxEEvT_T0_S3_EN10Destructor6commitEv, symObjAddr: 0x1FBE0, symBinAddr: 0x100020690, symSize: 0x20 }
  - { offset: 0xA72EA, size: 0x8, addend: 0x0, symName: __ZZN9QtPrivate30q_relocate_overlap_n_left_moveIP16TileTerrainNamesxEEvT_T0_S3_EN10DestructorD1Ev, symObjAddr: 0x1FC00, symBinAddr: 0x1000206B0, symSize: 0x20 }
  - { offset: 0xA7314, size: 0x8, addend: 0x0, symName: __ZZN9QtPrivate30q_relocate_overlap_n_left_moveIP16TileTerrainNamesxEEvT_T0_S3_EN10DestructorC2ERS2_, symObjAddr: 0x1FC20, symBinAddr: 0x1000206D0, symSize: 0x30 }
  - { offset: 0xA7361, size: 0x8, addend: 0x0, symName: __ZNKSt3__16__lessIvvEclB9nqe210106IP16TileTerrainNamesS4_EEbRKT_RKT0_, symObjAddr: 0x1FCB0, symBinAddr: 0x100020760, symSize: 0x30 }
  - { offset: 0xA73D1, size: 0x8, addend: 0x0, symName: __ZNSt3__14pairIRKP16TileTerrainNamesS4_EC1B9nqe210106INS_25__check_pair_constructionIS4_S4_EELi0EEES4_S4_, symObjAddr: 0x1FCE0, symBinAddr: 0x100020790, symSize: 0x30 }
  - { offset: 0xA7426, size: 0x8, addend: 0x0, symName: __ZNSt3__14pairIRKP16TileTerrainNamesS4_EC2B9nqe210106INS_25__check_pair_constructionIS4_S4_EELi0EEES4_S4_, symObjAddr: 0x1FD10, symBinAddr: 0x1000207C0, symSize: 0x30 }
  - { offset: 0xA747B, size: 0x8, addend: 0x0, symName: __ZN7QStringaSEOS_, symObjAddr: 0x1FD40, symBinAddr: 0x1000207F0, symSize: 0x30 }
  - { offset: 0xA74B0, size: 0x8, addend: 0x0, symName: __ZN7QString4swapERS_, symObjAddr: 0x1FD70, symBinAddr: 0x100020820, symSize: 0x30 }
  - { offset: 0xA74E5, size: 0x8, addend: 0x0, symName: __ZN17QArrayDataPointerIDsE4swapERS0_, symObjAddr: 0x1FDA0, symBinAddr: 0x100020850, symSize: 0x60 }
  - { offset: 0xA7518, size: 0x8, addend: 0x0, symName: __Z11qt_ptr_swapI15QTypedArrayDataIDsEEvRPT_S4_, symObjAddr: 0x1FE00, symBinAddr: 0x1000208B0, symSize: 0x40 }
  - { offset: 0xA7565, size: 0x8, addend: 0x0, symName: __Z11qt_ptr_swapIDsEvRPT_S2_, symObjAddr: 0x1FE40, symBinAddr: 0x1000208F0, symSize: 0x40 }
  - { offset: 0xA75B3, size: 0x8, addend: 0x0, symName: __ZZN9QtPrivate30q_relocate_overlap_n_left_moveIP16TileTerrainNamesxEEvT_T0_S3_EN10DestructorD2Ev, symObjAddr: 0x1FE80, symBinAddr: 0x100020930, symSize: 0x80 }
  - { offset: 0xA75F1, size: 0x8, addend: 0x0, symName: __ZNSt3__116reverse_iteratorIP16TileTerrainNamesEC1B9nqe210106ES2_, symObjAddr: 0x1FF60, symBinAddr: 0x100020A10, symSize: 0x30 }
  - { offset: 0xA7629, size: 0x8, addend: 0x0, symName: __ZNSt3__116reverse_iteratorIP16TileTerrainNamesEC2B9nqe210106ES2_, symObjAddr: 0x1FF90, symBinAddr: 0x100020A40, symSize: 0x30 }
  - { offset: 0xA766B, size: 0x8, addend: 0x0, symName: __ZZN9QtPrivate30q_relocate_overlap_n_left_moveINSt3__116reverse_iteratorIP16TileTerrainNamesEExEEvT_T0_S6_EN10DestructorC1ERS5_, symObjAddr: 0x20000, symBinAddr: 0x100020AB0, symSize: 0x30 }
  - { offset: 0xA76A3, size: 0x8, addend: 0x0, symName: __ZNKSt3__116reverse_iteratorIP16TileTerrainNamesEplB9nqe210106El, symObjAddr: 0x20030, symBinAddr: 0x100020AE0, symSize: 0x50 }
  - { offset: 0xA76D7, size: 0x8, addend: 0x0, symName: __ZNKSt3__116reverse_iteratorIP16TileTerrainNamesEdeB9nqe210106Ev, symObjAddr: 0x20100, symBinAddr: 0x100020BB0, symSize: 0x30 }
  - { offset: 0xA770B, size: 0x8, addend: 0x0, symName: __ZNSt3__116reverse_iteratorIP16TileTerrainNamesEppB9nqe210106Ev, symObjAddr: 0x20130, symBinAddr: 0x100020BE0, symSize: 0x20 }
  - { offset: 0xA7731, size: 0x8, addend: 0x0, symName: __ZZN9QtPrivate30q_relocate_overlap_n_left_moveINSt3__116reverse_iteratorIP16TileTerrainNamesEExEEvT_T0_S6_EN10Destructor6freezeEv, symObjAddr: 0x20150, symBinAddr: 0x100020C00, symSize: 0x30 }
  - { offset: 0xA775B, size: 0x8, addend: 0x0, symName: __ZZN9QtPrivate30q_relocate_overlap_n_left_moveINSt3__116reverse_iteratorIP16TileTerrainNamesEExEEvT_T0_S6_EN10Destructor6commitEv, symObjAddr: 0x201C0, symBinAddr: 0x100020C70, symSize: 0x20 }
  - { offset: 0xA7785, size: 0x8, addend: 0x0, symName: __ZNSt3__116reverse_iteratorIP16TileTerrainNamesEmmB9nqe210106Ev, symObjAddr: 0x201E0, symBinAddr: 0x100020C90, symSize: 0x20 }
  - { offset: 0xA77AB, size: 0x8, addend: 0x0, symName: __ZNKSt3__116reverse_iteratorIP16TileTerrainNamesEptB9nqe210106Ev, symObjAddr: 0x20200, symBinAddr: 0x100020CB0, symSize: 0x20 }
  - { offset: 0xA77D1, size: 0x8, addend: 0x0, symName: __ZZN9QtPrivate30q_relocate_overlap_n_left_moveINSt3__116reverse_iteratorIP16TileTerrainNamesEExEEvT_T0_S6_EN10DestructorD1Ev, symObjAddr: 0x20220, symBinAddr: 0x100020CD0, symSize: 0x20 }
  - { offset: 0xA77FB, size: 0x8, addend: 0x0, symName: __ZNKSt3__116reverse_iteratorIP16TileTerrainNamesE4baseB9nqe210106Ev, symObjAddr: 0x20240, symBinAddr: 0x100020CF0, symSize: 0x20 }
  - { offset: 0xA7821, size: 0x8, addend: 0x0, symName: __ZZN9QtPrivate30q_relocate_overlap_n_left_moveINSt3__116reverse_iteratorIP16TileTerrainNamesEExEEvT_T0_S6_EN10DestructorC2ERS5_, symObjAddr: 0x20260, symBinAddr: 0x100020D10, symSize: 0x40 }
  - { offset: 0xA7859, size: 0x8, addend: 0x0, symName: __ZNSt3__116reverse_iteratorIP16TileTerrainNamesEC1B9nqe210106Ev, symObjAddr: 0x202A0, symBinAddr: 0x100020D50, symSize: 0x20 }
  - { offset: 0xA7883, size: 0x8, addend: 0x0, symName: __ZNSt3__116reverse_iteratorIP16TileTerrainNamesEC2B9nqe210106Ev, symObjAddr: 0x202C0, symBinAddr: 0x100020D70, symSize: 0x20 }
  - { offset: 0xA78B3, size: 0x8, addend: 0x0, symName: __ZNKSt3__16__lessIvvEclB9nqe210106INS_16reverse_iteratorIP16TileTerrainNamesEES6_EEbRKT_RKT0_, symObjAddr: 0x20340, symBinAddr: 0x100020DF0, symSize: 0x30 }
  - { offset: 0xA7923, size: 0x8, addend: 0x0, symName: __ZNSt3__14pairIRKNS_16reverse_iteratorIP16TileTerrainNamesEES6_EC1B9nqe210106INS_25__check_pair_constructionIS6_S6_EELi0EEES6_S6_, symObjAddr: 0x20370, symBinAddr: 0x100020E20, symSize: 0x30 }
  - { offset: 0xA7978, size: 0x8, addend: 0x0, symName: __ZNSt3__14pairIRKNS_16reverse_iteratorIP16TileTerrainNamesEES6_EC2B9nqe210106INS_25__check_pair_constructionIS6_S6_EELi0EEES6_S6_, symObjAddr: 0x203A0, symBinAddr: 0x100020E50, symSize: 0x30 }
  - { offset: 0xA79CD, size: 0x8, addend: 0x0, symName: __ZZN9QtPrivate30q_relocate_overlap_n_left_moveINSt3__116reverse_iteratorIP16TileTerrainNamesEExEEvT_T0_S6_EN10DestructorD2Ev, symObjAddr: 0x203D0, symBinAddr: 0x100020E80, symSize: 0x90 }
  - { offset: 0xA7A0B, size: 0x8, addend: 0x0, symName: __ZNSt3__116reverse_iteratorIP16TileTerrainNamesEpLB9nqe210106El, symObjAddr: 0x204C0, symBinAddr: 0x100020F70, symSize: 0x30 }
  - { offset: 0xA7A45, size: 0x8, addend: 0x0, symName: __ZNKSt3__14lessIvEclB9nqe210106IRPK16TileTerrainNamesS6_EEDTltclsr3stdE7forwardIT_Efp_Eclsr3stdE7forwardIT0_Efp0_EEOS7_OS8_, symObjAddr: 0x205D0, symBinAddr: 0x100021080, symSize: 0x30 }
  - { offset: 0xA7A9B, size: 0x8, addend: 0x0, symName: __ZNK17QArrayDataPointerI16TileTerrainNamesE4dataEv, symObjAddr: 0x20600, symBinAddr: 0x1000210B0, symSize: 0x20 }
  - { offset: 0xA7AC1, size: 0x8, addend: 0x0, symName: __ZNK17QArrayDataPointerI16TileTerrainNamesE5beginEv, symObjAddr: 0x20650, symBinAddr: 0x100021100, symSize: 0x20 }
  - { offset: 0xA7AE7, size: 0x8, addend: 0x0, symName: __ZNK17QArrayDataPointerI16TileTerrainNamesE3endEv, symObjAddr: 0x20670, symBinAddr: 0x100021120, symSize: 0x30 }
  - { offset: 0xA7B0D, size: 0x8, addend: 0x0, symName: __ZN17QArrayDataPointerI16TileTerrainNamesE12allocateGrowERKS1_xN10QArrayData14GrowthPositionE, symObjAddr: 0x206A0, symBinAddr: 0x100021150, symSize: 0x230 }
  - { offset: 0xA7BA8, size: 0x8, addend: 0x0, symName: __ZN9QtPrivate16QGenericArrayOpsI16TileTerrainNamesE10copyAppendEPKS1_S4_, symObjAddr: 0x208D0, symBinAddr: 0x100021380, symSize: 0x150 }
  - { offset: 0xA7BFB, size: 0x8, addend: 0x0, symName: __ZN9QtPrivate16QGenericArrayOpsI16TileTerrainNamesE10moveAppendEPS1_S3_, symObjAddr: 0x20A20, symBinAddr: 0x1000214D0, symSize: 0x150 }
  - { offset: 0xA7C4E, size: 0x8, addend: 0x0, symName: __ZN17QArrayDataPointerI16TileTerrainNamesE4swapERS1_, symObjAddr: 0x20B70, symBinAddr: 0x100021620, symSize: 0x60 }
  - { offset: 0xA7C82, size: 0x8, addend: 0x0, symName: __ZNK17QArrayDataPointerI16TileTerrainNamesE14detachCapacityEx, symObjAddr: 0x20BD0, symBinAddr: 0x100021680, symSize: 0x50 }
  - { offset: 0xA7CB7, size: 0x8, addend: 0x0, symName: __ZN15QTypedArrayDataI16TileTerrainNamesE8allocateExN10QArrayData16AllocationOptionE, symObjAddr: 0x20C20, symBinAddr: 0x1000216D0, symSize: 0x60 }
  - { offset: 0xA7D04, size: 0x8, addend: 0x0, symName: __ZN17QArrayDataPointerI16TileTerrainNamesEC1EP15QTypedArrayDataIS0_EPS0_x, symObjAddr: 0x20CC0, symBinAddr: 0x100021770, symSize: 0x40 }
  - { offset: 0xA7D58, size: 0x8, addend: 0x0, symName: __ZNK17QArrayDataPointerI16TileTerrainNamesE5flagsEv, symObjAddr: 0x20D00, symBinAddr: 0x1000217B0, symSize: 0x40 }
  - { offset: 0xA7D8A, size: 0x8, addend: 0x0, symName: __ZNSt3__14pairIP15QTypedArrayDataI16TileTerrainNamesEPS2_EC1B9nqe210106IS4_S5_Li0EEEOT_OT0_, symObjAddr: 0x20D40, symBinAddr: 0x1000217F0, symSize: 0x30 }
  - { offset: 0xA7DE8, size: 0x8, addend: 0x0, symName: __ZNSt3__14pairIP15QTypedArrayDataI16TileTerrainNamesEPS2_EC2B9nqe210106IS4_S5_Li0EEEOT_OT0_, symObjAddr: 0x20D70, symBinAddr: 0x100021820, symSize: 0x30 }
  - { offset: 0xA7E46, size: 0x8, addend: 0x0, symName: __ZNSt3__110__get_pairILm0EE3getB9nqe210106IP15QTypedArrayDataI16TileTerrainNamesEPS4_EEOT_ONS_4pairIS8_T0_EE, symObjAddr: 0x20DA0, symBinAddr: 0x100021850, symSize: 0x10 }
  - { offset: 0xA7E7C, size: 0x8, addend: 0x0, symName: __ZNSt3__110__get_pairILm1EE3getB9nqe210106IP15QTypedArrayDataI16TileTerrainNamesEPS4_EEOT0_ONS_4pairIT_S8_EE, symObjAddr: 0x20DB0, symBinAddr: 0x100021860, symSize: 0x20 }
  - { offset: 0xA7EB2, size: 0x8, addend: 0x0, symName: __ZN17QArrayDataPointerI16TileTerrainNamesEC2EP15QTypedArrayDataIS0_EPS0_x, symObjAddr: 0x20DD0, symBinAddr: 0x100021880, symSize: 0x40 }
  - { offset: 0xA7F06, size: 0x8, addend: 0x0, symName: __ZNK17QArrayDataPointerI16TileTerrainNamesE9isMutableEv, symObjAddr: 0x20E10, symBinAddr: 0x1000218C0, symSize: 0x20 }
  - { offset: 0xA7F2C, size: 0x8, addend: 0x0, symName: __ZNK17QArrayDataPointerI16TileTerrainNamesE8isSharedEv, symObjAddr: 0x20E30, symBinAddr: 0x1000218E0, symSize: 0x40 }
  - { offset: 0xA7F51, size: 0x8, addend: 0x0, symName: __Z11qt_ptr_swapI15QTypedArrayDataI16TileTerrainNamesEEvRPT_S5_, symObjAddr: 0x20E70, symBinAddr: 0x100021920, symSize: 0x40 }
  - { offset: 0xA7F9E, size: 0x8, addend: 0x0, symName: __Z11qt_ptr_swapI16TileTerrainNamesEvRPT_S3_, symObjAddr: 0x20EB0, symBinAddr: 0x100021960, symSize: 0x40 }
  - { offset: 0xA7FEC, size: 0x8, addend: 0x0, symName: __ZN9QtPrivate16QGenericArrayOpsI16TileTerrainNamesE8InserterC2EP17QArrayDataPointerIS1_E, symObjAddr: 0x20EF0, symBinAddr: 0x1000219A0, symSize: 0x70 }
  - { offset: 0xA8025, size: 0x8, addend: 0x0, symName: __ZN9QtPrivate16QGenericArrayOpsI16TileTerrainNamesE8Inserter5setupExx, symObjAddr: 0x20F60, symBinAddr: 0x100021A10, symSize: 0xB0 }
  - { offset: 0xA8078, size: 0x8, addend: 0x0, symName: __ZN9QtPrivate16QGenericArrayOpsI16TileTerrainNamesE8InserterD2Ev, symObjAddr: 0x21010, symBinAddr: 0x100021AC0, symSize: 0x30 }
  - { offset: 0xA80A2, size: 0x8, addend: 0x0, symName: __ZN5QListI16TileTerrainNamesE8iteratorC1EPS0_, symObjAddr: 0x21040, symBinAddr: 0x100021AF0, symSize: 0x30 }
  - { offset: 0xA80DA, size: 0x8, addend: 0x0, symName: __ZN5QListI16TileTerrainNamesE8iteratorC2EPS0_, symObjAddr: 0x21070, symBinAddr: 0x100021B20, symSize: 0x20 }
  - { offset: 0xA8112, size: 0x8, addend: 0x0, symName: __ZN5QListI16TileTerrainNamesE6detachEv, symObjAddr: 0x21090, symBinAddr: 0x100021B40, symSize: 0x20 }
  - { offset: 0xA8138, size: 0x8, addend: 0x0, symName: __ZN17QArrayDataPointerI16TileTerrainNamesE6detachEPS1_, symObjAddr: 0x210B0, symBinAddr: 0x100021B60, symSize: 0x40 }
  - { offset: 0xA816B, size: 0x8, addend: 0x0, symName: __Z13comparesEqualIN5Tiled7TilesetEEbRK14QSharedPointerIS1_EPT_, symObjAddr: 0x210F0, symBinAddr: 0x100021BA0, symSize: 0x30 }
  - { offset: 0xA81B2, size: 0x8, addend: 0x0, symName: __ZN5QListI7QStringE6detachEv, symObjAddr: 0x21120, symBinAddr: 0x100021BD0, symSize: 0x20 }
  - { offset: 0xA81D8, size: 0x8, addend: 0x0, symName: __ZN17QArrayDataPointerI7QStringE6detachEPS1_, symObjAddr: 0x21140, symBinAddr: 0x100021BF0, symSize: 0x40 }
  - { offset: 0xA820C, size: 0x8, addend: 0x0, symName: __ZNK5QListI7QStringE8iteratoreqES2_, symObjAddr: 0x21320, symBinAddr: 0x100021DD0, symSize: 0x20 }
  - { offset: 0xA8240, size: 0x8, addend: 0x0, symName: __ZNK5QListI7QStringE8iteratormiES2_, symObjAddr: 0x21380, symBinAddr: 0x100021E30, symSize: 0x30 }
  - { offset: 0xA8274, size: 0x8, addend: 0x0, symName: __ZNK15TerrainLessThanclERK7QStringS2_, symObjAddr: 0x21B90, symBinAddr: 0x100022640, symSize: 0x50 }
  - { offset: 0xA82B8, size: 0x8, addend: 0x0, symName: __ZN5QListI7QStringE8iteratormmEv, symObjAddr: 0x21BE0, symBinAddr: 0x100022690, symSize: 0x20 }
  - { offset: 0xA82DE, size: 0x8, addend: 0x0, symName: __ZNSt3__18_IterOpsINS_17_ClassicAlgPolicyEE9iter_swapB9nqe210106IRN5QListI7QStringE8iteratorES8_EEvOT_OT0_, symObjAddr: 0x21C00, symBinAddr: 0x1000226B0, symSize: 0x40 }
  - { offset: 0xA8321, size: 0x8, addend: 0x0, symName: __ZNK5QListI7QStringE8iteratorplEx, symObjAddr: 0x21DD0, symBinAddr: 0x100022880, symSize: 0x40 }
  - { offset: 0xA835B, size: 0x8, addend: 0x0, symName: __ZNSt3__18_IterOpsINS_17_ClassicAlgPolicyEE9iter_swapB9nqe210106IRN5QListI7QStringE8iteratorES7_EEvOT_OT0_, symObjAddr: 0x22550, symBinAddr: 0x100023000, symSize: 0x40 }
  - { offset: 0xA839E, size: 0x8, addend: 0x0, symName: __ZN5QListI7QStringE8iteratorppEv, symObjAddr: 0x23660, symBinAddr: 0x100024110, symSize: 0x20 }
  - { offset: 0xA83C4, size: 0x8, addend: 0x0, symName: __ZNK4QMapI7QStringiEixERKS0_, symObjAddr: 0x23680, symBinAddr: 0x100024130, symSize: 0x30 }
  - { offset: 0xA83F9, size: 0x8, addend: 0x0, symName: __ZNK4QMapI7QStringiE5valueERKS0_RKi, symObjAddr: 0x236B0, symBinAddr: 0x100024160, symSize: 0xA0 }
  - { offset: 0xA844B, size: 0x8, addend: 0x0, symName: __Z4swapR7QStringS0_, symObjAddr: 0x23790, symBinAddr: 0x100024240, symSize: 0x30 }
  - { offset: 0xA8485, size: 0x8, addend: 0x0, symName: __ZNK5QListI7QStringE8iteratorneES2_, symObjAddr: 0x237C0, symBinAddr: 0x100024270, symSize: 0x20 }
  - { offset: 0xA84B9, size: 0x8, addend: 0x0, symName: __ZNSt3__18_IterOpsINS_17_ClassicAlgPolicyEE11__iter_moveB9nqe210106IRN5QListI7QStringE8iteratorELi0EEEDTclsr3stdE4movedeclsr3stdE7declvalIRT_EEEEOS9_, symObjAddr: 0x237E0, symBinAddr: 0x100024290, symSize: 0x20 }
  - { offset: 0xA84EB, size: 0x8, addend: 0x0, symName: __ZNSt3__18_IterOpsINS_17_ClassicAlgPolicyEE25__validate_iter_referenceB9nqe210106IRN5QListI7QStringE8iteratorEEEvv, symObjAddr: 0x23800, symBinAddr: 0x1000242B0, symSize: 0x10 }
  - { offset: 0xA8509, size: 0x8, addend: 0x0, symName: __ZNSt3__18_IterOpsINS_17_ClassicAlgPolicyEE4nextB9nqe210106IN5QListI7QStringE8iteratorEEET_S8_S8_, symObjAddr: 0x23810, symBinAddr: 0x1000242C0, symSize: 0x20 }
  - { offset: 0xA853F, size: 0x8, addend: 0x0, symName: __ZN5QListI7QStringE8iteratorpLEx, symObjAddr: 0x24280, symBinAddr: 0x100024D30, symSize: 0x20 }
  - { offset: 0xA8573, size: 0x8, addend: 0x0, symName: __ZNK5QListI7QStringE8iteratorltES2_, symObjAddr: 0x242A0, symBinAddr: 0x100024D50, symSize: 0x20 }
  - { offset: 0xA85A7, size: 0x8, addend: 0x0, symName: __ZNK5QListI7QStringE8iteratorgeES2_, symObjAddr: 0x242C0, symBinAddr: 0x100024D70, symSize: 0x20 }
  - { offset: 0xA85DB, size: 0x8, addend: 0x0, symName: __ZN5QListI7QStringE8iteratormIEx, symObjAddr: 0x244D0, symBinAddr: 0x100024F80, symSize: 0x30 }
  - { offset: 0xA860F, size: 0x8, addend: 0x0, symName: __ZNSt3__18_IterOpsINS_17_ClassicAlgPolicyEE9iter_swapB9nqe210106IN5QListI7QStringE8iteratorES7_EEvOT_OT0_, symObjAddr: 0x24950, symBinAddr: 0x100025400, symSize: 0x40 }
  - { offset: 0xA866E, size: 0x8, addend: 0x0, symName: __ZNSt3__14pairIN5QListI7QStringE8iteratorEbEC1B9nqe210106IRS4_RbLi0EEEOT_OT0_, symObjAddr: 0x24990, symBinAddr: 0x100025440, symSize: 0x30 }
  - { offset: 0xA86CC, size: 0x8, addend: 0x0, symName: __ZNSt3__14pairIN5QListI7QStringE8iteratorEbEC2B9nqe210106IRS4_RbLi0EEEOT_OT0_, symObjAddr: 0x249C0, symBinAddr: 0x100025470, symSize: 0x30 }
  - { offset: 0xA872A, size: 0x8, addend: 0x0, symName: __ZNSt3__118__unwrap_iter_implIN5QListI7QStringE8iteratorELb0EE8__unwrapB9nqe210106ES4_, symObjAddr: 0x249F0, symBinAddr: 0x1000254A0, symSize: 0x16 }
...
