__Unwind_Resume U 0 0
__Z11qt_assert_xPKcS0_S0_i U 0 0
__Z5qHash11QStringViewm U 0 0
__Z5qHash6QPointm U 0 0
__Z6qIsNaNd U 0 0
__Z9qBadAllocv U 0 0
__Z9qIsFinited U 0 0
__Z9qt_assertPKcS0_i U 0 0
__ZN10QArrayData10deallocateEPS_xx U 0 0
__ZN10QArrayData19reallocateUnalignedEPS_PvxxNS_16AllocationOptionE U 0 0
__ZN10QArrayData8allocateEPPS_xxxNS_16AllocationOptionE U 0 0
__ZN10QByteArray6_emptyE U 0 0
__ZN10QByteArray6insertEx14QByteArrayView U 0 0
__ZN10QByteArray6numberEdci U 0 0
__ZN10QByteArrayC1EPKcx U 0 0
__ZN10QJsonArray14fromStringListERK5QListI7QStringE U 0 0
__ZN10QJsonArray6appendERK10QJsonValue U 0 0
__ZN10QJsonArrayC1Ev U 0 0
__ZN10QJsonArrayD1Ev U 0 0
__ZN10QJsonValueC1ENS_4TypeE U 0 0
__ZN10QJsonValueC1EO10QJsonArray U 0 0
__ZN10QJsonValueC1EO11QJsonObject U 0 0
__ZN10QJsonValueC1EOS_ U 0 0
__ZN10QJsonValueC1ERK10QJsonArray U 0 0
__ZN10QJsonValueC1ERK7QString U 0 0
__ZN10QJsonValueC1Eb U 0 0
__ZN10QJsonValueC1Ed U 0 0
__ZN10QJsonValueC1Ei U 0 0
__ZN10QJsonValueD1Ev U 0 0
__ZN10QTransform6rotateEdN2Qt4AxisE U 0 0
__ZN10QTransform9translateEdd U 0 0
__ZN11QJsonObjectC1ESt16initializer_listINSt3__14pairI7QString10QJsonValueEEE U 0 0
__ZN11QJsonObjectC1Ev U 0 0
__ZN11QJsonObjectD1Ev U 0 0
__ZN11QJsonObjectixERK7QString U 0 0
__ZN11QMetaObject14normalizedTypeEPKc U 0 0
__ZN12QDirIterator4nextEv U 0 0
__ZN12QDirIteratorC1ERK4QDir6QFlagsINS_12IteratorFlagEE U 0 0
__ZN12QDirIteratorD1Ev U 0 0
__ZN13QJsonValueRefaSERK10QJsonValue U 0 0
__ZN15QtSharedPointer20ExternalRefCountData9getAndRefEPK7QObject U 0 0
__ZN16QCoreApplication9translateEPKcS1_S1_i U 0 0
__ZN18QJsonValueConstRef12concreteTypeES_ U 0 0
__ZN18QJsonValueConstRef8concreteES_ U 0 0
__ZN18QRegularExpressionC1ERK7QString6QFlagsINS_13PatternOptionEE U 0 0
__ZN18QRegularExpressionD1Ev U 0 0
__ZN2Yy8YyPlugin11qt_metacallEN11QMetaObject4CallEiPPv T 52280 0
__ZN2Yy8YyPlugin11qt_metacastEPKc T 52210 0
__ZN2Yy8YyPlugin16staticMetaObjectE S 59bb0 0
__ZN2Yy8YyPlugin5writeEPKN5Tiled3MapERK7QString6QFlagsINS1_10FileFormat6OptionEE T 13270 0
__ZN2Yy8YyPluginC1Ev T 13250 0
__ZN2Yy8YyPluginC2Ev T 131d0 0
__ZN4QDir14setNameFiltersERK5QListI7QStringE U 0 0
__ZN4QDir4cdUpEv U 0 0
__ZN4QDirC1ERK7QString U 0 0
__ZN4QDirD1Ev U 0 0
__ZN5Tiled10FileFormatC2EP7QObject U 0 0
__ZN5Tiled10JumpToTileC1EPKNS_3MapE6QPointPKNS_5LayerE U 0 0
__ZN5Tiled11MapRenderer6createEPKNS_3MapE U 0 0
__ZN5Tiled12JumpToObjectC1EPKNS_9MapObjectE U 0 0
__ZN5Tiled13ExportContextC1ERK7QString U 0 0
__ZN5Tiled15alignmentOffsetERK6QSizeFNS_9AlignmentE U 0 0
__ZN5Tiled16LoggingInterface6reportERKNS_5IssueE U 0 0
__ZN5Tiled16LoggingInterface8instanceEv U 0 0
__ZN5Tiled17WritableMapFormat11qt_metacallEN11QMetaObject4CallEiPPv U 0 0
__ZN5Tiled17WritableMapFormat11qt_metacastEPKc U 0 0
__ZN5Tiled17WritableMapFormat16staticMetaObjectE U 0 0
__ZN5Tiled4Cell5emptyE U 0 0
__ZN5Tiled5IssueC1ENS0_8SeverityERK7QStringNSt3__18functionIFvvEEEPKv U 0 0
__ZN5Tiled8SaveFile6commitEv U 0 0
__ZN5Tiled8SaveFileC1ERK7QString U 0 0
__ZN5Tiled9ObjectRef16staticMetaObjectE U 0 0
__ZN6QColor9setAlphaFEf U 0 0
__ZN6QColorC1EN2Qt11GlobalColorE U 0 0
__ZN6QColorC1Ej U 0 0
__ZN6QDebugD1Ev U 0 0
__ZN7QObject10childEventEP11QChildEvent U 0 0
__ZN7QObject10timerEventEP11QTimerEvent U 0 0
__ZN7QObject11customEventEP6QEvent U 0 0
__ZN7QObject11eventFilterEPS_P6QEvent U 0 0
__ZN7QObject13connectNotifyERK11QMetaMethod U 0 0
__ZN7QObject16disconnectNotifyERK11QMetaMethod U 0 0
__ZN7QObject5eventEP6QEvent U 0 0
__ZN7QObjectD2Ev U 0 0
__ZN7QString10fromLatin1E14QByteArrayView U 0 0
__ZN7QString11reallocDataExN10QArrayData16AllocationOptionE U 0 0
__ZN7QString13toUtf8_helperERKS_ U 0 0
__ZN7QString15toLatin1_helperERKS_ U 0 0
__ZN7QString6appendE5QChar U 0 0
__ZN7QString6appendERKS_ U 0 0
__ZN7QString6numberEii U 0 0
__ZN7QString7replaceE5QCharS0_N2Qt15CaseSensitivityE U 0 0
__ZN7QString7replaceERK18QRegularExpressionRKS_ U 0 0
__ZN7QString8fromUtf8E14QByteArrayView U 0 0
__ZN7QStringaSERKS_ U 0 0
__ZN8QVariantC1ERKS_ U 0 0
__ZN8QVariantD1Ev U 0 0
__ZN9QFileInfoC1ERK7QString U 0 0
__ZN9QFileInfoD1Ev U 0 0
__ZN9QHashSeed10globalSeedEv U 0 0
__ZN9QIODevice5writeEPKcx U 0 0
__ZN9QMetaType14registerHelperEPKN9QtPrivate18QMetaTypeInterfaceE U 0 0
__ZN9QMetaType25registerNormalizedTypedefERK10QByteArrayS_ U 0 0
__ZN9QMetaType7convertES_PKvS_Pv U 0 0
__ZN9QtPrivate12argToQStringE14QAnyStringViewmPPKNS_7ArgBaseE U 0 0
__ZN9QtPrivate12equalStringsE11QStringView13QLatin1String U 0 0
__ZN9QtPrivate12equalStringsE11QStringViewS0_ U 0 0
__ZN9QtPrivate14compareStringsE11QStringViewS0_N2Qt15CaseSensitivityE U 0 0
__ZN9QtPrivate16QStringList_sortEP5QListI7QStringEN2Qt15CaseSensitivityE U 0 0
__ZN9QtPrivate25QMetaTypeInterfaceWrapperI7QStringE8metaTypeE U 0 0
__ZN9QtPrivate25QMetaTypeInterfaceWrapperIbE8metaTypeE U 0 0
__ZN9QtPrivate25QMetaTypeInterfaceWrapperIdE8metaTypeE U 0 0
__ZN9QtPrivate25QMetaTypeInterfaceWrapperIiE8metaTypeE U 0 0
__ZNK10QJsonArray4sizeEv U 0 0
__ZNK10QJsonValue4typeEv U 0 0
__ZNK10QJsonValue5toIntEi U 0 0
__ZNK10QJsonValue6toBoolEb U 0 0
__ZNK10QJsonValue7toArrayEv U 0 0
__ZNK10QJsonValue8toDoubleEd U 0 0
__ZNK10QJsonValue8toObjectEv U 0 0
__ZNK10QJsonValue8toStringEv U 0 0
__ZNK10QTransform3mapERK7QPointF U 0 0
__ZNK10QTransform3mapERK9QPolygonF U 0 0
__ZNK11QJsonObject4keysEv U 0 0
__ZNK11QJsonObject5valueE13QLatin1String U 0 0
__ZNK11QJsonObject5valueERK7QString U 0 0
__ZNK11QMetaObject2trEPKcS1_i U 0 0
__ZNK11QMetaObject9classNameEv U 0 0
__ZNK11QObjectData17dynamicMetaObjectEv U 0 0
__ZNK2Yy8YyPlugin10metaObjectEv T 52190 0
__ZNK2Yy8YyPlugin10nameFilterEv T 166e0 0
__ZNK2Yy8YyPlugin11errorStringEv T 16680 0
__ZNK2Yy8YyPlugin9shortNameEv T 16760 0
__ZNK4QUrl4pathE6QFlagsINS_25ComponentFormattingOptionEE U 0 0
__ZNK4QUrl7isEmptyEv U 0 0
__ZNK5Tiled13ExportContext13toExportValueERK8QVariant U 0 0
__ZNK5Tiled3Map14findObjectByIdEi U 0 0
__ZNK5Tiled4Tile5imageEv U 0 0
__ZNK5Tiled5Layer10isUnlockedEv U 0 0
__ZNK5Tiled5Layer11totalOffsetEv U 0 0
__ZNK5Tiled5Layer16effectiveOpacityEv U 0 0
__ZNK5Tiled5Layer18effectiveTintColorEv U 0 0
__ZNK5Tiled6Object16resolvedPropertyERK7QString U 0 0
__ZNK5Tiled6Object18resolvedPropertiesEv U 0 0
__ZNK5Tiled9MapObject18effectiveClassNameEv U 0 0
__ZNK5Tiled9MapObject9alignmentEPKNS_3MapE U 0 0
__ZNK6QColor4nameENS_10NameFormatE U 0 0
__ZNK6QColor4rgbaEv U 0 0
__ZNK6QColor6alphaFEv U 0 0
__ZNK6QColoreqERKS_ U 0 0
__ZNK7QPixmap6isNullEv U 0 0
__ZNK7QString14rightJustifiedEx5QCharb U 0 0
__ZNK7QString5splitE5QChar6QFlagsIN2Qt18SplitBehaviorFlagsEENS2_15CaseSensitivityE U 0 0
__ZNK7QString8arg_implE14QAnyStringViewi5QChar U 0 0
__ZNK7QString8arg_implExii5QChar U 0 0
__ZNK8QVariant6toBoolEv U 0 0
__ZNK8QVariant8toStringEv U 0 0
__ZNK9QFileInfo16completeBaseNameEv U 0 0
__ZNK9QFileInfo4pathEv U 0 0
__ZNK9QFileInfo8fileNameEv U 0 0
__ZNK9QIODevice11errorStringEv U 0 0
__ZNKSt9exception4whatEv U 0 0
__ZNSt11logic_errorC2EPKc U 0 0
__ZNSt12length_errorD1Ev U 0 0
__ZNSt12out_of_rangeD1Ev U 0 0
__ZNSt20bad_array_new_lengthC1Ev U 0 0
__ZNSt20bad_array_new_lengthD1Ev U 0 0
__ZNSt9exceptionD2Ev U 0 0
__ZSt7nothrow U 0 0
__ZSt9terminatev U 0 0
__ZTIN2Yy8YyPluginE S 59c98 0
__ZTIN5Tiled10JumpToTileE S 59a00 0
__ZTIN5Tiled12JumpToObjectE S 59b80 0
__ZTIN5Tiled17WritableMapFormatE U 0 0
__ZTINSt3__110__function6__baseIFvvEEE S 59958 0
__ZTINSt3__110__function6__funcIN5Tiled10JumpToTileEFvvEEE S 59940 0
__ZTINSt3__110__function6__funcIN5Tiled12JumpToObjectEFvvEEE S 59b68 0
__ZTINSt3__117bad_function_callE S 599c0 0
__ZTISt12length_error U 0 0
__ZTISt12out_of_range U 0 0
__ZTISt20bad_array_new_length U 0 0
__ZTISt9exception U 0 0
__ZTSN2Yy8YyPluginE S 57a76 0
__ZTSN5Tiled10JumpToTileE S 577c6 0
__ZTSN5Tiled12JumpToObjectE S 5798c 0
__ZTSNSt3__110__function6__baseIFvvEEE S 57788 0
__ZTSNSt3__110__function6__funcIN5Tiled10JumpToTileEFvvEEE S 57752 0
__ZTSNSt3__110__function6__funcIN5Tiled12JumpToObjectEFvvEEE S 57954 0
__ZTSNSt3__117bad_function_callE S 577aa 0
__ZTVN10__cxxabiv117__class_type_infoE U 0 0
__ZTVN10__cxxabiv120__si_class_type_infoE U 0 0
__ZTVN2Yy8YyPluginE S 59be8 0
__ZTVN5Tiled17WritableMapFormatE U 0 0
__ZTVN5Tiled9MapFormatE U 0 0
__ZTVSt12length_error U 0 0
__ZTVSt12out_of_range U 0 0
__ZTVSt9exception U 0 0
__ZdaPv U 0 0
__ZdlPv U 0 0
__ZdlPvSt11align_val_t U 0 0
__Zls6QDebugRK6QColor U 0 0
__ZlsR11QDataStreamRK6QColor U 0 0
__Znam U 0 0
__Znwm U 0 0
__ZnwmRKSt9nothrow_t U 0 0
__ZnwmSt11align_val_t U 0 0
__ZrsR11QDataStreamR6QColor U 0 0
____chkstk_darwin U 0 0
___cxa_allocate_exception U 0 0
___cxa_atexit U 0 0
___cxa_begin_catch U 0 0
___cxa_free_exception U 0 0
___cxa_guard_abort U 0 0
___cxa_guard_acquire U 0 0
___cxa_guard_release U 0 0
___cxa_pure_virtual U 0 0
___cxa_throw U 0 0
___gxx_personality_v0 U 0 0
___stack_chk_fail U 0 0
___stack_chk_guard U 0 0
_memcmp U 0 0
_memcpy U 0 0
_memmove U 0 0
_memset U 0 0
_qt_plugin_instance T 52350 0
_qt_plugin_query_metadata_v2 T 522c0 0
_qt_version_tag_6_11 U 0 0
_strcmp U 0 0
_strlen U 0 0
===
__ZN2Yy8YyPlugin11qt_metacallEN11QMetaObject4CallEiPPv T 52280 0
__ZN2Yy8YyPlugin11qt_metacastEPKc T 52210 0
__ZN2Yy8YyPlugin16staticMetaObjectE S 59bb0 0
__ZN2Yy8YyPlugin5writeEPKN5Tiled3MapERK7QString6QFlagsINS1_10FileFormat6OptionEE T 13270 0
__ZN2Yy8YyPluginC1Ev T 13250 0
__ZN2Yy8YyPluginC2Ev T 131d0 0
__ZNK2Yy8YyPlugin10metaObjectEv T 52190 0
__ZNK2Yy8YyPlugin10nameFilterEv T 166e0 0
__ZNK2Yy8YyPlugin11errorStringEv T 16680 0
__ZNK2Yy8YyPlugin9shortNameEv T 16760 0
__ZTIN2Yy8YyPluginE S 59c98 0
__ZTIN5Tiled10JumpToTileE S 59a00 0
__ZTIN5Tiled12JumpToObjectE S 59b80 0
__ZTINSt3__110__function6__baseIFvvEEE S 59958 0
__ZTINSt3__110__function6__funcIN5Tiled10JumpToTileEFvvEEE S 59940 0
__ZTINSt3__110__function6__funcIN5Tiled12JumpToObjectEFvvEEE S 59b68 0
__ZTINSt3__117bad_function_callE S 599c0 0
__ZTSN2Yy8YyPluginE S 57a76 0
__ZTSN5Tiled10JumpToTileE S 577c6 0
__ZTSN5Tiled12JumpToObjectE S 5798c 0
__ZTSNSt3__110__function6__baseIFvvEEE S 57788 0
__ZTSNSt3__110__function6__funcIN5Tiled10JumpToTileEFvvEEE S 57752 0
__ZTSNSt3__110__function6__funcIN5Tiled12JumpToObjectEFvvEEE S 57954 0
__ZTSNSt3__117bad_function_callE S 577aa 0
__ZTVN2Yy8YyPluginE S 59be8 0
_qt_plugin_instance T 52350 0
_qt_plugin_query_metadata_v2 T 522c0 0
