---
triple:          'x86_64-apple-darwin'
binary-path:     '/Users/dz0400621/Documents/project/tiled/debug/tmxrasterizer.460e5c6c/tmxrasterizer'
relocations:
  - { offset: 0x3F, size: 0x8, addend: 0x0, symName: _qt_version_tag_6_11_use, symObjAddr: 0x7AE0, symBinAddr: 0x100016000, symSize: 0x0 }
  - { offset: 0x6657, size: 0x8, addend: 0x0, symName: __ZN9QtPrivateL19lengthHelperPointerIcEExPKT_, symObjAddr: 0x50B0, symBinAddr: 0x100005B10, symSize: 0x50 }
  - { offset: 0x18215, size: 0x8, addend: 0x0, symName: __ZNSt3__117__cxx_atomic_loadB9nqe210106IiEET_PKNS_22__cxx_atomic_base_implIS1_EENS_12memory_orderE, symObjAddr: 0x5940, symBinAddr: 0x1000063A0, symSize: 0x50 }
  - { offset: 0x18268, size: 0x8, addend: 0x0, symName: __ZNSt3__18exchangeB9nqe210106IP15QTypedArrayDataIDsEDnEET_RS4_OT0_, symObjAddr: 0x53F0, symBinAddr: 0x100005E50, symSize: 0x30 }
  - { offset: 0x182C2, size: 0x8, addend: 0x0, symName: __ZNSt3__18exchangeB9nqe210106IPDsDnEET_RS2_OT0_, symObjAddr: 0x5420, symBinAddr: 0x100005E80, symSize: 0x30 }
  - { offset: 0x1831C, size: 0x8, addend: 0x0, symName: __ZNSt3__18exchangeB9nqe210106IxiEET_RS1_OT0_, symObjAddr: 0x5450, symBinAddr: 0x100005EB0, symSize: 0x30 }
  - { offset: 0x18376, size: 0x8, addend: 0x0, symName: __ZNSt3__122__cxx_atomic_fetch_subB9nqe210106IiEET_PNS_22__cxx_atomic_base_implIS1_EES1_NS_12memory_orderE, symObjAddr: 0x5790, symBinAddr: 0x1000061F0, symSize: 0xC0 }
  - { offset: 0x183C7, size: 0x8, addend: 0x0, symName: __ZNSt3__17destroyB9nqe210106IP18QCommandLineOptionEEvT_S3_, symObjAddr: 0x5870, symBinAddr: 0x1000062D0, symSize: 0x30 }
  - { offset: 0x18406, size: 0x8, addend: 0x0, symName: __ZNSt3__19__destroyB9nqe210106IP18QCommandLineOptionEET_S3_S3_, symObjAddr: 0x5990, symBinAddr: 0x1000063F0, symSize: 0x40 }
  - { offset: 0x18449, size: 0x8, addend: 0x0, symName: __ZNSt3__112__destroy_atB9nqe210106I18QCommandLineOptionLi0EEEvPT_, symObjAddr: 0x59D0, symBinAddr: 0x100006430, symSize: 0x20 }
  - { offset: 0x18480, size: 0x8, addend: 0x0, symName: __ZNSt3__17destroyB9nqe210106IP7QStringEEvT_S3_, symObjAddr: 0x5BB0, symBinAddr: 0x100006610, symSize: 0x30 }
  - { offset: 0x184BF, size: 0x8, addend: 0x0, symName: __ZNSt3__19__destroyB9nqe210106IP7QStringEET_S3_S3_, symObjAddr: 0x5C30, symBinAddr: 0x100006690, symSize: 0x40 }
  - { offset: 0x18502, size: 0x8, addend: 0x0, symName: __ZNSt3__112__destroy_atB9nqe210106I7QStringLi0EEEvPT_, symObjAddr: 0x5C70, symBinAddr: 0x1000066D0, symSize: 0x20 }
  - { offset: 0x18539, size: 0x8, addend: 0x0, symName: __ZNSt3__122__cxx_atomic_fetch_addB9nqe210106IiEET_PNS_22__cxx_atomic_base_implIS1_EES1_NS_12memory_orderE, symObjAddr: 0x5FD0, symBinAddr: 0x100006A30, symSize: 0xB0 }
  - { offset: 0x1858A, size: 0x8, addend: 0x0, symName: __ZNSt3__14swapB9nqe210106IxEENS_9enable_ifIXaasr21is_move_constructibleIT_EE5valuesr18is_move_assignableIS2_EE5valueEvE4typeERS2_S5_, symObjAddr: 0x6100, symBinAddr: 0x100006B60, symSize: 0x40 }
  - { offset: 0x76217, size: 0x8, addend: 0x0, symName: __ZN7QString17toIntegral_helperIiEET_11QStringViewPbi, symObjAddr: 0x6140, symBinAddr: 0x100006BA0, symSize: 0x70 }
  - { offset: 0x762D3, size: 0x8, addend: 0x0, symName: _main, symObjAddr: 0x0, symBinAddr: 0x100000A60, symSize: 0x4820 }
  - { offset: 0x7676B, size: 0x8, addend: 0x0, symName: __ZN13QLatin1StringC1EPKc, symObjAddr: 0x4820, symBinAddr: 0x100005280, symSize: 0x30 }
  - { offset: 0x767A3, size: 0x8, addend: 0x0, symName: __ZN7QStringC1E13QLatin1String, symObjAddr: 0x4850, symBinAddr: 0x1000052B0, symSize: 0x60 }
  - { offset: 0x767DF, size: 0x8, addend: 0x0, symName: __ZN7QStringD1Ev, symObjAddr: 0x48B0, symBinAddr: 0x100005310, symSize: 0x20 }
  - { offset: 0x7680B, size: 0x8, addend: 0x0, symName: __ZN7QStringC1EO17QArrayDataPointerIDsE, symObjAddr: 0x48D0, symBinAddr: 0x100005330, symSize: 0x30 }
  - { offset: 0x76845, size: 0x8, addend: 0x0, symName: __ZN5QListI7QStringEC1ESt16initializer_listIS0_E, symObjAddr: 0x4900, symBinAddr: 0x100005360, symSize: 0x30 }
  - { offset: 0x7687F, size: 0x8, addend: 0x0, symName: __ZN7QStringC1Ev, symObjAddr: 0x4930, symBinAddr: 0x100005390, symSize: 0x20 }
  - { offset: 0x768AB, size: 0x8, addend: 0x0, symName: __ZN5QListI18QCommandLineOptionEC1ESt16initializer_listIS0_E, symObjAddr: 0x4950, symBinAddr: 0x1000053B0, symSize: 0x30 }
  - { offset: 0x768E5, size: 0x8, addend: 0x0, symName: __ZN5QListI18QCommandLineOptionED1Ev, symObjAddr: 0x4980, symBinAddr: 0x1000053E0, symSize: 0x20 }
  - { offset: 0x76911, size: 0x8, addend: 0x0, symName: __ZN17QArrayDataPointerIDsED1Ev, symObjAddr: 0x49A0, symBinAddr: 0x100005400, symSize: 0x20 }
  - { offset: 0x7693B, size: 0x8, addend: 0x0, symName: __ZN5QListI7QStringED1Ev, symObjAddr: 0x49C0, symBinAddr: 0x100005420, symSize: 0x20 }
  - { offset: 0x76967, size: 0x8, addend: 0x0, symName: __ZNK5QListI7QStringE4sizeEv, symObjAddr: 0x49E0, symBinAddr: 0x100005440, symSize: 0x50 }
  - { offset: 0x769C1, size: 0x8, addend: 0x0, symName: __ZL9localFileRK7QString, symObjAddr: 0x4A30, symBinAddr: 0x100005490, symSize: 0xA0 }
  - { offset: 0x769FC, size: 0x8, addend: 0x0, symName: __ZNK5QListI7QStringE2atEx, symObjAddr: 0x4AD0, symBinAddr: 0x100005530, symSize: 0x70 }
  - { offset: 0x76A32, size: 0x8, addend: 0x0, symName: __ZNK7QString7isEmptyEv, symObjAddr: 0x4B40, symBinAddr: 0x1000055A0, symSize: 0x30 }
  - { offset: 0x76E19, size: 0x8, addend: 0x0, symName: __ZN13TmxRasterizer15setAntiAliasingEb, symObjAddr: 0x4B70, symBinAddr: 0x1000055D0, symSize: 0x20 }
  - { offset: 0x76E4D, size: 0x8, addend: 0x0, symName: __ZN13TmxRasterizer15setSmoothImagesEb, symObjAddr: 0x4B90, symBinAddr: 0x1000055F0, symSize: 0x20 }
  - { offset: 0x76E81, size: 0x8, addend: 0x0, symName: __ZN13TmxRasterizer19setIgnoreVisibilityEb, symObjAddr: 0x4BB0, symBinAddr: 0x100005610, symSize: 0x20 }
  - { offset: 0x76EB5, size: 0x8, addend: 0x0, symName: __ZN13TmxRasterizer15setLayersToHideE5QListI7QStringE, symObjAddr: 0x4BD0, symBinAddr: 0x100005630, symSize: 0x30 }
  - { offset: 0x76EEA, size: 0x8, addend: 0x0, symName: __ZN13TmxRasterizer15setLayersToShowE5QListI7QStringE, symObjAddr: 0x4C00, symBinAddr: 0x100005660, symSize: 0x30 }
  - { offset: 0x76F1F, size: 0x8, addend: 0x0, symName: __ZN13TmxRasterizer19setLayerTypeVisibleEN5Tiled5Layer8TypeFlagEb, symObjAddr: 0x4C30, symBinAddr: 0x100005690, symSize: 0x50 }
  - { offset: 0x76F62, size: 0x8, addend: 0x0, symName: __ZN13TmxRasterizer16setObjectsToHideE5QListI7QStringE, symObjAddr: 0x4C80, symBinAddr: 0x1000056E0, symSize: 0x30 }
  - { offset: 0x76F97, size: 0x8, addend: 0x0, symName: __ZN13TmxRasterizer16setObjectsToShowE5QListI7QStringE, symObjAddr: 0x4CB0, symBinAddr: 0x100005710, symSize: 0x30 }
  - { offset: 0x76FCC, size: 0x8, addend: 0x0, symName: __ZN13TmxRasterizer7setSizeEi, symObjAddr: 0x4CE0, symBinAddr: 0x100005740, symSize: 0x20 }
  - { offset: 0x77000, size: 0x8, addend: 0x0, symName: __ZNK7QString5toIntEPbi, symObjAddr: 0x4D00, symBinAddr: 0x100005760, symSize: 0x40 }
  - { offset: 0x77046, size: 0x8, addend: 0x0, symName: __ZNK13TmxRasterizer4sizeEv, symObjAddr: 0x4D40, symBinAddr: 0x1000057A0, symSize: 0x20 }
  - { offset: 0x77589, size: 0x8, addend: 0x0, symName: __ZN14QMessageLoggerC1EPKciS1_, symObjAddr: 0x4D60, symBinAddr: 0x1000057C0, symSize: 0x40 }
  - { offset: 0x775DD, size: 0x8, addend: 0x0, symName: __ZN6QDebug7noquoteEv, symObjAddr: 0x4DA0, symBinAddr: 0x100005800, symSize: 0x20 }
  - { offset: 0x77603, size: 0x8, addend: 0x0, symName: __ZN6QDebuglsERK7QString, symObjAddr: 0x4DC0, symBinAddr: 0x100005820, symSize: 0x50 }
  - { offset: 0x77637, size: 0x8, addend: 0x0, symName: __ZNK7QString3argIS_Lb1EEES_RKT_i5QChar, symObjAddr: 0x4E10, symBinAddr: 0x100005870, symSize: 0x70 }
  - { offset: 0x7769C, size: 0x8, addend: 0x0, symName: __ZN5QCharC1IDsLb1EEET_, symObjAddr: 0x4E80, symBinAddr: 0x1000058E0, symSize: 0x30 }
  - { offset: 0x776E3, size: 0x8, addend: 0x0, symName: __ZN13TmxRasterizer11setTileSizeEi, symObjAddr: 0x4EB0, symBinAddr: 0x100005910, symSize: 0x20 }
  - { offset: 0x77717, size: 0x8, addend: 0x0, symName: __ZNK13TmxRasterizer8tileSizeEv, symObjAddr: 0x4ED0, symBinAddr: 0x100005930, symSize: 0x20 }
  - { offset: 0x7773D, size: 0x8, addend: 0x0, symName: __ZN13TmxRasterizer8setScaleEd, symObjAddr: 0x4EF0, symBinAddr: 0x100005950, symSize: 0x20 }
  - { offset: 0x77771, size: 0x8, addend: 0x0, symName: __ZNK13TmxRasterizer5scaleEv, symObjAddr: 0x4F10, symBinAddr: 0x100005970, symSize: 0x20 }
  - { offset: 0x77797, size: 0x8, addend: 0x0, symName: __ZN13TmxRasterizer20setAdvanceAnimationsEi, symObjAddr: 0x4F30, symBinAddr: 0x100005990, symSize: 0x20 }
  - { offset: 0x777CB, size: 0x8, addend: 0x0, symName: __ZNK13TmxRasterizer17advanceAnimationsEv, symObjAddr: 0x4F50, symBinAddr: 0x1000059B0, symSize: 0x20 }
  - { offset: 0x777F1, size: 0x8, addend: 0x0, symName: __ZN13TmxRasterizer13setFrameCountEi, symObjAddr: 0x4F70, symBinAddr: 0x1000059D0, symSize: 0x20 }
  - { offset: 0x77825, size: 0x8, addend: 0x0, symName: __ZNK13TmxRasterizer10frameCountEv, symObjAddr: 0x4F90, symBinAddr: 0x1000059F0, symSize: 0x20 }
  - { offset: 0x7784B, size: 0x8, addend: 0x0, symName: __ZN13TmxRasterizer16setFrameDurationEi, symObjAddr: 0x4FB0, symBinAddr: 0x100005A10, symSize: 0x20 }
  - { offset: 0x7787F, size: 0x8, addend: 0x0, symName: __ZNK13TmxRasterizer13frameDurationEv, symObjAddr: 0x4FD0, symBinAddr: 0x100005A30, symSize: 0x20 }
  - { offset: 0x778A5, size: 0x8, addend: 0x0, symName: __ZN7QStringC1ERKS_, symObjAddr: 0x4FF0, symBinAddr: 0x100005A50, symSize: 0x30 }
  - { offset: 0x778E1, size: 0x8, addend: 0x0, symName: __ZN13TmxRasterizerD1Ev, symObjAddr: 0x5020, symBinAddr: 0x100005A80, symSize: 0x20 }
  - { offset: 0x7792B, size: 0x8, addend: 0x0, symName: __ZN5Tiled23XmlObjectTemplateFormatD1Ev, symObjAddr: 0x5040, symBinAddr: 0x100005AA0, symSize: 0x20 }
  - { offset: 0x77957, size: 0x8, addend: 0x0, symName: __ZN13QLatin1StringC2EPKc, symObjAddr: 0x5060, symBinAddr: 0x100005AC0, symSize: 0x50 }
  - { offset: 0x7798F, size: 0x8, addend: 0x0, symName: __ZN7QString10fromLatin1EPKcx, symObjAddr: 0x5100, symBinAddr: 0x100005B60, symSize: 0x80 }
  - { offset: 0x779C4, size: 0x8, addend: 0x0, symName: __ZNK13QLatin1String4dataEv, symObjAddr: 0x5180, symBinAddr: 0x100005BE0, symSize: 0x20 }
  - { offset: 0x779EA, size: 0x8, addend: 0x0, symName: __ZNK13QLatin1String4sizeEv, symObjAddr: 0x51A0, symBinAddr: 0x100005C00, symSize: 0x20 }
  - { offset: 0x77A10, size: 0x8, addend: 0x0, symName: __ZN7QStringC1EOS_, symObjAddr: 0x51C0, symBinAddr: 0x100005C20, symSize: 0x30 }
  - { offset: 0x77A49, size: 0x8, addend: 0x0, symName: __Z7qstrlenPKc, symObjAddr: 0x51F0, symBinAddr: 0x100005C50, symSize: 0x40 }
  - { offset: 0x77A76, size: 0x8, addend: 0x0, symName: __ZN14QByteArrayViewC1IcLb1EEEPKT_x, symObjAddr: 0x5230, symBinAddr: 0x100005C90, symSize: 0x30 }
  - { offset: 0x77ACB, size: 0x8, addend: 0x0, symName: __ZN14QByteArrayViewC2IcLb1EEEPKT_x, symObjAddr: 0x5260, symBinAddr: 0x100005CC0, symSize: 0x90 }
  - { offset: 0x77B20, size: 0x8, addend: 0x0, symName: __ZN14QByteArrayView10castHelperEPKc, symObjAddr: 0x52F0, symBinAddr: 0x100005D50, symSize: 0x10 }
  - { offset: 0x77B43, size: 0x8, addend: 0x0, symName: __ZN7QStringC2EOS_, symObjAddr: 0x5300, symBinAddr: 0x100005D60, symSize: 0x30 }
  - { offset: 0x77B7D, size: 0x8, addend: 0x0, symName: __ZN17QArrayDataPointerIDsEC1EOS0_, symObjAddr: 0x5330, symBinAddr: 0x100005D90, symSize: 0x30 }
  - { offset: 0x77BB5, size: 0x8, addend: 0x0, symName: __ZN17QArrayDataPointerIDsEC2EOS0_, symObjAddr: 0x5360, symBinAddr: 0x100005DC0, symSize: 0x90 }
  - { offset: 0x77BED, size: 0x8, addend: 0x0, symName: __ZN7QStringD2Ev, symObjAddr: 0x5480, symBinAddr: 0x100005EE0, symSize: 0x20 }
  - { offset: 0x77C19, size: 0x8, addend: 0x0, symName: __ZN7QStringC2EO17QArrayDataPointerIDsE, symObjAddr: 0x54A0, symBinAddr: 0x100005F00, symSize: 0x30 }
  - { offset: 0x77C53, size: 0x8, addend: 0x0, symName: __ZN7QStringC2Ev, symObjAddr: 0x54D0, symBinAddr: 0x100005F30, symSize: 0x20 }
  - { offset: 0x77C7F, size: 0x8, addend: 0x0, symName: __ZN17QArrayDataPointerIDsEC1Ev, symObjAddr: 0x54F0, symBinAddr: 0x100005F50, symSize: 0x20 }
  - { offset: 0x77CA9, size: 0x8, addend: 0x0, symName: __ZN17QArrayDataPointerIDsEC2Ev, symObjAddr: 0x5510, symBinAddr: 0x100005F70, symSize: 0x30 }
  - { offset: 0x77CD3, size: 0x8, addend: 0x0, symName: __ZN5QListI18QCommandLineOptionED2Ev, symObjAddr: 0x5540, symBinAddr: 0x100005FA0, symSize: 0x20 }
  - { offset: 0x77CFF, size: 0x8, addend: 0x0, symName: __ZN17QArrayDataPointerI18QCommandLineOptionED1Ev, symObjAddr: 0x5560, symBinAddr: 0x100005FC0, symSize: 0x20 }
  - { offset: 0x77D29, size: 0x8, addend: 0x0, symName: __ZN17QArrayDataPointerI18QCommandLineOptionED2Ev, symObjAddr: 0x5580, symBinAddr: 0x100005FE0, symSize: 0x50 }
  - { offset: 0x77D53, size: 0x8, addend: 0x0, symName: __ZN17QArrayDataPointerI18QCommandLineOptionE5derefEv, symObjAddr: 0x55D0, symBinAddr: 0x100006030, symSize: 0x40 }
  - { offset: 0x77D79, size: 0x8, addend: 0x0, symName: __ZN17QArrayDataPointerI18QCommandLineOptionEptEv, symObjAddr: 0x5610, symBinAddr: 0x100006070, symSize: 0x10 }
  - { offset: 0x77D9F, size: 0x8, addend: 0x0, symName: __ZN9QtPrivate16QGenericArrayOpsI18QCommandLineOptionE10destroyAllEv, symObjAddr: 0x5620, symBinAddr: 0x100006080, symSize: 0x90 }
  - { offset: 0x77DC5, size: 0x8, addend: 0x0, symName: __ZN15QTypedArrayDataI18QCommandLineOptionE10deallocateEP10QArrayData, symObjAddr: 0x56C0, symBinAddr: 0x100006120, symSize: 0x30 }
  - { offset: 0x77DE8, size: 0x8, addend: 0x0, symName: __ZN10QArrayData5derefEv, symObjAddr: 0x56F0, symBinAddr: 0x100006150, symSize: 0x20 }
  - { offset: 0x77E0E, size: 0x8, addend: 0x0, symName: __ZN19QBasicAtomicIntegerIiE5derefEv, symObjAddr: 0x5710, symBinAddr: 0x100006170, symSize: 0x20 }
  - { offset: 0x77E34, size: 0x8, addend: 0x0, symName: __ZN10QAtomicOpsIiE5derefIiEEbRNSt3__16atomicIT_EE, symObjAddr: 0x5730, symBinAddr: 0x100006190, symSize: 0x30 }
  - { offset: 0x77E62, size: 0x8, addend: 0x0, symName: __ZNSt3__113__atomic_baseIiLb1EE9fetch_subB9nqe210106EiNS_12memory_orderE, symObjAddr: 0x5760, symBinAddr: 0x1000061C0, symSize: 0x30 }
  - { offset: 0x77EA4, size: 0x8, addend: 0x0, symName: __ZNK19QBasicAtomicIntegerIiE11loadRelaxedEv, symObjAddr: 0x5850, symBinAddr: 0x1000062B0, symSize: 0x20 }
  - { offset: 0x77ECA, size: 0x8, addend: 0x0, symName: __ZN17QArrayDataPointerI18QCommandLineOptionE5beginEv, symObjAddr: 0x58A0, symBinAddr: 0x100006300, symSize: 0x20 }
  - { offset: 0x77EF0, size: 0x8, addend: 0x0, symName: __ZN17QArrayDataPointerI18QCommandLineOptionE3endEv, symObjAddr: 0x58C0, symBinAddr: 0x100006320, symSize: 0x30 }
  - { offset: 0x77F16, size: 0x8, addend: 0x0, symName: __ZN10QAtomicOpsIiE11loadRelaxedIiEET_RKNSt3__16atomicIS2_EE, symObjAddr: 0x58F0, symBinAddr: 0x100006350, symSize: 0x20 }
  - { offset: 0x77F42, size: 0x8, addend: 0x0, symName: __ZNKSt3__113__atomic_baseIiLb0EE4loadB9nqe210106ENS_12memory_orderE, symObjAddr: 0x5910, symBinAddr: 0x100006370, symSize: 0x30 }
  - { offset: 0x77F76, size: 0x8, addend: 0x0, symName: __ZN17QArrayDataPointerI18QCommandLineOptionE4dataEv, symObjAddr: 0x59F0, symBinAddr: 0x100006450, symSize: 0x20 }
  - { offset: 0x77F9C, size: 0x8, addend: 0x0, symName: __ZN5QListI7QStringED2Ev, symObjAddr: 0x5A10, symBinAddr: 0x100006470, symSize: 0x20 }
  - { offset: 0x77FC8, size: 0x8, addend: 0x0, symName: __ZN17QArrayDataPointerI7QStringED1Ev, symObjAddr: 0x5A30, symBinAddr: 0x100006490, symSize: 0x20 }
  - { offset: 0x77FF2, size: 0x8, addend: 0x0, symName: __ZN17QArrayDataPointerI7QStringED2Ev, symObjAddr: 0x5A50, symBinAddr: 0x1000064B0, symSize: 0x50 }
  - { offset: 0x7801C, size: 0x8, addend: 0x0, symName: __ZN17QArrayDataPointerI7QStringE5derefEv, symObjAddr: 0x5AA0, symBinAddr: 0x100006500, symSize: 0x40 }
  - { offset: 0x78042, size: 0x8, addend: 0x0, symName: __ZN17QArrayDataPointerI7QStringEptEv, symObjAddr: 0x5AE0, symBinAddr: 0x100006540, symSize: 0x10 }
  - { offset: 0x78068, size: 0x8, addend: 0x0, symName: __ZN9QtPrivate16QGenericArrayOpsI7QStringE10destroyAllEv, symObjAddr: 0x5AF0, symBinAddr: 0x100006550, symSize: 0x90 }
  - { offset: 0x7808E, size: 0x8, addend: 0x0, symName: __ZN15QTypedArrayDataI7QStringE10deallocateEP10QArrayData, symObjAddr: 0x5B80, symBinAddr: 0x1000065E0, symSize: 0x30 }
  - { offset: 0x780B1, size: 0x8, addend: 0x0, symName: __ZN17QArrayDataPointerI7QStringE5beginEv, symObjAddr: 0x5BE0, symBinAddr: 0x100006640, symSize: 0x20 }
  - { offset: 0x780D7, size: 0x8, addend: 0x0, symName: __ZN17QArrayDataPointerI7QStringE3endEv, symObjAddr: 0x5C00, symBinAddr: 0x100006660, symSize: 0x30 }
  - { offset: 0x780FD, size: 0x8, addend: 0x0, symName: __ZN17QArrayDataPointerI7QStringE4dataEv, symObjAddr: 0x5C90, symBinAddr: 0x1000066F0, symSize: 0x20 }
  - { offset: 0x78132, size: 0x8, addend: 0x0, symName: __ZZNK5QListI7QStringE4sizeEvENKUlvE_clEv, symObjAddr: 0x5CB0, symBinAddr: 0x100006710, symSize: 0x50 }
  - { offset: 0x7815C, size: 0x8, addend: 0x0, symName: __ZNK7QString4sizeEv, symObjAddr: 0x5D00, symBinAddr: 0x100006760, symSize: 0x50 }
  - { offset: 0x781C1, size: 0x8, addend: 0x0, symName: __ZZNK7QString4sizeEvENKUlvE_clEv, symObjAddr: 0x5D50, symBinAddr: 0x1000067B0, symSize: 0x50 }
  - { offset: 0x781EB, size: 0x8, addend: 0x0, symName: __ZN5QListI7QStringEaSERKS1_, symObjAddr: 0x5DA0, symBinAddr: 0x100006800, symSize: 0x30 }
  - { offset: 0x7821C, size: 0x8, addend: 0x0, symName: __ZN17QArrayDataPointerI7QStringEaSERKS1_, symObjAddr: 0x5DD0, symBinAddr: 0x100006830, symSize: 0x50 }
  - { offset: 0x7825E, size: 0x8, addend: 0x0, symName: __ZN17QArrayDataPointerI7QStringEC1ERKS1_, symObjAddr: 0x5E20, symBinAddr: 0x100006880, symSize: 0x30 }
  - { offset: 0x78296, size: 0x8, addend: 0x0, symName: __ZN17QArrayDataPointerI7QStringE4swapERS1_, symObjAddr: 0x5E50, symBinAddr: 0x1000068B0, symSize: 0x60 }
  - { offset: 0x782CA, size: 0x8, addend: 0x0, symName: __ZN17QArrayDataPointerI7QStringEC2ERKS1_, symObjAddr: 0x5EB0, symBinAddr: 0x100006910, symSize: 0x50 }
  - { offset: 0x78302, size: 0x8, addend: 0x0, symName: __ZN17QArrayDataPointerI7QStringE3refEv, symObjAddr: 0x5F00, symBinAddr: 0x100006960, symSize: 0x30 }
  - { offset: 0x78328, size: 0x8, addend: 0x0, symName: __ZN10QArrayData3refEv, symObjAddr: 0x5F30, symBinAddr: 0x100006990, symSize: 0x20 }
  - { offset: 0x7834E, size: 0x8, addend: 0x0, symName: __ZN19QBasicAtomicIntegerIiE10refRelaxedEv, symObjAddr: 0x5F50, symBinAddr: 0x1000069B0, symSize: 0x20 }
  - { offset: 0x7839E, size: 0x8, addend: 0x0, symName: __ZN10QAtomicOpsIiE18fetchAndAddRelaxedIiEET_RNSt3__16atomicIS2_EEN19QAtomicAdditiveTypeIS2_E9AdditiveTE, symObjAddr: 0x5F70, symBinAddr: 0x1000069D0, symSize: 0x30 }
  - { offset: 0x783DC, size: 0x8, addend: 0x0, symName: __ZNSt3__113__atomic_baseIiLb1EE9fetch_addB9nqe210106EiNS_12memory_orderE, symObjAddr: 0x5FA0, symBinAddr: 0x100006A00, symSize: 0x30 }
  - { offset: 0x7841D, size: 0x8, addend: 0x0, symName: __Z11qt_ptr_swapI15QTypedArrayDataI7QStringEEvRPT_S5_, symObjAddr: 0x6080, symBinAddr: 0x100006AE0, symSize: 0x40 }
  - { offset: 0x7846A, size: 0x8, addend: 0x0, symName: __Z11qt_ptr_swapI7QStringEvRPT_S3_, symObjAddr: 0x60C0, symBinAddr: 0x100006B20, symSize: 0x40 }
  - { offset: 0x784B8, size: 0x8, addend: 0x0, symName: __ZN11QStringViewC1I7QStringLb1EEERKT_, symObjAddr: 0x61B0, symBinAddr: 0x100006C10, symSize: 0x50 }
  - { offset: 0x784FF, size: 0x8, addend: 0x0, symName: __ZNK7QString5beginEv, symObjAddr: 0x6200, symBinAddr: 0x100006C60, symSize: 0x20 }
  - { offset: 0x78527, size: 0x8, addend: 0x0, symName: __ZN11QStringViewC1I5QCharLb1EEEPKT_x, symObjAddr: 0x6220, symBinAddr: 0x100006C80, symSize: 0x30 }
  - { offset: 0x7857C, size: 0x8, addend: 0x0, symName: __ZNK17QArrayDataPointerIDsE4dataEv, symObjAddr: 0x6250, symBinAddr: 0x100006CB0, symSize: 0x20 }
  - { offset: 0x785A2, size: 0x8, addend: 0x0, symName: __ZN11QStringViewC2I5QCharLb1EEEPKT_x, symObjAddr: 0x6270, symBinAddr: 0x100006CD0, symSize: 0x90 }
  - { offset: 0x785F7, size: 0x8, addend: 0x0, symName: __ZN11QStringView10castHelperI5QCharEEPKDsPKT_, symObjAddr: 0x6300, symBinAddr: 0x100006D60, symSize: 0x10 }
  - { offset: 0x78623, size: 0x8, addend: 0x0, symName: __ZN14QMessageLoggerC2EPKciS1_, symObjAddr: 0x6310, symBinAddr: 0x100006D70, symSize: 0x40 }
  - { offset: 0x78677, size: 0x8, addend: 0x0, symName: __ZN18QMessageLogContextC1EPKciS1_S1_, symObjAddr: 0x6350, symBinAddr: 0x100006DB0, symSize: 0x40 }
  - { offset: 0x786D9, size: 0x8, addend: 0x0, symName: __ZN18QMessageLogContextC2EPKciS1_S1_, symObjAddr: 0x6390, symBinAddr: 0x100006DF0, symSize: 0x50 }
  - { offset: 0x7873B, size: 0x8, addend: 0x0, symName: __ZNK7QString9constDataEv, symObjAddr: 0x63E0, symBinAddr: 0x100006E40, symSize: 0x20 }
  - { offset: 0x78763, size: 0x8, addend: 0x0, symName: __ZN6QDebug10maybeSpaceEv, symObjAddr: 0x6400, symBinAddr: 0x100006E60, symSize: 0x40 }
  - { offset: 0x78789, size: 0x8, addend: 0x0, symName: __ZNK7QString4dataEv, symObjAddr: 0x6440, symBinAddr: 0x100006EA0, symSize: 0x50 }
  - { offset: 0x787B1, size: 0x8, addend: 0x0, symName: __ZN5QCharC2IDsLb1EEET_, symObjAddr: 0x6490, symBinAddr: 0x100006EF0, symSize: 0x20 }
  - { offset: 0x787F8, size: 0x8, addend: 0x0, symName: __ZN7QStringC2ERKS_, symObjAddr: 0x64B0, symBinAddr: 0x100006F10, symSize: 0x30 }
  - { offset: 0x78834, size: 0x8, addend: 0x0, symName: __ZN17QArrayDataPointerIDsEC1ERKS0_, symObjAddr: 0x64E0, symBinAddr: 0x100006F40, symSize: 0x30 }
  - { offset: 0x7886C, size: 0x8, addend: 0x0, symName: __ZN17QArrayDataPointerIDsEC2ERKS0_, symObjAddr: 0x6510, symBinAddr: 0x100006F70, symSize: 0x50 }
  - { offset: 0x788A4, size: 0x8, addend: 0x0, symName: __ZN17QArrayDataPointerIDsE3refEv, symObjAddr: 0x6560, symBinAddr: 0x100006FC0, symSize: 0x30 }
  - { offset: 0x788CA, size: 0x8, addend: 0x0, symName: __ZN13TmxRasterizerD2Ev, symObjAddr: 0x6590, symBinAddr: 0x100006FF0, symSize: 0x50 }
  - { offset: 0x788F6, size: 0x8, addend: 0x0, symName: __ZN5Tiled23XmlObjectTemplateFormatD2Ev, symObjAddr: 0x65E0, symBinAddr: 0x100007040, symSize: 0x40 }
  - { offset: 0x78922, size: 0x8, addend: 0x0, symName: __ZN5Tiled20ObjectTemplateFormatD2Ev, symObjAddr: 0x6620, symBinAddr: 0x100007080, symSize: 0x20 }
  - { offset: 0x7894E, size: 0x8, addend: 0x0, symName: __ZN5Tiled10FileFormatD2Ev, symObjAddr: 0x6640, symBinAddr: 0x1000070A0, symSize: 0x20 }
  - { offset: 0x7897A, size: 0x8, addend: 0x0, symName: __ZN17QArrayDataPointerIDsED2Ev, symObjAddr: 0x6660, symBinAddr: 0x1000070C0, symSize: 0x40 }
  - { offset: 0x789A4, size: 0x8, addend: 0x0, symName: __ZN17QArrayDataPointerIDsE5derefEv, symObjAddr: 0x66A0, symBinAddr: 0x100007100, symSize: 0x40 }
  - { offset: 0x789CA, size: 0x8, addend: 0x0, symName: __ZN17QArrayDataPointerIDsEptEv, symObjAddr: 0x66E0, symBinAddr: 0x100007140, symSize: 0x10 }
  - { offset: 0x789F0, size: 0x8, addend: 0x0, symName: __ZN9QtPrivate12QPodArrayOpsIDsE10destroyAllEv, symObjAddr: 0x66F0, symBinAddr: 0x100007150, symSize: 0x70 }
  - { offset: 0x78A16, size: 0x8, addend: 0x0, symName: __ZN15QTypedArrayDataIDsE10deallocateEP10QArrayData, symObjAddr: 0x6760, symBinAddr: 0x1000071C0, symSize: 0x30 }
  - { offset: 0x78A39, size: 0x8, addend: 0x0, symName: __ZN17QArrayDataPointerIDsEC1EP15QTypedArrayDataIDsEPDsx, symObjAddr: 0x6790, symBinAddr: 0x1000071F0, symSize: 0x40 }
  - { offset: 0x78A8D, size: 0x8, addend: 0x0, symName: __ZN17QArrayDataPointerIDsEC2EP15QTypedArrayDataIDsEPDsx, symObjAddr: 0x67D0, symBinAddr: 0x100007230, symSize: 0x40 }
  - { offset: 0x78AE1, size: 0x8, addend: 0x0, symName: __ZN5QListI7QStringEC2ESt16initializer_listIS0_E, symObjAddr: 0x6810, symBinAddr: 0x100007270, symSize: 0xD0 }
  - { offset: 0x78B1B, size: 0x8, addend: 0x0, symName: __ZNKSt16initializer_listI7QStringE4sizeB9nqe210106Ev, symObjAddr: 0x68E0, symBinAddr: 0x100007340, symSize: 0x20 }
  - { offset: 0x78B41, size: 0x8, addend: 0x0, symName: __ZN17QArrayDataPointerI7QStringEC1ExxN10QArrayData16AllocationOptionE, symObjAddr: 0x6900, symBinAddr: 0x100007360, symSize: 0x50 }
  - { offset: 0x78B95, size: 0x8, addend: 0x0, symName: __ZN9QtPrivate16QGenericArrayOpsI7QStringE10copyAppendEPKS1_S4_, symObjAddr: 0x6950, symBinAddr: 0x1000073B0, symSize: 0x150 }
  - { offset: 0x78BEB, size: 0x8, addend: 0x0, symName: __ZNKSt16initializer_listI7QStringE5beginB9nqe210106Ev, symObjAddr: 0x6AA0, symBinAddr: 0x100007500, symSize: 0x20 }
  - { offset: 0x78C11, size: 0x8, addend: 0x0, symName: __ZNKSt16initializer_listI7QStringE3endB9nqe210106Ev, symObjAddr: 0x6AC0, symBinAddr: 0x100007520, symSize: 0x20 }
  - { offset: 0x78C37, size: 0x8, addend: 0x0, symName: __ZN15QTypedArrayDataI7QStringE8allocateExN10QArrayData16AllocationOptionE, symObjAddr: 0x6AE0, symBinAddr: 0x100007540, symSize: 0x60 }
  - { offset: 0x78C84, size: 0x8, addend: 0x0, symName: __ZN17QArrayDataPointerI7QStringEC1ENSt3__14pairIP15QTypedArrayDataIS0_EPS0_EEx, symObjAddr: 0x6B40, symBinAddr: 0x1000075A0, symSize: 0x40 }
  - { offset: 0x78CD4, size: 0x8, addend: 0x0, symName: __ZNSt3__14pairIP15QTypedArrayDataI7QStringEPS2_EC1B9nqe210106IS4_S5_Li0EEEOT_OT0_, symObjAddr: 0x6B80, symBinAddr: 0x1000075E0, symSize: 0x30 }
  - { offset: 0x78D32, size: 0x8, addend: 0x0, symName: __ZNSt3__14pairIP15QTypedArrayDataI7QStringEPS2_EC2B9nqe210106IS4_S5_Li0EEEOT_OT0_, symObjAddr: 0x6BB0, symBinAddr: 0x100007610, symSize: 0x30 }
  - { offset: 0x78D90, size: 0x8, addend: 0x0, symName: __ZN17QArrayDataPointerI7QStringEC2ENSt3__14pairIP15QTypedArrayDataIS0_EPS0_EEx, symObjAddr: 0x6BE0, symBinAddr: 0x100007640, symSize: 0x40 }
  - { offset: 0x78DD6, size: 0x8, addend: 0x0, symName: __ZNK17QArrayDataPointerI7QStringE9isMutableEv, symObjAddr: 0x6C20, symBinAddr: 0x100007680, symSize: 0x20 }
  - { offset: 0x78DFC, size: 0x8, addend: 0x0, symName: __ZNK17QArrayDataPointerI7QStringE8isSharedEv, symObjAddr: 0x6C40, symBinAddr: 0x1000076A0, symSize: 0x40 }
  - { offset: 0x78E22, size: 0x8, addend: 0x0, symName: __ZNK17QArrayDataPointerI7QStringE14freeSpaceAtEndEv, symObjAddr: 0x6C80, symBinAddr: 0x1000076E0, symSize: 0x60 }
  - { offset: 0x78E48, size: 0x8, addend: 0x0, symName: __ZNK10QArrayData8isSharedEv, symObjAddr: 0x6CE0, symBinAddr: 0x100007740, symSize: 0x30 }
  - { offset: 0x78E6E, size: 0x8, addend: 0x0, symName: __ZNK10QArrayData22constAllocatedCapacityEv, symObjAddr: 0x6D10, symBinAddr: 0x100007770, symSize: 0x20 }
  - { offset: 0x78E94, size: 0x8, addend: 0x0, symName: __ZNK17QArrayDataPointerI7QStringE16freeSpaceAtBeginEv, symObjAddr: 0x6D30, symBinAddr: 0x100007790, symSize: 0x60 }
  - { offset: 0x78EBA, size: 0x8, addend: 0x0, symName: __ZN15QTypedArrayDataI7QStringE9dataStartEP10QArrayDatax, symObjAddr: 0x6D90, symBinAddr: 0x1000077F0, symSize: 0x80 }
  - { offset: 0x78EF9, size: 0x8, addend: 0x0, symName: __ZN5QListI18QCommandLineOptionEC2ESt16initializer_listIS0_E, symObjAddr: 0x6E10, symBinAddr: 0x100007870, symSize: 0xD0 }
  - { offset: 0x78F33, size: 0x8, addend: 0x0, symName: __ZNKSt16initializer_listI18QCommandLineOptionE4sizeB9nqe210106Ev, symObjAddr: 0x6EE0, symBinAddr: 0x100007940, symSize: 0x20 }
  - { offset: 0x78F59, size: 0x8, addend: 0x0, symName: __ZN17QArrayDataPointerI18QCommandLineOptionEC1ExxN10QArrayData16AllocationOptionE, symObjAddr: 0x6F00, symBinAddr: 0x100007960, symSize: 0x50 }
  - { offset: 0x78FAD, size: 0x8, addend: 0x0, symName: __ZN9QtPrivate16QGenericArrayOpsI18QCommandLineOptionE10copyAppendEPKS1_S4_, symObjAddr: 0x6F50, symBinAddr: 0x1000079B0, symSize: 0x150 }
  - { offset: 0x79003, size: 0x8, addend: 0x0, symName: __ZNKSt16initializer_listI18QCommandLineOptionE5beginB9nqe210106Ev, symObjAddr: 0x70A0, symBinAddr: 0x100007B00, symSize: 0x20 }
  - { offset: 0x79029, size: 0x8, addend: 0x0, symName: __ZNKSt16initializer_listI18QCommandLineOptionE3endB9nqe210106Ev, symObjAddr: 0x70C0, symBinAddr: 0x100007B20, symSize: 0x20 }
  - { offset: 0x7904F, size: 0x8, addend: 0x0, symName: __ZN15QTypedArrayDataI18QCommandLineOptionE8allocateExN10QArrayData16AllocationOptionE, symObjAddr: 0x70E0, symBinAddr: 0x100007B40, symSize: 0x60 }
  - { offset: 0x7909C, size: 0x8, addend: 0x0, symName: __ZN17QArrayDataPointerI18QCommandLineOptionEC1ENSt3__14pairIP15QTypedArrayDataIS0_EPS0_EEx, symObjAddr: 0x7140, symBinAddr: 0x100007BA0, symSize: 0x40 }
  - { offset: 0x790EC, size: 0x8, addend: 0x0, symName: __ZNSt3__14pairIP15QTypedArrayDataI18QCommandLineOptionEPS2_EC1B9nqe210106IS4_S5_Li0EEEOT_OT0_, symObjAddr: 0x7180, symBinAddr: 0x100007BE0, symSize: 0x30 }
  - { offset: 0x7914A, size: 0x8, addend: 0x0, symName: __ZNSt3__14pairIP15QTypedArrayDataI18QCommandLineOptionEPS2_EC2B9nqe210106IS4_S5_Li0EEEOT_OT0_, symObjAddr: 0x71B0, symBinAddr: 0x100007C10, symSize: 0x30 }
  - { offset: 0x791A8, size: 0x8, addend: 0x0, symName: __ZN17QArrayDataPointerI18QCommandLineOptionEC2ENSt3__14pairIP15QTypedArrayDataIS0_EPS0_EEx, symObjAddr: 0x71E0, symBinAddr: 0x100007C40, symSize: 0x40 }
  - { offset: 0x791EE, size: 0x8, addend: 0x0, symName: __ZNK17QArrayDataPointerI18QCommandLineOptionE9isMutableEv, symObjAddr: 0x7220, symBinAddr: 0x100007C80, symSize: 0x20 }
  - { offset: 0x79214, size: 0x8, addend: 0x0, symName: __ZNK17QArrayDataPointerI18QCommandLineOptionE8isSharedEv, symObjAddr: 0x7240, symBinAddr: 0x100007CA0, symSize: 0x40 }
  - { offset: 0x7923A, size: 0x8, addend: 0x0, symName: __ZNK17QArrayDataPointerI18QCommandLineOptionE14freeSpaceAtEndEv, symObjAddr: 0x7280, symBinAddr: 0x100007CE0, symSize: 0x60 }
  - { offset: 0x79260, size: 0x8, addend: 0x0, symName: __ZNK17QArrayDataPointerI18QCommandLineOptionE16freeSpaceAtBeginEv, symObjAddr: 0x72E0, symBinAddr: 0x100007D40, symSize: 0x60 }
  - { offset: 0x79286, size: 0x8, addend: 0x0, symName: __ZN15QTypedArrayDataI18QCommandLineOptionE9dataStartEP10QArrayDatax, symObjAddr: 0x7340, symBinAddr: 0x100007DA0, symSize: 0x80 }
  - { offset: 0x792C5, size: 0x8, addend: 0x0, symName: __ZNK17QArrayDataPointerI7QStringEptEv, symObjAddr: 0x73C0, symBinAddr: 0x100007E20, symSize: 0x10 }
  - { offset: 0x792EB, size: 0x8, addend: 0x0, symName: __ZNK5QListI7QStringE4dataEv, symObjAddr: 0x73D0, symBinAddr: 0x100007E30, symSize: 0x30 }
  - { offset: 0x79311, size: 0x8, addend: 0x0, symName: __ZNK17QArrayDataPointerI7QStringE4dataEv, symObjAddr: 0x7400, symBinAddr: 0x100007E60, symSize: 0x20 }
  - { offset: 0x79337, size: 0x8, addend: 0x0, symName: __ZN14QAnyStringViewC1ERK7QString, symObjAddr: 0x7420, symBinAddr: 0x100007E80, symSize: 0x50 }
  - { offset: 0x79374, size: 0x8, addend: 0x0, symName: __ZN14QAnyStringViewC1I5QCharLb1EEEPKT_x, symObjAddr: 0x7470, symBinAddr: 0x100007ED0, symSize: 0x30 }
  - { offset: 0x793C9, size: 0x8, addend: 0x0, symName: __ZN14QAnyStringViewC2I5QCharLb1EEEPKT_x, symObjAddr: 0x74A0, symBinAddr: 0x100007F00, symSize: 0x50 }
  - { offset: 0x7941E, size: 0x8, addend: 0x0, symName: __ZN14QAnyStringView10encodeTypeI5QCharEEmPKT_x, symObjAddr: 0x74F0, symBinAddr: 0x100007F50, symSize: 0xD0 }
  - { offset: 0x79458, size: 0x8, addend: 0x0, symName: __ZN14QAnyStringView29isAsciiOnlyCharsAtCompileTimeIK5QCharEEbPT_x, symObjAddr: 0x75C0, symBinAddr: 0x100008020, symSize: 0x12 }
  - { offset: 0x7C99F, size: 0x8, addend: 0x0, symName: __ZN9QtPrivate16QCheckedIntegersplIiLb1EEENS0_11QCheckedIntIiNS0_13SafeCheckImplIiEENS0_18AssertReportPolicyEEES6_T_, symObjAddr: 0x4800, symBinAddr: 0x10000BAF0, symSize: 0x40 }
  - { offset: 0x7C9E8, size: 0x8, addend: 0x0, symName: __ZN9QtPrivate16QCheckedIntegersmiENS0_11QCheckedIntIiNS0_13SafeCheckImplIiEENS0_18AssertReportPolicyEEES5_, symObjAddr: 0x4840, symBinAddr: 0x10000BB30, symSize: 0x60 }
  - { offset: 0x7CA3E, size: 0x8, addend: 0x0, symName: __ZN9QtPrivate16QCheckedIntegersplENS0_11QCheckedIntIiNS0_13SafeCheckImplIiEENS0_18AssertReportPolicyEEES5_, symObjAddr: 0x48A0, symBinAddr: 0x10000BB90, symSize: 0x60 }
  - { offset: 0x7DA28, size: 0x8, addend: 0x0, symName: __ZN9QtPrivate8asStringERK7QString, symObjAddr: 0x15F0, symBinAddr: 0x1000095A0, symSize: 0x10 }
  - { offset: 0x7DB19, size: 0x8, addend: 0x0, symName: __ZN9QtPrivate8asStringEO7QString, symObjAddr: 0x2EA0, symBinAddr: 0x10000ADD0, symSize: 0x10 }
  - { offset: 0x7DCFC, size: 0x8, addend: 0x0, symName: __ZN9QtPrivateL19lengthHelperPointerIcEExPKT_, symObjAddr: 0x3D60, symBinAddr: 0x10000B6C0, symSize: 0x50 }
  - { offset: 0x7DD40, size: 0x8, addend: 0x0, symName: __ZN9QtPrivate16qStringLikeToArgE14QAnyStringView, symObjAddr: 0xA7E0, symBinAddr: 0x100011A70, symSize: 0x40 }
  - { offset: 0x7DD6F, size: 0x8, addend: 0x0, symName: __ZN9QtPrivate21lengthHelperContainerI11QStringViewEExRKT_, symObjAddr: 0xA890, symBinAddr: 0x100011AD0, symSize: 0x20 }
  - { offset: 0x7DE15, size: 0x8, addend: 0x0, symName: __ZNSt3__18in_placeE, symObjAddr: 0xB7B3, symBinAddr: 0x100013F90, symSize: 0x0 }
  - { offset: 0x88438, size: 0x8, addend: 0x0, symName: '__ZNSt3__118__stable_sort_implB9nqe210106INS_17_ClassicAlgPolicyEN5QListIPN5Tiled9MapObjectEE8iteratorEZNK13TmxRasterizer13drawMapLayersERKNS3_11MapRendererER8QPainter6QPointE3$_0EEvT0_SG_RT1_', symObjAddr: 0x6170, symBinAddr: 0x10000D410, symSize: 0x140 }
  - { offset: 0x884DB, size: 0x8, addend: 0x0, symName: __ZNSt3__134__allocate_unique_temporary_bufferB9nqe210106IPN5Tiled9MapObjectEEENS_10unique_ptrIT_NS_26__temporary_buffer_deleterIS5_EEEEl, symObjAddr: 0x6320, symBinAddr: 0x10000D5C0, symSize: 0xC0 }
  - { offset: 0x88594, size: 0x8, addend: 0x0, symName: '__ZNSt3__113__stable_sortINS_17_ClassicAlgPolicyERZNK13TmxRasterizer13drawMapLayersERKN5Tiled11MapRendererER8QPainter6QPointE3$_0N5QListIPNS3_9MapObjectEE8iteratorEEEvT1_SH_T0_NS_15iterator_traitsISH_E15difference_typeEPNSK_10value_typeEl', symObjAddr: 0x6490, symBinAddr: 0x10000D730, symSize: 0x310 }
  - { offset: 0x8869D, size: 0x8, addend: 0x0, symName: '__ZNSt3__124__buffered_inplace_mergeB9nqe210106INS_17_ClassicAlgPolicyERZNK13TmxRasterizer13drawMapLayersERKN5Tiled11MapRendererER8QPainter6QPointE3$_0N5QListIPNS3_9MapObjectEE8iteratorEEEvT1_SH_SH_OT0_NS_15iterator_traitsISH_E15difference_typeESM_PNSL_10value_typeE', symObjAddr: 0x7E60, symBinAddr: 0x10000F100, symSize: 0x2D0 }
  - { offset: 0x88A84, size: 0x8, addend: 0x0, symName: __ZNSt3__17advanceB9nqe210106IN5QListIPN5Tiled9MapObjectEE8iteratorExxLi0EEEvRT_T0_, symObjAddr: 0x9640, symBinAddr: 0x1000108E0, symSize: 0x30 }
  - { offset: 0x88AFF, size: 0x8, addend: 0x0, symName: '__ZNSt3__111stable_sortB9nqe210106IN5QListIPN5Tiled9MapObjectEE8iteratorEZNK13TmxRasterizer13drawMapLayersERKNS2_11MapRendererER8QPainter6QPointE3$_0EEvT_SF_T0_', symObjAddr: 0x9A0, symBinAddr: 0x1000089E0, symSize: 0x40 }
  - { offset: 0x88D9C, size: 0x8, addend: 0x0, symName: __ZNSt3__17destroyB9nqe210106IPN5Tiled13WorldMapEntryEEEvT_S4_, symObjAddr: 0x4F10, symBinAddr: 0x10000C200, symSize: 0x30 }
  - { offset: 0x88DDB, size: 0x8, addend: 0x0, symName: __ZNSt3__19__destroyB9nqe210106IPN5Tiled13WorldMapEntryEEET_S4_S4_, symObjAddr: 0x4F90, symBinAddr: 0x10000C280, symSize: 0x40 }
  - { offset: 0x88E1E, size: 0x8, addend: 0x0, symName: __ZNSt3__112__destroy_atB9nqe210106IN5Tiled13WorldMapEntryELi0EEEvPT_, symObjAddr: 0x4FD0, symBinAddr: 0x10000C2C0, symSize: 0x20 }
  - { offset: 0x88E56, size: 0x8, addend: 0x0, symName: __ZNSt3__13getB9nqe210106ILm0EP15QTypedArrayDataIPN5Tiled9MapObjectEEPS4_EEONS_13tuple_elementIXT_ENS_4pairIT0_T1_EEE4typeEOSC_, symObjAddr: 0x5B50, symBinAddr: 0x10000CE20, symSize: 0x20 }
  - { offset: 0x88EA2, size: 0x8, addend: 0x0, symName: __ZNSt3__13getB9nqe210106ILm1EP15QTypedArrayDataIPN5Tiled9MapObjectEEPS4_EEONS_13tuple_elementIXT_ENS_4pairIT0_T1_EEE4typeEOSC_, symObjAddr: 0x5B70, symBinAddr: 0x10000CE40, symSize: 0x20 }
  - { offset: 0x89272, size: 0x8, addend: 0x0, symName: '__ZNSt3__135__check_strict_weak_ordering_sortedB9nqe210106IN5QListIPN5Tiled9MapObjectEE8iteratorEZNK13TmxRasterizer13drawMapLayersERKNS2_11MapRendererER8QPainter6QPointE3$_0EEvT_SF_RT0_', symObjAddr: 0x67A0, symBinAddr: 0x10000DA40, symSize: 0x20 }
  - { offset: 0x892E6, size: 0x8, addend: 0x0, symName: __ZNSt3__127__libcpp_deallocate_unsizedB9nqe210106IPN5Tiled9MapObjectEEEvPNS_15__type_identityIT_E4typeEm, symObjAddr: 0x69B0, symBinAddr: 0x10000DC50, symSize: 0x40 }
  - { offset: 0x89325, size: 0x8, addend: 0x0, symName: __ZNSt3__124__is_overaligned_for_newB9nqe210106Em, symObjAddr: 0x69F0, symBinAddr: 0x10000DC90, symSize: 0x20 }
  - { offset: 0x8952E, size: 0x8, addend: 0x0, symName: '__ZNSt3__116__insertion_sortB9nqe210106INS_17_ClassicAlgPolicyERZNK13TmxRasterizer13drawMapLayersERKN5Tiled11MapRendererER8QPainter6QPointE3$_0N5QListIPNS3_9MapObjectEE8iteratorEEEvT1_SH_T0_', symObjAddr: 0x6AF0, symBinAddr: 0x10000DD90, symSize: 0x1A0 }
  - { offset: 0x89903, size: 0x8, addend: 0x0, symName: '__ZNSt3__118__stable_sort_moveINS_17_ClassicAlgPolicyERZNK13TmxRasterizer13drawMapLayersERKN5Tiled11MapRendererER8QPainter6QPointE3$_0N5QListIPNS3_9MapObjectEE8iteratorEEEvT1_SH_T0_NS_15iterator_traitsISH_E15difference_typeEPNSK_10value_typeE', symObjAddr: 0x6D30, symBinAddr: 0x10000DFD0, symSize: 0x370 }
  - { offset: 0x899C0, size: 0x8, addend: 0x0, symName: '__ZNSt3__119__merge_move_assignB9nqe210106INS_17_ClassicAlgPolicyERZNK13TmxRasterizer13drawMapLayersERKN5Tiled11MapRendererER8QPainter6QPointE3$_0PPNS3_9MapObjectESE_N5QListISD_E8iteratorEEEvT1_SI_T2_SJ_T3_T0_', symObjAddr: 0x70D0, symBinAddr: 0x10000E370, symSize: 0x150 }
  - { offset: 0x89A5C, size: 0x8, addend: 0x0, symName: '__ZNSt3__115__inplace_mergeINS_17_ClassicAlgPolicyERZNK13TmxRasterizer13drawMapLayersERKN5Tiled11MapRendererER8QPainter6QPointE3$_0N5QListIPNS3_9MapObjectEE8iteratorEEEvT1_SH_SH_OT0_NS_15iterator_traitsISH_E15difference_typeESM_PNSL_10value_typeEl', symObjAddr: 0x7240, symBinAddr: 0x10000E4E0, symSize: 0x410 }
  - { offset: 0x89B75, size: 0x8, addend: 0x0, symName: __ZNSt3__19iter_swapB9nqe210106IN5QListIPN5Tiled9MapObjectEE8iteratorES6_EEvT_T0_, symObjAddr: 0x7670, symBinAddr: 0x10000E910, symSize: 0x40 }
  - { offset: 0x89BBD, size: 0x8, addend: 0x0, symName: __ZNSt3__14swapB9nqe210106IPN5Tiled9MapObjectEEENS_9enable_ifIXaasr21is_move_constructibleIT_EE5valuesr18is_move_assignableIS5_EE5valueEvE4typeERS5_S8_, symObjAddr: 0x76B0, symBinAddr: 0x10000E950, symSize: 0x40 }
  - { offset: 0x89C0E, size: 0x8, addend: 0x0, symName: __ZNSt3__114__construct_atB9nqe210106IPN5Tiled9MapObjectEJS3_EPS3_EEPT_S6_DpOT0_, symObjAddr: 0x77D0, symBinAddr: 0x10000EA70, symSize: 0x20 }
  - { offset: 0x89C65, size: 0x8, addend: 0x0, symName: '__ZNSt3__121__insertion_sort_moveB9nqe210106INS_17_ClassicAlgPolicyERZNK13TmxRasterizer13drawMapLayersERKN5Tiled11MapRendererER8QPainter6QPointE3$_0N5QListIPNS3_9MapObjectEE8iteratorEEEvT1_SH_PNS_15iterator_traitsISH_E10value_typeET0_', symObjAddr: 0x7830, symBinAddr: 0x10000EAD0, symSize: 0x280 }
  - { offset: 0x89D35, size: 0x8, addend: 0x0, symName: '__ZNSt3__122__merge_move_constructB9nqe210106INS_17_ClassicAlgPolicyERZNK13TmxRasterizer13drawMapLayersERKN5Tiled11MapRendererER8QPainter6QPointE3$_0N5QListIPNS3_9MapObjectEE8iteratorESG_EEvT1_SH_T2_SI_PNS_15iterator_traitsISH_E10value_typeET0_', symObjAddr: 0x7AB0, symBinAddr: 0x10000ED50, symSize: 0x2B0 }
  - { offset: 0x89DE4, size: 0x8, addend: 0x0, symName: '__ZNSt3__113__upper_boundB9nqe210106INS_17_ClassicAlgPolicyERZNK13TmxRasterizer13drawMapLayersERKN5Tiled11MapRendererER8QPainter6QPointE3$_0N5QListIPNS3_9MapObjectEE8iteratorESG_SE_NS_10__identityEEET1_SI_T2_RKT3_OT0_OT4_', symObjAddr: 0x8180, symBinAddr: 0x10000F420, symSize: 0xF0 }
  - { offset: 0x89EB9, size: 0x8, addend: 0x0, symName: '__ZNSt3__111lower_boundB9nqe210106IN5QListIPN5Tiled9MapObjectEE8iteratorES4_ZNK13TmxRasterizer13drawMapLayersERKNS2_11MapRendererER8QPainter6QPointE3$_0EET_SF_SF_RKT0_T1_', symObjAddr: 0x82B0, symBinAddr: 0x10000F550, symSize: 0x60 }
  - { offset: 0x89F38, size: 0x8, addend: 0x0, symName: __ZNSt3__18__rotateB9nqe210106INS_17_ClassicAlgPolicyEN5QListIPN5Tiled9MapObjectEE8iteratorES7_EENS_4pairIT0_S9_EES9_S9_T1_, symObjAddr: 0x8310, symBinAddr: 0x10000F5B0, symSize: 0xF0 }
  - { offset: 0x89FB9, size: 0x8, addend: 0x0, symName: '__ZNSt3__120__half_inplace_mergeB9nqe210106INS_17_ClassicAlgPolicyERZNK13TmxRasterizer13drawMapLayersERKN5Tiled11MapRendererER8QPainter6QPointE3$_0PPNS3_9MapObjectESE_N5QListISD_E8iteratorESH_SH_EEvT1_T2_T3_T4_T5_OT0_', symObjAddr: 0x8400, symBinAddr: 0x10000F6A0, symSize: 0x110 }
  - { offset: 0x8A067, size: 0x8, addend: 0x0, symName: '__ZNSt3__120__half_inplace_mergeB9nqe210106INS_17_ClassicAlgPolicyENS_8__invertIRZNK13TmxRasterizer13drawMapLayersERKN5Tiled11MapRendererER8QPainter6QPointE3$_0EENS_16reverse_iteratorIPPNS4_9MapObjectEEESI_NSE_IN5QListISG_E8iteratorEEESM_SM_EEvT1_T2_T3_T4_T5_OT0_', symObjAddr: 0x8510, symBinAddr: 0x10000F7B0, symSize: 0x1A0 }
  - { offset: 0x8A114, size: 0x8, addend: 0x0, symName: __ZNSt3__16__moveB9nqe210106INS_17_ClassicAlgPolicyEPPN5Tiled9MapObjectES5_N5QListIS4_E8iteratorEEENS_4pairIT0_T2_EESA_T1_SB_, symObjAddr: 0x8740, symBinAddr: 0x10000F9E0, symSize: 0x50 }
  - { offset: 0x8A180, size: 0x8, addend: 0x0, symName: __ZNSt3__124__copy_move_unwrap_itersB9nqe210106INS_11__move_implINS_17_ClassicAlgPolicyEEEPPN5Tiled9MapObjectES7_N5QListIS6_E8iteratorELi0EEENS_4pairIT0_T2_EESC_T1_SD_, symObjAddr: 0x8790, symBinAddr: 0x10000FA30, symSize: 0xE0 }
  - { offset: 0x8A20F, size: 0x8, addend: 0x0, symName: __ZNSt3__114__unwrap_rangeB9nqe210106IPPN5Tiled9MapObjectES4_EENS_4pairIT0_S6_EET_S8_, symObjAddr: 0x8870, symBinAddr: 0x10000FB10, symSize: 0x50 }
  - { offset: 0x8A409, size: 0x8, addend: 0x0, symName: __ZNSt3__113__unwrap_iterB9nqe210106IN5QListIPN5Tiled9MapObjectEE8iteratorENS_18__unwrap_iter_implIS6_Lb0EEELi0EEEDTclsrT0_8__unwrapclsr3stdE7declvalIT_EEEESA_, symObjAddr: 0x8940, symBinAddr: 0x10000FBE0, symSize: 0x30 }
  - { offset: 0x8A44E, size: 0x8, addend: 0x0, symName: __ZNSt3__19make_pairB9nqe210106IPPN5Tiled9MapObjectEN5QListIS3_E8iteratorEEENS_4pairINS_18__unwrap_referenceIu7__decayIT_EE4typeENS9_Iu7__decayIT0_EE4typeEEEOSA_OSE_, symObjAddr: 0x8970, symBinAddr: 0x10000FC10, symSize: 0x30 }
  - { offset: 0x8A49F, size: 0x8, addend: 0x0, symName: __ZNSt3__114__rewrap_rangeB9nqe210106IPPN5Tiled9MapObjectES4_EET_S5_T0_, symObjAddr: 0x89A0, symBinAddr: 0x10000FC40, symSize: 0x30 }
  - { offset: 0x8A4EB, size: 0x8, addend: 0x0, symName: __ZNSt3__113__rewrap_iterB9nqe210106IN5QListIPN5Tiled9MapObjectEE8iteratorES6_NS_18__unwrap_iter_implIS6_Lb0EEEEET_S9_T0_, symObjAddr: 0x89D0, symBinAddr: 0x10000FC70, symSize: 0x50 }
  - { offset: 0x8A541, size: 0x8, addend: 0x0, symName: __ZNSt3__19make_pairB9nqe210106IPPN5Tiled9MapObjectES4_EENS_4pairINS_18__unwrap_referenceIu7__decayIT_EE4typeENS6_Iu7__decayIT0_EE4typeEEEOS7_OSB_, symObjAddr: 0x8A20, symBinAddr: 0x10000FCC0, symSize: 0x30 }
  - { offset: 0x8A592, size: 0x8, addend: 0x0, symName: __ZNSt3__113__unwrap_iterB9nqe210106IPPN5Tiled9MapObjectENS_18__unwrap_iter_implIS4_Lb1EEELi0EEEDTclsrT0_8__unwrapclsr3stdE7declvalIT_EEEES8_, symObjAddr: 0x8A50, symBinAddr: 0x10000FCF0, symSize: 0x20 }
  - { offset: 0x8A6FC, size: 0x8, addend: 0x0, symName: __ZNSt3__112__to_addressB9nqe210106IPN5Tiled9MapObjectEEEPT_S5_, symObjAddr: 0x8AF0, symBinAddr: 0x10000FD90, symSize: 0x10 }
  - { offset: 0x8A779, size: 0x8, addend: 0x0, symName: __ZNSt3__113__rewrap_iterB9nqe210106IPPN5Tiled9MapObjectES4_NS_18__unwrap_iter_implIS4_Lb1EEEEET_S7_T0_, symObjAddr: 0x8B80, symBinAddr: 0x10000FE20, symSize: 0x40 }
  - { offset: 0x8A7CE, size: 0x8, addend: 0x0, symName: __ZNSt3__1neB9nqe210106IPPN5Tiled9MapObjectES4_EEbRKNS_16reverse_iteratorIT_EERKNS5_IT0_EE, symObjAddr: 0x8C30, symBinAddr: 0x10000FED0, symSize: 0x40 }
  - { offset: 0x8A81A, size: 0x8, addend: 0x0, symName: __ZNSt3__1eqB9nqe210106IN5QListIPN5Tiled9MapObjectEE8iteratorES6_EEbRKNS_16reverse_iteratorIT_EERKNS7_IT0_EE, symObjAddr: 0x8C70, symBinAddr: 0x10000FF10, symSize: 0x40 }
  - { offset: 0x8A866, size: 0x8, addend: 0x0, symName: __ZNSt3__16__moveB9nqe210106INS_17_ClassicAlgPolicyENS_16reverse_iteratorIPPN5Tiled9MapObjectEEES7_NS2_IN5QListIS5_E8iteratorEEEEENS_4pairIT0_T2_EESD_T1_SE_, symObjAddr: 0x8CB0, symBinAddr: 0x10000FF50, symSize: 0x90 }
  - { offset: 0x8A8D2, size: 0x8, addend: 0x0, symName: __ZNSt3__124__copy_move_unwrap_itersB9nqe210106INS_11__move_implINS_17_ClassicAlgPolicyEEENS_16reverse_iteratorIPPN5Tiled9MapObjectEEES9_NS4_IN5QListIS7_E8iteratorEEELi0EEENS_4pairIT0_T2_EESF_T1_SG_, symObjAddr: 0x8EB0, symBinAddr: 0x100010150, symSize: 0x210 }
  - { offset: 0x8A961, size: 0x8, addend: 0x0, symName: __ZNSt3__114__unwrap_rangeB9nqe210106INS_16reverse_iteratorIPPN5Tiled9MapObjectEEES6_EENS_4pairIT0_S8_EET_SA_, symObjAddr: 0x90C0, symBinAddr: 0x100010360, symSize: 0x90 }
  - { offset: 0x8AA8B, size: 0x8, addend: 0x0, symName: __ZNSt3__113__unwrap_iterB9nqe210106INS_16reverse_iteratorIN5QListIPN5Tiled9MapObjectEE8iteratorEEENS_18__unwrap_iter_implIS8_Lb0EEELi0EEEDTclsrT0_8__unwrapclsr3stdE7declvalIT_EEEESC_, symObjAddr: 0x91E0, symBinAddr: 0x100010480, symSize: 0x40 }
  - { offset: 0x8AAD0, size: 0x8, addend: 0x0, symName: __ZNSt3__19make_pairB9nqe210106INS_16reverse_iteratorIPPN5Tiled9MapObjectEEENS1_IN5QListIS4_E8iteratorEEEEENS_4pairINS_18__unwrap_referenceIu7__decayIT_EE4typeENSC_Iu7__decayIT0_EE4typeEEEOSD_OSH_, symObjAddr: 0x9220, symBinAddr: 0x1000104C0, symSize: 0x30 }
  - { offset: 0x8AB21, size: 0x8, addend: 0x0, symName: __ZNSt3__114__rewrap_rangeB9nqe210106INS_16reverse_iteratorIPPN5Tiled9MapObjectEEES6_EET_S7_T0_, symObjAddr: 0x9250, symBinAddr: 0x1000104F0, symSize: 0x60 }
  - { offset: 0x8AB6D, size: 0x8, addend: 0x0, symName: __ZNSt3__113__rewrap_iterB9nqe210106INS_16reverse_iteratorIN5QListIPN5Tiled9MapObjectEE8iteratorEEES8_NS_18__unwrap_iter_implIS8_Lb0EEEEET_SB_T0_, symObjAddr: 0x92B0, symBinAddr: 0x100010550, symSize: 0x70 }
  - { offset: 0x8ABC3, size: 0x8, addend: 0x0, symName: __ZNSt3__19make_pairB9nqe210106INS_16reverse_iteratorIPPN5Tiled9MapObjectEEES6_EENS_4pairINS_18__unwrap_referenceIu7__decayIT_EE4typeENS8_Iu7__decayIT0_EE4typeEEEOS9_OSD_, symObjAddr: 0x9320, symBinAddr: 0x1000105C0, symSize: 0x30 }
  - { offset: 0x8AC14, size: 0x8, addend: 0x0, symName: __ZNSt3__113__unwrap_iterB9nqe210106INS_16reverse_iteratorIPPN5Tiled9MapObjectEEENS_18__unwrap_iter_implIS6_Lb0EEELi0EEEDTclsrT0_8__unwrapclsr3stdE7declvalIT_EEEESA_, symObjAddr: 0x9350, symBinAddr: 0x1000105F0, symSize: 0x40 }
  - { offset: 0x8ADC6, size: 0x8, addend: 0x0, symName: __ZNSt3__113__rewrap_iterB9nqe210106INS_16reverse_iteratorIPPN5Tiled9MapObjectEEES6_NS_18__unwrap_iter_implIS6_Lb0EEEEET_S9_T0_, symObjAddr: 0x94B0, symBinAddr: 0x100010750, symSize: 0x70 }
  - { offset: 0x8AE1B, size: 0x8, addend: 0x0, symName: __ZNSt3__121__convert_to_integralB9nqe210106Ex, symObjAddr: 0x9670, symBinAddr: 0x100010910, symSize: 0x10 }
  - { offset: 0x8AE47, size: 0x8, addend: 0x0, symName: __ZNSt3__19__advanceB9nqe210106IN5QListIPN5Tiled9MapObjectEE8iteratorEEEvRT_NS_15iterator_traitsIS7_E15difference_typeENS_26random_access_iterator_tagE, symObjAddr: 0x9680, symBinAddr: 0x100010920, symSize: 0x30 }
  - { offset: 0x8AE91, size: 0x8, addend: 0x0, symName: __ZNSt3__115__half_positiveB9nqe210106IxLi0EEET_S1_, symObjAddr: 0x96D0, symBinAddr: 0x100010970, symSize: 0x20 }
  - { offset: 0x8AECC, size: 0x8, addend: 0x0, symName: '__ZNSt3__18__invokeB9nqe210106IJRZNK13TmxRasterizer13drawMapLayersERKN5Tiled11MapRendererER8QPainter6QPointE3$_0RKPNS2_9MapObjectERSC_EEENS_20__invoke_result_implIvJDpT_EE4typeEDpOSH_', symObjAddr: 0x9730, symBinAddr: 0x1000109D0, symSize: 0x40 }
  - { offset: 0x8AF2D, size: 0x8, addend: 0x0, symName: __ZNSt3__18__invokeB9nqe210106IJRNS_10__identityERPN5Tiled9MapObjectEEEENS_20__invoke_result_implIvJDpT_EE4typeEDpOS8_, symObjAddr: 0x9770, symBinAddr: 0x100010A10, symSize: 0x30 }
  - { offset: 0x8AF7A, size: 0x8, addend: 0x0, symName: __ZNSt3__14nextB9nqe210106IN5QListIPN5Tiled9MapObjectEE8iteratorELi0EEET_S7_NS_15iterator_traitsIS7_E15difference_typeE, symObjAddr: 0x97A0, symBinAddr: 0x100010A40, symSize: 0x30 }
  - { offset: 0x8AFF0, size: 0x8, addend: 0x0, symName: __ZNSt3__18distanceB9nqe210106IN5QListIPN5Tiled9MapObjectEE8iteratorEEENS_15iterator_traitsIT_E15difference_typeES8_S8_, symObjAddr: 0x97F0, symBinAddr: 0x100010A90, symSize: 0x40 }
  - { offset: 0x8B033, size: 0x8, addend: 0x0, symName: __ZNSt3__110__distanceB9nqe210106IN5QListIPN5Tiled9MapObjectEE8iteratorEEENS_15iterator_traitsIT_E15difference_typeES8_S8_NS_26random_access_iterator_tagE, symObjAddr: 0x9830, symBinAddr: 0x100010AD0, symSize: 0x30 }
  - { offset: 0x8B081, size: 0x8, addend: 0x0, symName: '__ZNSt3__113__lower_boundB9nqe210106INS_17_ClassicAlgPolicyEN5QListIPN5Tiled9MapObjectEE8iteratorES7_S5_NS_10__identityEZNK13TmxRasterizer13drawMapLayersERKNS3_11MapRendererER8QPainter6QPointE3$_0EET0_SH_T1_RKT2_RT4_RT3_', symObjAddr: 0x9860, symBinAddr: 0x100010B00, symSize: 0x70 }
  - { offset: 0x8B129, size: 0x8, addend: 0x0, symName: '__ZNSt3__123__lower_bound_bisectingB9nqe210106INS_17_ClassicAlgPolicyEN5QListIPN5Tiled9MapObjectEE8iteratorES5_NS_10__identityEZNK13TmxRasterizer13drawMapLayersERKNS3_11MapRendererER8QPainter6QPointE3$_0EET0_SH_RKT1_NS_15iterator_traitsISH_E15difference_typeERT3_RT2_', symObjAddr: 0x98D0, symBinAddr: 0x100010B70, symSize: 0xD0 }
  - { offset: 0x8B1E5, size: 0x8, addend: 0x0, symName: '__ZNSt3__18__invokeB9nqe210106IJRZNK13TmxRasterizer13drawMapLayersERKN5Tiled11MapRendererER8QPainter6QPointE3$_0RPNS2_9MapObjectERKSC_EEENS_20__invoke_result_implIvJDpT_EE4typeEDpOSH_', symObjAddr: 0x99A0, symBinAddr: 0x100010C40, symSize: 0x40 }
  - { offset: 0x8B357, size: 0x8, addend: 0x0, symName: __ZNSt3__113__rotate_implB9nqe210106INS_17_ClassicAlgPolicyEN5QListIPN5Tiled9MapObjectEE8iteratorEEET0_S8_S8_S8_NS_26random_access_iterator_tagE, symObjAddr: 0x9A60, symBinAddr: 0x100010D00, symSize: 0x100 }
  - { offset: 0x8B3BC, size: 0x8, addend: 0x0, symName: __ZNSt3__113__rotate_leftB9nqe210106INS_17_ClassicAlgPolicyEN5QListIPN5Tiled9MapObjectEE8iteratorEEET0_S8_S8_, symObjAddr: 0x9BC0, symBinAddr: 0x100010E60, symSize: 0x90 }
  - { offset: 0x8B42F, size: 0x8, addend: 0x0, symName: __ZNSt3__114__rotate_rightB9nqe210106INS_17_ClassicAlgPolicyEN5QListIPN5Tiled9MapObjectEE8iteratorEEET0_S8_S8_, symObjAddr: 0x9C50, symBinAddr: 0x100010EF0, symSize: 0x90 }
  - { offset: 0x8B4B0, size: 0x8, addend: 0x0, symName: __ZNSt3__112__rotate_gcdB9nqe210106INS_17_ClassicAlgPolicyEN5QListIPN5Tiled9MapObjectEE8iteratorEEET0_S8_S8_S8_, symObjAddr: 0x9CE0, symBinAddr: 0x100010F80, symSize: 0x260 }
  - { offset: 0x8B5BB, size: 0x8, addend: 0x0, symName: __ZNSt3__16__moveB9nqe210106INS_17_ClassicAlgPolicyEN5QListIPN5Tiled9MapObjectEE8iteratorES7_S7_EENS_4pairIT0_T2_EES9_T1_SA_, symObjAddr: 0x9F40, symBinAddr: 0x1000111E0, symSize: 0x60 }
  - { offset: 0x8B627, size: 0x8, addend: 0x0, symName: __ZNSt3__124__copy_move_unwrap_itersB9nqe210106INS_11__move_implINS_17_ClassicAlgPolicyEEEN5QListIPN5Tiled9MapObjectEE8iteratorES9_S9_Li0EEENS_4pairIT0_T2_EESB_T1_SC_, symObjAddr: 0x9FA0, symBinAddr: 0x100011240, symSize: 0x110 }
  - { offset: 0x8B6B6, size: 0x8, addend: 0x0, symName: __ZNSt3__114__unwrap_rangeB9nqe210106IN5QListIPN5Tiled9MapObjectEE8iteratorES6_EENS_4pairIT0_S8_EET_SA_, symObjAddr: 0xA0B0, symBinAddr: 0x100011350, symSize: 0x60 }
  - { offset: 0x8B703, size: 0x8, addend: 0x0, symName: __ZNSt3__19make_pairB9nqe210106IN5QListIPN5Tiled9MapObjectEE8iteratorES6_EENS_4pairINS_18__unwrap_referenceIu7__decayIT_EE4typeENS8_Iu7__decayIT0_EE4typeEEEOS9_OSD_, symObjAddr: 0xA1A0, symBinAddr: 0x100011440, symSize: 0x30 }
  - { offset: 0x8B754, size: 0x8, addend: 0x0, symName: __ZNSt3__114__rewrap_rangeB9nqe210106IN5QListIPN5Tiled9MapObjectEE8iteratorES6_EET_S7_T0_, symObjAddr: 0xA1D0, symBinAddr: 0x100011470, symSize: 0x40 }
  - { offset: 0x8B7A0, size: 0x8, addend: 0x0, symName: __ZNSt3__115__move_backwardB9nqe210106INS_17_ClassicAlgPolicyEN5QListIPN5Tiled9MapObjectEE8iteratorES7_S7_EENS_4pairIT0_T2_EES9_T1_SA_, symObjAddr: 0xA250, symBinAddr: 0x1000114F0, symSize: 0x60 }
  - { offset: 0x8B80C, size: 0x8, addend: 0x0, symName: __ZNSt3__14prevB9nqe210106IN5QListIPN5Tiled9MapObjectEE8iteratorELi0EEET_S7_NS_15iterator_traitsIS7_E15difference_typeE, symObjAddr: 0xA2B0, symBinAddr: 0x100011550, symSize: 0x40 }
  - { offset: 0x8B855, size: 0x8, addend: 0x0, symName: __ZNSt3__124__copy_move_unwrap_itersB9nqe210106INS_20__move_backward_implINS_17_ClassicAlgPolicyEEEN5QListIPN5Tiled9MapObjectEE8iteratorES9_S9_Li0EEENS_4pairIT0_T2_EESB_T1_SC_, symObjAddr: 0xA2F0, symBinAddr: 0x100011590, symSize: 0x110 }
  - { offset: 0x8B936, size: 0x8, addend: 0x0, symName: __ZNSt3__113__swap_rangesB9nqe210106INS_17_ClassicAlgPolicyEN5QListIPN5Tiled9MapObjectEE8iteratorES7_S7_S7_EENS_4pairIT0_T2_EES9_T1_SA_T3_, symObjAddr: 0xA4C0, symBinAddr: 0x100011760, symSize: 0xA0 }
  - { offset: 0x8B9B9, size: 0x8, addend: 0x0, symName: __ZNSt3__110__algo_gcdB9nqe210106IxEET_S1_S1_, symObjAddr: 0xA560, symBinAddr: 0x100011800, symSize: 0x40 }
  - { offset: 0x8BA11, size: 0x8, addend: 0x0, symName: __ZNSt3__14dataB9nqe210106I11QStringViewEEDTcldtfp_4dataEERT_, symObjAddr: 0xA870, symBinAddr: 0x100011AB0, symSize: 0x20 }
  - { offset: 0x8BA46, size: 0x8, addend: 0x0, symName: __ZNSt3__14sizeB9nqe210106I11QStringViewEEDTcldtfp_4sizeEERKT_, symObjAddr: 0xA900, symBinAddr: 0x100011B10, symSize: 0x20 }
  - { offset: 0xB81D3, size: 0x8, addend: 0x0, symName: __ZNK13TmxRasterizer13drawMapLayersERKN5Tiled11MapRendererER8QPainter6QPoint, symObjAddr: 0xE0, symBinAddr: 0x100008120, symSize: 0x660 }
  - { offset: 0xB9828, size: 0x8, addend: 0x0, symName: __ZN13TmxRasterizerC2Ev, symObjAddr: 0x0, symBinAddr: 0x100008040, symSize: 0xA0 }
  - { offset: 0xB9854, size: 0x8, addend: 0x0, symName: __ZN5QListI7QStringEC1Ev, symObjAddr: 0xA0, symBinAddr: 0x1000080E0, symSize: 0x20 }
  - { offset: 0xB987E, size: 0x8, addend: 0x0, symName: __ZN13TmxRasterizerC1Ev, symObjAddr: 0xC0, symBinAddr: 0x100008100, symSize: 0x20 }
  - { offset: 0xB98AA, size: 0x8, addend: 0x0, symName: __ZNK5Tiled11MapRenderer3mapEv, symObjAddr: 0x740, symBinAddr: 0x100008780, symSize: 0x20 }
  - { offset: 0xB98D2, size: 0x8, addend: 0x0, symName: __ZN5Tiled13LayerIteratorC1EPKNS_3MapEi, symObjAddr: 0x760, symBinAddr: 0x1000087A0, symSize: 0x30 }
  - { offset: 0xB991E, size: 0x8, addend: 0x0, symName: __ZNK13TmxRasterizer15shouldDrawLayerEPKN5Tiled5LayerE, symObjAddr: 0x790, symBinAddr: 0x1000087D0, symSize: 0xC0 }
  - { offset: 0xB9954, size: 0x8, addend: 0x0, symName: __ZplRK7QPointFS1_, symObjAddr: 0x850, symBinAddr: 0x100008890, symSize: 0x50 }
  - { offset: 0xB9994, size: 0x8, addend: 0x0, symName: __ZN7QPointFC1ERK6QPoint, symObjAddr: 0x8A0, symBinAddr: 0x1000088E0, symSize: 0x30 }
  - { offset: 0xB99D0, size: 0x8, addend: 0x0, symName: __ZNK5Tiled5Layer15compositionModeEv, symObjAddr: 0x8D0, symBinAddr: 0x100008910, symSize: 0x20 }
  - { offset: 0xB99F8, size: 0x8, addend: 0x0, symName: __ZNK5Tiled5Layer9layerTypeEv, symObjAddr: 0x8F0, symBinAddr: 0x100008930, symSize: 0x20 }
  - { offset: 0xB9A1E, size: 0x8, addend: 0x0, symName: __ZN6QRectFC1Ev, symObjAddr: 0x910, symBinAddr: 0x100008950, symSize: 0x20 }
  - { offset: 0xB9A48, size: 0x8, addend: 0x0, symName: __ZNK5Tiled11ObjectGroup7objectsEv, symObjAddr: 0x930, symBinAddr: 0x100008970, symSize: 0x20 }
  - { offset: 0xB9A6E, size: 0x8, addend: 0x0, symName: __ZN5QListIPN5Tiled9MapObjectEEC1ERKS3_, symObjAddr: 0x950, symBinAddr: 0x100008990, symSize: 0x30 }
  - { offset: 0xB9AA3, size: 0x8, addend: 0x0, symName: __ZNK5Tiled11ObjectGroup9drawOrderEv, symObjAddr: 0x980, symBinAddr: 0x1000089C0, symSize: 0x20 }
  - { offset: 0xB9ACA, size: 0x8, addend: 0x0, symName: __ZN5QListIPN5Tiled9MapObjectEE5beginEv, symObjAddr: 0x9E0, symBinAddr: 0x100008A20, symSize: 0x40 }
  - { offset: 0xB9AF0, size: 0x8, addend: 0x0, symName: __ZN5QListIPN5Tiled9MapObjectEE3endEv, symObjAddr: 0xA20, symBinAddr: 0x100008A60, symSize: 0x40 }
  - { offset: 0xB9B16, size: 0x8, addend: 0x0, symName: __ZNK5QListIPN5Tiled9MapObjectEE5beginEv, symObjAddr: 0xA60, symBinAddr: 0x100008AA0, symSize: 0x40 }
  - { offset: 0xB9B3C, size: 0x8, addend: 0x0, symName: __ZNK5QListIPN5Tiled9MapObjectEE3endEv, symObjAddr: 0xAA0, symBinAddr: 0x100008AE0, symSize: 0x40 }
  - { offset: 0xB9B62, size: 0x8, addend: 0x0, symName: __ZNK5QListIPN5Tiled9MapObjectEE14const_iteratorneES4_, symObjAddr: 0xAE0, symBinAddr: 0x100008B20, symSize: 0x20 }
  - { offset: 0xB9B96, size: 0x8, addend: 0x0, symName: __ZNK5QListIPN5Tiled9MapObjectEE14const_iteratordeEv, symObjAddr: 0xB00, symBinAddr: 0x100008B40, symSize: 0x20 }
  - { offset: 0xB9BBC, size: 0x8, addend: 0x0, symName: __ZNK13TmxRasterizer16shouldDrawObjectEPKN5Tiled9MapObjectE, symObjAddr: 0xB20, symBinAddr: 0x100008B60, symSize: 0xA0 }
  - { offset: 0xB9BF2, size: 0x8, addend: 0x0, symName: __ZNK5Tiled9MapObject12isTileObjectEv, symObjAddr: 0xBC0, symBinAddr: 0x100008C00, symSize: 0x30 }
  - { offset: 0xB9C1A, size: 0x8, addend: 0x0, symName: __ZNK5Tiled9MapObject8rotationEv, symObjAddr: 0xBF0, symBinAddr: 0x100008C30, symSize: 0x20 }
  - { offset: 0xB9C42, size: 0x8, addend: 0x0, symName: __ZNK5Tiled11MapRenderer19pixelToScreenCoordsERK7QPointF, symObjAddr: 0xC10, symBinAddr: 0x100008C50, symSize: 0x70 }
  - { offset: 0xB9C7A, size: 0x8, addend: 0x0, symName: __ZNK5Tiled9MapObject8positionEv, symObjAddr: 0xC80, symBinAddr: 0x100008CC0, symSize: 0x20 }
  - { offset: 0xB9CA2, size: 0x8, addend: 0x0, symName: __ZngRK7QPointF, symObjAddr: 0xCA0, symBinAddr: 0x100008CE0, symSize: 0x50 }
  - { offset: 0xB9CD2, size: 0x8, addend: 0x0, symName: __ZNK5Tiled9MapObject7opacityEv, symObjAddr: 0xCF0, symBinAddr: 0x100008D30, symSize: 0x20 }
  - { offset: 0xB9CFA, size: 0x8, addend: 0x0, symName: __ZN5QListIPN5Tiled9MapObjectEE14const_iteratorppEv, symObjAddr: 0xD10, symBinAddr: 0x100008D50, symSize: 0x20 }
  - { offset: 0xB9D20, size: 0x8, addend: 0x0, symName: __ZN5QListIPN5Tiled9MapObjectEED1Ev, symObjAddr: 0xD30, symBinAddr: 0x100008D70, symSize: 0x20 }
  - { offset: 0xB9D4B, size: 0x8, addend: 0x0, symName: __ZL30containsLayerOrParentLayerNamePKN5Tiled5LayerERK5QListI7QStringE, symObjAddr: 0xD50, symBinAddr: 0x100008D90, symSize: 0x60 }
  - { offset: 0xB9D86, size: 0x8, addend: 0x0, symName: __ZNK5QListI7QStringE5emptyEv, symObjAddr: 0xDB0, symBinAddr: 0x100008DF0, symSize: 0x30 }
  - { offset: 0xB9DAC, size: 0x8, addend: 0x0, symName: __ZNK19QListSpecialMethodsI7QStringE8containsERKS0_N2Qt15CaseSensitivityE, symObjAddr: 0xDE0, symBinAddr: 0x100008E20, symSize: 0x60 }
  - { offset: 0xB9DEE, size: 0x8, addend: 0x0, symName: __ZNK5Tiled9MapObject4nameEv, symObjAddr: 0xE40, symBinAddr: 0x100008E80, symSize: 0x20 }
  - { offset: 0xB9E16, size: 0x8, addend: 0x0, symName: __ZNK5Tiled9MapObject9isVisibleEv, symObjAddr: 0xE60, symBinAddr: 0x100008EA0, symSize: 0x20 }
  - { offset: 0xB9E3E, size: 0x8, addend: 0x0, symName: __ZN13TmxRasterizer6renderERK7QStringS0_, symObjAddr: 0xE80, symBinAddr: 0x100008EC0, symSize: 0x5E0 }
  - { offset: 0xB9F3B, size: 0x8, addend: 0x0, symName: __Z4qMaxIiERKT_S2_S2_, symObjAddr: 0x1460, symBinAddr: 0x1000094A0, symSize: 0x40 }
  - { offset: 0xB9F7F, size: 0x8, addend: 0x0, symName: __ZNSt3__110unique_ptrIN5Tiled3MapENS_14default_deleteIS2_EEEC1B9nqe210106ILb1EvEEv, symObjAddr: 0x14A0, symBinAddr: 0x1000094E0, symSize: 0x20 }
  - { offset: 0xB9FB5, size: 0x8, addend: 0x0, symName: __ZNSt3__110unique_ptrIN5Tiled11MapRendererENS_14default_deleteIS2_EEEC1B9nqe210106ILb1EvEEv, symObjAddr: 0x14C0, symBinAddr: 0x100009500, symSize: 0x20 }
  - { offset: 0xB9FEB, size: 0x8, addend: 0x0, symName: __ZNSt3__110unique_ptrIN5Tiled3MapENS_14default_deleteIS2_EEEaSB9nqe210106EOS5_, symObjAddr: 0x1530, symBinAddr: 0x100009520, symSize: 0x40 }
  - { offset: 0xBA01F, size: 0x8, addend: 0x0, symName: __ZNSt3__110unique_ptrIN5Tiled3MapENS_14default_deleteIS2_EEED1B9nqe210106Ev, symObjAddr: 0x1570, symBinAddr: 0x100009560, symSize: 0x20 }
  - { offset: 0xBA049, size: 0x8, addend: 0x0, symName: __ZNKSt3__110unique_ptrIN5Tiled3MapENS_14default_deleteIS2_EEEcvbB9nqe210106Ev, symObjAddr: 0x1590, symBinAddr: 0x100009580, symSize: 0x20 }
  - { offset: 0xBA06F, size: 0x8, addend: 0x0, symName: __ZNKR7QString6toUtf8Ev, symObjAddr: 0x1600, symBinAddr: 0x1000095B0, symSize: 0x30 }
  - { offset: 0xBA095, size: 0x8, addend: 0x0, symName: __ZNK10QByteArray9constDataEv, symObjAddr: 0x1630, symBinAddr: 0x1000095E0, symSize: 0x20 }
  - { offset: 0xBA0BB, size: 0x8, addend: 0x0, symName: __ZN10QByteArrayD1Ev, symObjAddr: 0x1650, symBinAddr: 0x100009600, symSize: 0x20 }
  - { offset: 0xBA0E7, size: 0x8, addend: 0x0, symName: __ZNKSt3__110unique_ptrIN5Tiled3MapENS_14default_deleteIS2_EEE3getB9nqe210106Ev, symObjAddr: 0x1670, symBinAddr: 0x100009620, symSize: 0x20 }
  - { offset: 0xBA10D, size: 0x8, addend: 0x0, symName: __ZNSt3__110unique_ptrIN5Tiled11MapRendererENS_14default_deleteIS2_EEEaSB9nqe210106EOS5_, symObjAddr: 0x1690, symBinAddr: 0x100009640, symSize: 0x40 }
  - { offset: 0xBA141, size: 0x8, addend: 0x0, symName: __ZNSt3__110unique_ptrIN5Tiled11MapRendererENS_14default_deleteIS2_EEED1B9nqe210106Ev, symObjAddr: 0x16D0, symBinAddr: 0x100009680, symSize: 0x20 }
  - { offset: 0xBA1FA, size: 0x8, addend: 0x0, symName: __ZNK7QString3argIJRKS_S2_S_S2_EEENSt3__19enable_ifIXaagesZT_Li2Esr3stdE13conjunction_vIDpNS3_11conjunctionIJNS3_8negationIN9QtPrivate21treat_as_integral_argIu11__remove_cvIT_EEEEENS3_14is_convertibleIS9_14QAnyStringViewEEEEEEES_E4typeEDpOS9_, symObjAddr: 0x1770, symBinAddr: 0x1000096A0, symSize: 0x270 }
  - { offset: 0xBA31F, size: 0x8, addend: 0x0, symName: __ZN7QStringaSEOS_, symObjAddr: 0x19E0, symBinAddr: 0x100009910, symSize: 0x30 }
  - { offset: 0xBA355, size: 0x8, addend: 0x0, symName: __ZN13TmxRasterizer9renderMapERKN5Tiled11MapRendererERK7QString, symObjAddr: 0x1A10, symBinAddr: 0x100009940, symSize: 0x3C0 }
  - { offset: 0xBA3FE, size: 0x8, addend: 0x0, symName: __ZNKSt3__110unique_ptrIN5Tiled11MapRendererENS_14default_deleteIS2_EEEdeB9nqe210106Ev, symObjAddr: 0x1DD0, symBinAddr: 0x100009D00, symSize: 0x20 }
  - { offset: 0xBA424, size: 0x8, addend: 0x0, symName: __ZN13TmxRasterizer11renderWorldERK7QStringS2_, symObjAddr: 0x1DF0, symBinAddr: 0x100009D20, symSize: 0xC00 }
  - { offset: 0xBA601, size: 0x8, addend: 0x0, symName: __ZNK5QRect4sizeEv, symObjAddr: 0x29F0, symBinAddr: 0x10000A920, symSize: 0x40 }
  - { offset: 0xBA629, size: 0x8, addend: 0x0, symName: __ZNK5QSize5widthEv, symObjAddr: 0x2A30, symBinAddr: 0x10000A960, symSize: 0x20 }
  - { offset: 0xBA650, size: 0x8, addend: 0x0, symName: __ZNK5QSize6heightEv, symObjAddr: 0x2A50, symBinAddr: 0x10000A980, symSize: 0x20 }
  - { offset: 0xBA676, size: 0x8, addend: 0x0, symName: __Z4qMinIdERKT_S2_S2_, symObjAddr: 0x2A70, symBinAddr: 0x10000A9A0, symSize: 0x40 }
  - { offset: 0xBA6BA, size: 0x8, addend: 0x0, symName: __ZNK5Tiled3Map9tileWidthEv, symObjAddr: 0x2AB0, symBinAddr: 0x10000A9E0, symSize: 0x20 }
  - { offset: 0xBA6E2, size: 0x8, addend: 0x0, symName: __ZNK5Tiled3Map10tileHeightEv, symObjAddr: 0x2AD0, symBinAddr: 0x10000AA00, symSize: 0x20 }
  - { offset: 0xBA70A, size: 0x8, addend: 0x0, symName: __ZN5QSize6rwidthEv, symObjAddr: 0x2AF0, symBinAddr: 0x10000AA20, symSize: 0x20 }
  - { offset: 0xBA731, size: 0x8, addend: 0x0, symName: __ZN5QSize7rheightEv, symObjAddr: 0x2B10, symBinAddr: 0x10000AA40, symSize: 0x20 }
  - { offset: 0xBA758, size: 0x8, addend: 0x0, symName: __ZN8QPainter9translateEdd, symObjAddr: 0x2B30, symBinAddr: 0x10000AA60, symSize: 0x50 }
  - { offset: 0xBA7A0, size: 0x8, addend: 0x0, symName: __ZNK5QRect4leftEv, symObjAddr: 0x2B80, symBinAddr: 0x10000AAB0, symSize: 0x20 }
  - { offset: 0xBA7C7, size: 0x8, addend: 0x0, symName: __ZNK5QRect3topEv, symObjAddr: 0x2BA0, symBinAddr: 0x10000AAD0, symSize: 0x20 }
  - { offset: 0xBA7EE, size: 0x8, addend: 0x0, symName: __ZN6QPointC1Eii, symObjAddr: 0x2BC0, symBinAddr: 0x10000AAF0, symSize: 0x30 }
  - { offset: 0xBA835, size: 0x8, addend: 0x0, symName: __ZNK13TmxRasterizer9saveImageERK7QStringRK6QImage, symObjAddr: 0x2BF0, symBinAddr: 0x10000AB20, symSize: 0x290 }
  - { offset: 0xBA889, size: 0x8, addend: 0x0, symName: __ZN10QByteArrayC1Ev, symObjAddr: 0x2E80, symBinAddr: 0x10000ADB0, symSize: 0x20 }
  - { offset: 0xBA8B5, size: 0x8, addend: 0x0, symName: __ZNO7QString6toUtf8Ev, symObjAddr: 0x2EB0, symBinAddr: 0x10000ADE0, symSize: 0x30 }
  - { offset: 0xBBE2E, size: 0x8, addend: 0x0, symName: __ZNKSt3__110unique_ptrIN5Tiled5WorldENS_14default_deleteIS2_EEEcvbB9nqe210106Ev, symObjAddr: 0x2EE0, symBinAddr: 0x10000AE10, symSize: 0x20 }
  - { offset: 0xBBE54, size: 0x8, addend: 0x0, symName: __ZNKSt3__110unique_ptrIN5Tiled5WorldENS_14default_deleteIS2_EEEptB9nqe210106Ev, symObjAddr: 0x2F00, symBinAddr: 0x10000AE30, symSize: 0x20 }
  - { offset: 0xBBE7A, size: 0x8, addend: 0x0, symName: __ZNK5QListIN5Tiled13WorldMapEntryEE7isEmptyEv, symObjAddr: 0x2F20, symBinAddr: 0x10000AE50, symSize: 0x30 }
  - { offset: 0xBBEA0, size: 0x8, addend: 0x0, symName: __ZN5QRectC1Ev, symObjAddr: 0x2F50, symBinAddr: 0x10000AE80, symSize: 0x20 }
  - { offset: 0xBBECA, size: 0x8, addend: 0x0, symName: __ZNK5QListIN5Tiled13WorldMapEntryEE5beginEv, symObjAddr: 0x2F70, symBinAddr: 0x10000AEA0, symSize: 0x40 }
  - { offset: 0xBBEF0, size: 0x8, addend: 0x0, symName: __ZNK5QListIN5Tiled13WorldMapEntryEE3endEv, symObjAddr: 0x2FB0, symBinAddr: 0x10000AEE0, symSize: 0x40 }
  - { offset: 0xBBF16, size: 0x8, addend: 0x0, symName: __ZNK5QListIN5Tiled13WorldMapEntryEE14const_iteratorneES3_, symObjAddr: 0x2FF0, symBinAddr: 0x10000AF20, symSize: 0x20 }
  - { offset: 0xBBF4A, size: 0x8, addend: 0x0, symName: __ZNK5QListIN5Tiled13WorldMapEntryEE14const_iteratordeEv, symObjAddr: 0x3010, symBinAddr: 0x10000AF40, symSize: 0x20 }
  - { offset: 0xBBF70, size: 0x8, addend: 0x0, symName: __ZNKSt3__110unique_ptrIN5Tiled11MapRendererENS_14default_deleteIS2_EEEptB9nqe210106Ev, symObjAddr: 0x3030, symBinAddr: 0x10000AF60, symSize: 0x20 }
  - { offset: 0xBBF96, size: 0x8, addend: 0x0, symName: __ZN5QRect9translateERK6QPoint, symObjAddr: 0x3050, symBinAddr: 0x10000AF80, symSize: 0x90 }
  - { offset: 0xBBFCE, size: 0x8, addend: 0x0, symName: __ZNK5QRect7topLeftEv, symObjAddr: 0x30E0, symBinAddr: 0x10000B010, symSize: 0x40 }
  - { offset: 0xBBFF5, size: 0x8, addend: 0x0, symName: __ZNK5QRect6unitedERKS_, symObjAddr: 0x3120, symBinAddr: 0x10000B050, symSize: 0x40 }
  - { offset: 0xBC02D, size: 0x8, addend: 0x0, symName: __ZN5QListIN5Tiled13WorldMapEntryEE14const_iteratorppEv, symObjAddr: 0x3160, symBinAddr: 0x10000B090, symSize: 0x20 }
  - { offset: 0xBC053, size: 0x8, addend: 0x0, symName: __ZN8QPainter9translateERK6QPoint, symObjAddr: 0x3180, symBinAddr: 0x10000B0B0, symSize: 0x50 }
  - { offset: 0xBC08A, size: 0x8, addend: 0x0, symName: __ZngRK6QPoint, symObjAddr: 0x31D0, symBinAddr: 0x10000B100, symSize: 0x60 }
  - { offset: 0xBC0B7, size: 0x8, addend: 0x0, symName: __ZN5QListIN5Tiled13WorldMapEntryEED1Ev, symObjAddr: 0x3230, symBinAddr: 0x10000B160, symSize: 0x20 }
  - { offset: 0xBC0E3, size: 0x8, addend: 0x0, symName: __ZNSt3__110unique_ptrIN5Tiled5WorldENS_14default_deleteIS2_EEED1B9nqe210106Ev, symObjAddr: 0x3250, symBinAddr: 0x10000B180, symSize: 0x20 }
  - { offset: 0xBC10D, size: 0x8, addend: 0x0, symName: __ZN5QListI7QStringEC2Ev, symObjAddr: 0x3270, symBinAddr: 0x10000B1A0, symSize: 0x20 }
  - { offset: 0xBC137, size: 0x8, addend: 0x0, symName: __ZN17QArrayDataPointerI7QStringEC1Ev, symObjAddr: 0x3290, symBinAddr: 0x10000B1C0, symSize: 0x20 }
  - { offset: 0xBC161, size: 0x8, addend: 0x0, symName: __ZN17QArrayDataPointerI7QStringEC2Ev, symObjAddr: 0x32B0, symBinAddr: 0x10000B1E0, symSize: 0x30 }
  - { offset: 0xBC18B, size: 0x8, addend: 0x0, symName: __ZN5Tiled13LayerIteratorC2EPKNS_3MapEi, symObjAddr: 0x32E0, symBinAddr: 0x10000B210, symSize: 0x40 }
  - { offset: 0xBC1D7, size: 0x8, addend: 0x0, symName: __ZN7QPointFC1Edd, symObjAddr: 0x3320, symBinAddr: 0x10000B250, symSize: 0x30 }
  - { offset: 0xBC223, size: 0x8, addend: 0x0, symName: __ZN7QPointFC2Edd, symObjAddr: 0x3350, symBinAddr: 0x10000B280, symSize: 0x30 }
  - { offset: 0xBC26F, size: 0x8, addend: 0x0, symName: __ZN7QPointFC2ERK6QPoint, symObjAddr: 0x3380, symBinAddr: 0x10000B2B0, symSize: 0x50 }
  - { offset: 0xBC2AB, size: 0x8, addend: 0x0, symName: __ZNK6QPoint1xEv, symObjAddr: 0x33D0, symBinAddr: 0x10000B300, symSize: 0x20 }
  - { offset: 0xBC2D2, size: 0x8, addend: 0x0, symName: __ZNK6QPoint1yEv, symObjAddr: 0x33F0, symBinAddr: 0x10000B320, symSize: 0x20 }
  - { offset: 0xBC2F9, size: 0x8, addend: 0x0, symName: __ZNK9QtPrivate16QCheckedIntegers11QCheckedIntIiNS0_13SafeCheckImplIiEENS0_18AssertReportPolicyEE5valueEv, symObjAddr: 0x3410, symBinAddr: 0x10000B340, symSize: 0x10 }
  - { offset: 0xBC31F, size: 0x8, addend: 0x0, symName: __ZN6QRectFC2Ev, symObjAddr: 0x3420, symBinAddr: 0x10000B350, symSize: 0x30 }
  - { offset: 0xBC349, size: 0x8, addend: 0x0, symName: __ZN5QListIPN5Tiled9MapObjectEEC2ERKS3_, symObjAddr: 0x3450, symBinAddr: 0x10000B380, symSize: 0x30 }
  - { offset: 0xBC37E, size: 0x8, addend: 0x0, symName: __ZN17QArrayDataPointerIPN5Tiled9MapObjectEEC1ERKS3_, symObjAddr: 0x3480, symBinAddr: 0x10000B3B0, symSize: 0x30 }
  - { offset: 0xBC3B6, size: 0x8, addend: 0x0, symName: __ZN17QArrayDataPointerIPN5Tiled9MapObjectEEC2ERKS3_, symObjAddr: 0x34B0, symBinAddr: 0x10000B3E0, symSize: 0x50 }
  - { offset: 0xBC3EE, size: 0x8, addend: 0x0, symName: __ZN17QArrayDataPointerIPN5Tiled9MapObjectEE3refEv, symObjAddr: 0x3500, symBinAddr: 0x10000B430, symSize: 0x30 }
  - { offset: 0xBC414, size: 0x8, addend: 0x0, symName: __ZNK5Tiled4Cell7isEmptyEv, symObjAddr: 0x3680, symBinAddr: 0x10000B460, symSize: 0x20 }
  - { offset: 0xBC43A, size: 0x8, addend: 0x0, symName: __ZNK7QPointF1xEv, symObjAddr: 0x36A0, symBinAddr: 0x10000B480, symSize: 0x20 }
  - { offset: 0xBC462, size: 0x8, addend: 0x0, symName: __ZNK7QPointF1yEv, symObjAddr: 0x36C0, symBinAddr: 0x10000B4A0, symSize: 0x20 }
  - { offset: 0xBC48A, size: 0x8, addend: 0x0, symName: __ZN5QListIPN5Tiled9MapObjectEED2Ev, symObjAddr: 0x36E0, symBinAddr: 0x10000B4C0, symSize: 0x20 }
  - { offset: 0xBC4B6, size: 0x8, addend: 0x0, symName: __ZN17QArrayDataPointerIPN5Tiled9MapObjectEED1Ev, symObjAddr: 0x3700, symBinAddr: 0x10000B4E0, symSize: 0x20 }
  - { offset: 0xBC4E0, size: 0x8, addend: 0x0, symName: __ZN17QArrayDataPointerIPN5Tiled9MapObjectEED2Ev, symObjAddr: 0x3720, symBinAddr: 0x10000B500, symSize: 0x40 }
  - { offset: 0xBC50A, size: 0x8, addend: 0x0, symName: __ZN17QArrayDataPointerIPN5Tiled9MapObjectEE5derefEv, symObjAddr: 0x3760, symBinAddr: 0x10000B540, symSize: 0x40 }
  - { offset: 0xBC530, size: 0x8, addend: 0x0, symName: __ZN17QArrayDataPointerIPN5Tiled9MapObjectEEptEv, symObjAddr: 0x37A0, symBinAddr: 0x10000B580, symSize: 0x10 }
  - { offset: 0xBC556, size: 0x8, addend: 0x0, symName: __ZN9QtPrivate12QPodArrayOpsIPN5Tiled9MapObjectEE10destroyAllEv, symObjAddr: 0x37B0, symBinAddr: 0x10000B590, symSize: 0x70 }
  - { offset: 0xBC57C, size: 0x8, addend: 0x0, symName: __ZN15QTypedArrayDataIPN5Tiled9MapObjectEE10deallocateEP10QArrayData, symObjAddr: 0x3820, symBinAddr: 0x10000B600, symSize: 0x30 }
  - { offset: 0xBC59F, size: 0x8, addend: 0x0, symName: __ZNK5Tiled5Layer4nameEv, symObjAddr: 0x3A70, symBinAddr: 0x10000B630, symSize: 0x20 }
  - { offset: 0xBC5C5, size: 0x8, addend: 0x0, symName: __ZNK5Tiled5Layer11parentLayerEv, symObjAddr: 0x3A90, symBinAddr: 0x10000B650, symSize: 0x20 }
  - { offset: 0xBC5EB, size: 0x8, addend: 0x0, symName: __ZNK23QListSpecialMethodsBaseI7QStringE4selfEv, symObjAddr: 0x3AB0, symBinAddr: 0x10000B670, symSize: 0x10 }
  - { offset: 0xBC611, size: 0x8, addend: 0x0, symName: __ZNSt3__110unique_ptrIN5Tiled3MapENS_14default_deleteIS2_EEEC2B9nqe210106ILb1EvEEv, symObjAddr: 0x3CD0, symBinAddr: 0x10000B680, symSize: 0x20 }
  - { offset: 0xBC647, size: 0x8, addend: 0x0, symName: __ZNSt3__110unique_ptrIN5Tiled11MapRendererENS_14default_deleteIS2_EEEC2B9nqe210106ILb1EvEEv, symObjAddr: 0x3CF0, symBinAddr: 0x10000B6A0, symSize: 0x20 }
  - { offset: 0xBC67D, size: 0x8, addend: 0x0, symName: __ZNK10QByteArray4dataEv, symObjAddr: 0x3EF0, symBinAddr: 0x10000B710, symSize: 0x50 }
  - { offset: 0xBC6A5, size: 0x8, addend: 0x0, symName: __ZNK17QArrayDataPointerIcE4dataEv, symObjAddr: 0x3F40, symBinAddr: 0x10000B760, symSize: 0x20 }
  - { offset: 0xBC6CB, size: 0x8, addend: 0x0, symName: __ZN10QByteArrayD2Ev, symObjAddr: 0x3F60, symBinAddr: 0x10000B780, symSize: 0x20 }
  - { offset: 0xBC6F7, size: 0x8, addend: 0x0, symName: __ZN17QArrayDataPointerIcED1Ev, symObjAddr: 0x3F80, symBinAddr: 0x10000B7A0, symSize: 0x20 }
  - { offset: 0xBC721, size: 0x8, addend: 0x0, symName: __ZN17QArrayDataPointerIcED2Ev, symObjAddr: 0x3FA0, symBinAddr: 0x10000B7C0, symSize: 0x40 }
  - { offset: 0xBC74B, size: 0x8, addend: 0x0, symName: __ZN17QArrayDataPointerIcE5derefEv, symObjAddr: 0x3FE0, symBinAddr: 0x10000B800, symSize: 0x40 }
  - { offset: 0xBC771, size: 0x8, addend: 0x0, symName: __ZN17QArrayDataPointerIcEptEv, symObjAddr: 0x4020, symBinAddr: 0x10000B840, symSize: 0x10 }
  - { offset: 0xBC797, size: 0x8, addend: 0x0, symName: __ZN9QtPrivate12QPodArrayOpsIcE10destroyAllEv, symObjAddr: 0x4030, symBinAddr: 0x10000B850, symSize: 0x70 }
  - { offset: 0xBC7BD, size: 0x8, addend: 0x0, symName: __ZN15QTypedArrayDataIcE10deallocateEP10QArrayData, symObjAddr: 0x40A0, symBinAddr: 0x10000B8C0, symSize: 0x30 }
  - { offset: 0xBC7E0, size: 0x8, addend: 0x0, symName: __ZN7QString4swapERS_, symObjAddr: 0x45C0, symBinAddr: 0x10000B8F0, symSize: 0x30 }
  - { offset: 0xBC816, size: 0x8, addend: 0x0, symName: __ZN17QArrayDataPointerIDsE4swapERS0_, symObjAddr: 0x45F0, symBinAddr: 0x10000B920, symSize: 0x60 }
  - { offset: 0xBC849, size: 0x8, addend: 0x0, symName: __Z11qt_ptr_swapI15QTypedArrayDataIDsEEvRPT_S4_, symObjAddr: 0x4650, symBinAddr: 0x10000B980, symSize: 0x40 }
  - { offset: 0xBC896, size: 0x8, addend: 0x0, symName: __Z11qt_ptr_swapIDsEvRPT_S2_, symObjAddr: 0x4690, symBinAddr: 0x10000B9C0, symSize: 0x40 }
  - { offset: 0xBC8E4, size: 0x8, addend: 0x0, symName: __ZNK5QRect5widthEv, symObjAddr: 0x4710, symBinAddr: 0x10000BA00, symSize: 0x60 }
  - { offset: 0xBC90C, size: 0x8, addend: 0x0, symName: __ZNK5QRect6heightEv, symObjAddr: 0x4770, symBinAddr: 0x10000BA60, symSize: 0x60 }
  - { offset: 0xBC934, size: 0x8, addend: 0x0, symName: __ZN5QSizeC1Eii, symObjAddr: 0x47D0, symBinAddr: 0x10000BAC0, symSize: 0x30 }
  - { offset: 0xBC97B, size: 0x8, addend: 0x0, symName: __ZN9QtPrivate16QCheckedIntegers11QCheckedIntIiNS0_13SafeCheckImplIiEENS0_18AssertReportPolicyEEC1Ei, symObjAddr: 0x4900, symBinAddr: 0x10000BBF0, symSize: 0x30 }
  - { offset: 0xBC9B3, size: 0x8, addend: 0x0, symName: __ZN9QtPrivate16QCheckedIntegers13SafeCheckImplIiE3addEiiPi, symObjAddr: 0x4930, symBinAddr: 0x10000BC20, symSize: 0x40 }
  - { offset: 0xBC9F2, size: 0x8, addend: 0x0, symName: __ZN9QtPrivate16QCheckedIntegers18AssertReportPolicy5checkEbPKcS3_, symObjAddr: 0x4970, symBinAddr: 0x10000BC60, symSize: 0x40 }
  - { offset: 0xBCA31, size: 0x8, addend: 0x0, symName: __Z12qAddOverflowIiENSt3__19enable_ifIXsr3stdE11is_signed_vIT_EEbE4typeES2_S2_PS2_, symObjAddr: 0x49B0, symBinAddr: 0x10000BCA0, symSize: 0x30 }
  - { offset: 0xBCA8A, size: 0x8, addend: 0x0, symName: __ZN9QtPrivate16QCheckedIntegers11QCheckedIntIiNS0_13SafeCheckImplIiEENS0_18AssertReportPolicyEEC2Ei, symObjAddr: 0x49E0, symBinAddr: 0x10000BCD0, symSize: 0x20 }
  - { offset: 0xBCAC2, size: 0x8, addend: 0x0, symName: __ZN9QtPrivate16QCheckedIntegers13SafeCheckImplIiE3subEiiPi, symObjAddr: 0x4A00, symBinAddr: 0x10000BCF0, symSize: 0x40 }
  - { offset: 0xBCB01, size: 0x8, addend: 0x0, symName: __Z12qSubOverflowIiENSt3__19enable_ifIXsr3stdE11is_signed_vIT_EEbE4typeES2_S2_PS2_, symObjAddr: 0x4A40, symBinAddr: 0x10000BD30, symSize: 0x30 }
  - { offset: 0xBCB5A, size: 0x8, addend: 0x0, symName: __ZN5QSizeC2Eii, symObjAddr: 0x4A70, symBinAddr: 0x10000BD60, symSize: 0x40 }
  - { offset: 0xBCBA1, size: 0x8, addend: 0x0, symName: __ZNR9QtPrivate16QCheckedIntegers11QCheckedIntIiNS0_13SafeCheckImplIiEENS0_18AssertReportPolicyEE13as_underlyingEv, symObjAddr: 0x4AB0, symBinAddr: 0x10000BDA0, symSize: 0x10 }
  - { offset: 0xBCBC7, size: 0x8, addend: 0x0, symName: __ZN6QPointC2Eii, symObjAddr: 0x4AC0, symBinAddr: 0x10000BDB0, symSize: 0x40 }
  - { offset: 0xBCC0E, size: 0x8, addend: 0x0, symName: __ZN10QByteArrayC2Ev, symObjAddr: 0x4B00, symBinAddr: 0x10000BDF0, symSize: 0x20 }
  - { offset: 0xBCC3A, size: 0x8, addend: 0x0, symName: __ZN17QArrayDataPointerIcEC1Ev, symObjAddr: 0x4B20, symBinAddr: 0x10000BE10, symSize: 0x20 }
  - { offset: 0xBCC64, size: 0x8, addend: 0x0, symName: __ZN17QArrayDataPointerIcEC2Ev, symObjAddr: 0x4B40, symBinAddr: 0x10000BE30, symSize: 0x30 }
  - { offset: 0xBCC8E, size: 0x8, addend: 0x0, symName: __ZNK5QListIN5Tiled13WorldMapEntryEE4sizeEv, symObjAddr: 0x4B70, symBinAddr: 0x10000BE60, symSize: 0x50 }
  - { offset: 0xBCCF8, size: 0x8, addend: 0x0, symName: __ZZNK5QListIN5Tiled13WorldMapEntryEE4sizeEvENKUlvE_clEv, symObjAddr: 0x4BC0, symBinAddr: 0x10000BEB0, symSize: 0x50 }
  - { offset: 0xBCD22, size: 0x8, addend: 0x0, symName: __ZN5QRectC2Ev, symObjAddr: 0x4C10, symBinAddr: 0x10000BF00, symSize: 0x60 }
  - { offset: 0xBCD4C, size: 0x8, addend: 0x0, symName: __ZN9QtPrivate16QCheckedIntegers11QCheckedIntIiNS0_13SafeCheckImplIiEENS0_18AssertReportPolicyEEpLIiLb1EEERS5_T_, symObjAddr: 0x4C70, symBinAddr: 0x10000BF60, symSize: 0x50 }
  - { offset: 0xBCD8F, size: 0x8, addend: 0x0, symName: __ZN6QPointC1EN9QtPrivate16QCheckedIntegers11QCheckedIntIiNS1_13SafeCheckImplIiEENS1_18AssertReportPolicyEEES6_, symObjAddr: 0x4CC0, symBinAddr: 0x10000BFB0, symSize: 0x30 }
  - { offset: 0xBCDD5, size: 0x8, addend: 0x0, symName: __ZN6QPointC2EN9QtPrivate16QCheckedIntegers11QCheckedIntIiNS1_13SafeCheckImplIiEENS1_18AssertReportPolicyEEES6_, symObjAddr: 0x4CF0, symBinAddr: 0x10000BFE0, symSize: 0x20 }
  - { offset: 0xBCE1B, size: 0x8, addend: 0x0, symName: __ZNK9QtPrivate16QCheckedIntegers11QCheckedIntIiNS0_13SafeCheckImplIiEENS0_18AssertReportPolicyEEngEv, symObjAddr: 0x4D10, symBinAddr: 0x10000C000, symSize: 0x60 }
  - { offset: 0xBCE5D, size: 0x8, addend: 0x0, symName: __ZN5QListIN5Tiled13WorldMapEntryEED2Ev, symObjAddr: 0x4D70, symBinAddr: 0x10000C060, symSize: 0x20 }
  - { offset: 0xBCE89, size: 0x8, addend: 0x0, symName: __ZN17QArrayDataPointerIN5Tiled13WorldMapEntryEED1Ev, symObjAddr: 0x4D90, symBinAddr: 0x10000C080, symSize: 0x20 }
  - { offset: 0xBCEB3, size: 0x8, addend: 0x0, symName: __ZN17QArrayDataPointerIN5Tiled13WorldMapEntryEED2Ev, symObjAddr: 0x4DB0, symBinAddr: 0x10000C0A0, symSize: 0x50 }
  - { offset: 0xBCEDD, size: 0x8, addend: 0x0, symName: __ZN17QArrayDataPointerIN5Tiled13WorldMapEntryEE5derefEv, symObjAddr: 0x4E00, symBinAddr: 0x10000C0F0, symSize: 0x40 }
  - { offset: 0xBCF03, size: 0x8, addend: 0x0, symName: __ZN17QArrayDataPointerIN5Tiled13WorldMapEntryEEptEv, symObjAddr: 0x4E40, symBinAddr: 0x10000C130, symSize: 0x10 }
  - { offset: 0xBCF29, size: 0x8, addend: 0x0, symName: __ZN9QtPrivate16QGenericArrayOpsIN5Tiled13WorldMapEntryEE10destroyAllEv, symObjAddr: 0x4E50, symBinAddr: 0x10000C140, symSize: 0x90 }
  - { offset: 0xBCF4F, size: 0x8, addend: 0x0, symName: __ZN15QTypedArrayDataIN5Tiled13WorldMapEntryEE10deallocateEP10QArrayData, symObjAddr: 0x4EE0, symBinAddr: 0x10000C1D0, symSize: 0x30 }
  - { offset: 0xBCF72, size: 0x8, addend: 0x0, symName: __ZN17QArrayDataPointerIN5Tiled13WorldMapEntryEE5beginEv, symObjAddr: 0x4F40, symBinAddr: 0x10000C230, symSize: 0x20 }
  - { offset: 0xBCF98, size: 0x8, addend: 0x0, symName: __ZN17QArrayDataPointerIN5Tiled13WorldMapEntryEE3endEv, symObjAddr: 0x4F60, symBinAddr: 0x10000C250, symSize: 0x30 }
  - { offset: 0xBCFBE, size: 0x8, addend: 0x0, symName: __ZN5Tiled13WorldMapEntryD1Ev, symObjAddr: 0x4FF0, symBinAddr: 0x10000C2E0, symSize: 0x20 }
  - { offset: 0xBCFEA, size: 0x8, addend: 0x0, symName: __ZN5Tiled13WorldMapEntryD2Ev, symObjAddr: 0x5010, symBinAddr: 0x10000C300, symSize: 0x20 }
  - { offset: 0xBD016, size: 0x8, addend: 0x0, symName: __ZN17QArrayDataPointerIN5Tiled13WorldMapEntryEE4dataEv, symObjAddr: 0x5030, symBinAddr: 0x10000C320, symSize: 0x20 }
  - { offset: 0xBD03C, size: 0x8, addend: 0x0, symName: __ZN5QListIPN5Tiled9MapObjectEE6detachEv, symObjAddr: 0x5050, symBinAddr: 0x10000C340, symSize: 0x20 }
  - { offset: 0xBD062, size: 0x8, addend: 0x0, symName: __ZN17QArrayDataPointerIPN5Tiled9MapObjectEE5beginEv, symObjAddr: 0x5070, symBinAddr: 0x10000C360, symSize: 0x20 }
  - { offset: 0xBD088, size: 0x8, addend: 0x0, symName: __ZN5QListIPN5Tiled9MapObjectEE8iteratorC1EPS2_, symObjAddr: 0x5090, symBinAddr: 0x10000C380, symSize: 0x30 }
  - { offset: 0xBD0C0, size: 0x8, addend: 0x0, symName: __ZN17QArrayDataPointerIPN5Tiled9MapObjectEE6detachEPS3_, symObjAddr: 0x50C0, symBinAddr: 0x10000C3B0, symSize: 0x40 }
  - { offset: 0xBD0F4, size: 0x8, addend: 0x0, symName: __ZNK17QArrayDataPointerIPN5Tiled9MapObjectEE11needsDetachEv, symObjAddr: 0x5100, symBinAddr: 0x10000C3F0, symSize: 0x40 }
  - { offset: 0xBD11A, size: 0x8, addend: 0x0, symName: __ZN17QArrayDataPointerIPN5Tiled9MapObjectEE17reallocateAndGrowEN10QArrayData14GrowthPositionExPS3_, symObjAddr: 0x5140, symBinAddr: 0x10000C430, symSize: 0x260 }
  - { offset: 0xBD196, size: 0x8, addend: 0x0, symName: __ZN10QArrayData11needsDetachEv, symObjAddr: 0x53A0, symBinAddr: 0x10000C690, symSize: 0x30 }
  - { offset: 0xBD1BC, size: 0x8, addend: 0x0, symName: __ZN9QtPrivate12QPodArrayOpsIPN5Tiled9MapObjectEE10reallocateExN10QArrayData16AllocationOptionE, symObjAddr: 0x53D0, symBinAddr: 0x10000C6C0, symSize: 0x80 }
  - { offset: 0xBD212, size: 0x8, addend: 0x0, symName: __ZNK17QArrayDataPointerIPN5Tiled9MapObjectEE22constAllocatedCapacityEv, symObjAddr: 0x5450, symBinAddr: 0x10000C740, symSize: 0x40 }
  - { offset: 0xBD238, size: 0x8, addend: 0x0, symName: __ZNK17QArrayDataPointerIPN5Tiled9MapObjectEE14freeSpaceAtEndEv, symObjAddr: 0x5490, symBinAddr: 0x10000C780, symSize: 0x60 }
  - { offset: 0xBD25E, size: 0x8, addend: 0x0, symName: __ZN17QArrayDataPointerIPN5Tiled9MapObjectEE12allocateGrowERKS3_xN10QArrayData14GrowthPositionE, symObjAddr: 0x54F0, symBinAddr: 0x10000C7E0, symSize: 0x230 }
  - { offset: 0xBD300, size: 0x8, addend: 0x0, symName: __ZN17QArrayDataPointerIPN5Tiled9MapObjectEE4dataEv, symObjAddr: 0x5720, symBinAddr: 0x10000CA10, symSize: 0x20 }
  - { offset: 0xBD326, size: 0x8, addend: 0x0, symName: __ZNK17QArrayDataPointerIPN5Tiled9MapObjectEE16freeSpaceAtBeginEv, symObjAddr: 0x5740, symBinAddr: 0x10000CA30, symSize: 0x60 }
  - { offset: 0xBD34C, size: 0x8, addend: 0x0, symName: __ZN9QtPrivate12QPodArrayOpsIPN5Tiled9MapObjectEE10copyAppendEPKS3_S6_, symObjAddr: 0x57A0, symBinAddr: 0x10000CA90, symSize: 0x140 }
  - { offset: 0xBD38E, size: 0x8, addend: 0x0, symName: __ZN9QtPrivate12QPodArrayOpsIPN5Tiled9MapObjectEE10moveAppendEPS3_S5_, symObjAddr: 0x58E0, symBinAddr: 0x10000CBD0, symSize: 0x30 }
  - { offset: 0xBD3D0, size: 0x8, addend: 0x0, symName: __ZN17QArrayDataPointerIPN5Tiled9MapObjectEE4swapERS3_, symObjAddr: 0x5910, symBinAddr: 0x10000CC00, symSize: 0x60 }
  - { offset: 0xBD404, size: 0x8, addend: 0x0, symName: __ZN15QTypedArrayDataIPN5Tiled9MapObjectEE19reallocateUnalignedEPS3_PS2_xN10QArrayData16AllocationOptionE, symObjAddr: 0x5970, symBinAddr: 0x10000CC60, symSize: 0x70 }
  - { offset: 0xBD469, size: 0x8, addend: 0x0, symName: __ZNSt3__14pairIP15QTypedArrayDataIPN5Tiled9MapObjectEEPS4_EC1B9nqe210106IS6_S7_Li0EEEOT_OT0_, symObjAddr: 0x59E0, symBinAddr: 0x10000CCD0, symSize: 0x30 }
  - { offset: 0xBD4C7, size: 0x8, addend: 0x0, symName: __ZNSt3__14pairIP15QTypedArrayDataIPN5Tiled9MapObjectEEPS4_EC2B9nqe210106IS6_S7_Li0EEEOT_OT0_, symObjAddr: 0x5A10, symBinAddr: 0x10000CD00, symSize: 0x30 }
  - { offset: 0xBD524, size: 0x8, addend: 0x0, symName: __Z4qMaxIxERKT_S2_S2_, symObjAddr: 0x5A60, symBinAddr: 0x10000CD30, symSize: 0x40 }
  - { offset: 0xBD568, size: 0x8, addend: 0x0, symName: __ZNK17QArrayDataPointerIPN5Tiled9MapObjectEE14detachCapacityEx, symObjAddr: 0x5AA0, symBinAddr: 0x10000CD70, symSize: 0x50 }
  - { offset: 0xBD59E, size: 0x8, addend: 0x0, symName: __ZN15QTypedArrayDataIPN5Tiled9MapObjectEE8allocateExN10QArrayData16AllocationOptionE, symObjAddr: 0x5AF0, symBinAddr: 0x10000CDC0, symSize: 0x60 }
  - { offset: 0xBD5EB, size: 0x8, addend: 0x0, symName: __ZN17QArrayDataPointerIPN5Tiled9MapObjectEEC1EP15QTypedArrayDataIS2_EPS2_x, symObjAddr: 0x5B90, symBinAddr: 0x10000CE60, symSize: 0x40 }
  - { offset: 0xBD63E, size: 0x8, addend: 0x0, symName: __Z4qMaxIixEN11QTypeTraits6detail8PromotedIT_T0_NSt3__19enable_ifIXaaaaaaaaaaaaaasr3stdE15is_arithmetic_vIS3_Esr3stdE15is_arithmetic_vIS4_Eeqsr3stdE19is_floating_point_vIS3_Esr3stdE19is_floating_point_vIS4_Eeqsr3stdE11is_signed_vIS3_Esr3stdE11is_signed_vIS4_Entsr3stdE9is_same_vIS3_bEntsr3stdE9is_same_vIS4_bEntsr3stdE9is_same_vIS3_cEntsr3stdE9is_same_vIS4_cEEvE4typeEE4typeERKS3_RKS4_, symObjAddr: 0x5BD0, symBinAddr: 0x10000CEA0, symSize: 0x50 }
  - { offset: 0xBD6B2, size: 0x8, addend: 0x0, symName: __ZNK17QArrayDataPointerIPN5Tiled9MapObjectEE5flagsEv, symObjAddr: 0x5C20, symBinAddr: 0x10000CEF0, symSize: 0x40 }
  - { offset: 0xBD6D8, size: 0x8, addend: 0x0, symName: __ZNK10QArrayData14detachCapacityEx, symObjAddr: 0x5C60, symBinAddr: 0x10000CF30, symSize: 0x90 }
  - { offset: 0xBD70C, size: 0x8, addend: 0x0, symName: __ZNK6QFlagsIN10QArrayData11ArrayOptionEEanES1_, symObjAddr: 0x5CF0, symBinAddr: 0x10000CFC0, symSize: 0x40 }
  - { offset: 0xBD740, size: 0x8, addend: 0x0, symName: __ZNK6QFlagsIN10QArrayData11ArrayOptionEEcvjEv, symObjAddr: 0x5D30, symBinAddr: 0x10000D000, symSize: 0x10 }
  - { offset: 0xBD766, size: 0x8, addend: 0x0, symName: __ZN6QFlagsIN10QArrayData11ArrayOptionEECI1N9QtPrivate13QFlagsStorageIS1_EEENSt3__110in_place_tEj, symObjAddr: 0x5D40, symBinAddr: 0x10000D010, symSize: 0x30 }
  - { offset: 0xBD7A4, size: 0x8, addend: 0x0, symName: __ZN6QFlagsIN10QArrayData11ArrayOptionEECI2N9QtPrivate13QFlagsStorageIS1_EEENSt3__110in_place_tEj, symObjAddr: 0x5D70, symBinAddr: 0x10000D040, symSize: 0x30 }
  - { offset: 0xBD7E2, size: 0x8, addend: 0x0, symName: __ZN9QtPrivate19QFlagsStorageHelperIN10QArrayData11ArrayOptionELi4EECI2NS_13QFlagsStorageIS2_EEENSt3__110in_place_tEj, symObjAddr: 0x5DA0, symBinAddr: 0x10000D070, symSize: 0x30 }
  - { offset: 0xBD820, size: 0x8, addend: 0x0, symName: __ZN9QtPrivate13QFlagsStorageIN10QArrayData11ArrayOptionEEC2ENSt3__110in_place_tEj, symObjAddr: 0x5DD0, symBinAddr: 0x10000D0A0, symSize: 0x20 }
  - { offset: 0xBD863, size: 0x8, addend: 0x0, symName: __ZNSt3__110__get_pairILm0EE3getB9nqe210106IP15QTypedArrayDataIPN5Tiled9MapObjectEEPS6_EEOT_ONS_4pairISA_T0_EE, symObjAddr: 0x5DF0, symBinAddr: 0x10000D0C0, symSize: 0x10 }
  - { offset: 0xBD89A, size: 0x8, addend: 0x0, symName: __ZNSt3__110__get_pairILm1EE3getB9nqe210106IP15QTypedArrayDataIPN5Tiled9MapObjectEEPS6_EEOT0_ONS_4pairIT_SA_EE, symObjAddr: 0x5E00, symBinAddr: 0x10000D0D0, symSize: 0x20 }
  - { offset: 0xBD8D1, size: 0x8, addend: 0x0, symName: __ZN17QArrayDataPointerIPN5Tiled9MapObjectEEC2EP15QTypedArrayDataIS2_EPS2_x, symObjAddr: 0x5E20, symBinAddr: 0x10000D0F0, symSize: 0x40 }
  - { offset: 0xBD925, size: 0x8, addend: 0x0, symName: __ZN6QFlagsIN10QArrayData11ArrayOptionEEC1ES1_, symObjAddr: 0x5E60, symBinAddr: 0x10000D130, symSize: 0x30 }
  - { offset: 0xBD95D, size: 0x8, addend: 0x0, symName: __ZN6QFlagsIN10QArrayData11ArrayOptionEEC2ES1_, symObjAddr: 0x5E90, symBinAddr: 0x10000D160, symSize: 0x30 }
  - { offset: 0xBD995, size: 0x8, addend: 0x0, symName: __ZN15QTypedArrayDataIPN5Tiled9MapObjectEE9dataStartEP10QArrayDatax, symObjAddr: 0x5EC0, symBinAddr: 0x10000D190, symSize: 0x80 }
  - { offset: 0xBD9D4, size: 0x8, addend: 0x0, symName: __ZNK17QArrayDataPointerIPN5Tiled9MapObjectEE9isMutableEv, symObjAddr: 0x5F40, symBinAddr: 0x10000D210, symSize: 0x20 }
  - { offset: 0xBD9FA, size: 0x8, addend: 0x0, symName: __ZNK17QArrayDataPointerIPN5Tiled9MapObjectEE8isSharedEv, symObjAddr: 0x5F60, symBinAddr: 0x10000D230, symSize: 0x40 }
  - { offset: 0xBDA20, size: 0x8, addend: 0x0, symName: __ZN17QArrayDataPointerIPN5Tiled9MapObjectEE3endEv, symObjAddr: 0x5FA0, symBinAddr: 0x10000D270, symSize: 0x30 }
  - { offset: 0xBDA45, size: 0x8, addend: 0x0, symName: __Z11qt_ptr_swapI15QTypedArrayDataIPN5Tiled9MapObjectEEEvRPT_S7_, symObjAddr: 0x6000, symBinAddr: 0x10000D2A0, symSize: 0x40 }
  - { offset: 0xBDA92, size: 0x8, addend: 0x0, symName: __Z11qt_ptr_swapIPN5Tiled9MapObjectEEvRPT_S5_, symObjAddr: 0x6040, symBinAddr: 0x10000D2E0, symSize: 0x40 }
  - { offset: 0xBDAE0, size: 0x8, addend: 0x0, symName: __ZN5QListIPN5Tiled9MapObjectEE8iteratorC2EPS2_, symObjAddr: 0x6080, symBinAddr: 0x10000D320, symSize: 0x20 }
  - { offset: 0xBDB18, size: 0x8, addend: 0x0, symName: __ZNK17QArrayDataPointerIPN5Tiled9MapObjectEEptEv, symObjAddr: 0x60A0, symBinAddr: 0x10000D340, symSize: 0x10 }
  - { offset: 0xBDB3E, size: 0x8, addend: 0x0, symName: __ZNK17QArrayDataPointerIPN5Tiled9MapObjectEE10constBeginEv, symObjAddr: 0x60B0, symBinAddr: 0x10000D350, symSize: 0x20 }
  - { offset: 0xBDB64, size: 0x8, addend: 0x0, symName: __ZN5QListIPN5Tiled9MapObjectEE14const_iteratorC1EPKS2_, symObjAddr: 0x60D0, symBinAddr: 0x10000D370, symSize: 0x30 }
  - { offset: 0xBDB9C, size: 0x8, addend: 0x0, symName: __ZNK17QArrayDataPointerIPN5Tiled9MapObjectEE4dataEv, symObjAddr: 0x6100, symBinAddr: 0x10000D3A0, symSize: 0x20 }
  - { offset: 0xBDBC2, size: 0x8, addend: 0x0, symName: __ZN5QListIPN5Tiled9MapObjectEE14const_iteratorC2EPKS2_, symObjAddr: 0x6120, symBinAddr: 0x10000D3C0, symSize: 0x20 }
  - { offset: 0xBDBFA, size: 0x8, addend: 0x0, symName: __ZNK17QArrayDataPointerIPN5Tiled9MapObjectEE8constEndEv, symObjAddr: 0x6140, symBinAddr: 0x10000D3E0, symSize: 0x30 }
  - { offset: 0xBDC20, size: 0x8, addend: 0x0, symName: __ZNK5QListIPN5Tiled9MapObjectEE8iteratormiES4_, symObjAddr: 0x62B0, symBinAddr: 0x10000D550, symSize: 0x20 }
  - { offset: 0xBDC7C, size: 0x8, addend: 0x0, symName: __ZNSt3__110unique_ptrIPN5Tiled9MapObjectENS_26__temporary_buffer_deleterIS3_EEEC1B9nqe210106ILb1EvEEv, symObjAddr: 0x62D0, symBinAddr: 0x10000D570, symSize: 0x20 }
  - { offset: 0xBDCDF, size: 0x8, addend: 0x0, symName: __ZNSt3__14pairIPPN5Tiled9MapObjectElEC1B9nqe210106INS_25__check_pair_constructionIS4_lEELi0EEERKS4_RKl, symObjAddr: 0x62F0, symBinAddr: 0x10000D590, symSize: 0x30 }
  - { offset: 0xBDD34, size: 0x8, addend: 0x0, symName: __ZNSt3__110unique_ptrIPN5Tiled9MapObjectENS_26__temporary_buffer_deleterIS3_EEEaSB9nqe210106EOS6_, symObjAddr: 0x63E0, symBinAddr: 0x10000D680, symSize: 0x50 }
  - { offset: 0xBDD68, size: 0x8, addend: 0x0, symName: __ZNSt3__110unique_ptrIPN5Tiled9MapObjectENS_26__temporary_buffer_deleterIS3_EEED1B9nqe210106Ev, symObjAddr: 0x6430, symBinAddr: 0x10000D6D0, symSize: 0x20 }
  - { offset: 0xBDD92, size: 0x8, addend: 0x0, symName: __ZNKSt3__110unique_ptrIPN5Tiled9MapObjectENS_26__temporary_buffer_deleterIS3_EEE3getB9nqe210106Ev, symObjAddr: 0x6450, symBinAddr: 0x10000D6F0, symSize: 0x20 }
  - { offset: 0xBDDB8, size: 0x8, addend: 0x0, symName: __ZNSt3__110unique_ptrIPN5Tiled9MapObjectENS_26__temporary_buffer_deleterIS3_EEE11get_deleterB9nqe210106Ev, symObjAddr: 0x6470, symBinAddr: 0x10000D710, symSize: 0x20 }
  - { offset: 0xBDDDE, size: 0x8, addend: 0x0, symName: __ZNSt3__110unique_ptrIPN5Tiled9MapObjectENS_26__temporary_buffer_deleterIS3_EEEC2B9nqe210106ILb1EvEEv, symObjAddr: 0x67C0, symBinAddr: 0x10000DA60, symSize: 0x30 }
  - { offset: 0xBDE14, size: 0x8, addend: 0x0, symName: __ZNSt3__126__temporary_buffer_deleterIPN5Tiled9MapObjectEEC1B9nqe210106Ev, symObjAddr: 0x67F0, symBinAddr: 0x10000DA90, symSize: 0x20 }
  - { offset: 0xBDE3E, size: 0x8, addend: 0x0, symName: __ZNSt3__126__temporary_buffer_deleterIPN5Tiled9MapObjectEEC2B9nqe210106Ev, symObjAddr: 0x6810, symBinAddr: 0x10000DAB0, symSize: 0x20 }
  - { offset: 0xBDE68, size: 0x8, addend: 0x0, symName: __ZNSt3__14pairIPPN5Tiled9MapObjectElEC2B9nqe210106INS_25__check_pair_constructionIS4_lEELi0EEERKS4_RKl, symObjAddr: 0x6830, symBinAddr: 0x10000DAD0, symSize: 0x30 }
  - { offset: 0xBDEBD, size: 0x8, addend: 0x0, symName: __ZNSt3__126__temporary_buffer_deleterIPN5Tiled9MapObjectEEC1B9nqe210106El, symObjAddr: 0x6860, symBinAddr: 0x10000DB00, symSize: 0x30 }
  - { offset: 0xBDEFA, size: 0x8, addend: 0x0, symName: __ZNSt3__110unique_ptrIPN5Tiled9MapObjectENS_26__temporary_buffer_deleterIS3_EEEC1B9nqe210106ILb1EvEEPS3_NS_16__dependent_typeINS_27__unique_ptr_deleter_sfinaeIS5_EEXT_EE20__good_rval_ref_typeE, symObjAddr: 0x6890, symBinAddr: 0x10000DB30, symSize: 0x30 }
  - { offset: 0xBDF4C, size: 0x8, addend: 0x0, symName: __ZNSt3__126__temporary_buffer_deleterIPN5Tiled9MapObjectEEC2B9nqe210106El, symObjAddr: 0x68C0, symBinAddr: 0x10000DB60, symSize: 0x20 }
  - { offset: 0xBDF84, size: 0x8, addend: 0x0, symName: __ZNSt3__110unique_ptrIPN5Tiled9MapObjectENS_26__temporary_buffer_deleterIS3_EEEC2B9nqe210106ILb1EvEEPS3_NS_16__dependent_typeINS_27__unique_ptr_deleter_sfinaeIS5_EEXT_EE20__good_rval_ref_typeE, symObjAddr: 0x68E0, symBinAddr: 0x10000DB80, symSize: 0x30 }
  - { offset: 0xBDFD6, size: 0x8, addend: 0x0, symName: __ZNSt3__110unique_ptrIPN5Tiled9MapObjectENS_26__temporary_buffer_deleterIS3_EEE5resetB9nqe210106EPS3_, symObjAddr: 0x6910, symBinAddr: 0x10000DBB0, symSize: 0x50 }
  - { offset: 0xBE01C, size: 0x8, addend: 0x0, symName: __ZNSt3__110unique_ptrIPN5Tiled9MapObjectENS_26__temporary_buffer_deleterIS3_EEE7releaseB9nqe210106Ev, symObjAddr: 0x6960, symBinAddr: 0x10000DC00, symSize: 0x20 }
  - { offset: 0xBE052, size: 0x8, addend: 0x0, symName: __ZNSt3__126__temporary_buffer_deleterIPN5Tiled9MapObjectEEclB9nqe210106EPS3_, symObjAddr: 0x6980, symBinAddr: 0x10000DC20, symSize: 0x30 }
  - { offset: 0xBE086, size: 0x8, addend: 0x0, symName: __ZNSt3__110unique_ptrIPN5Tiled9MapObjectENS_26__temporary_buffer_deleterIS3_EEED2B9nqe210106Ev, symObjAddr: 0x6A10, symBinAddr: 0x10000DCB0, symSize: 0x20 }
  - { offset: 0xBE0BA, size: 0x8, addend: 0x0, symName: '__ZZNK13TmxRasterizer13drawMapLayersERKN5Tiled11MapRendererER8QPainter6QPointENK3$_0clEPNS0_9MapObjectES9_', symObjAddr: 0x6A30, symBinAddr: 0x10000DCD0, symSize: 0x40 }
  - { offset: 0xBE100, size: 0x8, addend: 0x0, symName: __ZN5QListIPN5Tiled9MapObjectEE8iteratormmEv, symObjAddr: 0x6A70, symBinAddr: 0x10000DD10, symSize: 0x20 }
  - { offset: 0xBE126, size: 0x8, addend: 0x0, symName: __ZNK5QListIPN5Tiled9MapObjectEE8iteratordeEv, symObjAddr: 0x6A90, symBinAddr: 0x10000DD30, symSize: 0x20 }
  - { offset: 0xBE14C, size: 0x8, addend: 0x0, symName: __ZNSt3__18_IterOpsINS_17_ClassicAlgPolicyEE9iter_swapB9nqe210106IRN5QListIPN5Tiled9MapObjectEE8iteratorESA_EEvOT_OT0_, symObjAddr: 0x6AB0, symBinAddr: 0x10000DD50, symSize: 0x40 }
  - { offset: 0xBE18F, size: 0x8, addend: 0x0, symName: __ZNK5QListIPN5Tiled9MapObjectEE8iteratorplEx, symObjAddr: 0x6C90, symBinAddr: 0x10000DF30, symSize: 0x40 }
  - { offset: 0xBE1C8, size: 0x8, addend: 0x0, symName: __ZNSt3__112__destruct_nC1B9nqe210106Em, symObjAddr: 0x6CD0, symBinAddr: 0x10000DF70, symSize: 0x30 }
  - { offset: 0xBE21E, size: 0x8, addend: 0x0, symName: __ZNSt3__110unique_ptrIPN5Tiled9MapObjectERNS_12__destruct_nEEC1B9nqe210106ILb1EvEEPS3_NS_16__dependent_typeINS_27__unique_ptr_deleter_sfinaeIS5_EEXT_EE15__lval_ref_typeE, symObjAddr: 0x6D00, symBinAddr: 0x10000DFA0, symSize: 0x30 }
  - { offset: 0xBE270, size: 0x8, addend: 0x0, symName: __ZNSt3__112__destruct_n5__setB9nqe210106IPN5Tiled9MapObjectEEEvmPT_, symObjAddr: 0x70A0, symBinAddr: 0x10000E340, symSize: 0x30 }
  - { offset: 0xBE2B8, size: 0x8, addend: 0x0, symName: __ZNSt3__110unique_ptrIPN5Tiled9MapObjectERNS_12__destruct_nEED1B9nqe210106Ev, symObjAddr: 0x7220, symBinAddr: 0x10000E4C0, symSize: 0x20 }
  - { offset: 0xBE2E2, size: 0x8, addend: 0x0, symName: __ZNK5Tiled9MapObject1yEv, symObjAddr: 0x7650, symBinAddr: 0x10000E8F0, symSize: 0x20 }
  - { offset: 0xBE30A, size: 0x8, addend: 0x0, symName: __ZNK5QListIPN5Tiled9MapObjectEE8iteratoreqES4_, symObjAddr: 0x76F0, symBinAddr: 0x10000E990, symSize: 0x20 }
  - { offset: 0xBE33E, size: 0x8, addend: 0x0, symName: __ZN5QListIPN5Tiled9MapObjectEE8iteratorppEv, symObjAddr: 0x7710, symBinAddr: 0x10000E9B0, symSize: 0x20 }
  - { offset: 0xBE364, size: 0x8, addend: 0x0, symName: __ZNK5QListIPN5Tiled9MapObjectEE8iteratorneES4_, symObjAddr: 0x7730, symBinAddr: 0x10000E9D0, symSize: 0x20 }
  - { offset: 0xBE39D, size: 0x8, addend: 0x0, symName: __ZNSt3__18_IterOpsINS_17_ClassicAlgPolicyEE11__iter_moveB9nqe210106IRN5QListIPN5Tiled9MapObjectEE8iteratorELi0EEEDTclsr3stdE4movedeclsr3stdE7declvalIRT_EEEEOSB_, symObjAddr: 0x7750, symBinAddr: 0x10000E9F0, symSize: 0x20 }
  - { offset: 0xBE3CF, size: 0x8, addend: 0x0, symName: __ZNSt3__18_IterOpsINS_17_ClassicAlgPolicyEE25__validate_iter_referenceB9nqe210106IRN5QListIPN5Tiled9MapObjectEE8iteratorEEEvv, symObjAddr: 0x7770, symBinAddr: 0x10000EA10, symSize: 0x10 }
  - { offset: 0xBE3ED, size: 0x8, addend: 0x0, symName: __ZNSt3__112__destruct_nC2B9nqe210106Em, symObjAddr: 0x7780, symBinAddr: 0x10000EA20, symSize: 0x20 }
  - { offset: 0xBE425, size: 0x8, addend: 0x0, symName: __ZNSt3__110unique_ptrIPN5Tiled9MapObjectERNS_12__destruct_nEEC2B9nqe210106ILb1EvEEPS3_NS_16__dependent_typeINS_27__unique_ptr_deleter_sfinaeIS5_EEXT_EE15__lval_ref_typeE, symObjAddr: 0x77A0, symBinAddr: 0x10000EA40, symSize: 0x30 }
  - { offset: 0xBE477, size: 0x8, addend: 0x0, symName: __ZNSt3__112__destruct_n6__incrB9nqe210106IPN5Tiled9MapObjectEEEvv, symObjAddr: 0x77F0, symBinAddr: 0x10000EA90, symSize: 0x20 }
  - { offset: 0xBE4A6, size: 0x8, addend: 0x0, symName: __ZNSt3__110unique_ptrIPN5Tiled9MapObjectERNS_12__destruct_nEE7releaseB9nqe210106Ev, symObjAddr: 0x7810, symBinAddr: 0x10000EAB0, symSize: 0x20 }
  - { offset: 0xBE4DC, size: 0x8, addend: 0x0, symName: __ZNSt3__112__destruct_n6__incrB9nqe210106ENS_17integral_constantIbLb1EEE, symObjAddr: 0x7D60, symBinAddr: 0x10000F000, symSize: 0x10 }
  - { offset: 0xBE50D, size: 0x8, addend: 0x0, symName: __ZNSt3__112__destruct_n5__setB9nqe210106EmNS_17integral_constantIbLb1EEE, symObjAddr: 0x7D70, symBinAddr: 0x10000F010, symSize: 0x10 }
  - { offset: 0xBE54E, size: 0x8, addend: 0x0, symName: __ZNSt3__18_IterOpsINS_17_ClassicAlgPolicyEE11__iter_moveB9nqe210106IRPPN5Tiled9MapObjectELi0EEEDTclsr3stdE4movedeclsr3stdE7declvalIRT_EEEEOS9_, symObjAddr: 0x7D80, symBinAddr: 0x10000F020, symSize: 0x20 }
  - { offset: 0xBE580, size: 0x8, addend: 0x0, symName: __ZNSt3__18_IterOpsINS_17_ClassicAlgPolicyEE25__validate_iter_referenceB9nqe210106IRPPN5Tiled9MapObjectEEEvv, symObjAddr: 0x7DA0, symBinAddr: 0x10000F040, symSize: 0x10 }
  - { offset: 0xBE59E, size: 0x8, addend: 0x0, symName: __ZNSt3__110unique_ptrIPN5Tiled9MapObjectERNS_12__destruct_nEED2B9nqe210106Ev, symObjAddr: 0x7DB0, symBinAddr: 0x10000F050, symSize: 0x20 }
  - { offset: 0xBE5C8, size: 0x8, addend: 0x0, symName: __ZNSt3__110unique_ptrIPN5Tiled9MapObjectERNS_12__destruct_nEE5resetB9nqe210106EPS3_, symObjAddr: 0x7DD0, symBinAddr: 0x10000F070, symSize: 0x50 }
  - { offset: 0xBE60E, size: 0x8, addend: 0x0, symName: __ZNSt3__112__destruct_nclB9nqe210106IPN5Tiled9MapObjectEEEvPT_, symObjAddr: 0x7E20, symBinAddr: 0x10000F0C0, symSize: 0x30 }
  - { offset: 0xBE64B, size: 0x8, addend: 0x0, symName: __ZNSt3__112__destruct_n9__processB9nqe210106IPN5Tiled9MapObjectEEEvPT_NS_17integral_constantIbLb1EEE, symObjAddr: 0x7E50, symBinAddr: 0x10000F0F0, symSize: 0x10 }
  - { offset: 0xBE690, size: 0x8, addend: 0x0, symName: __ZN5QListIPN5Tiled9MapObjectEE8iteratorC1Ev, symObjAddr: 0x8130, symBinAddr: 0x10000F3D0, symSize: 0x20 }
  - { offset: 0xBE6BA, size: 0x8, addend: 0x0, symName: __ZNSt3__18_IterOpsINS_17_ClassicAlgPolicyEE7advanceB9nqe210106IN5QListIPN5Tiled9MapObjectEE8iteratorExEEvRT_T0_, symObjAddr: 0x8150, symBinAddr: 0x10000F3F0, symSize: 0x30 }
  - { offset: 0xBE6FD, size: 0x8, addend: 0x0, symName: __ZNSt3__18_IterOpsINS_17_ClassicAlgPolicyEE8distanceB9nqe210106IN5QListIPN5Tiled9MapObjectEE8iteratorEEENS_15iterator_traitsIT_E15difference_typeESB_SB_, symObjAddr: 0x8270, symBinAddr: 0x10000F510, symSize: 0x40 }
  - { offset: 0xBE737, size: 0x8, addend: 0x0, symName: __ZNSt3__116reverse_iteratorIPPN5Tiled9MapObjectEEC1B9nqe210106ES4_, symObjAddr: 0x86B0, symBinAddr: 0x10000F950, symSize: 0x30 }
  - { offset: 0xBE76F, size: 0x8, addend: 0x0, symName: __ZNSt3__116reverse_iteratorIN5QListIPN5Tiled9MapObjectEE8iteratorEEC1B9nqe210106ES6_, symObjAddr: 0x86E0, symBinAddr: 0x10000F980, symSize: 0x30 }
  - { offset: 0xBE7A7, size: 0x8, addend: 0x0, symName: '__ZNSt3__18__invertIRZNK13TmxRasterizer13drawMapLayersERKN5Tiled11MapRendererER8QPainter6QPointE3$_0EC1B9nqe210106ESA_', symObjAddr: 0x8710, symBinAddr: 0x10000F9B0, symSize: 0x30 }
  - { offset: 0xBE802, size: 0x8, addend: 0x0, symName: __ZNKSt3__111__move_implINS_17_ClassicAlgPolicyEEclB9nqe210106IPPN5Tiled9MapObjectES7_N5QListIS6_E8iteratorEEENS_4pairIT_T1_EESC_T0_SD_, symObjAddr: 0x88C0, symBinAddr: 0x10000FB60, symSize: 0x80 }
  - { offset: 0xBE886, size: 0x8, addend: 0x0, symName: __ZNSt3__14pairIPPN5Tiled9MapObjectES4_EC1B9nqe210106IS4_S4_Li0EEEOT_OT0_, symObjAddr: 0x8A70, symBinAddr: 0x10000FD10, symSize: 0x30 }
  - { offset: 0xBE8E4, size: 0x8, addend: 0x0, symName: __ZNSt3__14pairIPPN5Tiled9MapObjectES4_EC2B9nqe210106IS4_S4_Li0EEEOT_OT0_, symObjAddr: 0x8AA0, symBinAddr: 0x10000FD40, symSize: 0x30 }
  - { offset: 0xBE942, size: 0x8, addend: 0x0, symName: __ZNSt3__118__unwrap_iter_implIPPN5Tiled9MapObjectELb1EE8__unwrapB9nqe210106ES4_, symObjAddr: 0x8AD0, symBinAddr: 0x10000FD70, symSize: 0x20 }
  - { offset: 0xBE965, size: 0x8, addend: 0x0, symName: __ZNSt3__118__unwrap_iter_implIN5QListIPN5Tiled9MapObjectEE8iteratorELb0EE8__unwrapB9nqe210106ES6_, symObjAddr: 0x8B00, symBinAddr: 0x10000FDA0, symSize: 0x20 }
  - { offset: 0xBE98D, size: 0x8, addend: 0x0, symName: __ZNSt3__14pairIPPN5Tiled9MapObjectEN5QListIS3_E8iteratorEEC1B9nqe210106IS4_S7_Li0EEEOT_OT0_, symObjAddr: 0x8B20, symBinAddr: 0x10000FDC0, symSize: 0x30 }
  - { offset: 0xBE9EB, size: 0x8, addend: 0x0, symName: __ZNSt3__14pairIPPN5Tiled9MapObjectEN5QListIS3_E8iteratorEEC2B9nqe210106IS4_S7_Li0EEEOT_OT0_, symObjAddr: 0x8B50, symBinAddr: 0x10000FDF0, symSize: 0x30 }
  - { offset: 0xBEA49, size: 0x8, addend: 0x0, symName: __ZNSt3__118__unwrap_iter_implIPPN5Tiled9MapObjectELb1EE8__rewrapB9nqe210106ES4_S4_, symObjAddr: 0x8BC0, symBinAddr: 0x10000FE60, symSize: 0x50 }
  - { offset: 0xBEA7A, size: 0x8, addend: 0x0, symName: __ZNSt3__118__unwrap_iter_implIN5QListIPN5Tiled9MapObjectEE8iteratorELb0EE8__rewrapB9nqe210106ES6_S6_, symObjAddr: 0x8C10, symBinAddr: 0x10000FEB0, symSize: 0x20 }
  - { offset: 0xBEAA8, size: 0x8, addend: 0x0, symName: '__ZNSt3__18__invertIRZNK13TmxRasterizer13drawMapLayersERKN5Tiled11MapRendererER8QPainter6QPointE3$_0EclB9nqe210106IPNS2_9MapObjectESE_EEbRKT_RKT0_', symObjAddr: 0x8D40, symBinAddr: 0x10000FFE0, symSize: 0x40 }
  - { offset: 0xBEAFC, size: 0x8, addend: 0x0, symName: __ZNKSt3__116reverse_iteratorIN5QListIPN5Tiled9MapObjectEE8iteratorEEdeB9nqe210106Ev, symObjAddr: 0x8D80, symBinAddr: 0x100010020, symSize: 0x30 }
  - { offset: 0xBEB30, size: 0x8, addend: 0x0, symName: __ZNKSt3__116reverse_iteratorIPPN5Tiled9MapObjectEEdeB9nqe210106Ev, symObjAddr: 0x8DB0, symBinAddr: 0x100010050, symSize: 0x30 }
  - { offset: 0xBEB64, size: 0x8, addend: 0x0, symName: __ZNSt3__18_IterOpsINS_17_ClassicAlgPolicyEE11__iter_moveB9nqe210106IRNS_16reverse_iteratorIN5QListIPN5Tiled9MapObjectEE8iteratorEEELi0EEEDTclsr3stdE4movedeclsr3stdE7declvalIRT_EEEEOSD_, symObjAddr: 0x8DE0, symBinAddr: 0x100010080, symSize: 0x20 }
  - { offset: 0xBEB96, size: 0x8, addend: 0x0, symName: __ZNSt3__116reverse_iteratorIN5QListIPN5Tiled9MapObjectEE8iteratorEEppB9nqe210106Ev, symObjAddr: 0x8E00, symBinAddr: 0x1000100A0, symSize: 0x30 }
  - { offset: 0xBEBBC, size: 0x8, addend: 0x0, symName: __ZNSt3__18_IterOpsINS_17_ClassicAlgPolicyEE11__iter_moveB9nqe210106IRNS_16reverse_iteratorIPPN5Tiled9MapObjectEEELi0EEEDTclsr3stdE4movedeclsr3stdE7declvalIRT_EEEEOSB_, symObjAddr: 0x8E30, symBinAddr: 0x1000100D0, symSize: 0x20 }
  - { offset: 0xBEBEE, size: 0x8, addend: 0x0, symName: __ZNSt3__116reverse_iteratorIPPN5Tiled9MapObjectEEppB9nqe210106Ev, symObjAddr: 0x8E50, symBinAddr: 0x1000100F0, symSize: 0x20 }
  - { offset: 0xBEC14, size: 0x8, addend: 0x0, symName: __ZNKSt3__116reverse_iteratorIPPN5Tiled9MapObjectEE4baseB9nqe210106Ev, symObjAddr: 0x8E70, symBinAddr: 0x100010110, symSize: 0x20 }
  - { offset: 0xBEC3A, size: 0x8, addend: 0x0, symName: __ZNKSt3__116reverse_iteratorIN5QListIPN5Tiled9MapObjectEE8iteratorEE4baseB9nqe210106Ev, symObjAddr: 0x8E90, symBinAddr: 0x100010130, symSize: 0x20 }
  - { offset: 0xBEC79, size: 0x8, addend: 0x0, symName: __ZNKSt3__111__move_implINS_17_ClassicAlgPolicyEEclB9nqe210106INS_16reverse_iteratorIPPN5Tiled9MapObjectEEES9_NS4_IN5QListIS7_E8iteratorEEEEENS_4pairIT_T1_EESF_T0_SG_, symObjAddr: 0x9150, symBinAddr: 0x1000103F0, symSize: 0x90 }
  - { offset: 0xBED02, size: 0x8, addend: 0x0, symName: __ZNSt3__14pairINS_16reverse_iteratorIPPN5Tiled9MapObjectEEES6_EC1B9nqe210106IS6_S6_Li0EEEOT_OT0_, symObjAddr: 0x9390, symBinAddr: 0x100010630, symSize: 0x30 }
  - { offset: 0xBED60, size: 0x8, addend: 0x0, symName: __ZNSt3__14pairINS_16reverse_iteratorIPPN5Tiled9MapObjectEEES6_EC2B9nqe210106IS6_S6_Li0EEEOT_OT0_, symObjAddr: 0x93C0, symBinAddr: 0x100010660, symSize: 0x40 }
  - { offset: 0xBEDBE, size: 0x8, addend: 0x0, symName: __ZNSt3__118__unwrap_iter_implINS_16reverse_iteratorIPPN5Tiled9MapObjectEEELb0EE8__unwrapB9nqe210106ES6_, symObjAddr: 0x9400, symBinAddr: 0x1000106A0, symSize: 0x20 }
  - { offset: 0xBEDE1, size: 0x8, addend: 0x0, symName: __ZNSt3__118__unwrap_iter_implINS_16reverse_iteratorIN5QListIPN5Tiled9MapObjectEE8iteratorEEELb0EE8__unwrapB9nqe210106ES8_, symObjAddr: 0x9420, symBinAddr: 0x1000106C0, symSize: 0x20 }
  - { offset: 0xBEE09, size: 0x8, addend: 0x0, symName: __ZNSt3__14pairINS_16reverse_iteratorIPPN5Tiled9MapObjectEEENS1_IN5QListIS4_E8iteratorEEEEC1B9nqe210106IS6_SA_Li0EEEOT_OT0_, symObjAddr: 0x9440, symBinAddr: 0x1000106E0, symSize: 0x30 }
  - { offset: 0xBEE67, size: 0x8, addend: 0x0, symName: __ZNSt3__14pairINS_16reverse_iteratorIPPN5Tiled9MapObjectEEENS1_IN5QListIS4_E8iteratorEEEEC2B9nqe210106IS6_SA_Li0EEEOT_OT0_, symObjAddr: 0x9470, symBinAddr: 0x100010710, symSize: 0x40 }
  - { offset: 0xBEEC5, size: 0x8, addend: 0x0, symName: __ZNSt3__118__unwrap_iter_implINS_16reverse_iteratorIPPN5Tiled9MapObjectEEELb0EE8__rewrapB9nqe210106ES6_S6_, symObjAddr: 0x9520, symBinAddr: 0x1000107C0, symSize: 0x30 }
  - { offset: 0xBEEF3, size: 0x8, addend: 0x0, symName: __ZNSt3__118__unwrap_iter_implINS_16reverse_iteratorIN5QListIPN5Tiled9MapObjectEE8iteratorEEELb0EE8__rewrapB9nqe210106ES8_S8_, symObjAddr: 0x9550, symBinAddr: 0x1000107F0, symSize: 0x30 }
  - { offset: 0xBEF21, size: 0x8, addend: 0x0, symName: __ZNSt3__18_IterOpsINS_17_ClassicAlgPolicyEE25__validate_iter_referenceB9nqe210106IRNS_16reverse_iteratorIN5QListIPN5Tiled9MapObjectEE8iteratorEEEEEvv, symObjAddr: 0x9580, symBinAddr: 0x100010820, symSize: 0x10 }
  - { offset: 0xBEF3F, size: 0x8, addend: 0x0, symName: __ZNSt3__18_IterOpsINS_17_ClassicAlgPolicyEE25__validate_iter_referenceB9nqe210106IRNS_16reverse_iteratorIPPN5Tiled9MapObjectEEEEEvv, symObjAddr: 0x9590, symBinAddr: 0x100010830, symSize: 0x10 }
  - { offset: 0xBEF5D, size: 0x8, addend: 0x0, symName: __ZNSt3__116reverse_iteratorIPPN5Tiled9MapObjectEEC2B9nqe210106ES4_, symObjAddr: 0x95A0, symBinAddr: 0x100010840, symSize: 0x30 }
  - { offset: 0xBEF95, size: 0x8, addend: 0x0, symName: __ZNSt3__116reverse_iteratorIN5QListIPN5Tiled9MapObjectEE8iteratorEEC2B9nqe210106ES6_, symObjAddr: 0x95D0, symBinAddr: 0x100010870, symSize: 0x30 }
  - { offset: 0xBEFCD, size: 0x8, addend: 0x0, symName: '__ZNSt3__18__invertIRZNK13TmxRasterizer13drawMapLayersERKN5Tiled11MapRendererER8QPainter6QPointE3$_0EC2B9nqe210106ESA_', symObjAddr: 0x9600, symBinAddr: 0x1000108A0, symSize: 0x20 }
  - { offset: 0xBF005, size: 0x8, addend: 0x0, symName: __ZN5QListIPN5Tiled9MapObjectEE8iteratorC2Ev, symObjAddr: 0x9620, symBinAddr: 0x1000108C0, symSize: 0x20 }
  - { offset: 0xBF02F, size: 0x8, addend: 0x0, symName: __ZN5QListIPN5Tiled9MapObjectEE8iteratorpLEx, symObjAddr: 0x96B0, symBinAddr: 0x100010950, symSize: 0x20 }
  - { offset: 0xBF063, size: 0x8, addend: 0x0, symName: __ZNSt3__18_IterOpsINS_17_ClassicAlgPolicyEE4nextB9nqe210106IRN5QListIPN5Tiled9MapObjectEE8iteratorEEEu14__remove_cvrefIT_EOSB_NS_15iterator_traitsISC_E15difference_typeE, symObjAddr: 0x96F0, symBinAddr: 0x100010990, symSize: 0x40 }
  - { offset: 0xBF0A7, size: 0x8, addend: 0x0, symName: __ZNKSt3__110__identityclB9nqe210106IRPN5Tiled9MapObjectEEEOT_S7_, symObjAddr: 0x97D0, symBinAddr: 0x100010A70, symSize: 0x20 }
  - { offset: 0xBF0E4, size: 0x8, addend: 0x0, symName: __ZNSt3__18_IterOpsINS_17_ClassicAlgPolicyEE4nextB9nqe210106IN5QListIPN5Tiled9MapObjectEE8iteratorEEET_SA_SA_, symObjAddr: 0x99E0, symBinAddr: 0x100010C80, symSize: 0x20 }
  - { offset: 0xBF134, size: 0x8, addend: 0x0, symName: __ZNSt3__14pairIN5QListIPN5Tiled9MapObjectEE8iteratorES6_EC1B9nqe210106IRS6_S9_Li0EEEOT_OT0_, symObjAddr: 0x9A00, symBinAddr: 0x100010CA0, symSize: 0x30 }
  - { offset: 0xBF192, size: 0x8, addend: 0x0, symName: __ZNSt3__14pairIN5QListIPN5Tiled9MapObjectEE8iteratorES6_EC1B9nqe210106IS6_S6_Li0EEEOT_OT0_, symObjAddr: 0x9A30, symBinAddr: 0x100010CD0, symSize: 0x30 }
  - { offset: 0xBF1F0, size: 0x8, addend: 0x0, symName: __ZNSt3__14pairIN5QListIPN5Tiled9MapObjectEE8iteratorES6_EC2B9nqe210106IRS6_S9_Li0EEEOT_OT0_, symObjAddr: 0x9B60, symBinAddr: 0x100010E00, symSize: 0x30 }
  - { offset: 0xBF24E, size: 0x8, addend: 0x0, symName: __ZNSt3__14pairIN5QListIPN5Tiled9MapObjectEE8iteratorES6_EC2B9nqe210106IS6_S6_Li0EEEOT_OT0_, symObjAddr: 0x9B90, symBinAddr: 0x100010E30, symSize: 0x30 }
  - { offset: 0xBF2AC, size: 0x8, addend: 0x0, symName: __ZNKSt3__111__move_implINS_17_ClassicAlgPolicyEEclB9nqe210106IN5QListIPN5Tiled9MapObjectEE8iteratorES9_S9_EENS_4pairIT_T1_EESB_T0_SC_, symObjAddr: 0xA110, symBinAddr: 0x1000113B0, symSize: 0x90 }
  - { offset: 0xBF317, size: 0x8, addend: 0x0, symName: __ZNSt3__18_IterOpsINS_17_ClassicAlgPolicyEE4prevB9nqe210106IRN5QListIPN5Tiled9MapObjectEE8iteratorEEEu14__remove_cvrefIT_EOSB_NS_15iterator_traitsISC_E15difference_typeE, symObjAddr: 0xA210, symBinAddr: 0x1000114B0, symSize: 0x40 }
  - { offset: 0xBF35B, size: 0x8, addend: 0x0, symName: __ZNKSt3__120__move_backward_implINS_17_ClassicAlgPolicyEEclB9nqe210106IN5QListIPN5Tiled9MapObjectEE8iteratorES9_S9_EENS_4pairIT_T1_EESB_T0_SC_, symObjAddr: 0xA400, symBinAddr: 0x1000116A0, symSize: 0xC0 }
  - { offset: 0xBF3E3, size: 0x8, addend: 0x0, symName: __ZNSt3__110unique_ptrIN5Tiled3MapENS_14default_deleteIS2_EEED2B9nqe210106Ev, symObjAddr: 0xA5B0, symBinAddr: 0x100011840, symSize: 0x20 }
  - { offset: 0xBF40D, size: 0x8, addend: 0x0, symName: __ZNSt3__110unique_ptrIN5Tiled3MapENS_14default_deleteIS2_EEE5resetB9nqe210106EPS2_, symObjAddr: 0xA5D0, symBinAddr: 0x100011860, symSize: 0x40 }
  - { offset: 0xBF453, size: 0x8, addend: 0x0, symName: __ZNKSt3__114default_deleteIN5Tiled3MapEEclB9nqe210106EPS2_, symObjAddr: 0xA610, symBinAddr: 0x1000118A0, symSize: 0x30 }
  - { offset: 0xBF487, size: 0x8, addend: 0x0, symName: __ZNSt3__110unique_ptrIN5Tiled11MapRendererENS_14default_deleteIS2_EEED2B9nqe210106Ev, symObjAddr: 0xA640, symBinAddr: 0x1000118D0, symSize: 0x20 }
  - { offset: 0xBF4B1, size: 0x8, addend: 0x0, symName: __ZNSt3__110unique_ptrIN5Tiled11MapRendererENS_14default_deleteIS2_EEE5resetB9nqe210106EPS2_, symObjAddr: 0xA660, symBinAddr: 0x1000118F0, symSize: 0x40 }
  - { offset: 0xBF4F7, size: 0x8, addend: 0x0, symName: __ZNKSt3__114default_deleteIN5Tiled11MapRendererEEclB9nqe210106EPS2_, symObjAddr: 0xA6A0, symBinAddr: 0x100011930, symSize: 0x30 }
  - { offset: 0xBF52B, size: 0x8, addend: 0x0, symName: __ZNSt3__110unique_ptrIN5Tiled3MapENS_14default_deleteIS2_EEE7releaseB9nqe210106Ev, symObjAddr: 0xA6D0, symBinAddr: 0x100011960, symSize: 0x20 }
  - { offset: 0xBF561, size: 0x8, addend: 0x0, symName: __ZNSt3__110unique_ptrIN5Tiled3MapENS_14default_deleteIS2_EEE11get_deleterB9nqe210106Ev, symObjAddr: 0xA6F0, symBinAddr: 0x100011980, symSize: 0x10 }
  - { offset: 0xBF587, size: 0x8, addend: 0x0, symName: __ZNSt3__110unique_ptrIN5Tiled11MapRendererENS_14default_deleteIS2_EEE7releaseB9nqe210106Ev, symObjAddr: 0xA700, symBinAddr: 0x100011990, symSize: 0x20 }
  - { offset: 0xBF5BD, size: 0x8, addend: 0x0, symName: __ZNSt3__110unique_ptrIN5Tiled11MapRendererENS_14default_deleteIS2_EEE11get_deleterB9nqe210106Ev, symObjAddr: 0xA720, symBinAddr: 0x1000119B0, symSize: 0x10 }
  - { offset: 0xBF5E3, size: 0x8, addend: 0x0, symName: __Z25qToStringViewIgnoringNullI7QStringLb1EE11QStringViewRKT_, symObjAddr: 0xA730, symBinAddr: 0x1000119C0, symSize: 0x50 }
  - { offset: 0xBF622, size: 0x8, addend: 0x0, symName: __ZN14QAnyStringViewC1E11QStringView, symObjAddr: 0xA780, symBinAddr: 0x100011A10, symSize: 0x60 }
  - { offset: 0xBF65A, size: 0x8, addend: 0x0, symName: __ZNK11QStringView4dataEv, symObjAddr: 0xA8E0, symBinAddr: 0x100011AF0, symSize: 0x20 }
  - { offset: 0xBF680, size: 0x8, addend: 0x0, symName: __ZNK11QStringView4sizeEv, symObjAddr: 0xA920, symBinAddr: 0x100011B30, symSize: 0x20 }
  - { offset: 0xBF6A6, size: 0x8, addend: 0x0, symName: __ZN9QtPrivate13QAnyStringArgC1E14QAnyStringView, symObjAddr: 0xAA80, symBinAddr: 0x100011B50, symSize: 0x30 }
  - { offset: 0xBF6E0, size: 0x8, addend: 0x0, symName: __ZN9QtPrivate13QAnyStringArgC2E14QAnyStringView, symObjAddr: 0xAAB0, symBinAddr: 0x100011B80, symSize: 0x30 }
  - { offset: 0xBF71A, size: 0x8, addend: 0x0, symName: __ZNSt3__110unique_ptrIN5Tiled5WorldENS_14default_deleteIS2_EEED2B9nqe210106Ev, symObjAddr: 0xAAE0, symBinAddr: 0x100011BB0, symSize: 0x20 }
  - { offset: 0xBF744, size: 0x8, addend: 0x0, symName: __ZNSt3__110unique_ptrIN5Tiled5WorldENS_14default_deleteIS2_EEE5resetB9nqe210106EPS2_, symObjAddr: 0xAB00, symBinAddr: 0x100011BD0, symSize: 0x40 }
  - { offset: 0xBF78A, size: 0x8, addend: 0x0, symName: __ZNKSt3__114default_deleteIN5Tiled5WorldEEclB9nqe210106EPS2_, symObjAddr: 0xAB40, symBinAddr: 0x100011C10, symSize: 0x30 }
  - { offset: 0xBF7BE, size: 0x8, addend: 0x0, symName: __ZNK17QArrayDataPointerIN5Tiled13WorldMapEntryEEptEv, symObjAddr: 0xAB70, symBinAddr: 0x100011C40, symSize: 0x10 }
  - { offset: 0xBF7E4, size: 0x8, addend: 0x0, symName: __ZNK17QArrayDataPointerIN5Tiled13WorldMapEntryEE10constBeginEv, symObjAddr: 0xAB80, symBinAddr: 0x100011C50, symSize: 0x20 }
  - { offset: 0xBF80A, size: 0x8, addend: 0x0, symName: __ZN5QListIN5Tiled13WorldMapEntryEE14const_iteratorC1EPKS1_, symObjAddr: 0xABA0, symBinAddr: 0x100011C70, symSize: 0x30 }
  - { offset: 0xBF842, size: 0x8, addend: 0x0, symName: __ZNK17QArrayDataPointerIN5Tiled13WorldMapEntryEE4dataEv, symObjAddr: 0xABD0, symBinAddr: 0x100011CA0, symSize: 0x20 }
  - { offset: 0xBF868, size: 0x8, addend: 0x0, symName: __ZN5QListIN5Tiled13WorldMapEntryEE14const_iteratorC2EPKS1_, symObjAddr: 0xABF0, symBinAddr: 0x100011CC0, symSize: 0x20 }
  - { offset: 0xBF8A0, size: 0x8, addend: 0x0, symName: __ZNK17QArrayDataPointerIN5Tiled13WorldMapEntryEE8constEndEv, symObjAddr: 0xAC10, symBinAddr: 0x100011CE0, symSize: 0x2B }
...
