---
triple:          'x86_64-apple-darwin'
binary-path:     '/Users/dz0400621/Documents/project/tiled/debug/gmx.8f6b608f/libgmx.dylib'
relocations:
  - { offset: 0x3F, size: 0x8, addend: 0x0, symName: _qt_version_tag_6_11_use, symObjAddr: 0x17908, symBinAddr: 0x21000, symSize: 0x0 }
  - { offset: 0x325D, size: 0x8, addend: 0x0, symName: __ZN9QtPrivate16QCheckedIntegersplIiLb1EEENS0_11QCheckedIntIiNS0_13SafeCheckImplIiEENS0_18AssertReportPolicyEEES6_T_, symObjAddr: 0xBB40, symBinAddr: 0xFA60, symSize: 0x40 }
  - { offset: 0x32A6, size: 0x8, addend: 0x0, symName: __ZN9QtPrivate16QCheckedIntegersmiENS0_11QCheckedIntIiNS0_13SafeCheckImplIiEENS0_18AssertReportPolicyEEES5_, symObjAddr: 0xBB80, symBinAddr: 0xFAA0, symSize: 0x60 }
  - { offset: 0x32FC, size: 0x8, addend: 0x0, symName: __ZN9QtPrivate16QCheckedIntegersplENS0_11QCheckedIntIiNS0_13SafeCheckImplIiEENS0_18AssertReportPolicyEEES5_, symObjAddr: 0xBBF0, symBinAddr: 0xFB10, symSize: 0x60 }
  - { offset: 0x3352, size: 0x8, addend: 0x0, symName: __ZN9QtPrivate16QCheckedIntegerseqERKNS0_11QCheckedIntIiNS0_13SafeCheckImplIiEENS0_18AssertReportPolicyEEES7_, symObjAddr: 0xC710, symBinAddr: 0x10630, symSize: 0x40 }
  - { offset: 0x33A4, size: 0x8, addend: 0x0, symName: __ZN9QtPrivate16QCheckedIntegers13comparesEqualENS0_11QCheckedIntIiNS0_13SafeCheckImplIiEENS0_18AssertReportPolicyEEES5_, symObjAddr: 0xC750, symBinAddr: 0x10670, symSize: 0x20 }
  - { offset: 0x6969, size: 0x8, addend: 0x0, symName: __ZN9QtPrivate21lengthHelperContainerIcLm93EEENSt3__19enable_ifIXeqstT_Li1EExE4typeERAT0__KS3_, symObjAddr: 0xA030, symBinAddr: 0xDF50, symSize: 0x20 }
  - { offset: 0x69A8, size: 0x8, addend: 0x0, symName: __ZN9QtPrivate15qstrnlen_helperEPKcm, symObjAddr: 0xA080, symBinAddr: 0xDFA0, symSize: 0x30 }
  - { offset: 0x69E2, size: 0x8, addend: 0x0, symName: __ZN9QtPrivate21lengthHelperContainerIcLm5EEENSt3__19enable_ifIXeqstT_Li1EExE4typeERAT0__KS3_, symObjAddr: 0xA290, symBinAddr: 0xE1B0, symSize: 0x20 }
  - { offset: 0x6A21, size: 0x8, addend: 0x0, symName: __ZN9QtPrivate21lengthHelperContainerIcLm6EEENSt3__19enable_ifIXeqstT_Li1EExE4typeERAT0__KS3_, symObjAddr: 0xA2C0, symBinAddr: 0xE1E0, symSize: 0x20 }
  - { offset: 0x6A60, size: 0x8, addend: 0x0, symName: __ZN9QtPrivate21lengthHelperContainerIcLm7EEENSt3__19enable_ifIXeqstT_Li1EExE4typeERAT0__KS3_, symObjAddr: 0xA540, symBinAddr: 0xE460, symSize: 0x20 }
  - { offset: 0x6A9F, size: 0x8, addend: 0x0, symName: __ZN9QtPrivate21lengthHelperContainerIcLm10EEENSt3__19enable_ifIXeqstT_Li1EExE4typeERAT0__KS3_, symObjAddr: 0xA570, symBinAddr: 0xE490, symSize: 0x20 }
  - { offset: 0x6ADE, size: 0x8, addend: 0x0, symName: __ZN9QtPrivateL19lengthHelperPointerIcEExPKT_, symObjAddr: 0xA630, symBinAddr: 0xE550, symSize: 0x50 }
  - { offset: 0x6B21, size: 0x8, addend: 0x0, symName: __ZN9QtPrivate21lengthHelperContainerIcLm8EEENSt3__19enable_ifIXeqstT_Li1EExE4typeERAT0__KS3_, symObjAddr: 0xAE60, symBinAddr: 0xED80, symSize: 0x20 }
  - { offset: 0x6B60, size: 0x8, addend: 0x0, symName: __ZN9QtPrivate29qCheckedFPConversionToIntegerIidLb1ELb1EEET_T0_, symObjAddr: 0xAE80, symBinAddr: 0xEDA0, symSize: 0xC0 }
  - { offset: 0x6BDE, size: 0x8, addend: 0x0, symName: __ZN9QtPrivate10QRoundImpl6qRoundEd, symObjAddr: 0xAF40, symBinAddr: 0xEE60, symSize: 0x30 }
  - { offset: 0x6C0D, size: 0x8, addend: 0x0, symName: __ZN9QtPrivate21lengthHelperContainerIcLm9EEENSt3__19enable_ifIXeqstT_Li1EExE4typeERAT0__KS3_, symObjAddr: 0xB020, symBinAddr: 0xEF40, symSize: 0x20 }
  - { offset: 0x6C4C, size: 0x8, addend: 0x0, symName: __ZN9QtPrivate21lengthHelperContainerIcLm2EEENSt3__19enable_ifIXeqstT_Li1EExE4typeERAT0__KS3_, symObjAddr: 0xBE60, symBinAddr: 0xFD80, symSize: 0x20 }
  - { offset: 0x6C8B, size: 0x8, addend: 0x0, symName: __ZN9QtPrivate21lengthHelperContainerIcLm3EEENSt3__19enable_ifIXeqstT_Li1EExE4typeERAT0__KS3_, symObjAddr: 0xCD40, symBinAddr: 0x10C60, symSize: 0x20 }
  - { offset: 0x6CCA, size: 0x8, addend: 0x0, symName: __ZN9QtPrivate33qvariant_cast_qmetatype_convertedIbEET_RK8QVariant9QMetaType, symObjAddr: 0xEBC0, symBinAddr: 0x12AE0, symSize: 0x60 }
  - { offset: 0x6D1F, size: 0x8, addend: 0x0, symName: __ZN9QtPrivateL30checkTypeIsSuitableForMetaTypeIbEEbv, symObjAddr: 0xEC20, symBinAddr: 0x12B40, symSize: 0x10 }
  - { offset: 0x6D47, size: 0x8, addend: 0x0, symName: __ZN9QtPrivate25qMetaTypeInterfaceForTypeIbEEPKNS_18QMetaTypeInterfaceEv, symObjAddr: 0xEC30, symBinAddr: 0x12B50, symSize: 0x10 }
  - { offset: 0x6D6F, size: 0x8, addend: 0x0, symName: __ZN9QtPrivate33qvariant_cast_qmetatype_convertedI7QStringEET_RK8QVariant9QMetaType, symObjAddr: 0xF7D0, symBinAddr: 0x136F0, symSize: 0xB0 }
  - { offset: 0x6DC5, size: 0x8, addend: 0x0, symName: __ZN9QtPrivateL30checkTypeIsSuitableForMetaTypeI7QStringEEbv, symObjAddr: 0xF880, symBinAddr: 0x137A0, symSize: 0x10 }
  - { offset: 0x6DED, size: 0x8, addend: 0x0, symName: __ZN9QtPrivate25qMetaTypeInterfaceForTypeI7QStringEEPKNS_18QMetaTypeInterfaceEv, symObjAddr: 0xF890, symBinAddr: 0x137B0, symSize: 0x10 }
  - { offset: 0x6E15, size: 0x8, addend: 0x0, symName: __ZN9QtPrivate33qvariant_cast_qmetatype_convertedIdEET_RK8QVariant9QMetaType, symObjAddr: 0xF980, symBinAddr: 0x138A0, symSize: 0x60 }
  - { offset: 0x6E6A, size: 0x8, addend: 0x0, symName: __ZN9QtPrivateL30checkTypeIsSuitableForMetaTypeIdEEbv, symObjAddr: 0xF9E0, symBinAddr: 0x13900, symSize: 0x10 }
  - { offset: 0x6E92, size: 0x8, addend: 0x0, symName: __ZN9QtPrivate25qMetaTypeInterfaceForTypeIdEEPKNS_18QMetaTypeInterfaceEv, symObjAddr: 0xF9F0, symBinAddr: 0x13910, symSize: 0x10 }
  - { offset: 0x6EBA, size: 0x8, addend: 0x0, symName: __ZN9QtPrivate33qvariant_cast_qmetatype_convertedIiEET_RK8QVariant9QMetaType, symObjAddr: 0x11A20, symBinAddr: 0x15940, symSize: 0x60 }
  - { offset: 0x6F0F, size: 0x8, addend: 0x0, symName: __ZN9QtPrivateL30checkTypeIsSuitableForMetaTypeIiEEbv, symObjAddr: 0x11A80, symBinAddr: 0x159A0, symSize: 0x10 }
  - { offset: 0x6F37, size: 0x8, addend: 0x0, symName: __ZN9QtPrivate25qMetaTypeInterfaceForTypeIiEEPKNS_18QMetaTypeInterfaceEv, symObjAddr: 0x11A90, symBinAddr: 0x159B0, symSize: 0x10 }
  - { offset: 0x7082, size: 0x8, addend: 0x0, symName: __ZN5Tiled11ActivatableINS_12JumpToObjectEE9activatedE, symObjAddr: 0x18460, symBinAddr: 0x21010, symSize: 0x0 }
  - { offset: 0xC359, size: 0x8, addend: 0x0, symName: __ZN5Tiled5ERRORE13QLatin1StringNSt3__18functionIFvvEEEPKv, symObjAddr: 0x83E0, symBinAddr: 0xC300, symSize: 0x120 }
  - { offset: 0xC3A1, size: 0x8, addend: 0x0, symName: __ZN5Tiled7WARNINGERK7QStringNSt3__18functionIFvvEEEPKv, symObjAddr: 0x92C0, symBinAddr: 0xD1E0, symSize: 0x120 }
  - { offset: 0xC3E9, size: 0x8, addend: 0x0, symName: __ZN5Tiled5ERRORERK7QStringNSt3__18functionIFvvEEEPKv, symObjAddr: 0xAAF0, symBinAddr: 0xEA10, symSize: 0x120 }
  - { offset: 0xC431, size: 0x8, addend: 0x0, symName: __ZN5Tiled6REPORTERKNS_5IssueE, symObjAddr: 0xAC40, symBinAddr: 0xEB60, symSize: 0x30 }
  - { offset: 0x1B342, size: 0x8, addend: 0x0, symName: __ZNSt3__110__function10__not_nullB9nqe210106IN5Tiled12JumpToObjectEEEbRKT_, symObjAddr: 0xEF20, symBinAddr: 0x12E40, symSize: 0x10 }
  - { offset: 0x1B373, size: 0x8, addend: 0x0, symName: __ZNSt3__110__function10__not_nullB9nqe210106IN5Tiled10JumpToTileEEEbRKT_, symObjAddr: 0x11B80, symBinAddr: 0x15AA0, symSize: 0x10 }
  - { offset: 0x1B3A4, size: 0x8, addend: 0x0, symName: __ZNSt3__110__function10__not_nullB9nqe210106IN5Tiled11SelectLayerEEEbRKT_, symObjAddr: 0x16600, symBinAddr: 0x1A520, symSize: 0x10 }
  - { offset: 0x219CE, size: 0x8, addend: 0x0, symName: __ZNSt3__18in_placeE, symObjAddr: 0x18518, symBinAddr: 0x1D648, symSize: 0x0 }
  - { offset: 0x22089, size: 0x8, addend: 0x0, symName: __ZNSt3__117__cxx_atomic_loadB9nqe210106IiEET_PKNS_22__cxx_atomic_base_implIS1_EENS_12memory_orderE, symObjAddr: 0xD180, symBinAddr: 0x110A0, symSize: 0x50 }
  - { offset: 0x220E7, size: 0x8, addend: 0x0, symName: '__ZNSt3__118__stable_sort_implB9nqe210106INS_17_ClassicAlgPolicyEN5QListIPN5Tiled9MapObjectEE8iteratorEZN3Gmx9GmxPlugin5writeEPKNS3_3MapERK7QString6QFlagsINS3_10FileFormat6OptionEEE3$_0EEvT0_SL_RT1_', symObjAddr: 0x12160, symBinAddr: 0x16080, symSize: 0x140 }
  - { offset: 0x22184, size: 0x8, addend: 0x0, symName: __ZNSt3__134__allocate_unique_temporary_bufferB9nqe210106IPN5Tiled9MapObjectEEENS_10unique_ptrIT_NS_26__temporary_buffer_deleterIS5_EEEEl, symObjAddr: 0x12310, symBinAddr: 0x16230, symSize: 0xC0 }
  - { offset: 0x2223D, size: 0x8, addend: 0x0, symName: '__ZNSt3__113__stable_sortINS_17_ClassicAlgPolicyERZN3Gmx9GmxPlugin5writeEPKN5Tiled3MapERK7QString6QFlagsINS4_10FileFormat6OptionEEE3$_0N5QListIPNS4_9MapObjectEE8iteratorEEEvT1_SM_T0_NS_15iterator_traitsISM_E15difference_typeEPNSP_10value_typeEl', symObjAddr: 0x12480, symBinAddr: 0x163A0, symSize: 0x310 }
  - { offset: 0x22342, size: 0x8, addend: 0x0, symName: '__ZNSt3__124__buffered_inplace_mergeB9nqe210106INS_17_ClassicAlgPolicyERZN3Gmx9GmxPlugin5writeEPKN5Tiled3MapERK7QString6QFlagsINS4_10FileFormat6OptionEEE3$_0N5QListIPNS4_9MapObjectEE8iteratorEEEvT1_SM_SM_OT0_NS_15iterator_traitsISM_E15difference_typeESR_PNSQ_10value_typeE', symObjAddr: 0x13DE0, symBinAddr: 0x17D00, symSize: 0x2D0 }
  - { offset: 0x22729, size: 0x8, addend: 0x0, symName: __ZNSt3__17advanceB9nqe210106IN5QListIPN5Tiled9MapObjectEE8iteratorExxLi0EEEvRT_T0_, symObjAddr: 0x155C0, symBinAddr: 0x194E0, symSize: 0x30 }
  - { offset: 0x22D86, size: 0x8, addend: 0x0, symName: '__ZNSt3__111stable_sortB9nqe210106IN5QListIPN5Tiled9MapObjectEE8iteratorEZN3Gmx9GmxPlugin5writeEPKNS2_3MapERK7QString6QFlagsINS2_10FileFormat6OptionEEE3$_0EEvT_SK_T0_', symObjAddr: 0x9640, symBinAddr: 0xD560, symSize: 0x40 }
  - { offset: 0x22DE0, size: 0x8, addend: 0x0, symName: __ZNSt3__14swapB9nqe210106IxEENS_9enable_ifIXaasr21is_move_constructibleIT_EE5valuesr18is_move_assignableIS2_EE5valueEvE4typeERS2_S5_, symObjAddr: 0x9EA0, symBinAddr: 0xDDC0, symSize: 0x40 }
  - { offset: 0x22E31, size: 0x8, addend: 0x0, symName: __ZNSt3__14dataB9nqe210106IKcLm93EEEPT_RAT0__S2_, symObjAddr: 0xA020, symBinAddr: 0xDF40, symSize: 0x10 }
  - { offset: 0x22E70, size: 0x8, addend: 0x0, symName: __ZNSt3__14dataB9nqe210106IKcLm5EEEPT_RAT0__S2_, symObjAddr: 0xA280, symBinAddr: 0xE1A0, symSize: 0x10 }
  - { offset: 0x22EAF, size: 0x8, addend: 0x0, symName: __ZNSt3__14dataB9nqe210106IKcLm6EEEPT_RAT0__S2_, symObjAddr: 0xA2B0, symBinAddr: 0xE1D0, symSize: 0x10 }
  - { offset: 0x22EEE, size: 0x8, addend: 0x0, symName: __ZNSt3__14dataB9nqe210106IKcLm7EEEPT_RAT0__S2_, symObjAddr: 0xA530, symBinAddr: 0xE450, symSize: 0x10 }
  - { offset: 0x22F2D, size: 0x8, addend: 0x0, symName: __ZNSt3__14dataB9nqe210106IKcLm10EEEPT_RAT0__S2_, symObjAddr: 0xA560, symBinAddr: 0xE480, symSize: 0x10 }
  - { offset: 0x22F6C, size: 0x8, addend: 0x0, symName: __ZNSt3__18exchangeB9nqe210106IP15QTypedArrayDataIDsEDnEET_RS4_OT0_, symObjAddr: 0xA840, symBinAddr: 0xE760, symSize: 0x30 }
  - { offset: 0x22FC6, size: 0x8, addend: 0x0, symName: __ZNSt3__18exchangeB9nqe210106IPDsDnEET_RS2_OT0_, symObjAddr: 0xA870, symBinAddr: 0xE790, symSize: 0x30 }
  - { offset: 0x23020, size: 0x8, addend: 0x0, symName: __ZNSt3__18exchangeB9nqe210106IxiEET_RS1_OT0_, symObjAddr: 0xA8A0, symBinAddr: 0xE7C0, symSize: 0x30 }
  - { offset: 0x2307A, size: 0x8, addend: 0x0, symName: __ZNSt3__14dataB9nqe210106IKcLm8EEEPT_RAT0__S2_, symObjAddr: 0xAE50, symBinAddr: 0xED70, symSize: 0x10 }
  - { offset: 0x230BE, size: 0x8, addend: 0x0, symName: __ZNSt3__16__math5isnanB9nqe210106EUa9enable_ifIXLb1EEEd, symObjAddr: 0xAF70, symBinAddr: 0xEE90, symSize: 0x20 }
  - { offset: 0x23159, size: 0x8, addend: 0x0, symName: __ZNSt3__14dataB9nqe210106IKcLm9EEEPT_RAT0__S2_, symObjAddr: 0xB010, symBinAddr: 0xEF30, symSize: 0x10 }
  - { offset: 0x23198, size: 0x8, addend: 0x0, symName: __ZNSt3__122__cxx_atomic_fetch_addB9nqe210106IiEET_PNS_22__cxx_atomic_base_implIS1_EES1_NS_12memory_orderE, symObjAddr: 0xB2F0, symBinAddr: 0xF210, symSize: 0xB0 }
  - { offset: 0x231E9, size: 0x8, addend: 0x0, symName: __ZNSt3__1neB9nqe210106ERKNS_20__map_const_iteratorINS_21__tree_const_iteratorINS_12__value_typeIiPN5Tiled4TileEEEPNS_11__tree_nodeIS6_PvEElEEEESE_, symObjAddr: 0xB550, symBinAddr: 0xF470, symSize: 0x30 }
  - { offset: 0x23226, size: 0x8, addend: 0x0, symName: __ZNSt3__1neB9nqe210106ERKNS_21__tree_const_iteratorINS_12__value_typeIiPN5Tiled4TileEEEPNS_11__tree_nodeIS5_PvEElEESC_, symObjAddr: 0xB7D0, symBinAddr: 0xF6F0, symSize: 0x30 }
  - { offset: 0x23296, size: 0x8, addend: 0x0, symName: __ZNSt3__1eqB9nqe210106ERKNS_21__tree_const_iteratorINS_12__value_typeIiPN5Tiled4TileEEEPNS_11__tree_nodeIS5_PvEElEESC_, symObjAddr: 0xB960, symBinAddr: 0xF880, symSize: 0x30 }
  - { offset: 0x23306, size: 0x8, addend: 0x0, symName: __ZNSt3__14dataB9nqe210106IKcLm2EEEPT_RAT0__S2_, symObjAddr: 0xBE50, symBinAddr: 0xFD70, symSize: 0x10 }
  - { offset: 0x23345, size: 0x8, addend: 0x0, symName: __ZNSt3__14dataB9nqe210106IKcLm3EEEPT_RAT0__S2_, symObjAddr: 0xCD30, symBinAddr: 0x10C50, symSize: 0x10 }
  - { offset: 0x23384, size: 0x8, addend: 0x0, symName: __ZNSt3__122__cxx_atomic_fetch_subB9nqe210106IiEET_PNS_22__cxx_atomic_base_implIS1_EES1_NS_12memory_orderE, symObjAddr: 0xD050, symBinAddr: 0x10F70, symSize: 0xC0 }
  - { offset: 0x233D5, size: 0x8, addend: 0x0, symName: __ZNSt3__13getB9nqe210106ILm0EP15QTypedArrayDataIPN5Tiled9MapObjectEEPS4_EEONS_13tuple_elementIXT_ENS_4pairIT0_T1_EEE4typeEOSC_, symObjAddr: 0xE280, symBinAddr: 0x121A0, symSize: 0x20 }
  - { offset: 0x2341F, size: 0x8, addend: 0x0, symName: __ZNSt3__13getB9nqe210106ILm1EP15QTypedArrayDataIPN5Tiled9MapObjectEEPS4_EEONS_13tuple_elementIXT_ENS_4pairIT0_T1_EEE4typeEOSC_, symObjAddr: 0xE2A0, symBinAddr: 0x121C0, symSize: 0x20 }
  - { offset: 0x234E4, size: 0x8, addend: 0x0, symName: __ZNSt3__110__invoke_rB9nqe210106IvJRN5Tiled12JumpToObjectEEEET_DpOT0_, symObjAddr: 0xF360, symBinAddr: 0x13280, symSize: 0x20 }
  - { offset: 0x23595, size: 0x8, addend: 0x0, symName: __ZNSt3__18__invokeB9nqe210106IJRN5Tiled12JumpToObjectEEEENS_20__invoke_result_implIvJDpT_EE4typeEDpOS5_, symObjAddr: 0xF3A0, symBinAddr: 0x132C0, symSize: 0x20 }
  - { offset: 0x235CB, size: 0x8, addend: 0x0, symName: __ZNSt3__125__throw_bad_function_callB9nqe210106Ev, symObjAddr: 0xF460, symBinAddr: 0x13380, symSize: 0x50 }
  - { offset: 0x235E5, size: 0x8, addend: 0x0, symName: __ZNSt3__110__invoke_rB9nqe210106IvJRN5Tiled10JumpToTileEEEET_DpOT0_, symObjAddr: 0x11F70, symBinAddr: 0x15E90, symSize: 0x20 }
  - { offset: 0x23622, size: 0x8, addend: 0x0, symName: __ZNSt3__18__invokeB9nqe210106IJRN5Tiled10JumpToTileEEEENS_20__invoke_result_implIvJDpT_EE4typeEDpOS5_, symObjAddr: 0x11FB0, symBinAddr: 0x15ED0, symSize: 0x20 }
  - { offset: 0x23962, size: 0x8, addend: 0x0, symName: '__ZNSt3__135__check_strict_weak_ordering_sortedB9nqe210106IN5QListIPN5Tiled9MapObjectEE8iteratorEZN3Gmx9GmxPlugin5writeEPKNS2_3MapERK7QString6QFlagsINS2_10FileFormat6OptionEEE3$_0EEvT_SK_RT0_', symObjAddr: 0x12790, symBinAddr: 0x166B0, symSize: 0x20 }
  - { offset: 0x239D6, size: 0x8, addend: 0x0, symName: __ZNSt3__127__libcpp_deallocate_unsizedB9nqe210106IPN5Tiled9MapObjectEEEvPNS_15__type_identityIT_E4typeEm, symObjAddr: 0x129A0, symBinAddr: 0x168C0, symSize: 0x40 }
  - { offset: 0x23A15, size: 0x8, addend: 0x0, symName: __ZNSt3__124__is_overaligned_for_newB9nqe210106Em, symObjAddr: 0x129E0, symBinAddr: 0x16900, symSize: 0x20 }
  - { offset: 0x23C1E, size: 0x8, addend: 0x0, symName: '__ZNSt3__116__insertion_sortB9nqe210106INS_17_ClassicAlgPolicyERZN3Gmx9GmxPlugin5writeEPKN5Tiled3MapERK7QString6QFlagsINS4_10FileFormat6OptionEEE3$_0N5QListIPNS4_9MapObjectEE8iteratorEEEvT1_SM_T0_', symObjAddr: 0x12AE0, symBinAddr: 0x16A00, symSize: 0x1A0 }
  - { offset: 0x23FF2, size: 0x8, addend: 0x0, symName: '__ZNSt3__118__stable_sort_moveINS_17_ClassicAlgPolicyERZN3Gmx9GmxPlugin5writeEPKN5Tiled3MapERK7QString6QFlagsINS4_10FileFormat6OptionEEE3$_0N5QListIPNS4_9MapObjectEE8iteratorEEEvT1_SM_T0_NS_15iterator_traitsISM_E15difference_typeEPNSP_10value_typeE', symObjAddr: 0x12D20, symBinAddr: 0x16C40, symSize: 0x350 }
  - { offset: 0x240AF, size: 0x8, addend: 0x0, symName: '__ZNSt3__119__merge_move_assignB9nqe210106INS_17_ClassicAlgPolicyERZN3Gmx9GmxPlugin5writeEPKN5Tiled3MapERK7QString6QFlagsINS4_10FileFormat6OptionEEE3$_0PPNS4_9MapObjectESJ_N5QListISI_E8iteratorEEEvT1_SN_T2_SO_T3_T0_', symObjAddr: 0x130A0, symBinAddr: 0x16FC0, symSize: 0x150 }
  - { offset: 0x2414B, size: 0x8, addend: 0x0, symName: '__ZNSt3__115__inplace_mergeINS_17_ClassicAlgPolicyERZN3Gmx9GmxPlugin5writeEPKN5Tiled3MapERK7QString6QFlagsINS4_10FileFormat6OptionEEE3$_0N5QListIPNS4_9MapObjectEE8iteratorEEEvT1_SM_SM_OT0_NS_15iterator_traitsISM_E15difference_typeESR_PNSQ_10value_typeEl', symObjAddr: 0x13210, symBinAddr: 0x17130, symSize: 0x410 }
  - { offset: 0x24264, size: 0x8, addend: 0x0, symName: __ZNSt3__19iter_swapB9nqe210106IN5QListIPN5Tiled9MapObjectEE8iteratorES6_EEvT_T0_, symObjAddr: 0x13620, symBinAddr: 0x17540, symSize: 0x40 }
  - { offset: 0x242AC, size: 0x8, addend: 0x0, symName: __ZNSt3__14swapB9nqe210106IPN5Tiled9MapObjectEEENS_9enable_ifIXaasr21is_move_constructibleIT_EE5valuesr18is_move_assignableIS5_EE5valueEvE4typeERS5_S8_, symObjAddr: 0x13660, symBinAddr: 0x17580, symSize: 0x40 }
  - { offset: 0x242FD, size: 0x8, addend: 0x0, symName: __ZNSt3__114__construct_atB9nqe210106IPN5Tiled9MapObjectEJS3_EPS3_EEPT_S6_DpOT0_, symObjAddr: 0x13780, symBinAddr: 0x176A0, symSize: 0x20 }
  - { offset: 0x24354, size: 0x8, addend: 0x0, symName: '__ZNSt3__121__insertion_sort_moveB9nqe210106INS_17_ClassicAlgPolicyERZN3Gmx9GmxPlugin5writeEPKN5Tiled3MapERK7QString6QFlagsINS4_10FileFormat6OptionEEE3$_0N5QListIPNS4_9MapObjectEE8iteratorEEEvT1_SM_PNS_15iterator_traitsISM_E10value_typeET0_', symObjAddr: 0x137E0, symBinAddr: 0x17700, symSize: 0x260 }
  - { offset: 0x24424, size: 0x8, addend: 0x0, symName: '__ZNSt3__122__merge_move_constructB9nqe210106INS_17_ClassicAlgPolicyERZN3Gmx9GmxPlugin5writeEPKN5Tiled3MapERK7QString6QFlagsINS4_10FileFormat6OptionEEE3$_0N5QListIPNS4_9MapObjectEE8iteratorESL_EEvT1_SM_T2_SN_PNS_15iterator_traitsISM_E10value_typeET0_', symObjAddr: 0x13A40, symBinAddr: 0x17960, symSize: 0x2A0 }
  - { offset: 0x244D3, size: 0x8, addend: 0x0, symName: '__ZNSt3__113__upper_boundB9nqe210106INS_17_ClassicAlgPolicyERZN3Gmx9GmxPlugin5writeEPKN5Tiled3MapERK7QString6QFlagsINS4_10FileFormat6OptionEEE3$_0N5QListIPNS4_9MapObjectEE8iteratorESL_SJ_NS_10__identityEEET1_SN_T2_RKT3_OT0_OT4_', symObjAddr: 0x14100, symBinAddr: 0x18020, symSize: 0xF0 }
  - { offset: 0x245A8, size: 0x8, addend: 0x0, symName: '__ZNSt3__111lower_boundB9nqe210106IN5QListIPN5Tiled9MapObjectEE8iteratorES4_ZN3Gmx9GmxPlugin5writeEPKNS2_3MapERK7QString6QFlagsINS2_10FileFormat6OptionEEE3$_0EET_SK_SK_RKT0_T1_', symObjAddr: 0x14230, symBinAddr: 0x18150, symSize: 0x60 }
  - { offset: 0x24627, size: 0x8, addend: 0x0, symName: __ZNSt3__18__rotateB9nqe210106INS_17_ClassicAlgPolicyEN5QListIPN5Tiled9MapObjectEE8iteratorES7_EENS_4pairIT0_S9_EES9_S9_T1_, symObjAddr: 0x14290, symBinAddr: 0x181B0, symSize: 0xF0 }
  - { offset: 0x246A8, size: 0x8, addend: 0x0, symName: '__ZNSt3__120__half_inplace_mergeB9nqe210106INS_17_ClassicAlgPolicyERZN3Gmx9GmxPlugin5writeEPKN5Tiled3MapERK7QString6QFlagsINS4_10FileFormat6OptionEEE3$_0PPNS4_9MapObjectESJ_N5QListISI_E8iteratorESM_SM_EEvT1_T2_T3_T4_T5_OT0_', symObjAddr: 0x14380, symBinAddr: 0x182A0, symSize: 0x110 }
  - { offset: 0x24756, size: 0x8, addend: 0x0, symName: '__ZNSt3__120__half_inplace_mergeB9nqe210106INS_17_ClassicAlgPolicyENS_8__invertIRZN3Gmx9GmxPlugin5writeEPKN5Tiled3MapERK7QString6QFlagsINS5_10FileFormat6OptionEEE3$_0EENS_16reverse_iteratorIPPNS5_9MapObjectEEESN_NSJ_IN5QListISL_E8iteratorEEESR_SR_EEvT1_T2_T3_T4_T5_OT0_', symObjAddr: 0x14490, symBinAddr: 0x183B0, symSize: 0x1A0 }
  - { offset: 0x24803, size: 0x8, addend: 0x0, symName: __ZNSt3__16__moveB9nqe210106INS_17_ClassicAlgPolicyEPPN5Tiled9MapObjectES5_N5QListIS4_E8iteratorEEENS_4pairIT0_T2_EESA_T1_SB_, symObjAddr: 0x146C0, symBinAddr: 0x185E0, symSize: 0x50 }
  - { offset: 0x2486F, size: 0x8, addend: 0x0, symName: __ZNSt3__124__copy_move_unwrap_itersB9nqe210106INS_11__move_implINS_17_ClassicAlgPolicyEEEPPN5Tiled9MapObjectES7_N5QListIS6_E8iteratorELi0EEENS_4pairIT0_T2_EESC_T1_SD_, symObjAddr: 0x14710, symBinAddr: 0x18630, symSize: 0xE0 }
  - { offset: 0x248FE, size: 0x8, addend: 0x0, symName: __ZNSt3__114__unwrap_rangeB9nqe210106IPPN5Tiled9MapObjectES4_EENS_4pairIT0_S6_EET_S8_, symObjAddr: 0x147F0, symBinAddr: 0x18710, symSize: 0x50 }
  - { offset: 0x24AF8, size: 0x8, addend: 0x0, symName: __ZNSt3__113__unwrap_iterB9nqe210106IN5QListIPN5Tiled9MapObjectEE8iteratorENS_18__unwrap_iter_implIS6_Lb0EEELi0EEEDTclsrT0_8__unwrapclsr3stdE7declvalIT_EEEESA_, symObjAddr: 0x148C0, symBinAddr: 0x187E0, symSize: 0x30 }
  - { offset: 0x24B3C, size: 0x8, addend: 0x0, symName: __ZNSt3__19make_pairB9nqe210106IPPN5Tiled9MapObjectEN5QListIS3_E8iteratorEEENS_4pairINS_18__unwrap_referenceIu7__decayIT_EE4typeENS9_Iu7__decayIT0_EE4typeEEEOSA_OSE_, symObjAddr: 0x148F0, symBinAddr: 0x18810, symSize: 0x30 }
  - { offset: 0x24B8B, size: 0x8, addend: 0x0, symName: __ZNSt3__114__rewrap_rangeB9nqe210106IPPN5Tiled9MapObjectES4_EET_S5_T0_, symObjAddr: 0x14920, symBinAddr: 0x18840, symSize: 0x30 }
  - { offset: 0x24BD7, size: 0x8, addend: 0x0, symName: __ZNSt3__113__rewrap_iterB9nqe210106IN5QListIPN5Tiled9MapObjectEE8iteratorES6_NS_18__unwrap_iter_implIS6_Lb0EEEEET_S9_T0_, symObjAddr: 0x14950, symBinAddr: 0x18870, symSize: 0x50 }
  - { offset: 0x24C2C, size: 0x8, addend: 0x0, symName: __ZNSt3__19make_pairB9nqe210106IPPN5Tiled9MapObjectES4_EENS_4pairINS_18__unwrap_referenceIu7__decayIT_EE4typeENS6_Iu7__decayIT0_EE4typeEEEOS7_OSB_, symObjAddr: 0x149A0, symBinAddr: 0x188C0, symSize: 0x30 }
  - { offset: 0x24C7B, size: 0x8, addend: 0x0, symName: __ZNSt3__113__unwrap_iterB9nqe210106IPPN5Tiled9MapObjectENS_18__unwrap_iter_implIS4_Lb1EEELi0EEEDTclsrT0_8__unwrapclsr3stdE7declvalIT_EEEES8_, symObjAddr: 0x149D0, symBinAddr: 0x188F0, symSize: 0x20 }
  - { offset: 0x24DE5, size: 0x8, addend: 0x0, symName: __ZNSt3__112__to_addressB9nqe210106IPN5Tiled9MapObjectEEEPT_S5_, symObjAddr: 0x14A70, symBinAddr: 0x18990, symSize: 0x10 }
  - { offset: 0x24E62, size: 0x8, addend: 0x0, symName: __ZNSt3__113__rewrap_iterB9nqe210106IPPN5Tiled9MapObjectES4_NS_18__unwrap_iter_implIS4_Lb1EEEEET_S7_T0_, symObjAddr: 0x14B00, symBinAddr: 0x18A20, symSize: 0x40 }
  - { offset: 0x24EB7, size: 0x8, addend: 0x0, symName: __ZNSt3__1neB9nqe210106IPPN5Tiled9MapObjectES4_EEbRKNS_16reverse_iteratorIT_EERKNS5_IT0_EE, symObjAddr: 0x14BB0, symBinAddr: 0x18AD0, symSize: 0x40 }
  - { offset: 0x24F03, size: 0x8, addend: 0x0, symName: __ZNSt3__1eqB9nqe210106IN5QListIPN5Tiled9MapObjectEE8iteratorES6_EEbRKNS_16reverse_iteratorIT_EERKNS7_IT0_EE, symObjAddr: 0x14BF0, symBinAddr: 0x18B10, symSize: 0x40 }
  - { offset: 0x24F4F, size: 0x8, addend: 0x0, symName: __ZNSt3__16__moveB9nqe210106INS_17_ClassicAlgPolicyENS_16reverse_iteratorIPPN5Tiled9MapObjectEEES7_NS2_IN5QListIS5_E8iteratorEEEEENS_4pairIT0_T2_EESD_T1_SE_, symObjAddr: 0x14C30, symBinAddr: 0x18B50, symSize: 0x90 }
  - { offset: 0x24FBB, size: 0x8, addend: 0x0, symName: __ZNSt3__124__copy_move_unwrap_itersB9nqe210106INS_11__move_implINS_17_ClassicAlgPolicyEEENS_16reverse_iteratorIPPN5Tiled9MapObjectEEES9_NS4_IN5QListIS7_E8iteratorEEELi0EEENS_4pairIT0_T2_EESF_T1_SG_, symObjAddr: 0x14E30, symBinAddr: 0x18D50, symSize: 0x210 }
  - { offset: 0x2504A, size: 0x8, addend: 0x0, symName: __ZNSt3__114__unwrap_rangeB9nqe210106INS_16reverse_iteratorIPPN5Tiled9MapObjectEEES6_EENS_4pairIT0_S8_EET_SA_, symObjAddr: 0x15040, symBinAddr: 0x18F60, symSize: 0x90 }
  - { offset: 0x25174, size: 0x8, addend: 0x0, symName: __ZNSt3__113__unwrap_iterB9nqe210106INS_16reverse_iteratorIN5QListIPN5Tiled9MapObjectEE8iteratorEEENS_18__unwrap_iter_implIS8_Lb0EEELi0EEEDTclsrT0_8__unwrapclsr3stdE7declvalIT_EEEESC_, symObjAddr: 0x15160, symBinAddr: 0x19080, symSize: 0x40 }
  - { offset: 0x251B8, size: 0x8, addend: 0x0, symName: __ZNSt3__19make_pairB9nqe210106INS_16reverse_iteratorIPPN5Tiled9MapObjectEEENS1_IN5QListIS4_E8iteratorEEEEENS_4pairINS_18__unwrap_referenceIu7__decayIT_EE4typeENSC_Iu7__decayIT0_EE4typeEEEOSD_OSH_, symObjAddr: 0x151A0, symBinAddr: 0x190C0, symSize: 0x30 }
  - { offset: 0x25207, size: 0x8, addend: 0x0, symName: __ZNSt3__114__rewrap_rangeB9nqe210106INS_16reverse_iteratorIPPN5Tiled9MapObjectEEES6_EET_S7_T0_, symObjAddr: 0x151D0, symBinAddr: 0x190F0, symSize: 0x60 }
  - { offset: 0x25253, size: 0x8, addend: 0x0, symName: __ZNSt3__113__rewrap_iterB9nqe210106INS_16reverse_iteratorIN5QListIPN5Tiled9MapObjectEE8iteratorEEES8_NS_18__unwrap_iter_implIS8_Lb0EEEEET_SB_T0_, symObjAddr: 0x15230, symBinAddr: 0x19150, symSize: 0x70 }
  - { offset: 0x252A8, size: 0x8, addend: 0x0, symName: __ZNSt3__19make_pairB9nqe210106INS_16reverse_iteratorIPPN5Tiled9MapObjectEEES6_EENS_4pairINS_18__unwrap_referenceIu7__decayIT_EE4typeENS8_Iu7__decayIT0_EE4typeEEEOS9_OSD_, symObjAddr: 0x152A0, symBinAddr: 0x191C0, symSize: 0x30 }
  - { offset: 0x252F7, size: 0x8, addend: 0x0, symName: __ZNSt3__113__unwrap_iterB9nqe210106INS_16reverse_iteratorIPPN5Tiled9MapObjectEEENS_18__unwrap_iter_implIS6_Lb0EEELi0EEEDTclsrT0_8__unwrapclsr3stdE7declvalIT_EEEESA_, symObjAddr: 0x152D0, symBinAddr: 0x191F0, symSize: 0x40 }
  - { offset: 0x254A9, size: 0x8, addend: 0x0, symName: __ZNSt3__113__rewrap_iterB9nqe210106INS_16reverse_iteratorIPPN5Tiled9MapObjectEEES6_NS_18__unwrap_iter_implIS6_Lb0EEEEET_S9_T0_, symObjAddr: 0x15430, symBinAddr: 0x19350, symSize: 0x70 }
  - { offset: 0x254FE, size: 0x8, addend: 0x0, symName: __ZNSt3__121__convert_to_integralB9nqe210106Ex, symObjAddr: 0x155F0, symBinAddr: 0x19510, symSize: 0x10 }
  - { offset: 0x2552A, size: 0x8, addend: 0x0, symName: __ZNSt3__19__advanceB9nqe210106IN5QListIPN5Tiled9MapObjectEE8iteratorEEEvRT_NS_15iterator_traitsIS7_E15difference_typeENS_26random_access_iterator_tagE, symObjAddr: 0x15600, symBinAddr: 0x19520, symSize: 0x30 }
  - { offset: 0x25573, size: 0x8, addend: 0x0, symName: __ZNSt3__115__half_positiveB9nqe210106IxLi0EEET_S1_, symObjAddr: 0x15650, symBinAddr: 0x19570, symSize: 0x20 }
  - { offset: 0x255AE, size: 0x8, addend: 0x0, symName: '__ZNSt3__18__invokeB9nqe210106IJRZN3Gmx9GmxPlugin5writeEPKN5Tiled3MapERK7QString6QFlagsINS3_10FileFormat6OptionEEE3$_0RKPNS3_9MapObjectERSH_EEENS_20__invoke_result_implIvJDpT_EE4typeEDpOSM_', symObjAddr: 0x156B0, symBinAddr: 0x195D0, symSize: 0x40 }
  - { offset: 0x2560F, size: 0x8, addend: 0x0, symName: __ZNSt3__18__invokeB9nqe210106IJRNS_10__identityERPN5Tiled9MapObjectEEEENS_20__invoke_result_implIvJDpT_EE4typeEDpOS8_, symObjAddr: 0x156F0, symBinAddr: 0x19610, symSize: 0x30 }
  - { offset: 0x2565C, size: 0x8, addend: 0x0, symName: __ZNSt3__14nextB9nqe210106IN5QListIPN5Tiled9MapObjectEE8iteratorELi0EEET_S7_NS_15iterator_traitsIS7_E15difference_typeE, symObjAddr: 0x15720, symBinAddr: 0x19640, symSize: 0x30 }
  - { offset: 0x256D2, size: 0x8, addend: 0x0, symName: __ZNSt3__18distanceB9nqe210106IN5QListIPN5Tiled9MapObjectEE8iteratorEEENS_15iterator_traitsIT_E15difference_typeES8_S8_, symObjAddr: 0x15770, symBinAddr: 0x19690, symSize: 0x40 }
  - { offset: 0x25715, size: 0x8, addend: 0x0, symName: __ZNSt3__110__distanceB9nqe210106IN5QListIPN5Tiled9MapObjectEE8iteratorEEENS_15iterator_traitsIT_E15difference_typeES8_S8_NS_26random_access_iterator_tagE, symObjAddr: 0x157B0, symBinAddr: 0x196D0, symSize: 0x30 }
  - { offset: 0x25762, size: 0x8, addend: 0x0, symName: '__ZNSt3__113__lower_boundB9nqe210106INS_17_ClassicAlgPolicyEN5QListIPN5Tiled9MapObjectEE8iteratorES7_S5_NS_10__identityEZN3Gmx9GmxPlugin5writeEPKNS3_3MapERK7QString6QFlagsINS3_10FileFormat6OptionEEE3$_0EET0_SM_T1_RKT2_RT4_RT3_', symObjAddr: 0x157E0, symBinAddr: 0x19700, symSize: 0x70 }
  - { offset: 0x2580A, size: 0x8, addend: 0x0, symName: '__ZNSt3__123__lower_bound_bisectingB9nqe210106INS_17_ClassicAlgPolicyEN5QListIPN5Tiled9MapObjectEE8iteratorES5_NS_10__identityEZN3Gmx9GmxPlugin5writeEPKNS3_3MapERK7QString6QFlagsINS3_10FileFormat6OptionEEE3$_0EET0_SM_RKT1_NS_15iterator_traitsISM_E15difference_typeERT3_RT2_', symObjAddr: 0x15850, symBinAddr: 0x19770, symSize: 0xD0 }
  - { offset: 0x258C6, size: 0x8, addend: 0x0, symName: '__ZNSt3__18__invokeB9nqe210106IJRZN3Gmx9GmxPlugin5writeEPKN5Tiled3MapERK7QString6QFlagsINS3_10FileFormat6OptionEEE3$_0RPNS3_9MapObjectERKSH_EEENS_20__invoke_result_implIvJDpT_EE4typeEDpOSM_', symObjAddr: 0x15920, symBinAddr: 0x19840, symSize: 0x40 }
  - { offset: 0x25A38, size: 0x8, addend: 0x0, symName: __ZNSt3__113__rotate_implB9nqe210106INS_17_ClassicAlgPolicyEN5QListIPN5Tiled9MapObjectEE8iteratorEEET0_S8_S8_S8_NS_26random_access_iterator_tagE, symObjAddr: 0x159E0, symBinAddr: 0x19900, symSize: 0x100 }
  - { offset: 0x25A9C, size: 0x8, addend: 0x0, symName: __ZNSt3__113__rotate_leftB9nqe210106INS_17_ClassicAlgPolicyEN5QListIPN5Tiled9MapObjectEE8iteratorEEET0_S8_S8_, symObjAddr: 0x15B40, symBinAddr: 0x19A60, symSize: 0x90 }
  - { offset: 0x25B0F, size: 0x8, addend: 0x0, symName: __ZNSt3__114__rotate_rightB9nqe210106INS_17_ClassicAlgPolicyEN5QListIPN5Tiled9MapObjectEE8iteratorEEET0_S8_S8_, symObjAddr: 0x15BD0, symBinAddr: 0x19AF0, symSize: 0x90 }
  - { offset: 0x25B90, size: 0x8, addend: 0x0, symName: __ZNSt3__112__rotate_gcdB9nqe210106INS_17_ClassicAlgPolicyEN5QListIPN5Tiled9MapObjectEE8iteratorEEET0_S8_S8_S8_, symObjAddr: 0x15C60, symBinAddr: 0x19B80, symSize: 0x260 }
  - { offset: 0x25C9B, size: 0x8, addend: 0x0, symName: __ZNSt3__16__moveB9nqe210106INS_17_ClassicAlgPolicyEN5QListIPN5Tiled9MapObjectEE8iteratorES7_S7_EENS_4pairIT0_T2_EES9_T1_SA_, symObjAddr: 0x15EC0, symBinAddr: 0x19DE0, symSize: 0x60 }
  - { offset: 0x25D07, size: 0x8, addend: 0x0, symName: __ZNSt3__124__copy_move_unwrap_itersB9nqe210106INS_11__move_implINS_17_ClassicAlgPolicyEEEN5QListIPN5Tiled9MapObjectEE8iteratorES9_S9_Li0EEENS_4pairIT0_T2_EESB_T1_SC_, symObjAddr: 0x15F20, symBinAddr: 0x19E40, symSize: 0x110 }
  - { offset: 0x25D96, size: 0x8, addend: 0x0, symName: __ZNSt3__114__unwrap_rangeB9nqe210106IN5QListIPN5Tiled9MapObjectEE8iteratorES6_EENS_4pairIT0_S8_EET_SA_, symObjAddr: 0x16030, symBinAddr: 0x19F50, symSize: 0x60 }
  - { offset: 0x25DE2, size: 0x8, addend: 0x0, symName: __ZNSt3__19make_pairB9nqe210106IN5QListIPN5Tiled9MapObjectEE8iteratorES6_EENS_4pairINS_18__unwrap_referenceIu7__decayIT_EE4typeENS8_Iu7__decayIT0_EE4typeEEEOS9_OSD_, symObjAddr: 0x16120, symBinAddr: 0x1A040, symSize: 0x30 }
  - { offset: 0x25E31, size: 0x8, addend: 0x0, symName: __ZNSt3__114__rewrap_rangeB9nqe210106IN5QListIPN5Tiled9MapObjectEE8iteratorES6_EET_S7_T0_, symObjAddr: 0x16150, symBinAddr: 0x1A070, symSize: 0x40 }
  - { offset: 0x25E7D, size: 0x8, addend: 0x0, symName: __ZNSt3__115__move_backwardB9nqe210106INS_17_ClassicAlgPolicyEN5QListIPN5Tiled9MapObjectEE8iteratorES7_S7_EENS_4pairIT0_T2_EES9_T1_SA_, symObjAddr: 0x161D0, symBinAddr: 0x1A0F0, symSize: 0x60 }
  - { offset: 0x25EE9, size: 0x8, addend: 0x0, symName: __ZNSt3__14prevB9nqe210106IN5QListIPN5Tiled9MapObjectEE8iteratorELi0EEET_S7_NS_15iterator_traitsIS7_E15difference_typeE, symObjAddr: 0x16230, symBinAddr: 0x1A150, symSize: 0x40 }
  - { offset: 0x25F32, size: 0x8, addend: 0x0, symName: __ZNSt3__124__copy_move_unwrap_itersB9nqe210106INS_20__move_backward_implINS_17_ClassicAlgPolicyEEEN5QListIPN5Tiled9MapObjectEE8iteratorES9_S9_Li0EEENS_4pairIT0_T2_EESB_T1_SC_, symObjAddr: 0x16270, symBinAddr: 0x1A190, symSize: 0x110 }
  - { offset: 0x26013, size: 0x8, addend: 0x0, symName: __ZNSt3__113__swap_rangesB9nqe210106INS_17_ClassicAlgPolicyEN5QListIPN5Tiled9MapObjectEE8iteratorES7_S7_S7_EENS_4pairIT0_T2_EES9_T1_SA_T3_, symObjAddr: 0x16440, symBinAddr: 0x1A360, symSize: 0xA0 }
  - { offset: 0x26096, size: 0x8, addend: 0x0, symName: __ZNSt3__110__algo_gcdB9nqe210106IxEET_S1_S1_, symObjAddr: 0x164E0, symBinAddr: 0x1A400, symSize: 0x40 }
  - { offset: 0x260EF, size: 0x8, addend: 0x0, symName: __ZNSt3__110__invoke_rB9nqe210106IvJRN5Tiled11SelectLayerEEEET_DpOT0_, symObjAddr: 0x169F0, symBinAddr: 0x1A910, symSize: 0x20 }
  - { offset: 0x2612C, size: 0x8, addend: 0x0, symName: __ZNSt3__18__invokeB9nqe210106IJRN5Tiled11SelectLayerEEEENS_20__invoke_result_implIvJDpT_EE4typeEDpOS5_, symObjAddr: 0x16A30, symBinAddr: 0x1A950, symSize: 0x20 }
  - { offset: 0x2E08A, size: 0x8, addend: 0x0, symName: __ZN2Qt13DisambiguatedE, symObjAddr: 0x1856A, symBinAddr: 0x1D69A, symSize: 0x0 }
  - { offset: 0x4B536, size: 0x8, addend: 0x0, symName: __ZN12QHashPrivate13calculateHashI6QPointEEmRKT_m, symObjAddr: 0xC380, symBinAddr: 0x102A0, symSize: 0x30 }
  - { offset: 0x4B57E, size: 0x8, addend: 0x0, symName: __ZN12QHashPrivate12GrowthPolicy13bucketForHashEmm, symObjAddr: 0xC490, symBinAddr: 0x103B0, symSize: 0x20 }
  - { offset: 0x4B5BB, size: 0x8, addend: 0x0, symName: __ZN12QHashPrivate12GrowthPolicy18bucketsForCapacityEm, symObjAddr: 0x10BE0, symBinAddr: 0x14B00, symSize: 0x70 }
  - { offset: 0x4B608, size: 0x8, addend: 0x0, symName: __ZN12QHashPrivate13calculateHashI7QStringEEmRKT_m, symObjAddr: 0xFBF0, symBinAddr: 0x13B10, symSize: 0x30 }
  - { offset: 0x7B4D7, size: 0x8, addend: 0x0, symName: __ZN5Tiled11ActivatableINS_10JumpToTileEE9activatedE, symObjAddr: 0x184A0, symBinAddr: 0x21050, symSize: 0x0 }
  - { offset: 0x7B573, size: 0x8, addend: 0x0, symName: __ZN5Tiled11ActivatableINS_11SelectLayerEE9activatedE, symObjAddr: 0x184E0, symBinAddr: 0x21090, symSize: 0x0 }
  - { offset: 0x7B60E, size: 0x8, addend: 0x0, symName: __ZL12sanitizeName7QString, symObjAddr: 0x89B0, symBinAddr: 0xC8D0, symSize: 0x1D0 }
  - { offset: 0x7B638, size: 0x8, addend: 0x0, symName: __ZZL12sanitizeName7QStringE6regexp, symObjAddr: 0x1DEE40, symBinAddr: 0x21138, symSize: 0x0 }
  - { offset: 0x7B692, size: 0x8, addend: 0x0, symName: __ZTVNSt3__110__function6__funcIN5Tiled12JumpToObjectEFvvEEE, symObjAddr: 0x18710, symBinAddr: 0x20398, symSize: 0x0 }
  - { offset: 0x7B6DC, size: 0x8, addend: 0x0, symName: __ZTVNSt3__110__function6__baseIFvvEEE, symObjAddr: 0x18790, symBinAddr: 0x20418, symSize: 0x0 }
  - { offset: 0x7B6F1, size: 0x8, addend: 0x0, symName: __ZTVNSt3__117bad_function_callE, symObjAddr: 0x18800, symBinAddr: 0x20488, symSize: 0x0 }
  - { offset: 0x7B737, size: 0x8, addend: 0x0, symName: __ZTVNSt3__110__function6__funcIN5Tiled10JumpToTileEFvvEEE, symObjAddr: 0x18850, symBinAddr: 0x204D8, symSize: 0x0 }
  - { offset: 0x7B761, size: 0x8, addend: 0x0, symName: __ZTVNSt3__110__function6__funcIN5Tiled11SelectLayerEFvvEEE, symObjAddr: 0x188E8, symBinAddr: 0x20570, symSize: 0x0 }
  - { offset: 0x7FE86, size: 0x8, addend: 0x0, symName: __ZN3Gmx9GmxPlugin5writeEPKN5Tiled3MapERK7QString6QFlagsINS1_10FileFormat6OptionEE, symObjAddr: 0xC0, symBinAddr: 0x3FE0, symSize: 0x7B10 }
  - { offset: 0x8108E, size: 0x8, addend: 0x0, symName: __ZN3Gmx9GmxPluginC2Ev, symObjAddr: 0x0, symBinAddr: 0x3F20, symSize: 0x40 }
  - { offset: 0x810BA, size: 0x8, addend: 0x0, symName: __ZN5Tiled17WritableMapFormatC2EP7QObject, symObjAddr: 0x40, symBinAddr: 0x3F60, symSize: 0x40 }
  - { offset: 0x810F2, size: 0x8, addend: 0x0, symName: __ZN7QStringC1Ev, symObjAddr: 0x80, symBinAddr: 0x3FA0, symSize: 0x20 }
  - { offset: 0x8111E, size: 0x8, addend: 0x0, symName: __ZN3Gmx9GmxPluginC1Ev, symObjAddr: 0xA0, symBinAddr: 0x3FC0, symSize: 0x20 }
  - { offset: 0x81450, size: 0x8, addend: 0x0, symName: __ZN5Tiled8SaveFile4openE6QFlagsIN13QIODeviceBase12OpenModeFlagEE, symObjAddr: 0x7BD0, symBinAddr: 0xBAF0, symSize: 0x40 }
  - { offset: 0x81484, size: 0x8, addend: 0x0, symName: __ZorN13QIODeviceBase12OpenModeFlagES0_, symObjAddr: 0x7C10, symBinAddr: 0xBB30, symSize: 0x40 }
  - { offset: 0x814BF, size: 0x8, addend: 0x0, symName: __ZN7QStringaSEOS_, symObjAddr: 0x7C50, symBinAddr: 0xBB70, symSize: 0x30 }
  - { offset: 0x814F4, size: 0x8, addend: 0x0, symName: __ZN7QStringD1Ev, symObjAddr: 0x7C80, symBinAddr: 0xBBA0, symSize: 0x20 }
  - { offset: 0x81520, size: 0x8, addend: 0x0, symName: __ZNK5Tiled8SaveFile6deviceEv, symObjAddr: 0x7CA0, symBinAddr: 0xBBC0, symSize: 0x20 }
  - { offset: 0x81547, size: 0x8, addend: 0x0, symName: __ZNK6QFlagsIN5Tiled10FileFormat6OptionEE8testFlagES2_, symObjAddr: 0x7CC0, symBinAddr: 0xBBE0, symSize: 0x40 }
  - { offset: 0x8157B, size: 0x8, addend: 0x0, symName: __ZNK5Tiled3Map9tileWidthEv, symObjAddr: 0x7D00, symBinAddr: 0xBC20, symSize: 0x20 }
  - { offset: 0x815A3, size: 0x8, addend: 0x0, symName: __ZNK5Tiled3Map5widthEv, symObjAddr: 0x7D20, symBinAddr: 0xBC40, symSize: 0x20 }
  - { offset: 0x815CB, size: 0x8, addend: 0x0, symName: __ZNK5Tiled3Map10tileHeightEv, symObjAddr: 0x7D40, symBinAddr: 0xBC60, symSize: 0x20 }
  - { offset: 0x815F3, size: 0x8, addend: 0x0, symName: __ZNK5Tiled3Map6heightEv, symObjAddr: 0x7D60, symBinAddr: 0xBC80, symSize: 0x20 }
  - { offset: 0x8161B, size: 0x8, addend: 0x0, symName: __ZN14QAnyStringViewC1ERK7QString, symObjAddr: 0x7D80, symBinAddr: 0xBCA0, symSize: 0x50 }
  - { offset: 0x81656, size: 0x8, addend: 0x0, symName: __ZL8toStringb, symObjAddr: 0x7DD0, symBinAddr: 0xBCF0, symSize: 0x40 }
  - { offset: 0x81683, size: 0x8, addend: 0x0, symName: __ZNK5Tiled3Map11orientationEv, symObjAddr: 0x7E10, symBinAddr: 0xBD30, symSize: 0x20 }
  - { offset: 0x816AB, size: 0x8, addend: 0x0, symName: __ZL13writePropertyIiEvR16QXmlStreamWriterPKN5Tiled6ObjectERK7QStringRKT_, symObjAddr: 0x7E30, symBinAddr: 0xBD50, symSize: 0xB0 }
  - { offset: 0x81715, size: 0x8, addend: 0x0, symName: __ZN7QStringC1EPKc, symObjAddr: 0x7EE0, symBinAddr: 0xBE00, symSize: 0x60 }
  - { offset: 0x8174E, size: 0x8, addend: 0x0, symName: __ZL13writePropertyIbEvR16QXmlStreamWriterPKN5Tiled6ObjectERK7QStringRKT_, symObjAddr: 0x7F40, symBinAddr: 0xBE60, symSize: 0xB0 }
  - { offset: 0x817B8, size: 0x8, addend: 0x0, symName: __ZL13writePropertyI7QStringEvR16QXmlStreamWriterPKN5Tiled6ObjectERKS0_RKT_, symObjAddr: 0x7FF0, symBinAddr: 0xBF10, symSize: 0xE0 }
  - { offset: 0x81821, size: 0x8, addend: 0x0, symName: __ZL19checkIfViewsDefinedPKN5Tiled3MapE, symObjAddr: 0x80D0, symBinAddr: 0xBFF0, symSize: 0xF0 }
  - { offset: 0x818DD, size: 0x8, addend: 0x0, symName: __ZNK5Tiled3Map12objectGroupsEv, symObjAddr: 0x81C0, symBinAddr: 0xC0E0, symSize: 0x40 }
  - { offset: 0x81905, size: 0x8, addend: 0x0, symName: __ZNK5Tiled3Map19LayerIteratorHelper5beginEv, symObjAddr: 0x8200, symBinAddr: 0xC120, symSize: 0x40 }
  - { offset: 0x8193D, size: 0x8, addend: 0x0, symName: __ZNK5Tiled3Map19LayerIteratorHelper3endEv, symObjAddr: 0x8240, symBinAddr: 0xC160, symSize: 0x40 }
  - { offset: 0x81975, size: 0x8, addend: 0x0, symName: __ZNK5Tiled13LayerIteratorneERKS0_, symObjAddr: 0x8280, symBinAddr: 0xC1A0, symSize: 0x30 }
  - { offset: 0x819AC, size: 0x8, addend: 0x0, symName: __ZNK5Tiled13LayerIteratordeEv, symObjAddr: 0x82B0, symBinAddr: 0xC1D0, symSize: 0x20 }
  - { offset: 0x819D4, size: 0x8, addend: 0x0, symName: __ZNK5Tiled11ObjectGroup7objectsEv, symObjAddr: 0x82D0, symBinAddr: 0xC1F0, symSize: 0x20 }
  - { offset: 0x819FA, size: 0x8, addend: 0x0, symName: __ZNK5QListIPN5Tiled9MapObjectEE5beginEv, symObjAddr: 0x82F0, symBinAddr: 0xC210, symSize: 0x40 }
  - { offset: 0x81A20, size: 0x8, addend: 0x0, symName: __ZNK5QListIPN5Tiled9MapObjectEE3endEv, symObjAddr: 0x8330, symBinAddr: 0xC250, symSize: 0x40 }
  - { offset: 0x81A46, size: 0x8, addend: 0x0, symName: __ZNK5QListIPN5Tiled9MapObjectEE14const_iteratorneES4_, symObjAddr: 0x8370, symBinAddr: 0xC290, symSize: 0x20 }
  - { offset: 0x81A7A, size: 0x8, addend: 0x0, symName: __ZNK5QListIPN5Tiled9MapObjectEE14const_iteratordeEv, symObjAddr: 0x8390, symBinAddr: 0xC2B0, symSize: 0x20 }
  - { offset: 0x81A9F, size: 0x8, addend: 0x0, symName: __ZneRK7QStringRKPKc, symObjAddr: 0x83B0, symBinAddr: 0xC2D0, symSize: 0x30 }
  - { offset: 0x81ADD, size: 0x8, addend: 0x0, symName: __ZN13QLatin1StringC1EPKc, symObjAddr: 0x8500, symBinAddr: 0xC420, symSize: 0x30 }
  - { offset: 0x81B15, size: 0x8, addend: 0x0, symName: __ZNSt3__18functionIFvvEEC1IN5Tiled12JumpToObjectEvEET_, symObjAddr: 0x8530, symBinAddr: 0xC450, symSize: 0x20 }
  - { offset: 0x81B5A, size: 0x8, addend: 0x0, symName: __ZNSt3__18functionIFvvEED1Ev, symObjAddr: 0x8550, symBinAddr: 0xC470, symSize: 0x20 }
  - { offset: 0x81B84, size: 0x8, addend: 0x0, symName: __ZN5Tiled12JumpToObjectD1Ev, symObjAddr: 0x8570, symBinAddr: 0xC490, symSize: 0x20 }
  - { offset: 0x81BB0, size: 0x8, addend: 0x0, symName: __ZNK5Tiled9MapObject9isVisibleEv, symObjAddr: 0x8590, symBinAddr: 0xC4B0, symSize: 0x20 }
  - { offset: 0x81BD7, size: 0x8, addend: 0x0, symName: __ZL16optionalPropertyI7QStringET_PKN5Tiled6ObjectERKS0_RKS1_, symObjAddr: 0x85B0, symBinAddr: 0xC4D0, symSize: 0x100 }
  - { offset: 0x81C38, size: 0x8, addend: 0x0, symName: __ZNK5Tiled9MapObject8positionEv, symObjAddr: 0x86B0, symBinAddr: 0xC5D0, symSize: 0x20 }
  - { offset: 0x81C5F, size: 0x8, addend: 0x0, symName: __Z6qRoundd, symObjAddr: 0x86D0, symBinAddr: 0xC5F0, symSize: 0x30 }
  - { offset: 0x81C8E, size: 0x8, addend: 0x0, symName: __ZNK7QPointF1xEv, symObjAddr: 0x8700, symBinAddr: 0xC620, symSize: 0x20 }
  - { offset: 0x81CB6, size: 0x8, addend: 0x0, symName: __ZNK7QPointF1yEv, symObjAddr: 0x8720, symBinAddr: 0xC640, symSize: 0x20 }
  - { offset: 0x81CDE, size: 0x8, addend: 0x0, symName: __ZNK5Tiled9MapObject5widthEv, symObjAddr: 0x8740, symBinAddr: 0xC660, symSize: 0x20 }
  - { offset: 0x81D06, size: 0x8, addend: 0x0, symName: __ZNK5Tiled9MapObject6heightEv, symObjAddr: 0x8760, symBinAddr: 0xC680, symSize: 0x20 }
  - { offset: 0x81D2D, size: 0x8, addend: 0x0, symName: __ZL16optionalPropertyIdET_PKN5Tiled6ObjectERK7QStringRKS0_, symObjAddr: 0x8780, symBinAddr: 0xC6A0, symSize: 0x100 }
  - { offset: 0x81D8D, size: 0x8, addend: 0x0, symName: __ZN5QListIPN5Tiled9MapObjectEE14const_iteratorppEv, symObjAddr: 0x8880, symBinAddr: 0xC7A0, symSize: 0x20 }
  - { offset: 0x81DB3, size: 0x8, addend: 0x0, symName: __ZN5Tiled13LayerIteratorppEv, symObjAddr: 0x88A0, symBinAddr: 0xC7C0, symSize: 0x30 }
  - { offset: 0x82450, size: 0x8, addend: 0x0, symName: __ZN4QSetI7QStringEC1Ev, symObjAddr: 0x88D0, symBinAddr: 0xC7F0, symSize: 0x20 }
  - { offset: 0x8247A, size: 0x8, addend: 0x0, symName: __ZN5Tiled13LayerIteratorC1EPKNS_3MapEi, symObjAddr: 0x88F0, symBinAddr: 0xC810, symSize: 0x30 }
  - { offset: 0x824C4, size: 0x8, addend: 0x0, symName: __ZNK5Tiled5Layer9layerTypeEv, symObjAddr: 0x8920, symBinAddr: 0xC840, symSize: 0x20 }
  - { offset: 0x824EA, size: 0x8, addend: 0x0, symName: __ZNK7QString7isEmptyEv, symObjAddr: 0x8940, symBinAddr: 0xC860, symSize: 0x30 }
  - { offset: 0x8250F, size: 0x8, addend: 0x0, symName: __ZeqRK7QStringRKPKc, symObjAddr: 0x8970, symBinAddr: 0xC890, symSize: 0x40 }
  - { offset: 0x82568, size: 0x8, addend: 0x0, symName: __ZN7QStringC1ERKS_, symObjAddr: 0x8B80, symBinAddr: 0xCAA0, symSize: 0x30 }
  - { offset: 0x825A3, size: 0x8, addend: 0x0, symName: __ZN7QPointFC1Edd, symObjAddr: 0x8BB0, symBinAddr: 0xCAD0, symSize: 0x30 }
  - { offset: 0x825ED, size: 0x8, addend: 0x0, symName: __ZNK5Tiled9MapObject4cellEv, symObjAddr: 0x8BE0, symBinAddr: 0xCB00, symSize: 0x20 }
  - { offset: 0x82615, size: 0x8, addend: 0x0, symName: __ZNK5Tiled4Cell7isEmptyEv, symObjAddr: 0x8C00, symBinAddr: 0xCB20, symSize: 0x20 }
  - { offset: 0x8263B, size: 0x8, addend: 0x0, symName: __ZNK5Tiled4Cell4tileEv, symObjAddr: 0x8C20, symBinAddr: 0xCB40, symSize: 0x50 }
  - { offset: 0x82662, size: 0x8, addend: 0x0, symName: __ZNK5Tiled4Tile4sizeEv, symObjAddr: 0x8C70, symBinAddr: 0xCB90, symSize: 0x30 }
  - { offset: 0x82689, size: 0x8, addend: 0x0, symName: __ZNK5QSize5widthEv, symObjAddr: 0x8CA0, symBinAddr: 0xCBC0, symSize: 0x20 }
  - { offset: 0x826B0, size: 0x8, addend: 0x0, symName: __ZNK5QSize6heightEv, symObjAddr: 0x8CC0, symBinAddr: 0xCBE0, symSize: 0x20 }
  - { offset: 0x826D7, size: 0x8, addend: 0x0, symName: __ZNK5Tiled4Cell19flippedHorizontallyEv, symObjAddr: 0x8CE0, symBinAddr: 0xCC00, symSize: 0x20 }
  - { offset: 0x826FD, size: 0x8, addend: 0x0, symName: __ZN7QPointFpLERKS_, symObjAddr: 0x8D00, symBinAddr: 0xCC20, symSize: 0x40 }
  - { offset: 0x82734, size: 0x8, addend: 0x0, symName: __ZNK5Tiled4Cell17flippedVerticallyEv, symObjAddr: 0x8D40, symBinAddr: 0xCC60, symSize: 0x20 }
  - { offset: 0x8275A, size: 0x8, addend: 0x0, symName: __ZNK5Tiled9MapObject4sizeEv, symObjAddr: 0x8D60, symBinAddr: 0xCC80, symSize: 0x20 }
  - { offset: 0x82782, size: 0x8, addend: 0x0, symName: __ZN7QPointFmIERKS_, symObjAddr: 0x8D80, symBinAddr: 0xCCA0, symSize: 0x40 }
  - { offset: 0x827B9, size: 0x8, addend: 0x0, symName: __ZN10QTransformC1Ev, symObjAddr: 0x8DC0, symBinAddr: 0xCCE0, symSize: 0x20 }
  - { offset: 0x827E3, size: 0x8, addend: 0x0, symName: __ZNK5Tiled9MapObject8rotationEv, symObjAddr: 0x8DE0, symBinAddr: 0xCD00, symSize: 0x20 }
  - { offset: 0x8280A, size: 0x8, addend: 0x0, symName: __ZplRK7QPointFS1_, symObjAddr: 0x8E00, symBinAddr: 0xCD20, symSize: 0x50 }
  - { offset: 0x82848, size: 0x8, addend: 0x0, symName: __ZNK5Tiled9MapObject4nameEv, symObjAddr: 0x8E50, symBinAddr: 0xCD70, symSize: 0x20 }
  - { offset: 0x82870, size: 0x8, addend: 0x0, symName: __ZN7QStringC1EO17QArrayDataPointerIDsE, symObjAddr: 0x8E70, symBinAddr: 0xCD90, symSize: 0x30 }
  - { offset: 0x828A9, size: 0x8, addend: 0x0, symName: __ZNK7QString3argIiLb1EEES_T_ii5QChar, symObjAddr: 0x8EA0, symBinAddr: 0xCDC0, symSize: 0x60 }
  - { offset: 0x8291A, size: 0x8, addend: 0x0, symName: __ZNK5Tiled9MapObject2idEv, symObjAddr: 0x8F00, symBinAddr: 0xCE20, symSize: 0x20 }
  - { offset: 0x82942, size: 0x8, addend: 0x0, symName: __ZN5QCharC1IDsLb1EEET_, symObjAddr: 0x8F20, symBinAddr: 0xCE40, symSize: 0x30 }
  - { offset: 0x82989, size: 0x8, addend: 0x0, symName: __ZN17QArrayDataPointerIDsED1Ev, symObjAddr: 0x8F50, symBinAddr: 0xCE70, symSize: 0x20 }
  - { offset: 0x829B3, size: 0x8, addend: 0x0, symName: __ZNK4QSetI7QStringE8containsERKS0_, symObjAddr: 0x8F70, symBinAddr: 0xCE90, symSize: 0x30 }
  - { offset: 0x829E7, size: 0x8, addend: 0x0, symName: __ZN7QStringpLERKS_, symObjAddr: 0x8FA0, symBinAddr: 0xCEC0, symSize: 0x30 }
  - { offset: 0x82A1C, size: 0x8, addend: 0x0, symName: __ZN4QSetI7QStringE6insertERKS0_, symObjAddr: 0x8FD0, symBinAddr: 0xCEF0, symSize: 0x60 }
  - { offset: 0x82A4F, size: 0x8, addend: 0x0, symName: __ZL16optionalPropertyIiET_PKN5Tiled6ObjectERK7QStringRKS0_, symObjAddr: 0x9030, symBinAddr: 0xCF50, symSize: 0xF0 }
  - { offset: 0x82AAF, size: 0x8, addend: 0x0, symName: __ZN7QStringC1E13QLatin1String, symObjAddr: 0x9120, symBinAddr: 0xD040, symSize: 0x60 }
  - { offset: 0x82AEA, size: 0x8, addend: 0x0, symName: __ZNK5Tiled9TileLayer6heightEv, symObjAddr: 0x9180, symBinAddr: 0xD0A0, symSize: 0x20 }
  - { offset: 0x82B10, size: 0x8, addend: 0x0, symName: __ZNK5Tiled9TileLayer5widthEv, symObjAddr: 0x91A0, symBinAddr: 0xD0C0, symSize: 0x20 }
  - { offset: 0x82B36, size: 0x8, addend: 0x0, symName: __ZNK5Tiled9TileLayer6cellAtEii, symObjAddr: 0x91C0, symBinAddr: 0xD0E0, symSize: 0x60 }
  - { offset: 0x82B9A, size: 0x8, addend: 0x0, symName: __ZNK5Tiled4Tile7tilesetEv, symObjAddr: 0x9220, symBinAddr: 0xD140, symSize: 0x20 }
  - { offset: 0x82BC1, size: 0x8, addend: 0x0, symName: __ZNK5Tiled4Tile5widthEv, symObjAddr: 0x9240, symBinAddr: 0xD160, symSize: 0x30 }
  - { offset: 0x82BE8, size: 0x8, addend: 0x0, symName: __ZNK5Tiled4Tile6heightEv, symObjAddr: 0x9270, symBinAddr: 0xD190, symSize: 0x30 }
  - { offset: 0x82C0F, size: 0x8, addend: 0x0, symName: __ZNK5Tiled4Cell21flippedAntiDiagonallyEv, symObjAddr: 0x92A0, symBinAddr: 0xD1C0, symSize: 0x20 }
  - { offset: 0x82C35, size: 0x8, addend: 0x0, symName: __ZNK5Tiled5Layer3mapEv, symObjAddr: 0x93E0, symBinAddr: 0xD300, symSize: 0x20 }
  - { offset: 0x82C5B, size: 0x8, addend: 0x0, symName: __ZN6QPointC1Eii, symObjAddr: 0x9400, symBinAddr: 0xD320, symSize: 0x30 }
  - { offset: 0x82CA2, size: 0x8, addend: 0x0, symName: __ZNSt3__18functionIFvvEEC1IN5Tiled10JumpToTileEvEET_, symObjAddr: 0x9430, symBinAddr: 0xD350, symSize: 0x20 }
  - { offset: 0x82CE7, size: 0x8, addend: 0x0, symName: __ZN5Tiled10JumpToTileD1Ev, symObjAddr: 0x9450, symBinAddr: 0xD370, symSize: 0x20 }
  - { offset: 0x82D13, size: 0x8, addend: 0x0, symName: __ZNK5Tiled7Tileset12isCollectionEv, symObjAddr: 0x9470, symBinAddr: 0xD390, symSize: 0x50 }
  - { offset: 0x82D3B, size: 0x8, addend: 0x0, symName: __ZNK5Tiled4Tile11imageSourceEv, symObjAddr: 0x94C0, symBinAddr: 0xD3E0, symSize: 0x20 }
  - { offset: 0x82D62, size: 0x8, addend: 0x0, symName: __ZN6QFlagsIN4QUrl25ComponentFormattingOptionEEC1ES1_, symObjAddr: 0x94E0, symBinAddr: 0xD400, symSize: 0x30 }
  - { offset: 0x82D9A, size: 0x8, addend: 0x0, symName: __ZNK5Tiled7Tileset4nameEv, symObjAddr: 0x9510, symBinAddr: 0xD430, symSize: 0x20 }
  - { offset: 0x82DC2, size: 0x8, addend: 0x0, symName: __ZNK5Tiled4Tile2idEv, symObjAddr: 0x9530, symBinAddr: 0xD450, symSize: 0x20 }
  - { offset: 0x82DE9, size: 0x8, addend: 0x0, symName: __ZNK5Tiled7Tileset11columnCountEv, symObjAddr: 0x9550, symBinAddr: 0xD470, symSize: 0x20 }
  - { offset: 0x82E11, size: 0x8, addend: 0x0, symName: __ZNK5Tiled7Tileset6marginEv, symObjAddr: 0x9570, symBinAddr: 0xD490, symSize: 0x20 }
  - { offset: 0x82E39, size: 0x8, addend: 0x0, symName: __ZNK5Tiled7Tileset11tileSpacingEv, symObjAddr: 0x9590, symBinAddr: 0xD4B0, symSize: 0x20 }
  - { offset: 0x82E61, size: 0x8, addend: 0x0, symName: __ZNK5Tiled7Tileset9tileWidthEv, symObjAddr: 0x95B0, symBinAddr: 0xD4D0, symSize: 0x20 }
  - { offset: 0x82E89, size: 0x8, addend: 0x0, symName: __ZNK5Tiled7Tileset10tileHeightEv, symObjAddr: 0x95D0, symBinAddr: 0xD4F0, symSize: 0x20 }
  - { offset: 0x82EB1, size: 0x8, addend: 0x0, symName: __ZN5QListIPN5Tiled9MapObjectEEC1ERKS3_, symObjAddr: 0x95F0, symBinAddr: 0xD510, symSize: 0x30 }
  - { offset: 0x82EE6, size: 0x8, addend: 0x0, symName: __ZNK5Tiled11ObjectGroup9drawOrderEv, symObjAddr: 0x9620, symBinAddr: 0xD540, symSize: 0x20 }
  - { offset: 0x82F0D, size: 0x8, addend: 0x0, symName: __ZN5QListIPN5Tiled9MapObjectEE5beginEv, symObjAddr: 0x9680, symBinAddr: 0xD5A0, symSize: 0x40 }
  - { offset: 0x82F33, size: 0x8, addend: 0x0, symName: __ZN5QListIPN5Tiled9MapObjectEE3endEv, symObjAddr: 0x96C0, symBinAddr: 0xD5E0, symSize: 0x40 }
  - { offset: 0x82F59, size: 0x8, addend: 0x0, symName: __ZNK5Tiled9MapObject1xEv, symObjAddr: 0x9700, symBinAddr: 0xD620, symSize: 0x20 }
  - { offset: 0x82F81, size: 0x8, addend: 0x0, symName: __ZNK5Tiled9MapObject1yEv, symObjAddr: 0x9720, symBinAddr: 0xD640, symSize: 0x20 }
  - { offset: 0x82FA9, size: 0x8, addend: 0x0, symName: __ZN5QListIPN5Tiled9MapObjectEED1Ev, symObjAddr: 0x9740, symBinAddr: 0xD660, symSize: 0x20 }
  - { offset: 0x82FD5, size: 0x8, addend: 0x0, symName: __ZNK7QString3argIS_Lb1EEES_RKT_i5QChar, symObjAddr: 0x9760, symBinAddr: 0xD680, symSize: 0x70 }
  - { offset: 0x83037, size: 0x8, addend: 0x0, symName: __ZNK5Tiled5Layer4nameEv, symObjAddr: 0x97D0, symBinAddr: 0xD6F0, symSize: 0x20 }
  - { offset: 0x8305D, size: 0x8, addend: 0x0, symName: __ZNSt3__18functionIFvvEEC1IN5Tiled11SelectLayerEvEET_, symObjAddr: 0x97F0, symBinAddr: 0xD710, symSize: 0x20 }
  - { offset: 0x830A2, size: 0x8, addend: 0x0, symName: __ZN5Tiled11SelectLayerD1Ev, symObjAddr: 0x9810, symBinAddr: 0xD730, symSize: 0x20 }
  - { offset: 0x830CE, size: 0x8, addend: 0x0, symName: __ZL13writePropertyIdEvR16QXmlStreamWriterPKN5Tiled6ObjectERK7QStringRKT_, symObjAddr: 0x9830, symBinAddr: 0xD750, symSize: 0xB0 }
  - { offset: 0x83138, size: 0x8, addend: 0x0, symName: __ZNK5Tiled8SaveFile11errorStringEv, symObjAddr: 0x98E0, symBinAddr: 0xD800, symSize: 0x40 }
  - { offset: 0x8315F, size: 0x8, addend: 0x0, symName: __ZN4QSetI7QStringED1Ev, symObjAddr: 0x9920, symBinAddr: 0xD840, symSize: 0x20 }
  - { offset: 0x8318B, size: 0x8, addend: 0x0, symName: __ZN5Tiled8SaveFileD1Ev, symObjAddr: 0x9940, symBinAddr: 0xD860, symSize: 0x20 }
  - { offset: 0x831B7, size: 0x8, addend: 0x0, symName: __ZNK3Gmx9GmxPlugin11errorStringEv, symObjAddr: 0x9960, symBinAddr: 0xD880, symSize: 0x30 }
  - { offset: 0x831E0, size: 0x8, addend: 0x0, symName: __ZNK3Gmx9GmxPlugin10nameFilterEv, symObjAddr: 0x9990, symBinAddr: 0xD8B0, symSize: 0x40 }
  - { offset: 0x83209, size: 0x8, addend: 0x0, symName: __ZN3Gmx9GmxPlugin2trEPKcS2_i, symObjAddr: 0x99D0, symBinAddr: 0xD8F0, symSize: 0x40 }
  - { offset: 0x83248, size: 0x8, addend: 0x0, symName: __ZNK3Gmx9GmxPlugin9shortNameEv, symObjAddr: 0x9A10, symBinAddr: 0xD930, symSize: 0x90 }
  - { offset: 0x8329A, size: 0x8, addend: 0x0, symName: ___cxx_global_var_init, symObjAddr: 0x17830, symBinAddr: 0x1AB40, symSize: 0x40 }
  - { offset: 0x832AE, size: 0x8, addend: 0x0, symName: __ZNSt3__18functionIFvRKN5Tiled12JumpToObjectEEEC1B9nqe210106Ev, symObjAddr: 0x9AA0, symBinAddr: 0xD9C0, symSize: 0x20 }
  - { offset: 0x832D8, size: 0x8, addend: 0x0, symName: __ZNSt3__18functionIFvRKN5Tiled12JumpToObjectEEED1Ev, symObjAddr: 0x9AC0, symBinAddr: 0xD9E0, symSize: 0x20 }
  - { offset: 0x83302, size: 0x8, addend: 0x0, symName: ___cxx_global_var_init.68, symObjAddr: 0x17870, symBinAddr: 0x1AB80, symSize: 0x40 }
  - { offset: 0x83316, size: 0x8, addend: 0x0, symName: __ZNSt3__18functionIFvRKN5Tiled10JumpToTileEEEC1B9nqe210106Ev, symObjAddr: 0x9AE0, symBinAddr: 0xDA00, symSize: 0x20 }
  - { offset: 0x83340, size: 0x8, addend: 0x0, symName: __ZNSt3__18functionIFvRKN5Tiled10JumpToTileEEED1Ev, symObjAddr: 0x9B00, symBinAddr: 0xDA20, symSize: 0x20 }
  - { offset: 0x8336A, size: 0x8, addend: 0x0, symName: ___cxx_global_var_init.69, symObjAddr: 0x178B0, symBinAddr: 0x1ABC0, symSize: 0x3C }
  - { offset: 0x8337E, size: 0x8, addend: 0x0, symName: __ZNSt3__18functionIFvRKN5Tiled11SelectLayerEEEC1B9nqe210106Ev, symObjAddr: 0x9B20, symBinAddr: 0xDA40, symSize: 0x20 }
  - { offset: 0x833A8, size: 0x8, addend: 0x0, symName: __ZNSt3__18functionIFvRKN5Tiled11SelectLayerEEED1Ev, symObjAddr: 0x9B40, symBinAddr: 0xDA60, symSize: 0x20 }
  - { offset: 0x833D2, size: 0x8, addend: 0x0, symName: __ZN5Tiled9MapFormatC2EP7QObject, symObjAddr: 0x9B60, symBinAddr: 0xDA80, symSize: 0x40 }
  - { offset: 0x8340A, size: 0x8, addend: 0x0, symName: __ZN7QStringC2Ev, symObjAddr: 0x9BA0, symBinAddr: 0xDAC0, symSize: 0x20 }
  - { offset: 0x83436, size: 0x8, addend: 0x0, symName: __ZN17QArrayDataPointerIDsEC1Ev, symObjAddr: 0x9BC0, symBinAddr: 0xDAE0, symSize: 0x20 }
  - { offset: 0x83460, size: 0x8, addend: 0x0, symName: __ZN17QArrayDataPointerIDsEC2Ev, symObjAddr: 0x9BE0, symBinAddr: 0xDB00, symSize: 0x30 }
  - { offset: 0x8348A, size: 0x8, addend: 0x0, symName: __ZNKSt3__110unique_ptrI11QFileDeviceNS_14default_deleteIS1_EEEptB9nqe210106Ev, symObjAddr: 0x9C10, symBinAddr: 0xDB30, symSize: 0x20 }
  - { offset: 0x834B0, size: 0x8, addend: 0x0, symName: __ZN6QFlagsIN13QIODeviceBase12OpenModeFlagEEC1ES1_, symObjAddr: 0x9C30, symBinAddr: 0xDB50, symSize: 0x30 }
  - { offset: 0x834E8, size: 0x8, addend: 0x0, symName: __ZNK6QFlagsIN13QIODeviceBase12OpenModeFlagEEorES1_, symObjAddr: 0x9C60, symBinAddr: 0xDB80, symSize: 0x40 }
  - { offset: 0x8351C, size: 0x8, addend: 0x0, symName: __ZN6QFlagsIN13QIODeviceBase12OpenModeFlagEEC2ES1_, symObjAddr: 0x9CA0, symBinAddr: 0xDBC0, symSize: 0x30 }
  - { offset: 0x83554, size: 0x8, addend: 0x0, symName: __ZN9QtPrivate19QFlagsStorageHelperIN13QIODeviceBase12OpenModeFlagELi4EECI2NS_13QFlagsStorageIS2_EEENSt3__110in_place_tEj, symObjAddr: 0x9CD0, symBinAddr: 0xDBF0, symSize: 0x30 }
  - { offset: 0x83592, size: 0x8, addend: 0x0, symName: __ZN9QtPrivate13QFlagsStorageIN13QIODeviceBase12OpenModeFlagEEC2ENSt3__110in_place_tEj, symObjAddr: 0x9D10, symBinAddr: 0xDC30, symSize: 0x20 }
  - { offset: 0x835D4, size: 0x8, addend: 0x0, symName: __ZN6QFlagsIN13QIODeviceBase12OpenModeFlagEECI1N9QtPrivate13QFlagsStorageIS1_EEENSt3__110in_place_tEj, symObjAddr: 0x9D30, symBinAddr: 0xDC50, symSize: 0x30 }
  - { offset: 0x83612, size: 0x8, addend: 0x0, symName: __ZN6QFlagsIN13QIODeviceBase12OpenModeFlagEECI2N9QtPrivate13QFlagsStorageIS1_EEENSt3__110in_place_tEj, symObjAddr: 0x9D60, symBinAddr: 0xDC80, symSize: 0x30 }
  - { offset: 0x83650, size: 0x8, addend: 0x0, symName: __ZN7QString4swapERS_, symObjAddr: 0x9D90, symBinAddr: 0xDCB0, symSize: 0x30 }
  - { offset: 0x83685, size: 0x8, addend: 0x0, symName: __ZN17QArrayDataPointerIDsE4swapERS0_, symObjAddr: 0x9DC0, symBinAddr: 0xDCE0, symSize: 0x60 }
  - { offset: 0x836B8, size: 0x8, addend: 0x0, symName: __Z11qt_ptr_swapI15QTypedArrayDataIDsEEvRPT_S4_, symObjAddr: 0x9E20, symBinAddr: 0xDD40, symSize: 0x40 }
  - { offset: 0x83705, size: 0x8, addend: 0x0, symName: __Z11qt_ptr_swapIDsEvRPT_S2_, symObjAddr: 0x9E60, symBinAddr: 0xDD80, symSize: 0x40 }
  - { offset: 0x83753, size: 0x8, addend: 0x0, symName: __ZN7QStringD2Ev, symObjAddr: 0x9EE0, symBinAddr: 0xDE00, symSize: 0x20 }
  - { offset: 0x8377F, size: 0x8, addend: 0x0, symName: __ZNKSt3__110unique_ptrI11QFileDeviceNS_14default_deleteIS1_EEE3getB9nqe210106Ev, symObjAddr: 0x9F00, symBinAddr: 0xDE20, symSize: 0x20 }
  - { offset: 0x837A5, size: 0x8, addend: 0x0, symName: __ZNK6QFlagsIN5Tiled10FileFormat6OptionEE9testFlagsES3_, symObjAddr: 0x9F20, symBinAddr: 0xDE40, symSize: 0x50 }
  - { offset: 0x837D9, size: 0x8, addend: 0x0, symName: __ZN6QFlagsIN5Tiled10FileFormat6OptionEEC1ES2_, symObjAddr: 0x9F70, symBinAddr: 0xDE90, symSize: 0x30 }
  - { offset: 0x83811, size: 0x8, addend: 0x0, symName: __ZN6QFlagsIN5Tiled10FileFormat6OptionEEC2ES2_, symObjAddr: 0x9FA0, symBinAddr: 0xDEC0, symSize: 0x30 }
  - { offset: 0x83849, size: 0x8, addend: 0x0, symName: __ZN9QtPrivate19QFlagsStorageHelperIN5Tiled10FileFormat6OptionELi4EECI2NS_13QFlagsStorageIS3_EEENSt3__110in_place_tEj, symObjAddr: 0x9FD0, symBinAddr: 0xDEF0, symSize: 0x30 }
  - { offset: 0x83887, size: 0x8, addend: 0x0, symName: __ZN9QtPrivate13QFlagsStorageIN5Tiled10FileFormat6OptionEEC2ENSt3__110in_place_tEj, symObjAddr: 0xA000, symBinAddr: 0xDF20, symSize: 0x20 }
  - { offset: 0x838C9, size: 0x8, addend: 0x0, symName: __ZN14QAnyStringViewC1IcLb1EEEPKT_x, symObjAddr: 0xA050, symBinAddr: 0xDF70, symSize: 0x30 }
  - { offset: 0x8391D, size: 0x8, addend: 0x0, symName: __Z8qstrnlenPKcm, symObjAddr: 0xA0B0, symBinAddr: 0xDFD0, symSize: 0x70 }
  - { offset: 0x83965, size: 0x8, addend: 0x0, symName: __Z6memchrB9nqe210106Ua9enable_ifIXLb1EEEPKvim, symObjAddr: 0xA120, symBinAddr: 0xE040, symSize: 0x30 }
  - { offset: 0x839AE, size: 0x8, addend: 0x0, symName: __ZN14QAnyStringViewC2IcLb1EEEPKT_x, symObjAddr: 0xA150, symBinAddr: 0xE070, symSize: 0x50 }
  - { offset: 0x83A03, size: 0x8, addend: 0x0, symName: __ZN14QAnyStringView10encodeTypeIcEEmPKT_x, symObjAddr: 0xA1A0, symBinAddr: 0xE0C0, symSize: 0xC0 }
  - { offset: 0x83A3D, size: 0x8, addend: 0x0, symName: __ZN14QAnyStringView29isAsciiOnlyCharsAtCompileTimeIKcEEbPT_x, symObjAddr: 0xA260, symBinAddr: 0xE180, symSize: 0x20 }
  - { offset: 0x83A77, size: 0x8, addend: 0x0, symName: __ZNK7QString5beginEv, symObjAddr: 0xA2E0, symBinAddr: 0xE200, symSize: 0x20 }
  - { offset: 0x83A9F, size: 0x8, addend: 0x0, symName: __ZNK7QString4sizeEv, symObjAddr: 0xA300, symBinAddr: 0xE220, symSize: 0x50 }
  - { offset: 0x83AF9, size: 0x8, addend: 0x0, symName: __ZN14QAnyStringViewC1I5QCharLb1EEEPKT_x, symObjAddr: 0xA350, symBinAddr: 0xE270, symSize: 0x30 }
  - { offset: 0x83B4E, size: 0x8, addend: 0x0, symName: __ZNK17QArrayDataPointerIDsE4dataEv, symObjAddr: 0xA380, symBinAddr: 0xE2A0, symSize: 0x20 }
  - { offset: 0x83B7E, size: 0x8, addend: 0x0, symName: __ZZNK7QString4sizeEvENKUlvE_clEv, symObjAddr: 0xA3A0, symBinAddr: 0xE2C0, symSize: 0x50 }
  - { offset: 0x83BA8, size: 0x8, addend: 0x0, symName: __ZN14QAnyStringViewC2I5QCharLb1EEEPKT_x, symObjAddr: 0xA3F0, symBinAddr: 0xE310, symSize: 0x50 }
  - { offset: 0x83BFD, size: 0x8, addend: 0x0, symName: __ZN14QAnyStringView10encodeTypeI5QCharEEmPKT_x, symObjAddr: 0xA440, symBinAddr: 0xE360, symSize: 0xD0 }
  - { offset: 0x83C37, size: 0x8, addend: 0x0, symName: __ZN14QAnyStringView29isAsciiOnlyCharsAtCompileTimeIK5QCharEEbPT_x, symObjAddr: 0xA510, symBinAddr: 0xE430, symSize: 0x20 }
  - { offset: 0x83C77, size: 0x8, addend: 0x0, symName: __ZN14QByteArrayViewC1IPKcLb1EEERKT_, symObjAddr: 0xA590, symBinAddr: 0xE4B0, symSize: 0x70 }
  - { offset: 0x83CBE, size: 0x8, addend: 0x0, symName: __ZN7QStringC1EOS_, symObjAddr: 0xA600, symBinAddr: 0xE520, symSize: 0x30 }
  - { offset: 0x83CF7, size: 0x8, addend: 0x0, symName: __ZN14QByteArrayViewC1IcLb1EEEPKT_x, symObjAddr: 0xA680, symBinAddr: 0xE5A0, symSize: 0x30 }
  - { offset: 0x83D4C, size: 0x8, addend: 0x0, symName: __ZN14QByteArrayViewC2IcLb1EEEPKT_x, symObjAddr: 0xA6B0, symBinAddr: 0xE5D0, symSize: 0x90 }
  - { offset: 0x83DA1, size: 0x8, addend: 0x0, symName: __ZN14QByteArrayView10castHelperEPKc, symObjAddr: 0xA740, symBinAddr: 0xE660, symSize: 0x10 }
  - { offset: 0x83DC4, size: 0x8, addend: 0x0, symName: __ZN7QStringC2EOS_, symObjAddr: 0xA750, symBinAddr: 0xE670, symSize: 0x30 }
  - { offset: 0x83DFD, size: 0x8, addend: 0x0, symName: __ZN17QArrayDataPointerIDsEC1EOS0_, symObjAddr: 0xA780, symBinAddr: 0xE6A0, symSize: 0x30 }
  - { offset: 0x83E35, size: 0x8, addend: 0x0, symName: __ZN17QArrayDataPointerIDsEC2EOS0_, symObjAddr: 0xA7B0, symBinAddr: 0xE6D0, symSize: 0x90 }
  - { offset: 0x83E6D, size: 0x8, addend: 0x0, symName: __ZNK5Tiled3Map9allLayersEi, symObjAddr: 0xA8D0, symBinAddr: 0xE7F0, symSize: 0x30 }
  - { offset: 0x83EA4, size: 0x8, addend: 0x0, symName: __ZN5Tiled3Map19LayerIteratorHelperC1ERKS0_i, symObjAddr: 0xA900, symBinAddr: 0xE820, symSize: 0x30 }
  - { offset: 0x83EEE, size: 0x8, addend: 0x0, symName: __ZN5Tiled3Map19LayerIteratorHelperC2ERKS0_i, symObjAddr: 0xA930, symBinAddr: 0xE850, symSize: 0x30 }
  - { offset: 0x83F37, size: 0x8, addend: 0x0, symName: __Z13comparesEqualRK7QStringPKc, symObjAddr: 0xA960, symBinAddr: 0xE880, symSize: 0x40 }
  - { offset: 0x83F74, size: 0x8, addend: 0x0, symName: __Z13comparesEqualRK7QString14QByteArrayView, symObjAddr: 0xA9A0, symBinAddr: 0xE8C0, symSize: 0x80 }
  - { offset: 0x83FB2, size: 0x8, addend: 0x0, symName: __ZNK7QString9constDataEv, symObjAddr: 0xAA20, symBinAddr: 0xE940, symSize: 0x20 }
  - { offset: 0x83FDA, size: 0x8, addend: 0x0, symName: __ZNK14QByteArrayView9constDataEv, symObjAddr: 0xAA40, symBinAddr: 0xE960, symSize: 0x20 }
  - { offset: 0x84000, size: 0x8, addend: 0x0, symName: __ZNK14QByteArrayView4sizeEv, symObjAddr: 0xAA60, symBinAddr: 0xE980, symSize: 0x20 }
  - { offset: 0x84026, size: 0x8, addend: 0x0, symName: __ZNK7QString4dataEv, symObjAddr: 0xAA80, symBinAddr: 0xE9A0, symSize: 0x50 }
  - { offset: 0x8404E, size: 0x8, addend: 0x0, symName: __ZNK14QByteArrayView4dataEv, symObjAddr: 0xAAD0, symBinAddr: 0xE9F0, symSize: 0x20 }
  - { offset: 0x84074, size: 0x8, addend: 0x0, symName: __ZNSt3__18functionIFvvEEC1EOS2_, symObjAddr: 0xAC10, symBinAddr: 0xEB30, symSize: 0x30 }
  - { offset: 0x840AD, size: 0x8, addend: 0x0, symName: __ZN5Tiled5IssueD1Ev, symObjAddr: 0xAC70, symBinAddr: 0xEB90, symSize: 0x20 }
  - { offset: 0x840D9, size: 0x8, addend: 0x0, symName: __ZN5Tiled5IssueD2Ev, symObjAddr: 0xAC90, symBinAddr: 0xEBB0, symSize: 0x30 }
  - { offset: 0x84105, size: 0x8, addend: 0x0, symName: __ZNSt3__18functionIFvvEEC2EOS2_, symObjAddr: 0xACC0, symBinAddr: 0xEBE0, symSize: 0x30 }
  - { offset: 0x8413E, size: 0x8, addend: 0x0, symName: __ZNSt3__110__function12__value_funcIFvvEEC1B9nqe210106EOS3_, symObjAddr: 0xACF0, symBinAddr: 0xEC10, symSize: 0x30 }
  - { offset: 0x84176, size: 0x8, addend: 0x0, symName: __ZNSt3__110__function12__value_funcIFvvEEC2B9nqe210106EOS3_, symObjAddr: 0xAD20, symBinAddr: 0xEC40, symSize: 0xB0 }
  - { offset: 0x841AE, size: 0x8, addend: 0x0, symName: __ZNSt3__110__function12__value_funcIFvvEE9__as_baseB9nqe210106EPv, symObjAddr: 0xADD0, symBinAddr: 0xECF0, symSize: 0x10 }
  - { offset: 0x841D1, size: 0x8, addend: 0x0, symName: __ZN13QLatin1StringC2EPKc, symObjAddr: 0xADE0, symBinAddr: 0xED00, symSize: 0x50 }
  - { offset: 0x84209, size: 0x8, addend: 0x0, symName: __ZN5Tiled12JumpToObjectD2Ev, symObjAddr: 0xAE30, symBinAddr: 0xED50, symSize: 0x20 }
  - { offset: 0x84235, size: 0x8, addend: 0x0, symName: __ZNK6QSizeF5widthEv, symObjAddr: 0xAF90, symBinAddr: 0xEEB0, symSize: 0x20 }
  - { offset: 0x8425D, size: 0x8, addend: 0x0, symName: __ZNK6QSizeF6heightEv, symObjAddr: 0xAFB0, symBinAddr: 0xEED0, symSize: 0x20 }
  - { offset: 0x84285, size: 0x8, addend: 0x0, symName: __ZN5Tiled13LayerIteratorC2EPKNS_3MapEi, symObjAddr: 0xAFD0, symBinAddr: 0xEEF0, symSize: 0x40 }
  - { offset: 0x842CF, size: 0x8, addend: 0x0, symName: __ZN6QFlagsIN18QRegularExpression13PatternOptionEEC1ES1_, symObjAddr: 0xB040, symBinAddr: 0xEF60, symSize: 0x30 }
  - { offset: 0x84307, size: 0x8, addend: 0x0, symName: __ZN6QFlagsIN18QRegularExpression13PatternOptionEEC2ES1_, symObjAddr: 0xB070, symBinAddr: 0xEF90, symSize: 0x30 }
  - { offset: 0x8433F, size: 0x8, addend: 0x0, symName: __ZN9QtPrivate19QFlagsStorageHelperIN18QRegularExpression13PatternOptionELi4EECI2NS_13QFlagsStorageIS2_EEENSt3__110in_place_tEj, symObjAddr: 0xB0A0, symBinAddr: 0xEFC0, symSize: 0x30 }
  - { offset: 0x8437D, size: 0x8, addend: 0x0, symName: __ZN9QtPrivate13QFlagsStorageIN18QRegularExpression13PatternOptionEEC2ENSt3__110in_place_tEj, symObjAddr: 0xB0D0, symBinAddr: 0xEFF0, symSize: 0x20 }
  - { offset: 0x843BF, size: 0x8, addend: 0x0, symName: __ZN17QArrayDataPointerIDsEC1EP15QTypedArrayDataIDsEPDsx, symObjAddr: 0xB0F0, symBinAddr: 0xF010, symSize: 0x40 }
  - { offset: 0x84413, size: 0x8, addend: 0x0, symName: __ZN17QArrayDataPointerIDsEC2EP15QTypedArrayDataIDsEPDsx, symObjAddr: 0xB130, symBinAddr: 0xF050, symSize: 0x40 }
  - { offset: 0x84467, size: 0x8, addend: 0x0, symName: __ZN7QStringC2ERKS_, symObjAddr: 0xB170, symBinAddr: 0xF090, symSize: 0x30 }
  - { offset: 0x844A2, size: 0x8, addend: 0x0, symName: __ZN17QArrayDataPointerIDsEC1ERKS0_, symObjAddr: 0xB1A0, symBinAddr: 0xF0C0, symSize: 0x30 }
  - { offset: 0x844DA, size: 0x8, addend: 0x0, symName: __ZN17QArrayDataPointerIDsEC2ERKS0_, symObjAddr: 0xB1D0, symBinAddr: 0xF0F0, symSize: 0x50 }
  - { offset: 0x84512, size: 0x8, addend: 0x0, symName: __ZN17QArrayDataPointerIDsE3refEv, symObjAddr: 0xB220, symBinAddr: 0xF140, symSize: 0x30 }
  - { offset: 0x84538, size: 0x8, addend: 0x0, symName: __ZN10QArrayData3refEv, symObjAddr: 0xB250, symBinAddr: 0xF170, symSize: 0x20 }
  - { offset: 0x8455E, size: 0x8, addend: 0x0, symName: __ZN19QBasicAtomicIntegerIiE10refRelaxedEv, symObjAddr: 0xB270, symBinAddr: 0xF190, symSize: 0x20 }
  - { offset: 0x845AE, size: 0x8, addend: 0x0, symName: __ZN10QAtomicOpsIiE18fetchAndAddRelaxedIiEET_RNSt3__16atomicIS2_EEN19QAtomicAdditiveTypeIS2_E9AdditiveTE, symObjAddr: 0xB290, symBinAddr: 0xF1B0, symSize: 0x30 }
  - { offset: 0x845EA, size: 0x8, addend: 0x0, symName: __ZNSt3__113__atomic_baseIiLb1EE9fetch_addB9nqe210106EiNS_12memory_orderE, symObjAddr: 0xB2C0, symBinAddr: 0xF1E0, symSize: 0x30 }
  - { offset: 0x8462C, size: 0x8, addend: 0x0, symName: __ZN7QPointFC2Edd, symObjAddr: 0xB3A0, symBinAddr: 0xF2C0, symSize: 0x30 }
  - { offset: 0x84676, size: 0x8, addend: 0x0, symName: __ZNK5Tiled7Tileset8findTileEi, symObjAddr: 0xB3D0, symBinAddr: 0xF2F0, symSize: 0x40 }
  - { offset: 0x846AD, size: 0x8, addend: 0x0, symName: __ZNK4QMapIiPN5Tiled4TileEE5valueERKiRKS2_, symObjAddr: 0xB410, symBinAddr: 0xF330, symSize: 0xB0 }
  - { offset: 0x84700, size: 0x8, addend: 0x0, symName: __ZNK9QtPrivate30QExplicitlySharedDataPointerV2I8QMapDataINSt3__13mapIiPN5Tiled4TileENS2_4lessIiEENS2_9allocatorINS2_4pairIKiS6_EEEEEEEEcvbEv, symObjAddr: 0xB4C0, symBinAddr: 0xF3E0, symSize: 0x30 }
  - { offset: 0x84726, size: 0x8, addend: 0x0, symName: __ZNK9QtPrivate30QExplicitlySharedDataPointerV2I8QMapDataINSt3__13mapIiPN5Tiled4TileENS2_4lessIiEENS2_9allocatorINS2_4pairIKiS6_EEEEEEEEptEv, symObjAddr: 0xB4F0, symBinAddr: 0xF410, symSize: 0x20 }
  - { offset: 0x8474C, size: 0x8, addend: 0x0, symName: __ZNKSt3__13mapIiPN5Tiled4TileENS_4lessIiEENS_9allocatorINS_4pairIKiS3_EEEEE4findB9nqe210106ERS8_, symObjAddr: 0xB510, symBinAddr: 0xF430, symSize: 0x40 }
  - { offset: 0x84781, size: 0x8, addend: 0x0, symName: __ZNKSt3__13mapIiPN5Tiled4TileENS_4lessIiEENS_9allocatorINS_4pairIKiS3_EEEEE4cendB9nqe210106Ev, symObjAddr: 0xB580, symBinAddr: 0xF4A0, symSize: 0x30 }
  - { offset: 0x847A7, size: 0x8, addend: 0x0, symName: __ZNKSt3__120__map_const_iteratorINS_21__tree_const_iteratorINS_12__value_typeIiPN5Tiled4TileEEEPNS_11__tree_nodeIS6_PvEElEEEptB9nqe210106Ev, symObjAddr: 0xB5B0, symBinAddr: 0xF4D0, symSize: 0x30 }
  - { offset: 0x847CD, size: 0x8, addend: 0x0, symName: __ZNK2Qt23totally_ordered_wrapperIP8QMapDataINSt3__13mapIiPN5Tiled4TileENS2_4lessIiEENS2_9allocatorINS2_4pairIKiS6_EEEEEEEE3getEv, symObjAddr: 0xB5E0, symBinAddr: 0xF500, symSize: 0x20 }
  - { offset: 0x847F3, size: 0x8, addend: 0x0, symName: __ZNKSt3__16__treeINS_12__value_typeIiPN5Tiled4TileEEENS_19__map_value_compareIiNS_4pairIKiS4_EENS_4lessIiEELb1EEENS_9allocatorIS9_EEE4findIiEENS_21__tree_const_iteratorIS5_PNS_11__tree_nodeIS5_PvEElEERKT_, symObjAddr: 0xB600, symBinAddr: 0xF520, symSize: 0xD0 }
  - { offset: 0x84840, size: 0x8, addend: 0x0, symName: __ZNSt3__120__map_const_iteratorINS_21__tree_const_iteratorINS_12__value_typeIiPN5Tiled4TileEEEPNS_11__tree_nodeIS6_PvEElEEEC1B9nqe210106ESB_, symObjAddr: 0xB6D0, symBinAddr: 0xF5F0, symSize: 0x30 }
  - { offset: 0x84879, size: 0x8, addend: 0x0, symName: __ZNKSt3__16__treeINS_12__value_typeIiPN5Tiled4TileEEENS_19__map_value_compareIiNS_4pairIKiS4_EENS_4lessIiEELb1EEENS_9allocatorIS9_EEE13__lower_boundIiEENS_21__tree_const_iteratorIS5_PNS_11__tree_nodeIS5_PvEElEERKT_SL_PNS_15__tree_end_nodeIPNS_16__tree_node_baseISJ_EEEE, symObjAddr: 0xB700, symBinAddr: 0xF620, symSize: 0x90 }
  - { offset: 0x848D5, size: 0x8, addend: 0x0, symName: __ZNKSt3__16__treeINS_12__value_typeIiPN5Tiled4TileEEENS_19__map_value_compareIiNS_4pairIKiS4_EENS_4lessIiEELb1EEENS_9allocatorIS9_EEE6__rootB9nqe210106Ev, symObjAddr: 0xB790, symBinAddr: 0xF6B0, symSize: 0x20 }
  - { offset: 0x848FB, size: 0x8, addend: 0x0, symName: __ZNKSt3__16__treeINS_12__value_typeIiPN5Tiled4TileEEENS_19__map_value_compareIiNS_4pairIKiS4_EENS_4lessIiEELb1EEENS_9allocatorIS9_EEE10__end_nodeB9nqe210106Ev, symObjAddr: 0xB7B0, symBinAddr: 0xF6D0, symSize: 0x20 }
  - { offset: 0x84921, size: 0x8, addend: 0x0, symName: __ZNKSt3__16__treeINS_12__value_typeIiPN5Tiled4TileEEENS_19__map_value_compareIiNS_4pairIKiS4_EENS_4lessIiEELb1EEENS_9allocatorIS9_EEE3endB9nqe210106Ev, symObjAddr: 0xB800, symBinAddr: 0xF720, symSize: 0x30 }
  - { offset: 0x84947, size: 0x8, addend: 0x0, symName: __ZNKSt3__16__treeINS_12__value_typeIiPN5Tiled4TileEEENS_19__map_value_compareIiNS_4pairIKiS4_EENS_4lessIiEELb1EEENS_9allocatorIS9_EEE10value_compB9nqe210106Ev, symObjAddr: 0xB830, symBinAddr: 0xF750, symSize: 0x20 }
  - { offset: 0x8496D, size: 0x8, addend: 0x0, symName: __ZNKSt3__119__map_value_compareIiNS_4pairIKiPN5Tiled4TileEEENS_4lessIiEELb1EEclB9nqe210106ERS2_RKS6_, symObjAddr: 0xB850, symBinAddr: 0xF770, symSize: 0x30 }
  - { offset: 0x849B1, size: 0x8, addend: 0x0, symName: __ZNKSt3__121__tree_const_iteratorINS_12__value_typeIiPN5Tiled4TileEEEPNS_11__tree_nodeIS5_PvEElEdeB9nqe210106Ev, symObjAddr: 0xB880, symBinAddr: 0xF7A0, symSize: 0x20 }
  - { offset: 0x849D7, size: 0x8, addend: 0x0, symName: __ZNKSt3__119__map_value_compareIiNS_4pairIKiPN5Tiled4TileEEENS_4lessIiEELb1EEclB9nqe210106ERKS6_RS2_, symObjAddr: 0xB8A0, symBinAddr: 0xF7C0, symSize: 0x30 }
  - { offset: 0x84A1B, size: 0x8, addend: 0x0, symName: __ZNSt3__121__tree_const_iteratorINS_12__value_typeIiPN5Tiled4TileEEEPNS_11__tree_nodeIS5_PvEElEC1B9nqe210106EPNS_15__tree_end_nodeIPNS_16__tree_node_baseIS7_EEEE, symObjAddr: 0xB8D0, symBinAddr: 0xF7F0, symSize: 0x30 }
  - { offset: 0x84A54, size: 0x8, addend: 0x0, symName: __ZNKSt3__14lessIiEclB9nqe210106ERKiS3_, symObjAddr: 0xB900, symBinAddr: 0xF820, symSize: 0x30 }
  - { offset: 0x84A98, size: 0x8, addend: 0x0, symName: __ZNSt3__121__tree_const_iteratorINS_12__value_typeIiPN5Tiled4TileEEEPNS_11__tree_nodeIS5_PvEElEC2B9nqe210106EPNS_15__tree_end_nodeIPNS_16__tree_node_baseIS7_EEEE, symObjAddr: 0xB930, symBinAddr: 0xF850, symSize: 0x20 }
  - { offset: 0x84AD7, size: 0x8, addend: 0x0, symName: __ZNSt3__114pointer_traitsIPNS_15__tree_end_nodeIPNS_16__tree_node_baseIPvEEEEE10pointer_toB9nqe210106ERS6_, symObjAddr: 0xB950, symBinAddr: 0xF870, symSize: 0x10 }
  - { offset: 0x84AFA, size: 0x8, addend: 0x0, symName: __ZNKSt3__121__tree_const_iteratorINS_12__value_typeIiPN5Tiled4TileEEEPNS_11__tree_nodeIS5_PvEElE8__get_npB9nqe210106Ev, symObjAddr: 0xB990, symBinAddr: 0xF8B0, symSize: 0x20 }
  - { offset: 0x84B20, size: 0x8, addend: 0x0, symName: __ZNSt3__120__map_const_iteratorINS_21__tree_const_iteratorINS_12__value_typeIiPN5Tiled4TileEEEPNS_11__tree_nodeIS6_PvEElEEEC2B9nqe210106ESB_, symObjAddr: 0xB9B0, symBinAddr: 0xF8D0, symSize: 0x20 }
  - { offset: 0x84B59, size: 0x8, addend: 0x0, symName: __ZNKSt3__13mapIiPN5Tiled4TileENS_4lessIiEENS_9allocatorINS_4pairIKiS3_EEEEE3endB9nqe210106Ev, symObjAddr: 0xB9D0, symBinAddr: 0xF8F0, symSize: 0x30 }
  - { offset: 0x84B7F, size: 0x8, addend: 0x0, symName: __ZNSt3__114pointer_traitsIPKNS_4pairIKiPN5Tiled4TileEEEE10pointer_toB9nqe210106ERS7_, symObjAddr: 0xBA00, symBinAddr: 0xF920, symSize: 0x10 }
  - { offset: 0x84BA2, size: 0x8, addend: 0x0, symName: __ZNK5QRect4sizeEv, symObjAddr: 0xBA10, symBinAddr: 0xF930, symSize: 0x40 }
  - { offset: 0x84BCA, size: 0x8, addend: 0x0, symName: __ZNK5QRect5widthEv, symObjAddr: 0xBA50, symBinAddr: 0xF970, symSize: 0x60 }
  - { offset: 0x84BF2, size: 0x8, addend: 0x0, symName: __ZNK5QRect6heightEv, symObjAddr: 0xBAB0, symBinAddr: 0xF9D0, symSize: 0x60 }
  - { offset: 0x84C1A, size: 0x8, addend: 0x0, symName: __ZN5QSizeC1Eii, symObjAddr: 0xBB10, symBinAddr: 0xFA30, symSize: 0x30 }
  - { offset: 0x84C61, size: 0x8, addend: 0x0, symName: __ZNK9QtPrivate16QCheckedIntegers11QCheckedIntIiNS0_13SafeCheckImplIiEENS0_18AssertReportPolicyEE5valueEv, symObjAddr: 0xBBE0, symBinAddr: 0xFB00, symSize: 0x10 }
  - { offset: 0x84C87, size: 0x8, addend: 0x0, symName: __ZN9QtPrivate16QCheckedIntegers11QCheckedIntIiNS0_13SafeCheckImplIiEENS0_18AssertReportPolicyEEC1Ei, symObjAddr: 0xBC50, symBinAddr: 0xFB70, symSize: 0x30 }
  - { offset: 0x84CBF, size: 0x8, addend: 0x0, symName: __ZN9QtPrivate16QCheckedIntegers13SafeCheckImplIiE3addEiiPi, symObjAddr: 0xBC80, symBinAddr: 0xFBA0, symSize: 0x40 }
  - { offset: 0x84CFE, size: 0x8, addend: 0x0, symName: __ZN9QtPrivate16QCheckedIntegers18AssertReportPolicy5checkEbPKcS3_, symObjAddr: 0xBCC0, symBinAddr: 0xFBE0, symSize: 0x40 }
  - { offset: 0x84D3C, size: 0x8, addend: 0x0, symName: __Z12qAddOverflowIiENSt3__19enable_ifIXsr3stdE11is_signed_vIT_EEbE4typeES2_S2_PS2_, symObjAddr: 0xBD00, symBinAddr: 0xFC20, symSize: 0x30 }
  - { offset: 0x84D92, size: 0x8, addend: 0x0, symName: __ZN9QtPrivate16QCheckedIntegers11QCheckedIntIiNS0_13SafeCheckImplIiEENS0_18AssertReportPolicyEEC2Ei, symObjAddr: 0xBD30, symBinAddr: 0xFC50, symSize: 0x20 }
  - { offset: 0x84DCA, size: 0x8, addend: 0x0, symName: __ZN9QtPrivate16QCheckedIntegers13SafeCheckImplIiE3subEiiPi, symObjAddr: 0xBD50, symBinAddr: 0xFC70, symSize: 0x40 }
  - { offset: 0x84E08, size: 0x8, addend: 0x0, symName: __Z12qSubOverflowIiENSt3__19enable_ifIXsr3stdE11is_signed_vIT_EEbE4typeES2_S2_PS2_, symObjAddr: 0xBD90, symBinAddr: 0xFCB0, symSize: 0x30 }
  - { offset: 0x84E5E, size: 0x8, addend: 0x0, symName: __ZN5QSizeC2Eii, symObjAddr: 0xBDC0, symBinAddr: 0xFCE0, symSize: 0x40 }
  - { offset: 0x84EA5, size: 0x8, addend: 0x0, symName: __ZN10QTransformC2Ev, symObjAddr: 0xBE00, symBinAddr: 0xFD20, symSize: 0x50 }
  - { offset: 0x84ECF, size: 0x8, addend: 0x0, symName: __ZN7QStringC2EO17QArrayDataPointerIDsE, symObjAddr: 0xBE80, symBinAddr: 0xFDA0, symSize: 0x30 }
  - { offset: 0x84F08, size: 0x8, addend: 0x0, symName: __ZN5QCharC2IDsLb1EEET_, symObjAddr: 0xBEB0, symBinAddr: 0xFDD0, symSize: 0x20 }
  - { offset: 0x84F4F, size: 0x8, addend: 0x0, symName: __ZN7QString10fromLatin1EPKcx, symObjAddr: 0xBED0, symBinAddr: 0xFDF0, symSize: 0x80 }
  - { offset: 0x84F82, size: 0x8, addend: 0x0, symName: __ZNK13QLatin1String4dataEv, symObjAddr: 0xBF50, symBinAddr: 0xFE70, symSize: 0x20 }
  - { offset: 0x84FA8, size: 0x8, addend: 0x0, symName: __ZNK13QLatin1String4sizeEv, symObjAddr: 0xBF70, symBinAddr: 0xFE90, symSize: 0x20 }
  - { offset: 0x84FCD, size: 0x8, addend: 0x0, symName: __Z7qstrlenPKc, symObjAddr: 0xBF90, symBinAddr: 0xFEB0, symSize: 0x40 }
  - { offset: 0x84FFA, size: 0x8, addend: 0x0, symName: __ZNK5Tiled9TileLayer9findChunkEii, symObjAddr: 0xBFD0, symBinAddr: 0xFEF0, symSize: 0xA0 }
  - { offset: 0x8505E, size: 0x8, addend: 0x0, symName: __ZNK5Tiled5Chunk6cellAtEii, symObjAddr: 0xC070, symBinAddr: 0xFF90, symSize: 0x30 }
  - { offset: 0x850A1, size: 0x8, addend: 0x0, symName: __ZNK5QHashI6QPointN5Tiled5ChunkEE4findERKS0_, symObjAddr: 0xC0A0, symBinAddr: 0xFFC0, symSize: 0x40 }
  - { offset: 0x850D6, size: 0x8, addend: 0x0, symName: __ZNK5QHashI6QPointN5Tiled5ChunkEE14const_iteratorneERKS4_, symObjAddr: 0xC0E0, symBinAddr: 0x10000, symSize: 0x40 }
  - { offset: 0x8510B, size: 0x8, addend: 0x0, symName: __ZNK5QHashI6QPointN5Tiled5ChunkEE3endEv, symObjAddr: 0xC120, symBinAddr: 0x10040, symSize: 0x30 }
  - { offset: 0x85131, size: 0x8, addend: 0x0, symName: __ZNK5QHashI6QPointN5Tiled5ChunkEE14const_iterator5valueEv, symObjAddr: 0xC150, symBinAddr: 0x10070, symSize: 0x20 }
  - { offset: 0x85157, size: 0x8, addend: 0x0, symName: __ZNK5QHashI6QPointN5Tiled5ChunkEE13constFindImplIS0_EENS3_14const_iteratorERKT_, symObjAddr: 0xC170, symBinAddr: 0x10090, symSize: 0xC0 }
  - { offset: 0x851A4, size: 0x8, addend: 0x0, symName: __ZNK5QHashI6QPointN5Tiled5ChunkEE7isEmptyEv, symObjAddr: 0xC230, symBinAddr: 0x10150, symSize: 0x40 }
  - { offset: 0x851CA, size: 0x8, addend: 0x0, symName: __ZNK12QHashPrivate4DataINS_4NodeI6QPointN5Tiled5ChunkEEEE10findBucketIS2_EENS6_6BucketERKT_, symObjAddr: 0xC270, symBinAddr: 0x10190, symSize: 0x70 }
  - { offset: 0x85217, size: 0x8, addend: 0x0, symName: __ZNK12QHashPrivate4DataINS_4NodeI6QPointN5Tiled5ChunkEEEE6Bucket8isUnusedEv, symObjAddr: 0xC2E0, symBinAddr: 0x10200, symSize: 0x30 }
  - { offset: 0x8523D, size: 0x8, addend: 0x0, symName: __ZNK12QHashPrivate4DataINS_4NodeI6QPointN5Tiled5ChunkEEEE6Bucket13toBucketIndexEPKS6_, symObjAddr: 0xC310, symBinAddr: 0x10230, symSize: 0x40 }
  - { offset: 0x85272, size: 0x8, addend: 0x0, symName: __ZN5QHashI6QPointN5Tiled5ChunkEE14const_iteratorC1EN12QHashPrivate8iteratorINS5_4NodeIS0_S2_EEEE, symObjAddr: 0xC350, symBinAddr: 0x10270, symSize: 0x30 }
  - { offset: 0x852AB, size: 0x8, addend: 0x0, symName: __ZNK12QHashPrivate4DataINS_4NodeI6QPointN5Tiled5ChunkEEEE18findBucketWithHashIS2_EENS6_6BucketERKT_m, symObjAddr: 0xC3B0, symBinAddr: 0x102D0, symSize: 0xE0 }
  - { offset: 0x85333, size: 0x8, addend: 0x0, symName: __ZN12QHashPrivate4DataINS_4NodeI6QPointN5Tiled5ChunkEEEE6BucketC1EPKS6_m, symObjAddr: 0xC4B0, symBinAddr: 0x103D0, symSize: 0x30 }
  - { offset: 0x8537B, size: 0x8, addend: 0x0, symName: __ZNK12QHashPrivate4DataINS_4NodeI6QPointN5Tiled5ChunkEEEE6Bucket6offsetEv, symObjAddr: 0xC4E0, symBinAddr: 0x10400, symSize: 0x30 }
  - { offset: 0x853A1, size: 0x8, addend: 0x0, symName: __ZN12QHashPrivate4DataINS_4NodeI6QPointN5Tiled5ChunkEEEE6Bucket12nodeAtOffsetEm, symObjAddr: 0xC510, symBinAddr: 0x10430, symSize: 0x30 }
  - { offset: 0x853D5, size: 0x8, addend: 0x0, symName: __Z11qHashEqualsI6QPointEbRKT_S3_, symObjAddr: 0xC540, symBinAddr: 0x10460, symSize: 0x30 }
  - { offset: 0x8541C, size: 0x8, addend: 0x0, symName: __ZN12QHashPrivate4DataINS_4NodeI6QPointN5Tiled5ChunkEEEE6Bucket14advanceWrappedEPKS6_, symObjAddr: 0xC570, symBinAddr: 0x10490, symSize: 0x30 }
  - { offset: 0x85451, size: 0x8, addend: 0x0, symName: __ZN12QHashPrivate4DataINS_4NodeI6QPointN5Tiled5ChunkEEEE6BucketC2EPKS6_m, symObjAddr: 0xC5A0, symBinAddr: 0x104C0, symSize: 0x40 }
  - { offset: 0x85499, size: 0x8, addend: 0x0, symName: __ZNK12QHashPrivate4SpanINS_4NodeI6QPointN5Tiled5ChunkEEEE6offsetEm, symObjAddr: 0xC5E0, symBinAddr: 0x10500, symSize: 0x20 }
  - { offset: 0x854CE, size: 0x8, addend: 0x0, symName: __ZN12QHashPrivate4SpanINS_4NodeI6QPointN5Tiled5ChunkEEEE8atOffsetEm, symObjAddr: 0xC600, symBinAddr: 0x10520, symSize: 0x80 }
  - { offset: 0x85503, size: 0x8, addend: 0x0, symName: __ZN12QHashPrivate4SpanINS_4NodeI6QPointN5Tiled5ChunkEEEE5Entry4nodeEv, symObjAddr: 0xC680, symBinAddr: 0x105A0, symSize: 0x10 }
  - { offset: 0x85528, size: 0x8, addend: 0x0, symName: __ZeqRK6QPointS1_, symObjAddr: 0xC690, symBinAddr: 0x105B0, symSize: 0x30 }
  - { offset: 0x85576, size: 0x8, addend: 0x0, symName: __Z13comparesEqualRK6QPointS1_, symObjAddr: 0xC6C0, symBinAddr: 0x105E0, symSize: 0x50 }
  - { offset: 0x855B1, size: 0x8, addend: 0x0, symName: __ZN12QHashPrivate4DataINS_4NodeI6QPointN5Tiled5ChunkEEEE6Bucket12advance_implEPKS6_PNS_4SpanIS5_EE, symObjAddr: 0xC770, symBinAddr: 0x10690, symSize: 0xC0 }
  - { offset: 0x855F5, size: 0x8, addend: 0x0, symName: __ZNK12QHashPrivate4SpanINS_4NodeI6QPointN5Tiled5ChunkEEEE7hasNodeEm, symObjAddr: 0xC830, symBinAddr: 0x10750, symSize: 0x30 }
  - { offset: 0x8562A, size: 0x8, addend: 0x0, symName: __ZN5QHashI6QPointN5Tiled5ChunkEE14const_iteratorC2EN12QHashPrivate8iteratorINS5_4NodeIS0_S2_EEEE, symObjAddr: 0xC860, symBinAddr: 0x10780, symSize: 0x30 }
  - { offset: 0x85663, size: 0x8, addend: 0x0, symName: __ZNK12QHashPrivate8iteratorINS_4NodeI6QPointN5Tiled5ChunkEEEEneES6_, symObjAddr: 0xC890, symBinAddr: 0x107B0, symSize: 0x40 }
  - { offset: 0x85698, size: 0x8, addend: 0x0, symName: __ZNK12QHashPrivate8iteratorINS_4NodeI6QPointN5Tiled5ChunkEEEEeqES6_, symObjAddr: 0xC8D0, symBinAddr: 0x107F0, symSize: 0x40 }
  - { offset: 0x856CD, size: 0x8, addend: 0x0, symName: __ZN5QHashI6QPointN5Tiled5ChunkEE14const_iteratorC1Ev, symObjAddr: 0xC910, symBinAddr: 0x10830, symSize: 0x20 }
  - { offset: 0x856F7, size: 0x8, addend: 0x0, symName: __ZN5QHashI6QPointN5Tiled5ChunkEE14const_iteratorC2Ev, symObjAddr: 0xC930, symBinAddr: 0x10850, symSize: 0x20 }
  - { offset: 0x85721, size: 0x8, addend: 0x0, symName: __ZN12QHashPrivate8iteratorINS_4NodeI6QPointN5Tiled5ChunkEEEEC1Ev, symObjAddr: 0xC950, symBinAddr: 0x10870, symSize: 0x20 }
  - { offset: 0x8574E, size: 0x8, addend: 0x0, symName: __ZN12QHashPrivate8iteratorINS_4NodeI6QPointN5Tiled5ChunkEEEEC2Ev, symObjAddr: 0xC970, symBinAddr: 0x10890, symSize: 0x20 }
  - { offset: 0x8577B, size: 0x8, addend: 0x0, symName: __ZNK12QHashPrivate8iteratorINS_4NodeI6QPointN5Tiled5ChunkEEEE4nodeEv, symObjAddr: 0xC990, symBinAddr: 0x108B0, symSize: 0x80 }
  - { offset: 0x857A1, size: 0x8, addend: 0x0, symName: __ZNK12QHashPrivate8iteratorINS_4NodeI6QPointN5Tiled5ChunkEEEE8isUnusedEv, symObjAddr: 0xCA10, symBinAddr: 0x10930, symSize: 0x60 }
  - { offset: 0x857C7, size: 0x8, addend: 0x0, symName: __ZNK12QHashPrivate8iteratorINS_4NodeI6QPointN5Tiled5ChunkEEEE4spanEv, symObjAddr: 0xCA70, symBinAddr: 0x10990, symSize: 0x20 }
  - { offset: 0x857ED, size: 0x8, addend: 0x0, symName: __ZN12QHashPrivate4SpanINS_4NodeI6QPointN5Tiled5ChunkEEEE2atEm, symObjAddr: 0xCA90, symBinAddr: 0x109B0, symSize: 0x90 }
  - { offset: 0x85822, size: 0x8, addend: 0x0, symName: __ZNK12QHashPrivate8iteratorINS_4NodeI6QPointN5Tiled5ChunkEEEE5indexEv, symObjAddr: 0xCB20, symBinAddr: 0x10A40, symSize: 0x20 }
  - { offset: 0x85848, size: 0x8, addend: 0x0, symName: __ZNK5QListIN5Tiled4CellEE2atEx, symObjAddr: 0xCB40, symBinAddr: 0x10A60, symSize: 0x70 }
  - { offset: 0x8587D, size: 0x8, addend: 0x0, symName: __ZNK17QArrayDataPointerIN5Tiled4CellEEptEv, symObjAddr: 0xCBB0, symBinAddr: 0x10AD0, symSize: 0x10 }
  - { offset: 0x858A3, size: 0x8, addend: 0x0, symName: __ZNK5QListIN5Tiled4CellEE4dataEv, symObjAddr: 0xCBC0, symBinAddr: 0x10AE0, symSize: 0x30 }
  - { offset: 0x858C9, size: 0x8, addend: 0x0, symName: __ZNK17QArrayDataPointerIN5Tiled4CellEE4dataEv, symObjAddr: 0xCBF0, symBinAddr: 0x10B10, symSize: 0x20 }
  - { offset: 0x858EF, size: 0x8, addend: 0x0, symName: __ZN6QPointC2Eii, symObjAddr: 0xCC10, symBinAddr: 0x10B30, symSize: 0x40 }
  - { offset: 0x85936, size: 0x8, addend: 0x0, symName: __ZN5Tiled10JumpToTileD2Ev, symObjAddr: 0xCC50, symBinAddr: 0x10B70, symSize: 0x20 }
  - { offset: 0x85962, size: 0x8, addend: 0x0, symName: __ZNK5Tiled7Tileset11imageSourceEv, symObjAddr: 0xCC70, symBinAddr: 0x10B90, symSize: 0x20 }
  - { offset: 0x8598A, size: 0x8, addend: 0x0, symName: __ZNK5Tiled7Tileset5imageEv, symObjAddr: 0xCC90, symBinAddr: 0x10BB0, symSize: 0x20 }
  - { offset: 0x859B2, size: 0x8, addend: 0x0, symName: __ZN6QFlagsIN4QUrl25ComponentFormattingOptionEEC2ES1_, symObjAddr: 0xCCB0, symBinAddr: 0x10BD0, symSize: 0x30 }
  - { offset: 0x859EA, size: 0x8, addend: 0x0, symName: __ZN9QtPrivate19QFlagsStorageHelperIN4QUrl25ComponentFormattingOptionELi4EECI2NS_13QFlagsStorageIS2_EEENSt3__110in_place_tEj, symObjAddr: 0xCCE0, symBinAddr: 0x10C00, symSize: 0x30 }
  - { offset: 0x85A28, size: 0x8, addend: 0x0, symName: __ZN9QtPrivate13QFlagsStorageIN4QUrl25ComponentFormattingOptionEEC2ENSt3__110in_place_tEj, symObjAddr: 0xCD10, symBinAddr: 0x10C30, symSize: 0x20 }
  - { offset: 0x85A6A, size: 0x8, addend: 0x0, symName: __ZN5QListIPN5Tiled9MapObjectEEC2ERKS3_, symObjAddr: 0xCD60, symBinAddr: 0x10C80, symSize: 0x30 }
  - { offset: 0x85A9F, size: 0x8, addend: 0x0, symName: __ZN17QArrayDataPointerIPN5Tiled9MapObjectEEC1ERKS3_, symObjAddr: 0xCD90, symBinAddr: 0x10CB0, symSize: 0x30 }
  - { offset: 0x85AD7, size: 0x8, addend: 0x0, symName: __ZN17QArrayDataPointerIPN5Tiled9MapObjectEEC2ERKS3_, symObjAddr: 0xCDC0, symBinAddr: 0x10CE0, symSize: 0x50 }
  - { offset: 0x85B0F, size: 0x8, addend: 0x0, symName: __ZN17QArrayDataPointerIPN5Tiled9MapObjectEE3refEv, symObjAddr: 0xCE10, symBinAddr: 0x10D30, symSize: 0x30 }
  - { offset: 0x85B35, size: 0x8, addend: 0x0, symName: __ZN5QListIPN5Tiled9MapObjectEED2Ev, symObjAddr: 0xCE40, symBinAddr: 0x10D60, symSize: 0x20 }
  - { offset: 0x85B61, size: 0x8, addend: 0x0, symName: __ZN17QArrayDataPointerIPN5Tiled9MapObjectEED1Ev, symObjAddr: 0xCE60, symBinAddr: 0x10D80, symSize: 0x20 }
  - { offset: 0x85B8B, size: 0x8, addend: 0x0, symName: __ZN17QArrayDataPointerIPN5Tiled9MapObjectEED2Ev, symObjAddr: 0xCE80, symBinAddr: 0x10DA0, symSize: 0x40 }
  - { offset: 0x85BB5, size: 0x8, addend: 0x0, symName: __ZN17QArrayDataPointerIPN5Tiled9MapObjectEE5derefEv, symObjAddr: 0xCEC0, symBinAddr: 0x10DE0, symSize: 0x40 }
  - { offset: 0x85BDB, size: 0x8, addend: 0x0, symName: __ZN17QArrayDataPointerIPN5Tiled9MapObjectEEptEv, symObjAddr: 0xCF00, symBinAddr: 0x10E20, symSize: 0x10 }
  - { offset: 0x85C01, size: 0x8, addend: 0x0, symName: __ZN9QtPrivate12QPodArrayOpsIPN5Tiled9MapObjectEE10destroyAllEv, symObjAddr: 0xCF10, symBinAddr: 0x10E30, symSize: 0x70 }
  - { offset: 0x85C27, size: 0x8, addend: 0x0, symName: __ZN15QTypedArrayDataIPN5Tiled9MapObjectEE10deallocateEP10QArrayData, symObjAddr: 0xCF80, symBinAddr: 0x10EA0, symSize: 0x30 }
  - { offset: 0x85C4A, size: 0x8, addend: 0x0, symName: __ZN10QArrayData5derefEv, symObjAddr: 0xCFB0, symBinAddr: 0x10ED0, symSize: 0x20 }
  - { offset: 0x85C70, size: 0x8, addend: 0x0, symName: __ZN19QBasicAtomicIntegerIiE5derefEv, symObjAddr: 0xCFD0, symBinAddr: 0x10EF0, symSize: 0x20 }
  - { offset: 0x85C96, size: 0x8, addend: 0x0, symName: __ZN10QAtomicOpsIiE5derefIiEEbRNSt3__16atomicIT_EE, symObjAddr: 0xCFF0, symBinAddr: 0x10F10, symSize: 0x30 }
  - { offset: 0x85CC3, size: 0x8, addend: 0x0, symName: __ZNSt3__113__atomic_baseIiLb1EE9fetch_subB9nqe210106EiNS_12memory_orderE, symObjAddr: 0xD020, symBinAddr: 0x10F40, symSize: 0x30 }
  - { offset: 0x85D05, size: 0x8, addend: 0x0, symName: __ZNK19QBasicAtomicIntegerIiE11loadRelaxedEv, symObjAddr: 0xD110, symBinAddr: 0x11030, symSize: 0x20 }
  - { offset: 0x85D2B, size: 0x8, addend: 0x0, symName: __ZN10QAtomicOpsIiE11loadRelaxedIiEET_RKNSt3__16atomicIS2_EE, symObjAddr: 0xD130, symBinAddr: 0x11050, symSize: 0x20 }
  - { offset: 0x85D57, size: 0x8, addend: 0x0, symName: __ZNKSt3__113__atomic_baseIiLb0EE4loadB9nqe210106ENS_12memory_orderE, symObjAddr: 0xD150, symBinAddr: 0x11070, symSize: 0x30 }
  - { offset: 0x85D8B, size: 0x8, addend: 0x0, symName: __ZN5Tiled11SelectLayerD2Ev, symObjAddr: 0xD1D0, symBinAddr: 0x110F0, symSize: 0x20 }
  - { offset: 0x85DB7, size: 0x8, addend: 0x0, symName: __ZN4QSetI7QStringED2Ev, symObjAddr: 0xD1F0, symBinAddr: 0x11110, symSize: 0x20 }
  - { offset: 0x85DE3, size: 0x8, addend: 0x0, symName: __ZN5QHashI7QString15QHashDummyValueED1Ev, symObjAddr: 0xD210, symBinAddr: 0x11130, symSize: 0x20 }
  - { offset: 0x85E0D, size: 0x8, addend: 0x0, symName: __ZN5QHashI7QString15QHashDummyValueED2Ev, symObjAddr: 0xD230, symBinAddr: 0x11150, symSize: 0x60 }
  - { offset: 0x85E37, size: 0x8, addend: 0x0, symName: __ZN9QtPrivate8RefCount5derefEv, symObjAddr: 0xD290, symBinAddr: 0x111B0, symSize: 0x50 }
  - { offset: 0x85E6B, size: 0x8, addend: 0x0, symName: __ZN12QHashPrivate4DataINS_4NodeI7QString15QHashDummyValueEEED1Ev, symObjAddr: 0xD2E0, symBinAddr: 0x11200, symSize: 0x20 }
  - { offset: 0x85E95, size: 0x8, addend: 0x0, symName: __ZN12QHashPrivate4DataINS_4NodeI7QString15QHashDummyValueEEED2Ev, symObjAddr: 0xD300, symBinAddr: 0x11220, symSize: 0x80 }
  - { offset: 0x85EBF, size: 0x8, addend: 0x0, symName: __ZN12QHashPrivate4SpanINS_4NodeI7QString15QHashDummyValueEEED1Ev, symObjAddr: 0xD380, symBinAddr: 0x112A0, symSize: 0x20 }
  - { offset: 0x85EE9, size: 0x8, addend: 0x0, symName: __ZN12QHashPrivate4SpanINS_4NodeI7QString15QHashDummyValueEEED2Ev, symObjAddr: 0xD3A0, symBinAddr: 0x112C0, symSize: 0x20 }
  - { offset: 0x85F13, size: 0x8, addend: 0x0, symName: __ZN12QHashPrivate4SpanINS_4NodeI7QString15QHashDummyValueEEE8freeDataEv, symObjAddr: 0xD3C0, symBinAddr: 0x112E0, symSize: 0xE0 }
  - { offset: 0x85F7D, size: 0x8, addend: 0x0, symName: __ZN12QHashPrivate4SpanINS_4NodeI7QString15QHashDummyValueEEE5Entry4nodeEv, symObjAddr: 0xD4A0, symBinAddr: 0x113C0, symSize: 0x10 }
  - { offset: 0x85FA3, size: 0x8, addend: 0x0, symName: __ZN12QHashPrivate4NodeI7QString15QHashDummyValueED1Ev, symObjAddr: 0xD4B0, symBinAddr: 0x113D0, symSize: 0x20 }
  - { offset: 0x85FCF, size: 0x8, addend: 0x0, symName: __ZN12QHashPrivate4NodeI7QString15QHashDummyValueED2Ev, symObjAddr: 0xD4D0, symBinAddr: 0x113F0, symSize: 0x20 }
  - { offset: 0x85FFB, size: 0x8, addend: 0x0, symName: __ZN5Tiled8SaveFileD2Ev, symObjAddr: 0xD4F0, symBinAddr: 0x11410, symSize: 0x20 }
  - { offset: 0x86027, size: 0x8, addend: 0x0, symName: __ZNSt3__110unique_ptrI11QFileDeviceNS_14default_deleteIS1_EEED1B9nqe210106Ev, symObjAddr: 0xD510, symBinAddr: 0x11430, symSize: 0x20 }
  - { offset: 0x86051, size: 0x8, addend: 0x0, symName: __ZNSt3__110unique_ptrI11QFileDeviceNS_14default_deleteIS1_EEED2B9nqe210106Ev, symObjAddr: 0xD530, symBinAddr: 0x11450, symSize: 0x20 }
  - { offset: 0x8607B, size: 0x8, addend: 0x0, symName: __ZNSt3__110unique_ptrI11QFileDeviceNS_14default_deleteIS1_EEE5resetB9nqe210106EPS1_, symObjAddr: 0xD550, symBinAddr: 0x11470, symSize: 0x40 }
  - { offset: 0x860BF, size: 0x8, addend: 0x0, symName: __ZNKSt3__114default_deleteI11QFileDeviceEclB9nqe210106EPS1_, symObjAddr: 0xD590, symBinAddr: 0x114B0, symSize: 0x30 }
  - { offset: 0x860F3, size: 0x8, addend: 0x0, symName: __ZN17QArrayDataPointerIDsED2Ev, symObjAddr: 0xD5C0, symBinAddr: 0x114E0, symSize: 0x40 }
  - { offset: 0x8611D, size: 0x8, addend: 0x0, symName: __ZN17QArrayDataPointerIDsE5derefEv, symObjAddr: 0xD600, symBinAddr: 0x11520, symSize: 0x40 }
  - { offset: 0x86143, size: 0x8, addend: 0x0, symName: __ZN17QArrayDataPointerIDsEptEv, symObjAddr: 0xD640, symBinAddr: 0x11560, symSize: 0x10 }
  - { offset: 0x86169, size: 0x8, addend: 0x0, symName: __ZN9QtPrivate12QPodArrayOpsIDsE10destroyAllEv, symObjAddr: 0xD650, symBinAddr: 0x11570, symSize: 0x70 }
  - { offset: 0x8618F, size: 0x8, addend: 0x0, symName: __ZN15QTypedArrayDataIDsE10deallocateEP10QArrayData, symObjAddr: 0xD6C0, symBinAddr: 0x115E0, symSize: 0x30 }
  - { offset: 0x861B2, size: 0x8, addend: 0x0, symName: __ZNSt3__18functionIFvvEED2Ev, symObjAddr: 0xD6F0, symBinAddr: 0x11610, symSize: 0x20 }
  - { offset: 0x861DC, size: 0x8, addend: 0x0, symName: __ZNSt3__110__function12__value_funcIFvvEED1B9nqe210106Ev, symObjAddr: 0xD710, symBinAddr: 0x11630, symSize: 0x20 }
  - { offset: 0x86206, size: 0x8, addend: 0x0, symName: __ZNSt3__110__function12__value_funcIFvvEED2B9nqe210106Ev, symObjAddr: 0xD730, symBinAddr: 0x11650, symSize: 0x50 }
  - { offset: 0x86230, size: 0x8, addend: 0x0, symName: __ZN5QListIPN5Tiled9MapObjectEE6detachEv, symObjAddr: 0xD780, symBinAddr: 0x116A0, symSize: 0x20 }
  - { offset: 0x86256, size: 0x8, addend: 0x0, symName: __ZN17QArrayDataPointerIPN5Tiled9MapObjectEE5beginEv, symObjAddr: 0xD7A0, symBinAddr: 0x116C0, symSize: 0x20 }
  - { offset: 0x8627C, size: 0x8, addend: 0x0, symName: __ZN5QListIPN5Tiled9MapObjectEE8iteratorC1EPS2_, symObjAddr: 0xD7C0, symBinAddr: 0x116E0, symSize: 0x30 }
  - { offset: 0x862B4, size: 0x8, addend: 0x0, symName: __ZN17QArrayDataPointerIPN5Tiled9MapObjectEE6detachEPS3_, symObjAddr: 0xD7F0, symBinAddr: 0x11710, symSize: 0x40 }
  - { offset: 0x862E8, size: 0x8, addend: 0x0, symName: __ZNK17QArrayDataPointerIPN5Tiled9MapObjectEE11needsDetachEv, symObjAddr: 0xD830, symBinAddr: 0x11750, symSize: 0x40 }
  - { offset: 0x8630E, size: 0x8, addend: 0x0, symName: __ZN17QArrayDataPointerIPN5Tiled9MapObjectEE17reallocateAndGrowEN10QArrayData14GrowthPositionExPS3_, symObjAddr: 0xD870, symBinAddr: 0x11790, symSize: 0x260 }
  - { offset: 0x8638A, size: 0x8, addend: 0x0, symName: __ZN10QArrayData11needsDetachEv, symObjAddr: 0xDAD0, symBinAddr: 0x119F0, symSize: 0x30 }
  - { offset: 0x863B0, size: 0x8, addend: 0x0, symName: __ZN9QtPrivate12QPodArrayOpsIPN5Tiled9MapObjectEE10reallocateExN10QArrayData16AllocationOptionE, symObjAddr: 0xDB00, symBinAddr: 0x11A20, symSize: 0x80 }
  - { offset: 0x86403, size: 0x8, addend: 0x0, symName: __ZNK17QArrayDataPointerIPN5Tiled9MapObjectEE22constAllocatedCapacityEv, symObjAddr: 0xDB80, symBinAddr: 0x11AA0, symSize: 0x40 }
  - { offset: 0x86429, size: 0x8, addend: 0x0, symName: __ZNK17QArrayDataPointerIPN5Tiled9MapObjectEE14freeSpaceAtEndEv, symObjAddr: 0xDBC0, symBinAddr: 0x11AE0, symSize: 0x60 }
  - { offset: 0x8644F, size: 0x8, addend: 0x0, symName: __ZN17QArrayDataPointerIPN5Tiled9MapObjectEE12allocateGrowERKS3_xN10QArrayData14GrowthPositionE, symObjAddr: 0xDC20, symBinAddr: 0x11B40, symSize: 0x230 }
  - { offset: 0x864EA, size: 0x8, addend: 0x0, symName: __ZN17QArrayDataPointerIPN5Tiled9MapObjectEE4dataEv, symObjAddr: 0xDE50, symBinAddr: 0x11D70, symSize: 0x20 }
  - { offset: 0x86510, size: 0x8, addend: 0x0, symName: __ZNK17QArrayDataPointerIPN5Tiled9MapObjectEE16freeSpaceAtBeginEv, symObjAddr: 0xDE70, symBinAddr: 0x11D90, symSize: 0x60 }
  - { offset: 0x86536, size: 0x8, addend: 0x0, symName: __ZN9QtPrivate12QPodArrayOpsIPN5Tiled9MapObjectEE10copyAppendEPKS3_S6_, symObjAddr: 0xDED0, symBinAddr: 0x11DF0, symSize: 0x140 }
  - { offset: 0x86578, size: 0x8, addend: 0x0, symName: __ZN9QtPrivate12QPodArrayOpsIPN5Tiled9MapObjectEE10moveAppendEPS3_S5_, symObjAddr: 0xE010, symBinAddr: 0x11F30, symSize: 0x30 }
  - { offset: 0x865BA, size: 0x8, addend: 0x0, symName: __ZN17QArrayDataPointerIPN5Tiled9MapObjectEE4swapERS3_, symObjAddr: 0xE040, symBinAddr: 0x11F60, symSize: 0x60 }
  - { offset: 0x865EE, size: 0x8, addend: 0x0, symName: __ZN15QTypedArrayDataIPN5Tiled9MapObjectEE19reallocateUnalignedEPS3_PS2_xN10QArrayData16AllocationOptionE, symObjAddr: 0xE0A0, symBinAddr: 0x11FC0, symSize: 0x70 }
  - { offset: 0x86655, size: 0x8, addend: 0x0, symName: __ZNSt3__14pairIP15QTypedArrayDataIPN5Tiled9MapObjectEEPS4_EC1B9nqe210106IS6_S7_Li0EEEOT_OT0_, symObjAddr: 0xE110, symBinAddr: 0x12030, symSize: 0x30 }
  - { offset: 0x866B3, size: 0x8, addend: 0x0, symName: __ZNSt3__14pairIP15QTypedArrayDataIPN5Tiled9MapObjectEEPS4_EC2B9nqe210106IS6_S7_Li0EEEOT_OT0_, symObjAddr: 0xE140, symBinAddr: 0x12060, symSize: 0x30 }
  - { offset: 0x86711, size: 0x8, addend: 0x0, symName: __ZNK10QArrayData22constAllocatedCapacityEv, symObjAddr: 0xE170, symBinAddr: 0x12090, symSize: 0x20 }
  - { offset: 0x86736, size: 0x8, addend: 0x0, symName: __Z4qMaxIxERKT_S2_S2_, symObjAddr: 0xE190, symBinAddr: 0x120B0, symSize: 0x40 }
  - { offset: 0x8677A, size: 0x8, addend: 0x0, symName: __ZNK17QArrayDataPointerIPN5Tiled9MapObjectEE14detachCapacityEx, symObjAddr: 0xE1D0, symBinAddr: 0x120F0, symSize: 0x50 }
  - { offset: 0x867AF, size: 0x8, addend: 0x0, symName: __ZN15QTypedArrayDataIPN5Tiled9MapObjectEE8allocateExN10QArrayData16AllocationOptionE, symObjAddr: 0xE220, symBinAddr: 0x12140, symSize: 0x60 }
  - { offset: 0x867FC, size: 0x8, addend: 0x0, symName: __ZN17QArrayDataPointerIPN5Tiled9MapObjectEEC1EP15QTypedArrayDataIS2_EPS2_x, symObjAddr: 0xE2C0, symBinAddr: 0x121E0, symSize: 0x40 }
  - { offset: 0x8684F, size: 0x8, addend: 0x0, symName: __Z4qMaxIixEN11QTypeTraits6detail8PromotedIT_T0_NSt3__19enable_ifIXaaaaaaaaaaaaaasr3stdE15is_arithmetic_vIS3_Esr3stdE15is_arithmetic_vIS4_Eeqsr3stdE19is_floating_point_vIS3_Esr3stdE19is_floating_point_vIS4_Eeqsr3stdE11is_signed_vIS3_Esr3stdE11is_signed_vIS4_Entsr3stdE9is_same_vIS3_bEntsr3stdE9is_same_vIS4_bEntsr3stdE9is_same_vIS3_cEntsr3stdE9is_same_vIS4_cEEvE4typeEE4typeERKS3_RKS4_, symObjAddr: 0xE300, symBinAddr: 0x12220, symSize: 0x50 }
  - { offset: 0x868C3, size: 0x8, addend: 0x0, symName: __ZNK17QArrayDataPointerIPN5Tiled9MapObjectEE5flagsEv, symObjAddr: 0xE350, symBinAddr: 0x12270, symSize: 0x40 }
  - { offset: 0x868E9, size: 0x8, addend: 0x0, symName: __ZNK10QArrayData14detachCapacityEx, symObjAddr: 0xE390, symBinAddr: 0x122B0, symSize: 0x90 }
  - { offset: 0x8691D, size: 0x8, addend: 0x0, symName: __ZNK6QFlagsIN10QArrayData11ArrayOptionEEanES1_, symObjAddr: 0xE420, symBinAddr: 0x12340, symSize: 0x40 }
  - { offset: 0x86951, size: 0x8, addend: 0x0, symName: __ZNK6QFlagsIN10QArrayData11ArrayOptionEEcvjEv, symObjAddr: 0xE460, symBinAddr: 0x12380, symSize: 0x10 }
  - { offset: 0x86977, size: 0x8, addend: 0x0, symName: __ZN6QFlagsIN10QArrayData11ArrayOptionEECI1N9QtPrivate13QFlagsStorageIS1_EEENSt3__110in_place_tEj, symObjAddr: 0xE470, symBinAddr: 0x12390, symSize: 0x30 }
  - { offset: 0x869B5, size: 0x8, addend: 0x0, symName: __ZN6QFlagsIN10QArrayData11ArrayOptionEECI2N9QtPrivate13QFlagsStorageIS1_EEENSt3__110in_place_tEj, symObjAddr: 0xE4A0, symBinAddr: 0x123C0, symSize: 0x30 }
  - { offset: 0x869F3, size: 0x8, addend: 0x0, symName: __ZN9QtPrivate19QFlagsStorageHelperIN10QArrayData11ArrayOptionELi4EECI2NS_13QFlagsStorageIS2_EEENSt3__110in_place_tEj, symObjAddr: 0xE4D0, symBinAddr: 0x123F0, symSize: 0x30 }
  - { offset: 0x86A31, size: 0x8, addend: 0x0, symName: __ZN9QtPrivate13QFlagsStorageIN10QArrayData11ArrayOptionEEC2ENSt3__110in_place_tEj, symObjAddr: 0xE500, symBinAddr: 0x12420, symSize: 0x20 }
  - { offset: 0x86A73, size: 0x8, addend: 0x0, symName: __ZNSt3__110__get_pairILm0EE3getB9nqe210106IP15QTypedArrayDataIPN5Tiled9MapObjectEEPS6_EEOT_ONS_4pairISA_T0_EE, symObjAddr: 0xE520, symBinAddr: 0x12440, symSize: 0x10 }
  - { offset: 0x86AA9, size: 0x8, addend: 0x0, symName: __ZNSt3__110__get_pairILm1EE3getB9nqe210106IP15QTypedArrayDataIPN5Tiled9MapObjectEEPS6_EEOT0_ONS_4pairIT_SA_EE, symObjAddr: 0xE530, symBinAddr: 0x12450, symSize: 0x20 }
  - { offset: 0x86ADF, size: 0x8, addend: 0x0, symName: __ZN17QArrayDataPointerIPN5Tiled9MapObjectEEC2EP15QTypedArrayDataIS2_EPS2_x, symObjAddr: 0xE550, symBinAddr: 0x12470, symSize: 0x40 }
  - { offset: 0x86B33, size: 0x8, addend: 0x0, symName: __ZN6QFlagsIN10QArrayData11ArrayOptionEEC1ES1_, symObjAddr: 0xE590, symBinAddr: 0x124B0, symSize: 0x30 }
  - { offset: 0x86B6B, size: 0x8, addend: 0x0, symName: __ZN6QFlagsIN10QArrayData11ArrayOptionEEC2ES1_, symObjAddr: 0xE5C0, symBinAddr: 0x124E0, symSize: 0x30 }
  - { offset: 0x86BA3, size: 0x8, addend: 0x0, symName: __ZN15QTypedArrayDataIPN5Tiled9MapObjectEE9dataStartEP10QArrayDatax, symObjAddr: 0xE5F0, symBinAddr: 0x12510, symSize: 0x80 }
  - { offset: 0x86BE2, size: 0x8, addend: 0x0, symName: __ZNK17QArrayDataPointerIPN5Tiled9MapObjectEE9isMutableEv, symObjAddr: 0xE670, symBinAddr: 0x12590, symSize: 0x20 }
  - { offset: 0x86C08, size: 0x8, addend: 0x0, symName: __ZNK17QArrayDataPointerIPN5Tiled9MapObjectEE8isSharedEv, symObjAddr: 0xE690, symBinAddr: 0x125B0, symSize: 0x40 }
  - { offset: 0x86C2E, size: 0x8, addend: 0x0, symName: __ZN17QArrayDataPointerIPN5Tiled9MapObjectEE3endEv, symObjAddr: 0xE6D0, symBinAddr: 0x125F0, symSize: 0x30 }
  - { offset: 0x86C54, size: 0x8, addend: 0x0, symName: __ZNK10QArrayData8isSharedEv, symObjAddr: 0xE700, symBinAddr: 0x12620, symSize: 0x30 }
  - { offset: 0x86C79, size: 0x8, addend: 0x0, symName: __Z11qt_ptr_swapI15QTypedArrayDataIPN5Tiled9MapObjectEEEvRPT_S7_, symObjAddr: 0xE730, symBinAddr: 0x12650, symSize: 0x40 }
  - { offset: 0x86CC6, size: 0x8, addend: 0x0, symName: __Z11qt_ptr_swapIPN5Tiled9MapObjectEEvRPT_S5_, symObjAddr: 0xE770, symBinAddr: 0x12690, symSize: 0x40 }
  - { offset: 0x86D14, size: 0x8, addend: 0x0, symName: __ZN5QListIPN5Tiled9MapObjectEE8iteratorC2EPS2_, symObjAddr: 0xE7B0, symBinAddr: 0x126D0, symSize: 0x20 }
  - { offset: 0x86D4C, size: 0x8, addend: 0x0, symName: __ZNK17QArrayDataPointerIPN5Tiled9MapObjectEEptEv, symObjAddr: 0xE7D0, symBinAddr: 0x126F0, symSize: 0x10 }
  - { offset: 0x86D72, size: 0x8, addend: 0x0, symName: __ZNK17QArrayDataPointerIPN5Tiled9MapObjectEE10constBeginEv, symObjAddr: 0xE7E0, symBinAddr: 0x12700, symSize: 0x20 }
  - { offset: 0x86D98, size: 0x8, addend: 0x0, symName: __ZN5QListIPN5Tiled9MapObjectEE14const_iteratorC1EPKS2_, symObjAddr: 0xE800, symBinAddr: 0x12720, symSize: 0x30 }
  - { offset: 0x86DD0, size: 0x8, addend: 0x0, symName: __ZNK17QArrayDataPointerIPN5Tiled9MapObjectEE4dataEv, symObjAddr: 0xE830, symBinAddr: 0x12750, symSize: 0x20 }
  - { offset: 0x86DF6, size: 0x8, addend: 0x0, symName: __ZN5QListIPN5Tiled9MapObjectEE14const_iteratorC2EPKS2_, symObjAddr: 0xE850, symBinAddr: 0x12770, symSize: 0x20 }
  - { offset: 0x86E2E, size: 0x8, addend: 0x0, symName: __ZNK17QArrayDataPointerIPN5Tiled9MapObjectEE8constEndEv, symObjAddr: 0xE870, symBinAddr: 0x12790, symSize: 0x30 }
  - { offset: 0x86E53, size: 0x8, addend: 0x0, symName: __ZL8toStringIiE7QStringT_, symObjAddr: 0xE8A0, symBinAddr: 0x127C0, symSize: 0x30 }
  - { offset: 0x86E88, size: 0x8, addend: 0x0, symName: __ZL16optionalPropertyIbET_PKN5Tiled6ObjectERK7QStringRKS0_, symObjAddr: 0xE8D0, symBinAddr: 0x127F0, symSize: 0xF0 }
  - { offset: 0x86EE8, size: 0x8, addend: 0x0, symName: __ZNK8QVariant7isValidEv, symObjAddr: 0xE9C0, symBinAddr: 0x128E0, symSize: 0x30 }
  - { offset: 0x86F10, size: 0x8, addend: 0x0, symName: __ZNKR8QVariant5valueIbEET_v, symObjAddr: 0xE9F0, symBinAddr: 0x12910, symSize: 0x20 }
  - { offset: 0x86F3F, size: 0x8, addend: 0x0, symName: __ZNK8QVariant7Private4typeEv, symObjAddr: 0xEA10, symBinAddr: 0x12930, symSize: 0x30 }
  - { offset: 0x86F65, size: 0x8, addend: 0x0, symName: __ZNK9QMetaType7isValidEN2Qt15Disambiguated_tE, symObjAddr: 0xEA40, symBinAddr: 0x12960, symSize: 0x20 }
  - { offset: 0x86F99, size: 0x8, addend: 0x0, symName: __ZNK8QVariant7Private13typeInterfaceEv, symObjAddr: 0xEA60, symBinAddr: 0x12980, symSize: 0x20 }
  - { offset: 0x86FBF, size: 0x8, addend: 0x0, symName: __ZN9QMetaTypeC1EPKN9QtPrivate18QMetaTypeInterfaceE, symObjAddr: 0xEA80, symBinAddr: 0x129A0, symSize: 0x30 }
  - { offset: 0x86FF8, size: 0x8, addend: 0x0, symName: __ZN9QMetaTypeC2EPKN9QtPrivate18QMetaTypeInterfaceE, symObjAddr: 0xEAB0, symBinAddr: 0x129D0, symSize: 0x20 }
  - { offset: 0x87030, size: 0x8, addend: 0x0, symName: __Z13qvariant_castIbET_RK8QVariant, symObjAddr: 0xEAD0, symBinAddr: 0x129F0, symSize: 0x70 }
  - { offset: 0x87076, size: 0x8, addend: 0x0, symName: __ZN9QMetaType8fromTypeIbEES_v, symObjAddr: 0xEB40, symBinAddr: 0x12A60, symSize: 0x30 }
  - { offset: 0x87093, size: 0x8, addend: 0x0, symName: __ZeqRK9QMetaTypeS1_, symObjAddr: 0xEB70, symBinAddr: 0x12A90, symSize: 0x30 }
  - { offset: 0x870EC, size: 0x8, addend: 0x0, symName: __ZNK8QVariant7Private3getIbEERKT_v, symObjAddr: 0xEBA0, symBinAddr: 0x12AC0, symSize: 0x20 }
  - { offset: 0x8711A, size: 0x8, addend: 0x0, symName: __Z13comparesEqualRK9QMetaTypeS1_, symObjAddr: 0xEC40, symBinAddr: 0x12B60, symSize: 0x80 }
  - { offset: 0x87176, size: 0x8, addend: 0x0, symName: __ZNK9QMetaType2idEi, symObjAddr: 0xECC0, symBinAddr: 0x12BE0, symSize: 0x20 }
  - { offset: 0x871A8, size: 0x8, addend: 0x0, symName: __ZNK9QMetaType14registerHelperEv, symObjAddr: 0xECE0, symBinAddr: 0x12C00, symSize: 0x70 }
  - { offset: 0x871EC, size: 0x8, addend: 0x0, symName: __ZNK8QVariant7Private7storageEv, symObjAddr: 0xED50, symBinAddr: 0x12C70, symSize: 0x50 }
  - { offset: 0x87212, size: 0x8, addend: 0x0, symName: __ZN8QVariant13PrivateShared4dataEv, symObjAddr: 0xEDA0, symBinAddr: 0x12CC0, symSize: 0x20 }
  - { offset: 0x87238, size: 0x8, addend: 0x0, symName: __ZNK8QVariant8metaTypeEv, symObjAddr: 0xEDC0, symBinAddr: 0x12CE0, symSize: 0x30 }
  - { offset: 0x87260, size: 0x8, addend: 0x0, symName: __ZNK8QVariant9constDataEv, symObjAddr: 0xEDF0, symBinAddr: 0x12D10, symSize: 0x20 }
  - { offset: 0x87285, size: 0x8, addend: 0x0, symName: __ZL8toStringRK7QString, symObjAddr: 0xEE10, symBinAddr: 0x12D30, symSize: 0x30 }
  - { offset: 0x872B2, size: 0x8, addend: 0x0, symName: __ZNSt3__18functionIFvvEEC2IN5Tiled12JumpToObjectEvEET_, symObjAddr: 0xEE40, symBinAddr: 0x12D60, symSize: 0x20 }
  - { offset: 0x872F7, size: 0x8, addend: 0x0, symName: __ZNSt3__110__function12__value_funcIFvvEEC1B9nqe210106IN5Tiled12JumpToObjectELi0EEEOT_, symObjAddr: 0xEE60, symBinAddr: 0x12D80, symSize: 0x30 }
  - { offset: 0x8733E, size: 0x8, addend: 0x0, symName: __ZNSt3__110__function12__value_funcIFvvEEC2B9nqe210106IN5Tiled12JumpToObjectELi0EEEOT_, symObjAddr: 0xEE90, symBinAddr: 0x12DB0, symSize: 0x90 }
  - { offset: 0x87385, size: 0x8, addend: 0x0, symName: __ZNSt3__110__function6__funcIN5Tiled12JumpToObjectEFvvEEC1B9nqe210106EOS3_, symObjAddr: 0xEF30, symBinAddr: 0x12E50, symSize: 0x30 }
  - { offset: 0x873BD, size: 0x8, addend: 0x0, symName: __ZNSt3__110__function6__funcIN5Tiled12JumpToObjectEFvvEEC2B9nqe210106EOS3_, symObjAddr: 0xEF60, symBinAddr: 0x12E80, symSize: 0x50 }
  - { offset: 0x873F5, size: 0x8, addend: 0x0, symName: __ZNSt3__110__function6__baseIFvvEEC2B9nqe210106Ev, symObjAddr: 0xEFB0, symBinAddr: 0x12ED0, symSize: 0x20 }
  - { offset: 0x8741F, size: 0x8, addend: 0x0, symName: __ZN5Tiled12JumpToObjectC1EOS0_, symObjAddr: 0xEFD0, symBinAddr: 0x12EF0, symSize: 0x30 }
  - { offset: 0x87454, size: 0x8, addend: 0x0, symName: __ZNSt3__110__function6__funcIN5Tiled12JumpToObjectEFvvEED1Ev, symObjAddr: 0xF000, symBinAddr: 0x12F20, symSize: 0x20 }
  - { offset: 0x87480, size: 0x8, addend: 0x0, symName: __ZNSt3__110__function6__funcIN5Tiled12JumpToObjectEFvvEED0Ev, symObjAddr: 0xF020, symBinAddr: 0x12F40, symSize: 0x30 }
  - { offset: 0x874AC, size: 0x8, addend: 0x0, symName: __ZNKSt3__110__function6__funcIN5Tiled12JumpToObjectEFvvEE7__cloneEv, symObjAddr: 0xF050, symBinAddr: 0x12F70, symSize: 0x60 }
  - { offset: 0x874D2, size: 0x8, addend: 0x0, symName: __ZNKSt3__110__function6__funcIN5Tiled12JumpToObjectEFvvEE7__cloneEPNS0_6__baseIS4_EE, symObjAddr: 0xF0B0, symBinAddr: 0x12FD0, symSize: 0x30 }
  - { offset: 0x87506, size: 0x8, addend: 0x0, symName: __ZNSt3__110__function6__funcIN5Tiled12JumpToObjectEFvvEE7destroyEv, symObjAddr: 0xF0E0, symBinAddr: 0x13000, symSize: 0x20 }
  - { offset: 0x8752C, size: 0x8, addend: 0x0, symName: __ZNSt3__110__function6__funcIN5Tiled12JumpToObjectEFvvEE18destroy_deallocateEv, symObjAddr: 0xF100, symBinAddr: 0x13020, symSize: 0x30 }
  - { offset: 0x87552, size: 0x8, addend: 0x0, symName: __ZNSt3__110__function6__funcIN5Tiled12JumpToObjectEFvvEEclEv, symObjAddr: 0xF130, symBinAddr: 0x13050, symSize: 0x20 }
  - { offset: 0x87578, size: 0x8, addend: 0x0, symName: __ZNKSt3__110__function6__funcIN5Tiled12JumpToObjectEFvvEE6targetERKSt9type_info, symObjAddr: 0xF150, symBinAddr: 0x13070, symSize: 0x50 }
  - { offset: 0x875AC, size: 0x8, addend: 0x0, symName: __ZNKSt3__110__function6__funcIN5Tiled12JumpToObjectEFvvEE11target_typeEv, symObjAddr: 0xF1A0, symBinAddr: 0x130C0, symSize: 0x20 }
  - { offset: 0x875D2, size: 0x8, addend: 0x0, symName: __ZNSt3__110__function6__baseIFvvEED1Ev, symObjAddr: 0xF1C0, symBinAddr: 0x130E0, symSize: 0x10 }
  - { offset: 0x875FC, size: 0x8, addend: 0x0, symName: __ZNSt3__110__function6__baseIFvvEED0Ev, symObjAddr: 0xF1D0, symBinAddr: 0x130F0, symSize: 0x10 }
  - { offset: 0x87626, size: 0x8, addend: 0x0, symName: __ZN5Tiled12JumpToObjectC2EOS0_, symObjAddr: 0xF1E0, symBinAddr: 0x13100, symSize: 0x40 }
  - { offset: 0x8765B, size: 0x8, addend: 0x0, symName: __ZNSt3__110__function6__funcIN5Tiled12JumpToObjectEFvvEED2Ev, symObjAddr: 0xF220, symBinAddr: 0x13140, symSize: 0x40 }
  - { offset: 0x87687, size: 0x8, addend: 0x0, symName: __ZNSt3__110__function6__baseIFvvEED2Ev, symObjAddr: 0xF260, symBinAddr: 0x13180, symSize: 0x10 }
  - { offset: 0x876B1, size: 0x8, addend: 0x0, symName: __ZNSt3__110__function6__funcIN5Tiled12JumpToObjectEFvvEEC1B9nqe210106ERKS3_, symObjAddr: 0xF270, symBinAddr: 0x13190, symSize: 0x30 }
  - { offset: 0x876E9, size: 0x8, addend: 0x0, symName: __ZNSt3__110__function6__funcIN5Tiled12JumpToObjectEFvvEEC2B9nqe210106ERKS3_, symObjAddr: 0xF2A0, symBinAddr: 0x131C0, symSize: 0x50 }
  - { offset: 0x87721, size: 0x8, addend: 0x0, symName: __ZN5Tiled12JumpToObjectC1ERKS0_, symObjAddr: 0xF2F0, symBinAddr: 0x13210, symSize: 0x30 }
  - { offset: 0x87756, size: 0x8, addend: 0x0, symName: __ZN5Tiled12JumpToObjectC2ERKS0_, symObjAddr: 0xF320, symBinAddr: 0x13240, symSize: 0x40 }
  - { offset: 0x87791, size: 0x8, addend: 0x0, symName: __ZNSt3__128__invoke_void_return_wrapperIvLb1EE6__callB9nqe210106IJRN5Tiled12JumpToObjectEEEEvDpOT_, symObjAddr: 0xF380, symBinAddr: 0x132A0, symSize: 0x20 }
  - { offset: 0x877C2, size: 0x8, addend: 0x0, symName: __ZNK5Tiled11ActivatableINS_12JumpToObjectEEclEv, symObjAddr: 0xF3C0, symBinAddr: 0x132E0, symSize: 0x30 }
  - { offset: 0x877E8, size: 0x8, addend: 0x0, symName: __ZNKSt3__18functionIFvRKN5Tiled12JumpToObjectEEEclES4_, symObjAddr: 0xF3F0, symBinAddr: 0x13310, symSize: 0x30 }
  - { offset: 0x8781F, size: 0x8, addend: 0x0, symName: __ZNKSt3__110__function12__value_funcIFvRKN5Tiled12JumpToObjectEEEclB9nqe210106ES5_, symObjAddr: 0xF420, symBinAddr: 0x13340, symSize: 0x40 }
  - { offset: 0x87854, size: 0x8, addend: 0x0, symName: __ZNSt3__117bad_function_callC1B9nqe210106Ev, symObjAddr: 0xF4B0, symBinAddr: 0x133D0, symSize: 0x20 }
  - { offset: 0x8787E, size: 0x8, addend: 0x0, symName: __ZNSt3__117bad_function_callD1Ev, symObjAddr: 0xF4D0, symBinAddr: 0x133F0, symSize: 0x20 }
  - { offset: 0x878A8, size: 0x8, addend: 0x0, symName: __ZNSt3__117bad_function_callC2B9nqe210106Ev, symObjAddr: 0xF4F0, symBinAddr: 0x13410, symSize: 0x40 }
  - { offset: 0x878D2, size: 0x8, addend: 0x0, symName: __ZNSt9exceptionC2B9nqe210106Ev, symObjAddr: 0xF530, symBinAddr: 0x13450, symSize: 0x20 }
  - { offset: 0x878FC, size: 0x8, addend: 0x0, symName: __ZNSt3__117bad_function_callD0Ev, symObjAddr: 0xF550, symBinAddr: 0x13470, symSize: 0x30 }
  - { offset: 0x87926, size: 0x8, addend: 0x0, symName: __ZNSt3__117bad_function_callD2Ev, symObjAddr: 0xF580, symBinAddr: 0x134A0, symSize: 0x20 }
  - { offset: 0x87970, size: 0x8, addend: 0x0, symName: __ZNKSt9type_infoeqB9nqe210106ERKS_, symObjAddr: 0xF5A0, symBinAddr: 0x134C0, symSize: 0x40 }
  - { offset: 0x879CE, size: 0x8, addend: 0x0, symName: __ZNSt3__18functionIFvRKN5Tiled12JumpToObjectEEEC2B9nqe210106Ev, symObjAddr: 0xF5E0, symBinAddr: 0x13500, symSize: 0x20 }
  - { offset: 0x879F8, size: 0x8, addend: 0x0, symName: __ZNSt3__110__function12__value_funcIFvRKN5Tiled12JumpToObjectEEEC1B9nqe210106Ev, symObjAddr: 0xF600, symBinAddr: 0x13520, symSize: 0x20 }
  - { offset: 0x87A22, size: 0x8, addend: 0x0, symName: __ZNSt3__110__function12__value_funcIFvRKN5Tiled12JumpToObjectEEEC2B9nqe210106Ev, symObjAddr: 0xF620, symBinAddr: 0x13540, symSize: 0x20 }
  - { offset: 0x87A4C, size: 0x8, addend: 0x0, symName: __ZNSt3__18functionIFvRKN5Tiled12JumpToObjectEEED2Ev, symObjAddr: 0xF640, symBinAddr: 0x13560, symSize: 0x20 }
  - { offset: 0x87A76, size: 0x8, addend: 0x0, symName: __ZNSt3__110__function12__value_funcIFvRKN5Tiled12JumpToObjectEEED1B9nqe210106Ev, symObjAddr: 0xF660, symBinAddr: 0x13580, symSize: 0x20 }
  - { offset: 0x87AA0, size: 0x8, addend: 0x0, symName: __ZNSt3__110__function12__value_funcIFvRKN5Tiled12JumpToObjectEEED2B9nqe210106Ev, symObjAddr: 0xF680, symBinAddr: 0x135A0, symSize: 0x50 }
  - { offset: 0x87ACA, size: 0x8, addend: 0x0, symName: __ZNKR8QVariant5valueI7QStringEET_v, symObjAddr: 0xF6D0, symBinAddr: 0x135F0, symSize: 0x30 }
  - { offset: 0x87AF8, size: 0x8, addend: 0x0, symName: __Z13qvariant_castI7QStringET_RK8QVariant, symObjAddr: 0xF700, symBinAddr: 0x13620, symSize: 0x80 }
  - { offset: 0x87B3E, size: 0x8, addend: 0x0, symName: __ZN9QMetaType8fromTypeI7QStringEES_v, symObjAddr: 0xF780, symBinAddr: 0x136A0, symSize: 0x30 }
  - { offset: 0x87B5C, size: 0x8, addend: 0x0, symName: __ZNK8QVariant7Private3getI7QStringEERKT_v, symObjAddr: 0xF7B0, symBinAddr: 0x136D0, symSize: 0x20 }
  - { offset: 0x87B8B, size: 0x8, addend: 0x0, symName: __ZNKR8QVariant5valueIdEET_v, symObjAddr: 0xF8A0, symBinAddr: 0x137C0, symSize: 0x20 }
  - { offset: 0x87BB9, size: 0x8, addend: 0x0, symName: __Z13qvariant_castIdET_RK8QVariant, symObjAddr: 0xF8C0, symBinAddr: 0x137E0, symSize: 0x70 }
  - { offset: 0x87BFF, size: 0x8, addend: 0x0, symName: __ZN9QMetaType8fromTypeIdEES_v, symObjAddr: 0xF930, symBinAddr: 0x13850, symSize: 0x30 }
  - { offset: 0x87C23, size: 0x8, addend: 0x0, symName: __ZNK8QVariant7Private3getIdEERKT_v, symObjAddr: 0xF960, symBinAddr: 0x13880, symSize: 0x20 }
  - { offset: 0x87C52, size: 0x8, addend: 0x0, symName: __ZN4QSetI7QStringEC2Ev, symObjAddr: 0xFA00, symBinAddr: 0x13920, symSize: 0x20 }
  - { offset: 0x87C7C, size: 0x8, addend: 0x0, symName: __ZN5QHashI7QString15QHashDummyValueEC1Ev, symObjAddr: 0xFA20, symBinAddr: 0x13940, symSize: 0x20 }
  - { offset: 0x87CA6, size: 0x8, addend: 0x0, symName: __ZN5QHashI7QString15QHashDummyValueEC2Ev, symObjAddr: 0xFA40, symBinAddr: 0x13960, symSize: 0x20 }
  - { offset: 0x87CD0, size: 0x8, addend: 0x0, symName: __ZNK5QHashI7QString15QHashDummyValueE8containsERKS0_, symObjAddr: 0xFA60, symBinAddr: 0x13980, symSize: 0x50 }
  - { offset: 0x87D05, size: 0x8, addend: 0x0, symName: __ZNK12QHashPrivate4DataINS_4NodeI7QString15QHashDummyValueEEE8findNodeIS2_EEPS4_RKT_, symObjAddr: 0xFAB0, symBinAddr: 0x139D0, symSize: 0x70 }
  - { offset: 0x87D52, size: 0x8, addend: 0x0, symName: __ZNK12QHashPrivate4DataINS_4NodeI7QString15QHashDummyValueEEE10findBucketIS2_EENS5_6BucketERKT_, symObjAddr: 0xFB20, symBinAddr: 0x13A40, symSize: 0x70 }
  - { offset: 0x87D9F, size: 0x8, addend: 0x0, symName: __ZNK12QHashPrivate4DataINS_4NodeI7QString15QHashDummyValueEEE6Bucket8isUnusedEv, symObjAddr: 0xFB90, symBinAddr: 0x13AB0, symSize: 0x30 }
  - { offset: 0x87DC5, size: 0x8, addend: 0x0, symName: __ZN12QHashPrivate4DataINS_4NodeI7QString15QHashDummyValueEEE6Bucket4nodeEv, symObjAddr: 0xFBC0, symBinAddr: 0x13AE0, symSize: 0x30 }
  - { offset: 0x87DEB, size: 0x8, addend: 0x0, symName: __ZNK12QHashPrivate4DataINS_4NodeI7QString15QHashDummyValueEEE18findBucketWithHashIS2_EENS5_6BucketERKT_m, symObjAddr: 0xFC20, symBinAddr: 0x13B40, symSize: 0xE0 }
  - { offset: 0x87E72, size: 0x8, addend: 0x0, symName: __Z5qHashRK7QStringm, symObjAddr: 0xFD00, symBinAddr: 0x13C20, symSize: 0x40 }
  - { offset: 0x87EAD, size: 0x8, addend: 0x0, symName: __ZN11QStringViewC1I7QStringLb1EEERKT_, symObjAddr: 0xFD40, symBinAddr: 0x13C60, symSize: 0x50 }
  - { offset: 0x87EF4, size: 0x8, addend: 0x0, symName: __ZN11QStringViewC1I5QCharLb1EEEPKT_x, symObjAddr: 0xFD90, symBinAddr: 0x13CB0, symSize: 0x30 }
  - { offset: 0x87F49, size: 0x8, addend: 0x0, symName: __ZN11QStringViewC2I5QCharLb1EEEPKT_x, symObjAddr: 0xFDC0, symBinAddr: 0x13CE0, symSize: 0x90 }
  - { offset: 0x87F9E, size: 0x8, addend: 0x0, symName: __ZN11QStringView10castHelperI5QCharEEPKDsPKT_, symObjAddr: 0xFE50, symBinAddr: 0x13D70, symSize: 0x10 }
  - { offset: 0x87FCA, size: 0x8, addend: 0x0, symName: __ZN12QHashPrivate4DataINS_4NodeI7QString15QHashDummyValueEEE6BucketC1EPKS5_m, symObjAddr: 0xFE60, symBinAddr: 0x13D80, symSize: 0x30 }
  - { offset: 0x88012, size: 0x8, addend: 0x0, symName: __ZNK12QHashPrivate4DataINS_4NodeI7QString15QHashDummyValueEEE6Bucket6offsetEv, symObjAddr: 0xFE90, symBinAddr: 0x13DB0, symSize: 0x30 }
  - { offset: 0x88038, size: 0x8, addend: 0x0, symName: __ZN12QHashPrivate4DataINS_4NodeI7QString15QHashDummyValueEEE6Bucket12nodeAtOffsetEm, symObjAddr: 0xFEC0, symBinAddr: 0x13DE0, symSize: 0x30 }
  - { offset: 0x8806C, size: 0x8, addend: 0x0, symName: __Z11qHashEqualsI7QStringEbRKT_S3_, symObjAddr: 0xFEF0, symBinAddr: 0x13E10, symSize: 0x30 }
  - { offset: 0x880B3, size: 0x8, addend: 0x0, symName: __ZN12QHashPrivate4DataINS_4NodeI7QString15QHashDummyValueEEE6Bucket14advanceWrappedEPKS5_, symObjAddr: 0xFF20, symBinAddr: 0x13E40, symSize: 0x30 }
  - { offset: 0x880E8, size: 0x8, addend: 0x0, symName: __ZN12QHashPrivate4DataINS_4NodeI7QString15QHashDummyValueEEE6BucketC2EPKS5_m, symObjAddr: 0xFF50, symBinAddr: 0x13E70, symSize: 0x40 }
  - { offset: 0x88130, size: 0x8, addend: 0x0, symName: __ZNK12QHashPrivate4SpanINS_4NodeI7QString15QHashDummyValueEEE6offsetEm, symObjAddr: 0xFF90, symBinAddr: 0x13EB0, symSize: 0x20 }
  - { offset: 0x88165, size: 0x8, addend: 0x0, symName: __ZN12QHashPrivate4SpanINS_4NodeI7QString15QHashDummyValueEEE8atOffsetEm, symObjAddr: 0xFFB0, symBinAddr: 0x13ED0, symSize: 0x60 }
  - { offset: 0x88199, size: 0x8, addend: 0x0, symName: __ZeqRK7QStringS1_, symObjAddr: 0x10010, symBinAddr: 0x13F30, symSize: 0x30 }
  - { offset: 0x881EB, size: 0x8, addend: 0x0, symName: __Z13comparesEqualRK7QStringS1_, symObjAddr: 0x10040, symBinAddr: 0x13F60, symSize: 0x40 }
  - { offset: 0x88228, size: 0x8, addend: 0x0, symName: __Z13comparesEqualRK11QStringViewS1_, symObjAddr: 0x10080, symBinAddr: 0x13FA0, symSize: 0x80 }
  - { offset: 0x88266, size: 0x8, addend: 0x0, symName: __ZNK11QStringView4sizeEv, symObjAddr: 0x10100, symBinAddr: 0x14020, symSize: 0x20 }
  - { offset: 0x8828C, size: 0x8, addend: 0x0, symName: __ZN12QHashPrivate4DataINS_4NodeI7QString15QHashDummyValueEEE6Bucket12advance_implEPKS5_PNS_4SpanIS4_EE, symObjAddr: 0x10120, symBinAddr: 0x14040, symSize: 0xC0 }
  - { offset: 0x882D0, size: 0x8, addend: 0x0, symName: __ZNK12QHashPrivate4SpanINS_4NodeI7QString15QHashDummyValueEEE7hasNodeEm, symObjAddr: 0x101E0, symBinAddr: 0x14100, symSize: 0x30 }
  - { offset: 0x88305, size: 0x8, addend: 0x0, symName: __ZN12QHashPrivate4SpanINS_4NodeI7QString15QHashDummyValueEEE2atEm, symObjAddr: 0x10210, symBinAddr: 0x14130, symSize: 0x90 }
  - { offset: 0x8833A, size: 0x8, addend: 0x0, symName: __ZN5QHashI7QString15QHashDummyValueE6insertERKS0_OS1_, symObjAddr: 0x102A0, symBinAddr: 0x141C0, symSize: 0x40 }
  - { offset: 0x8837E, size: 0x8, addend: 0x0, symName: __ZN4QSetI7QStringE8iteratorC1EN5QHashIS0_15QHashDummyValueE8iteratorE, symObjAddr: 0x102E0, symBinAddr: 0x14200, symSize: 0x30 }
  - { offset: 0x883B6, size: 0x8, addend: 0x0, symName: __ZN5QHashI7QString15QHashDummyValueE7emplaceIJS1_EEENS2_8iteratorERKS0_DpOT_, symObjAddr: 0x10310, symBinAddr: 0x14230, symSize: 0x90 }
  - { offset: 0x88416, size: 0x8, addend: 0x0, symName: __ZN5QHashI7QString15QHashDummyValueE7emplaceIJS1_EEENS2_8iteratorEOS0_DpOT_, symObjAddr: 0x103A0, symBinAddr: 0x142C0, symSize: 0xF0 }
  - { offset: 0x88476, size: 0x8, addend: 0x0, symName: __ZNK5QHashI7QString15QHashDummyValueE10isDetachedEv, symObjAddr: 0x10490, symBinAddr: 0x143B0, symSize: 0x40 }
  - { offset: 0x8849C, size: 0x8, addend: 0x0, symName: __ZNK12QHashPrivate4DataINS_4NodeI7QString15QHashDummyValueEEE10shouldGrowEv, symObjAddr: 0x104D0, symBinAddr: 0x143F0, symSize: 0x30 }
  - { offset: 0x884C2, size: 0x8, addend: 0x0, symName: __ZN5QHashI7QString15QHashDummyValueE14emplace_helperIJS1_EEENS2_8iteratorEOS0_DpOT_, symObjAddr: 0x10500, symBinAddr: 0x14420, symSize: 0x90 }
  - { offset: 0x88522, size: 0x8, addend: 0x0, symName: __ZN5QHashI7QString15QHashDummyValueEC1ERKS2_, symObjAddr: 0x10590, symBinAddr: 0x144B0, symSize: 0x30 }
  - { offset: 0x8855B, size: 0x8, addend: 0x0, symName: __ZN5QHashI7QString15QHashDummyValueE6detachEv, symObjAddr: 0x105C0, symBinAddr: 0x144E0, symSize: 0x50 }
  - { offset: 0x88581, size: 0x8, addend: 0x0, symName: __ZNK9QtPrivate8RefCount8isSharedEv, symObjAddr: 0x10610, symBinAddr: 0x14530, symSize: 0x40 }
  - { offset: 0x885B5, size: 0x8, addend: 0x0, symName: __ZN12QHashPrivate4DataINS_4NodeI7QString15QHashDummyValueEEE12findOrInsertIS2_EENS5_15InsertionResultERKT_, symObjAddr: 0x10650, symBinAddr: 0x14570, symSize: 0x190 }
  - { offset: 0x88611, size: 0x8, addend: 0x0, symName: __ZN12QHashPrivate4NodeI7QString15QHashDummyValueE13createInPlaceIJS2_EEEvPS3_OS1_DpOT_, symObjAddr: 0x107E0, symBinAddr: 0x14700, symSize: 0x30 }
  - { offset: 0x88659, size: 0x8, addend: 0x0, symName: __ZNK12QHashPrivate8iteratorINS_4NodeI7QString15QHashDummyValueEEE4nodeEv, symObjAddr: 0x10810, symBinAddr: 0x14730, symSize: 0x80 }
  - { offset: 0x8867F, size: 0x8, addend: 0x0, symName: __ZN12QHashPrivate4NodeI7QString15QHashDummyValueE12emplaceValueIJS2_EEEvDpOT_, symObjAddr: 0x10890, symBinAddr: 0x147B0, symSize: 0x10 }
  - { offset: 0x886BC, size: 0x8, addend: 0x0, symName: __ZN5QHashI7QString15QHashDummyValueE8iteratorC1EN12QHashPrivate8iteratorINS4_4NodeIS0_S1_EEEE, symObjAddr: 0x108A0, symBinAddr: 0x147C0, symSize: 0x30 }
  - { offset: 0x886F5, size: 0x8, addend: 0x0, symName: __ZN12QHashPrivate4DataINS_4NodeI7QString15QHashDummyValueEEE6BucketC1EPNS_4SpanIS4_EEm, symObjAddr: 0x108D0, symBinAddr: 0x147F0, symSize: 0x30 }
  - { offset: 0x8873D, size: 0x8, addend: 0x0, symName: __ZNK12QHashPrivate4DataINS_4NodeI7QString15QHashDummyValueEEE6Bucket10toIteratorEPKS5_, symObjAddr: 0x10900, symBinAddr: 0x14820, symSize: 0x40 }
  - { offset: 0x88772, size: 0x8, addend: 0x0, symName: __ZN12QHashPrivate4DataINS_4NodeI7QString15QHashDummyValueEEE6rehashEm, symObjAddr: 0x10940, symBinAddr: 0x14860, symSize: 0x200 }
  - { offset: 0x8887F, size: 0x8, addend: 0x0, symName: __ZNK12QHashPrivate4DataINS_4NodeI7QString15QHashDummyValueEEE6Bucket6insertEv, symObjAddr: 0x10B40, symBinAddr: 0x14A60, symSize: 0x30 }
  - { offset: 0x888A5, size: 0x8, addend: 0x0, symName: __ZN12QHashPrivate4DataINS_4NodeI7QString15QHashDummyValueEEE6BucketC2EPNS_4SpanIS4_EEm, symObjAddr: 0x10B70, symBinAddr: 0x14A90, symSize: 0x30 }
  - { offset: 0x888ED, size: 0x8, addend: 0x0, symName: __ZNK12QHashPrivate4DataINS_4NodeI7QString15QHashDummyValueEEE6Bucket13toBucketIndexEPKS5_, symObjAddr: 0x10BA0, symBinAddr: 0x14AC0, symSize: 0x40 }
  - { offset: 0x88922, size: 0x8, addend: 0x0, symName: __ZN12QHashPrivate4DataINS_4NodeI7QString15QHashDummyValueEEE13allocateSpansEm, symObjAddr: 0x10C50, symBinAddr: 0x14B70, symSize: 0x100 }
  - { offset: 0x88979, size: 0x8, addend: 0x0, symName: __ZN12QHashPrivate4NodeI7QString15QHashDummyValueEC1EOS3_, symObjAddr: 0x10D50, symBinAddr: 0x14C70, symSize: 0x30 }
  - { offset: 0x889AD, size: 0x8, addend: 0x0, symName: __Z21qCountLeadingZeroBitsm, symObjAddr: 0x10D80, symBinAddr: 0x14CA0, symSize: 0x20 }
  - { offset: 0x889DA, size: 0x8, addend: 0x0, symName: __ZNSt3__114numeric_limitsImE3maxB9nqe210106Ev, symObjAddr: 0x10DA0, symBinAddr: 0x14CC0, symSize: 0x10 }
  - { offset: 0x889F2, size: 0x8, addend: 0x0, symName: __ZN3q2011countl_zeroImEENSt3__19enable_ifIXsr3stdE13is_unsigned_vIT_EEiE4typeES3_, symObjAddr: 0x10DB0, symBinAddr: 0x14CD0, symSize: 0x30 }
  - { offset: 0x88A29, size: 0x8, addend: 0x0, symName: __ZNSt3__123__libcpp_numeric_limitsImLb1EE3maxB9nqe210106Ev, symObjAddr: 0x10DE0, symBinAddr: 0x14D00, symSize: 0x10 }
  - { offset: 0x88A3D, size: 0x8, addend: 0x0, symName: __ZN12QHashPrivate4SpanINS_4NodeI7QString15QHashDummyValueEEEC1Ev, symObjAddr: 0x10DF0, symBinAddr: 0x14D10, symSize: 0x20 }
  - { offset: 0x88A67, size: 0x8, addend: 0x0, symName: __ZN12QHashPrivate4SpanINS_4NodeI7QString15QHashDummyValueEEEC2Ev, symObjAddr: 0x10E10, symBinAddr: 0x14D30, symSize: 0x40 }
  - { offset: 0x88A91, size: 0x8, addend: 0x0, symName: __ZN12QHashPrivate4NodeI7QString15QHashDummyValueEC2EOS3_, symObjAddr: 0x10E50, symBinAddr: 0x14D70, symSize: 0x30 }
  - { offset: 0x88AC6, size: 0x8, addend: 0x0, symName: __ZN12QHashPrivate4SpanINS_4NodeI7QString15QHashDummyValueEEE6insertEm, symObjAddr: 0x10E80, symBinAddr: 0x14DA0, symSize: 0x110 }
  - { offset: 0x88B0A, size: 0x8, addend: 0x0, symName: __ZN12QHashPrivate4SpanINS_4NodeI7QString15QHashDummyValueEEE10addStorageEv, symObjAddr: 0x10F90, symBinAddr: 0x14EB0, symSize: 0x1A0 }
  - { offset: 0x88B6C, size: 0x8, addend: 0x0, symName: __ZN12QHashPrivate4SpanINS_4NodeI7QString15QHashDummyValueEEE5Entry8nextFreeEv, symObjAddr: 0x11130, symBinAddr: 0x15050, symSize: 0x10 }
  - { offset: 0x88B92, size: 0x8, addend: 0x0, symName: __ZNK12QHashPrivate8iteratorINS_4NodeI7QString15QHashDummyValueEEE8isUnusedEv, symObjAddr: 0x11140, symBinAddr: 0x15060, symSize: 0x60 }
  - { offset: 0x88BB8, size: 0x8, addend: 0x0, symName: __ZNK12QHashPrivate8iteratorINS_4NodeI7QString15QHashDummyValueEEE4spanEv, symObjAddr: 0x111A0, symBinAddr: 0x150C0, symSize: 0x20 }
  - { offset: 0x88BDE, size: 0x8, addend: 0x0, symName: __ZNK12QHashPrivate8iteratorINS_4NodeI7QString15QHashDummyValueEEE5indexEv, symObjAddr: 0x111C0, symBinAddr: 0x150E0, symSize: 0x20 }
  - { offset: 0x88C04, size: 0x8, addend: 0x0, symName: __ZN5QHashI7QString15QHashDummyValueE8iteratorC2EN12QHashPrivate8iteratorINS4_4NodeIS0_S1_EEEE, symObjAddr: 0x111E0, symBinAddr: 0x15100, symSize: 0x30 }
  - { offset: 0x88C3D, size: 0x8, addend: 0x0, symName: __ZN5QHashI7QString15QHashDummyValueEC2ERKS2_, symObjAddr: 0x11210, symBinAddr: 0x15130, symSize: 0x40 }
  - { offset: 0x88C76, size: 0x8, addend: 0x0, symName: __ZN9QtPrivate8RefCount3refEv, symObjAddr: 0x11250, symBinAddr: 0x15170, symSize: 0x40 }
  - { offset: 0x88CAA, size: 0x8, addend: 0x0, symName: __ZN19QBasicAtomicIntegerIiE3refEv, symObjAddr: 0x11290, symBinAddr: 0x151B0, symSize: 0x30 }
  - { offset: 0x88CD0, size: 0x8, addend: 0x0, symName: __ZN10QAtomicOpsIiE3refIiEEbRNSt3__16atomicIT_EE, symObjAddr: 0x112C0, symBinAddr: 0x151E0, symSize: 0x30 }
  - { offset: 0x88CFC, size: 0x8, addend: 0x0, symName: __ZN12QHashPrivate4DataINS_4NodeI7QString15QHashDummyValueEEE8detachedEPS5_, symObjAddr: 0x112F0, symBinAddr: 0x15210, symSize: 0xE0 }
  - { offset: 0x88D2F, size: 0x8, addend: 0x0, symName: __ZN12QHashPrivate4DataINS_4NodeI7QString15QHashDummyValueEEEC1Em, symObjAddr: 0x113D0, symBinAddr: 0x152F0, symSize: 0x30 }
  - { offset: 0x88D68, size: 0x8, addend: 0x0, symName: __ZN12QHashPrivate4DataINS_4NodeI7QString15QHashDummyValueEEEC1ERKS5_, symObjAddr: 0x11400, symBinAddr: 0x15320, symSize: 0x30 }
  - { offset: 0x88DA1, size: 0x8, addend: 0x0, symName: __ZN12QHashPrivate4DataINS_4NodeI7QString15QHashDummyValueEEEC2Em, symObjAddr: 0x11430, symBinAddr: 0x15350, symSize: 0xA0 }
  - { offset: 0x88DDA, size: 0x8, addend: 0x0, symName: __ZN19QBasicAtomicIntegerIiEC1Ei, symObjAddr: 0x114D0, symBinAddr: 0x153F0, symSize: 0x30 }
  - { offset: 0x88E8A, size: 0x8, addend: 0x0, symName: __ZNK9QHashSeedcvmEv, symObjAddr: 0x11500, symBinAddr: 0x15420, symSize: 0x20 }
  - { offset: 0x88EB0, size: 0x8, addend: 0x0, symName: __ZN19QBasicAtomicIntegerIiEC2Ei, symObjAddr: 0x11520, symBinAddr: 0x15440, symSize: 0x30 }
  - { offset: 0x88EE8, size: 0x8, addend: 0x0, symName: __ZNSt3__16atomicIiEC1B9nqe210106Ei, symObjAddr: 0x11550, symBinAddr: 0x15470, symSize: 0x30 }
  - { offset: 0x88F20, size: 0x8, addend: 0x0, symName: __ZNSt3__16atomicIiEC2B9nqe210106Ei, symObjAddr: 0x11580, symBinAddr: 0x154A0, symSize: 0x30 }
  - { offset: 0x88F58, size: 0x8, addend: 0x0, symName: __ZNSt3__113__atomic_baseIiLb1EEC2B9nqe210106Ei, symObjAddr: 0x115B0, symBinAddr: 0x154D0, symSize: 0x30 }
  - { offset: 0x88F90, size: 0x8, addend: 0x0, symName: __ZNSt3__113__atomic_baseIiLb0EEC2B9nqe210106Ei, symObjAddr: 0x115E0, symBinAddr: 0x15500, symSize: 0x30 }
  - { offset: 0x88FC8, size: 0x8, addend: 0x0, symName: __ZNSt3__117__cxx_atomic_implIiNS_22__cxx_atomic_base_implIiEEEC1B9nqe210106Ei, symObjAddr: 0x11610, symBinAddr: 0x15530, symSize: 0x30 }
  - { offset: 0x89000, size: 0x8, addend: 0x0, symName: __ZNSt3__117__cxx_atomic_implIiNS_22__cxx_atomic_base_implIiEEEC2B9nqe210106Ei, symObjAddr: 0x11640, symBinAddr: 0x15560, symSize: 0x30 }
  - { offset: 0x89038, size: 0x8, addend: 0x0, symName: __ZNSt3__122__cxx_atomic_base_implIiEC2Ei, symObjAddr: 0x11670, symBinAddr: 0x15590, symSize: 0x20 }
  - { offset: 0x89107, size: 0x8, addend: 0x0, symName: __ZN12QHashPrivate4DataINS_4NodeI7QString15QHashDummyValueEEEC2ERKS5_, symObjAddr: 0x11690, symBinAddr: 0x155B0, symSize: 0x190 }
  - { offset: 0x89217, size: 0x8, addend: 0x0, symName: __ZNK12QHashPrivate4SpanINS_4NodeI7QString15QHashDummyValueEEE2atEm, symObjAddr: 0x11820, symBinAddr: 0x15740, symSize: 0x90 }
  - { offset: 0x8924C, size: 0x8, addend: 0x0, symName: __ZN12QHashPrivate4NodeI7QString15QHashDummyValueEC1ERKS3_, symObjAddr: 0x118B0, symBinAddr: 0x157D0, symSize: 0x30 }
  - { offset: 0x89281, size: 0x8, addend: 0x0, symName: __ZN12QHashPrivate4NodeI7QString15QHashDummyValueEC2ERKS3_, symObjAddr: 0x118E0, symBinAddr: 0x15800, symSize: 0x30 }
  - { offset: 0x892B6, size: 0x8, addend: 0x0, symName: __ZN4QSetI7QStringE8iteratorC2EN5QHashIS0_15QHashDummyValueE8iteratorE, symObjAddr: 0x11910, symBinAddr: 0x15830, symSize: 0x30 }
  - { offset: 0x892EE, size: 0x8, addend: 0x0, symName: __ZNKR8QVariant5valueIiEET_v, symObjAddr: 0x11940, symBinAddr: 0x15860, symSize: 0x20 }
  - { offset: 0x8931C, size: 0x8, addend: 0x0, symName: __Z13qvariant_castIiET_RK8QVariant, symObjAddr: 0x11960, symBinAddr: 0x15880, symSize: 0x70 }
  - { offset: 0x89362, size: 0x8, addend: 0x0, symName: __ZN9QMetaType8fromTypeIiEES_v, symObjAddr: 0x119D0, symBinAddr: 0x158F0, symSize: 0x30 }
  - { offset: 0x89380, size: 0x8, addend: 0x0, symName: __ZNK8QVariant7Private3getIiEERKT_v, symObjAddr: 0x11A00, symBinAddr: 0x15920, symSize: 0x20 }
  - { offset: 0x893AF, size: 0x8, addend: 0x0, symName: __ZNSt3__18functionIFvvEEC2IN5Tiled10JumpToTileEvEET_, symObjAddr: 0x11AA0, symBinAddr: 0x159C0, symSize: 0x20 }
  - { offset: 0x893F4, size: 0x8, addend: 0x0, symName: __ZNSt3__110__function12__value_funcIFvvEEC1B9nqe210106IN5Tiled10JumpToTileELi0EEEOT_, symObjAddr: 0x11AC0, symBinAddr: 0x159E0, symSize: 0x30 }
  - { offset: 0x8943B, size: 0x8, addend: 0x0, symName: __ZNSt3__110__function12__value_funcIFvvEEC2B9nqe210106IN5Tiled10JumpToTileELi0EEEOT_, symObjAddr: 0x11AF0, symBinAddr: 0x15A10, symSize: 0x90 }
  - { offset: 0x89482, size: 0x8, addend: 0x0, symName: __ZNSt3__110__function6__funcIN5Tiled10JumpToTileEFvvEEC1B9nqe210106EOS3_, symObjAddr: 0x11B90, symBinAddr: 0x15AB0, symSize: 0x30 }
  - { offset: 0x894BA, size: 0x8, addend: 0x0, symName: __ZNSt3__110__function6__funcIN5Tiled10JumpToTileEFvvEEC2B9nqe210106EOS3_, symObjAddr: 0x11BC0, symBinAddr: 0x15AE0, symSize: 0x50 }
  - { offset: 0x894F2, size: 0x8, addend: 0x0, symName: __ZN5Tiled10JumpToTileC1EOS0_, symObjAddr: 0x11C10, symBinAddr: 0x15B30, symSize: 0x30 }
  - { offset: 0x89527, size: 0x8, addend: 0x0, symName: __ZNSt3__110__function6__funcIN5Tiled10JumpToTileEFvvEED1Ev, symObjAddr: 0x11C40, symBinAddr: 0x15B60, symSize: 0x20 }
  - { offset: 0x89553, size: 0x8, addend: 0x0, symName: __ZNSt3__110__function6__funcIN5Tiled10JumpToTileEFvvEED0Ev, symObjAddr: 0x11C60, symBinAddr: 0x15B80, symSize: 0x30 }
  - { offset: 0x8957F, size: 0x8, addend: 0x0, symName: __ZNKSt3__110__function6__funcIN5Tiled10JumpToTileEFvvEE7__cloneEv, symObjAddr: 0x11C90, symBinAddr: 0x15BB0, symSize: 0x60 }
  - { offset: 0x895A5, size: 0x8, addend: 0x0, symName: __ZNKSt3__110__function6__funcIN5Tiled10JumpToTileEFvvEE7__cloneEPNS0_6__baseIS4_EE, symObjAddr: 0x11CF0, symBinAddr: 0x15C10, symSize: 0x30 }
  - { offset: 0x895D9, size: 0x8, addend: 0x0, symName: __ZNSt3__110__function6__funcIN5Tiled10JumpToTileEFvvEE7destroyEv, symObjAddr: 0x11D20, symBinAddr: 0x15C40, symSize: 0x20 }
  - { offset: 0x895FF, size: 0x8, addend: 0x0, symName: __ZNSt3__110__function6__funcIN5Tiled10JumpToTileEFvvEE18destroy_deallocateEv, symObjAddr: 0x11D40, symBinAddr: 0x15C60, symSize: 0x30 }
  - { offset: 0x89625, size: 0x8, addend: 0x0, symName: __ZNSt3__110__function6__funcIN5Tiled10JumpToTileEFvvEEclEv, symObjAddr: 0x11D70, symBinAddr: 0x15C90, symSize: 0x20 }
  - { offset: 0x8964B, size: 0x8, addend: 0x0, symName: __ZNKSt3__110__function6__funcIN5Tiled10JumpToTileEFvvEE6targetERKSt9type_info, symObjAddr: 0x11D90, symBinAddr: 0x15CB0, symSize: 0x50 }
  - { offset: 0x8967F, size: 0x8, addend: 0x0, symName: __ZNKSt3__110__function6__funcIN5Tiled10JumpToTileEFvvEE11target_typeEv, symObjAddr: 0x11DE0, symBinAddr: 0x15D00, symSize: 0x20 }
  - { offset: 0x896A5, size: 0x8, addend: 0x0, symName: __ZN5Tiled10JumpToTileC2EOS0_, symObjAddr: 0x11E00, symBinAddr: 0x15D20, symSize: 0x40 }
  - { offset: 0x896DA, size: 0x8, addend: 0x0, symName: __ZNSt3__110__function6__funcIN5Tiled10JumpToTileEFvvEED2Ev, symObjAddr: 0x11E40, symBinAddr: 0x15D60, symSize: 0x40 }
  - { offset: 0x89706, size: 0x8, addend: 0x0, symName: __ZNSt3__110__function6__funcIN5Tiled10JumpToTileEFvvEEC1B9nqe210106ERKS3_, symObjAddr: 0x11E80, symBinAddr: 0x15DA0, symSize: 0x30 }
  - { offset: 0x8973E, size: 0x8, addend: 0x0, symName: __ZNSt3__110__function6__funcIN5Tiled10JumpToTileEFvvEEC2B9nqe210106ERKS3_, symObjAddr: 0x11EB0, symBinAddr: 0x15DD0, symSize: 0x50 }
  - { offset: 0x89776, size: 0x8, addend: 0x0, symName: __ZN5Tiled10JumpToTileC1ERKS0_, symObjAddr: 0x11F00, symBinAddr: 0x15E20, symSize: 0x30 }
  - { offset: 0x897AB, size: 0x8, addend: 0x0, symName: __ZN5Tiled10JumpToTileC2ERKS0_, symObjAddr: 0x11F30, symBinAddr: 0x15E50, symSize: 0x40 }
  - { offset: 0x897E6, size: 0x8, addend: 0x0, symName: __ZNSt3__128__invoke_void_return_wrapperIvLb1EE6__callB9nqe210106IJRN5Tiled10JumpToTileEEEEvDpOT_, symObjAddr: 0x11F90, symBinAddr: 0x15EB0, symSize: 0x20 }
  - { offset: 0x89817, size: 0x8, addend: 0x0, symName: __ZNK5Tiled11ActivatableINS_10JumpToTileEEclEv, symObjAddr: 0x11FD0, symBinAddr: 0x15EF0, symSize: 0x30 }
  - { offset: 0x8983D, size: 0x8, addend: 0x0, symName: __ZNKSt3__18functionIFvRKN5Tiled10JumpToTileEEEclES4_, symObjAddr: 0x12000, symBinAddr: 0x15F20, symSize: 0x30 }
  - { offset: 0x89874, size: 0x8, addend: 0x0, symName: __ZNKSt3__110__function12__value_funcIFvRKN5Tiled10JumpToTileEEEclB9nqe210106ES5_, symObjAddr: 0x12030, symBinAddr: 0x15F50, symSize: 0x40 }
  - { offset: 0x898A9, size: 0x8, addend: 0x0, symName: __ZNSt3__18functionIFvRKN5Tiled10JumpToTileEEEC2B9nqe210106Ev, symObjAddr: 0x12070, symBinAddr: 0x15F90, symSize: 0x20 }
  - { offset: 0x898D3, size: 0x8, addend: 0x0, symName: __ZNSt3__110__function12__value_funcIFvRKN5Tiled10JumpToTileEEEC1B9nqe210106Ev, symObjAddr: 0x12090, symBinAddr: 0x15FB0, symSize: 0x20 }
  - { offset: 0x898FD, size: 0x8, addend: 0x0, symName: __ZNSt3__110__function12__value_funcIFvRKN5Tiled10JumpToTileEEEC2B9nqe210106Ev, symObjAddr: 0x120B0, symBinAddr: 0x15FD0, symSize: 0x20 }
  - { offset: 0x89927, size: 0x8, addend: 0x0, symName: __ZNSt3__18functionIFvRKN5Tiled10JumpToTileEEED2Ev, symObjAddr: 0x120D0, symBinAddr: 0x15FF0, symSize: 0x20 }
  - { offset: 0x89951, size: 0x8, addend: 0x0, symName: __ZNSt3__110__function12__value_funcIFvRKN5Tiled10JumpToTileEEED1B9nqe210106Ev, symObjAddr: 0x120F0, symBinAddr: 0x16010, symSize: 0x20 }
  - { offset: 0x8997B, size: 0x8, addend: 0x0, symName: __ZNSt3__110__function12__value_funcIFvRKN5Tiled10JumpToTileEEED2B9nqe210106Ev, symObjAddr: 0x12110, symBinAddr: 0x16030, symSize: 0x50 }
  - { offset: 0x899A5, size: 0x8, addend: 0x0, symName: __ZNK5QListIPN5Tiled9MapObjectEE8iteratormiES4_, symObjAddr: 0x122A0, symBinAddr: 0x161C0, symSize: 0x20 }
  - { offset: 0x89A05, size: 0x8, addend: 0x0, symName: __ZNSt3__110unique_ptrIPN5Tiled9MapObjectENS_26__temporary_buffer_deleterIS3_EEEC1B9nqe210106ILb1EvEEv, symObjAddr: 0x122C0, symBinAddr: 0x161E0, symSize: 0x20 }
  - { offset: 0x89A6D, size: 0x8, addend: 0x0, symName: __ZNSt3__14pairIPPN5Tiled9MapObjectElEC1B9nqe210106INS_25__check_pair_constructionIS4_lEELi0EEERKS4_RKl, symObjAddr: 0x122E0, symBinAddr: 0x16200, symSize: 0x30 }
  - { offset: 0x89AC2, size: 0x8, addend: 0x0, symName: __ZNSt3__110unique_ptrIPN5Tiled9MapObjectENS_26__temporary_buffer_deleterIS3_EEEaSB9nqe210106EOS6_, symObjAddr: 0x123D0, symBinAddr: 0x162F0, symSize: 0x50 }
  - { offset: 0x89AF6, size: 0x8, addend: 0x0, symName: __ZNSt3__110unique_ptrIPN5Tiled9MapObjectENS_26__temporary_buffer_deleterIS3_EEED1B9nqe210106Ev, symObjAddr: 0x12420, symBinAddr: 0x16340, symSize: 0x20 }
  - { offset: 0x89B20, size: 0x8, addend: 0x0, symName: __ZNKSt3__110unique_ptrIPN5Tiled9MapObjectENS_26__temporary_buffer_deleterIS3_EEE3getB9nqe210106Ev, symObjAddr: 0x12440, symBinAddr: 0x16360, symSize: 0x20 }
  - { offset: 0x89B46, size: 0x8, addend: 0x0, symName: __ZNSt3__110unique_ptrIPN5Tiled9MapObjectENS_26__temporary_buffer_deleterIS3_EEE11get_deleterB9nqe210106Ev, symObjAddr: 0x12460, symBinAddr: 0x16380, symSize: 0x20 }
  - { offset: 0x89B6C, size: 0x8, addend: 0x0, symName: __ZNSt3__110unique_ptrIPN5Tiled9MapObjectENS_26__temporary_buffer_deleterIS3_EEEC2B9nqe210106ILb1EvEEv, symObjAddr: 0x127B0, symBinAddr: 0x166D0, symSize: 0x30 }
  - { offset: 0x89BA2, size: 0x8, addend: 0x0, symName: __ZNSt3__126__temporary_buffer_deleterIPN5Tiled9MapObjectEEC1B9nqe210106Ev, symObjAddr: 0x127E0, symBinAddr: 0x16700, symSize: 0x20 }
  - { offset: 0x89BCC, size: 0x8, addend: 0x0, symName: __ZNSt3__126__temporary_buffer_deleterIPN5Tiled9MapObjectEEC2B9nqe210106Ev, symObjAddr: 0x12800, symBinAddr: 0x16720, symSize: 0x20 }
  - { offset: 0x89BF6, size: 0x8, addend: 0x0, symName: __ZNSt3__14pairIPPN5Tiled9MapObjectElEC2B9nqe210106INS_25__check_pair_constructionIS4_lEELi0EEERKS4_RKl, symObjAddr: 0x12820, symBinAddr: 0x16740, symSize: 0x30 }
  - { offset: 0x89C4B, size: 0x8, addend: 0x0, symName: __ZNSt3__126__temporary_buffer_deleterIPN5Tiled9MapObjectEEC1B9nqe210106El, symObjAddr: 0x12850, symBinAddr: 0x16770, symSize: 0x30 }
  - { offset: 0x89C89, size: 0x8, addend: 0x0, symName: __ZNSt3__110unique_ptrIPN5Tiled9MapObjectENS_26__temporary_buffer_deleterIS3_EEEC1B9nqe210106ILb1EvEEPS3_NS_16__dependent_typeINS_27__unique_ptr_deleter_sfinaeIS5_EEXT_EE20__good_rval_ref_typeE, symObjAddr: 0x12880, symBinAddr: 0x167A0, symSize: 0x30 }
  - { offset: 0x89CDB, size: 0x8, addend: 0x0, symName: __ZNSt3__126__temporary_buffer_deleterIPN5Tiled9MapObjectEEC2B9nqe210106El, symObjAddr: 0x128B0, symBinAddr: 0x167D0, symSize: 0x20 }
  - { offset: 0x89D13, size: 0x8, addend: 0x0, symName: __ZNSt3__110unique_ptrIPN5Tiled9MapObjectENS_26__temporary_buffer_deleterIS3_EEEC2B9nqe210106ILb1EvEEPS3_NS_16__dependent_typeINS_27__unique_ptr_deleter_sfinaeIS5_EEXT_EE20__good_rval_ref_typeE, symObjAddr: 0x128D0, symBinAddr: 0x167F0, symSize: 0x30 }
  - { offset: 0x89D65, size: 0x8, addend: 0x0, symName: __ZNSt3__110unique_ptrIPN5Tiled9MapObjectENS_26__temporary_buffer_deleterIS3_EEE5resetB9nqe210106EPS3_, symObjAddr: 0x12900, symBinAddr: 0x16820, symSize: 0x50 }
  - { offset: 0x89DA9, size: 0x8, addend: 0x0, symName: __ZNSt3__110unique_ptrIPN5Tiled9MapObjectENS_26__temporary_buffer_deleterIS3_EEE7releaseB9nqe210106Ev, symObjAddr: 0x12950, symBinAddr: 0x16870, symSize: 0x20 }
  - { offset: 0x89DDE, size: 0x8, addend: 0x0, symName: __ZNSt3__126__temporary_buffer_deleterIPN5Tiled9MapObjectEEclB9nqe210106EPS3_, symObjAddr: 0x12970, symBinAddr: 0x16890, symSize: 0x30 }
  - { offset: 0x89E12, size: 0x8, addend: 0x0, symName: __ZNSt3__110unique_ptrIPN5Tiled9MapObjectENS_26__temporary_buffer_deleterIS3_EEED2B9nqe210106Ev, symObjAddr: 0x12A00, symBinAddr: 0x16920, symSize: 0x20 }
  - { offset: 0x89E46, size: 0x8, addend: 0x0, symName: '__ZZN3Gmx9GmxPlugin5writeEPKN5Tiled3MapERK7QString6QFlagsINS1_10FileFormat6OptionEEENK3$_0clEPKNS1_9MapObjectESF_', symObjAddr: 0x12A20, symBinAddr: 0x16940, symSize: 0x40 }
  - { offset: 0x89E8E, size: 0x8, addend: 0x0, symName: __ZN5QListIPN5Tiled9MapObjectEE8iteratormmEv, symObjAddr: 0x12A60, symBinAddr: 0x16980, symSize: 0x20 }
  - { offset: 0x89EB4, size: 0x8, addend: 0x0, symName: __ZNK5QListIPN5Tiled9MapObjectEE8iteratordeEv, symObjAddr: 0x12A80, symBinAddr: 0x169A0, symSize: 0x20 }
  - { offset: 0x89EDA, size: 0x8, addend: 0x0, symName: __ZNSt3__18_IterOpsINS_17_ClassicAlgPolicyEE9iter_swapB9nqe210106IRN5QListIPN5Tiled9MapObjectEE8iteratorESA_EEvOT_OT0_, symObjAddr: 0x12AA0, symBinAddr: 0x169C0, symSize: 0x40 }
  - { offset: 0x89F1D, size: 0x8, addend: 0x0, symName: __ZNK5QListIPN5Tiled9MapObjectEE8iteratorplEx, symObjAddr: 0x12C80, symBinAddr: 0x16BA0, symSize: 0x40 }
  - { offset: 0x89F56, size: 0x8, addend: 0x0, symName: __ZNSt3__112__destruct_nC1B9nqe210106Em, symObjAddr: 0x12CC0, symBinAddr: 0x16BE0, symSize: 0x30 }
  - { offset: 0x89FAF, size: 0x8, addend: 0x0, symName: __ZNSt3__110unique_ptrIPN5Tiled9MapObjectERNS_12__destruct_nEEC1B9nqe210106ILb1EvEEPS3_NS_16__dependent_typeINS_27__unique_ptr_deleter_sfinaeIS5_EEXT_EE15__lval_ref_typeE, symObjAddr: 0x12CF0, symBinAddr: 0x16C10, symSize: 0x30 }
  - { offset: 0x8A001, size: 0x8, addend: 0x0, symName: __ZNSt3__112__destruct_n5__setB9nqe210106IPN5Tiled9MapObjectEEEvmPT_, symObjAddr: 0x13070, symBinAddr: 0x16F90, symSize: 0x30 }
  - { offset: 0x8A048, size: 0x8, addend: 0x0, symName: __ZNSt3__110unique_ptrIPN5Tiled9MapObjectERNS_12__destruct_nEED1B9nqe210106Ev, symObjAddr: 0x131F0, symBinAddr: 0x17110, symSize: 0x20 }
  - { offset: 0x8A072, size: 0x8, addend: 0x0, symName: __ZNK5QListIPN5Tiled9MapObjectEE8iteratoreqES4_, symObjAddr: 0x136A0, symBinAddr: 0x175C0, symSize: 0x20 }
  - { offset: 0x8A0A6, size: 0x8, addend: 0x0, symName: __ZN5QListIPN5Tiled9MapObjectEE8iteratorppEv, symObjAddr: 0x136C0, symBinAddr: 0x175E0, symSize: 0x20 }
  - { offset: 0x8A0CC, size: 0x8, addend: 0x0, symName: __ZNK5QListIPN5Tiled9MapObjectEE8iteratorneES4_, symObjAddr: 0x136E0, symBinAddr: 0x17600, symSize: 0x20 }
  - { offset: 0x8A106, size: 0x8, addend: 0x0, symName: __ZNSt3__18_IterOpsINS_17_ClassicAlgPolicyEE11__iter_moveB9nqe210106IRN5QListIPN5Tiled9MapObjectEE8iteratorELi0EEEDTclsr3stdE4movedeclsr3stdE7declvalIRT_EEEEOSB_, symObjAddr: 0x13700, symBinAddr: 0x17620, symSize: 0x20 }
  - { offset: 0x8A138, size: 0x8, addend: 0x0, symName: __ZNSt3__18_IterOpsINS_17_ClassicAlgPolicyEE25__validate_iter_referenceB9nqe210106IRN5QListIPN5Tiled9MapObjectEE8iteratorEEEvv, symObjAddr: 0x13720, symBinAddr: 0x17640, symSize: 0x10 }
  - { offset: 0x8A156, size: 0x8, addend: 0x0, symName: __ZNSt3__112__destruct_nC2B9nqe210106Em, symObjAddr: 0x13730, symBinAddr: 0x17650, symSize: 0x20 }
  - { offset: 0x8A18E, size: 0x8, addend: 0x0, symName: __ZNSt3__110unique_ptrIPN5Tiled9MapObjectERNS_12__destruct_nEEC2B9nqe210106ILb1EvEEPS3_NS_16__dependent_typeINS_27__unique_ptr_deleter_sfinaeIS5_EEXT_EE15__lval_ref_typeE, symObjAddr: 0x13750, symBinAddr: 0x17670, symSize: 0x30 }
  - { offset: 0x8A1E0, size: 0x8, addend: 0x0, symName: __ZNSt3__112__destruct_n6__incrB9nqe210106IPN5Tiled9MapObjectEEEvv, symObjAddr: 0x137A0, symBinAddr: 0x176C0, symSize: 0x20 }
  - { offset: 0x8A20F, size: 0x8, addend: 0x0, symName: __ZNSt3__110unique_ptrIPN5Tiled9MapObjectERNS_12__destruct_nEE7releaseB9nqe210106Ev, symObjAddr: 0x137C0, symBinAddr: 0x176E0, symSize: 0x20 }
  - { offset: 0x8A244, size: 0x8, addend: 0x0, symName: __ZNSt3__112__destruct_n6__incrB9nqe210106ENS_17integral_constantIbLb1EEE, symObjAddr: 0x13CE0, symBinAddr: 0x17C00, symSize: 0x10 }
  - { offset: 0x8A274, size: 0x8, addend: 0x0, symName: __ZNSt3__112__destruct_n5__setB9nqe210106EmNS_17integral_constantIbLb1EEE, symObjAddr: 0x13CF0, symBinAddr: 0x17C10, symSize: 0x10 }
  - { offset: 0x8A2B4, size: 0x8, addend: 0x0, symName: __ZNSt3__18_IterOpsINS_17_ClassicAlgPolicyEE11__iter_moveB9nqe210106IRPPN5Tiled9MapObjectELi0EEEDTclsr3stdE4movedeclsr3stdE7declvalIRT_EEEEOS9_, symObjAddr: 0x13D00, symBinAddr: 0x17C20, symSize: 0x20 }
  - { offset: 0x8A2E6, size: 0x8, addend: 0x0, symName: __ZNSt3__18_IterOpsINS_17_ClassicAlgPolicyEE25__validate_iter_referenceB9nqe210106IRPPN5Tiled9MapObjectEEEvv, symObjAddr: 0x13D20, symBinAddr: 0x17C40, symSize: 0x10 }
  - { offset: 0x8A304, size: 0x8, addend: 0x0, symName: __ZNSt3__110unique_ptrIPN5Tiled9MapObjectERNS_12__destruct_nEED2B9nqe210106Ev, symObjAddr: 0x13D30, symBinAddr: 0x17C50, symSize: 0x20 }
  - { offset: 0x8A32E, size: 0x8, addend: 0x0, symName: __ZNSt3__110unique_ptrIPN5Tiled9MapObjectERNS_12__destruct_nEE5resetB9nqe210106EPS3_, symObjAddr: 0x13D50, symBinAddr: 0x17C70, symSize: 0x50 }
  - { offset: 0x8A372, size: 0x8, addend: 0x0, symName: __ZNSt3__112__destruct_nclB9nqe210106IPN5Tiled9MapObjectEEEvPT_, symObjAddr: 0x13DA0, symBinAddr: 0x17CC0, symSize: 0x30 }
  - { offset: 0x8A3AF, size: 0x8, addend: 0x0, symName: __ZNSt3__112__destruct_n9__processB9nqe210106IPN5Tiled9MapObjectEEEvPT_NS_17integral_constantIbLb1EEE, symObjAddr: 0x13DD0, symBinAddr: 0x17CF0, symSize: 0x10 }
  - { offset: 0x8A3F2, size: 0x8, addend: 0x0, symName: __ZN5QListIPN5Tiled9MapObjectEE8iteratorC1Ev, symObjAddr: 0x140B0, symBinAddr: 0x17FD0, symSize: 0x20 }
  - { offset: 0x8A41C, size: 0x8, addend: 0x0, symName: __ZNSt3__18_IterOpsINS_17_ClassicAlgPolicyEE7advanceB9nqe210106IN5QListIPN5Tiled9MapObjectEE8iteratorExEEvRT_T0_, symObjAddr: 0x140D0, symBinAddr: 0x17FF0, symSize: 0x30 }
  - { offset: 0x8A45F, size: 0x8, addend: 0x0, symName: __ZNSt3__18_IterOpsINS_17_ClassicAlgPolicyEE8distanceB9nqe210106IN5QListIPN5Tiled9MapObjectEE8iteratorEEENS_15iterator_traitsIT_E15difference_typeESB_SB_, symObjAddr: 0x141F0, symBinAddr: 0x18110, symSize: 0x40 }
  - { offset: 0x8A499, size: 0x8, addend: 0x0, symName: __ZNSt3__116reverse_iteratorIPPN5Tiled9MapObjectEEC1B9nqe210106ES4_, symObjAddr: 0x14630, symBinAddr: 0x18550, symSize: 0x30 }
  - { offset: 0x8A4D1, size: 0x8, addend: 0x0, symName: __ZNSt3__116reverse_iteratorIN5QListIPN5Tiled9MapObjectEE8iteratorEEC1B9nqe210106ES6_, symObjAddr: 0x14660, symBinAddr: 0x18580, symSize: 0x30 }
  - { offset: 0x8A509, size: 0x8, addend: 0x0, symName: '__ZNSt3__18__invertIRZN3Gmx9GmxPlugin5writeEPKN5Tiled3MapERK7QString6QFlagsINS3_10FileFormat6OptionEEE3$_0EC1B9nqe210106ESF_', symObjAddr: 0x14690, symBinAddr: 0x185B0, symSize: 0x30 }
  - { offset: 0x8A567, size: 0x8, addend: 0x0, symName: __ZNKSt3__111__move_implINS_17_ClassicAlgPolicyEEclB9nqe210106IPPN5Tiled9MapObjectES7_N5QListIS6_E8iteratorEEENS_4pairIT_T1_EESC_T0_SD_, symObjAddr: 0x14840, symBinAddr: 0x18760, symSize: 0x80 }
  - { offset: 0x8A5EE, size: 0x8, addend: 0x0, symName: __ZNSt3__14pairIPPN5Tiled9MapObjectES4_EC1B9nqe210106IS4_S4_Li0EEEOT_OT0_, symObjAddr: 0x149F0, symBinAddr: 0x18910, symSize: 0x30 }
  - { offset: 0x8A64C, size: 0x8, addend: 0x0, symName: __ZNSt3__14pairIPPN5Tiled9MapObjectES4_EC2B9nqe210106IS4_S4_Li0EEEOT_OT0_, symObjAddr: 0x14A20, symBinAddr: 0x18940, symSize: 0x30 }
  - { offset: 0x8A6AA, size: 0x8, addend: 0x0, symName: __ZNSt3__118__unwrap_iter_implIPPN5Tiled9MapObjectELb1EE8__unwrapB9nqe210106ES4_, symObjAddr: 0x14A50, symBinAddr: 0x18970, symSize: 0x20 }
  - { offset: 0x8A6CD, size: 0x8, addend: 0x0, symName: __ZNSt3__118__unwrap_iter_implIN5QListIPN5Tiled9MapObjectEE8iteratorELb0EE8__unwrapB9nqe210106ES6_, symObjAddr: 0x14A80, symBinAddr: 0x189A0, symSize: 0x20 }
  - { offset: 0x8A6F6, size: 0x8, addend: 0x0, symName: __ZNSt3__14pairIPPN5Tiled9MapObjectEN5QListIS3_E8iteratorEEC1B9nqe210106IS4_S7_Li0EEEOT_OT0_, symObjAddr: 0x14AA0, symBinAddr: 0x189C0, symSize: 0x30 }
  - { offset: 0x8A754, size: 0x8, addend: 0x0, symName: __ZNSt3__14pairIPPN5Tiled9MapObjectEN5QListIS3_E8iteratorEEC2B9nqe210106IS4_S7_Li0EEEOT_OT0_, symObjAddr: 0x14AD0, symBinAddr: 0x189F0, symSize: 0x30 }
  - { offset: 0x8A7B2, size: 0x8, addend: 0x0, symName: __ZNSt3__118__unwrap_iter_implIPPN5Tiled9MapObjectELb1EE8__rewrapB9nqe210106ES4_S4_, symObjAddr: 0x14B40, symBinAddr: 0x18A60, symSize: 0x50 }
  - { offset: 0x8A7E3, size: 0x8, addend: 0x0, symName: __ZNSt3__118__unwrap_iter_implIN5QListIPN5Tiled9MapObjectEE8iteratorELb0EE8__rewrapB9nqe210106ES6_S6_, symObjAddr: 0x14B90, symBinAddr: 0x18AB0, symSize: 0x20 }
  - { offset: 0x8A810, size: 0x8, addend: 0x0, symName: '__ZNSt3__18__invertIRZN3Gmx9GmxPlugin5writeEPKN5Tiled3MapERK7QString6QFlagsINS3_10FileFormat6OptionEEE3$_0EclB9nqe210106IPNS3_9MapObjectESJ_EEbRKT_RKT0_', symObjAddr: 0x14CC0, symBinAddr: 0x18BE0, symSize: 0x40 }
  - { offset: 0x8A864, size: 0x8, addend: 0x0, symName: __ZNKSt3__116reverse_iteratorIN5QListIPN5Tiled9MapObjectEE8iteratorEEdeB9nqe210106Ev, symObjAddr: 0x14D00, symBinAddr: 0x18C20, symSize: 0x30 }
  - { offset: 0x8A898, size: 0x8, addend: 0x0, symName: __ZNKSt3__116reverse_iteratorIPPN5Tiled9MapObjectEEdeB9nqe210106Ev, symObjAddr: 0x14D30, symBinAddr: 0x18C50, symSize: 0x30 }
  - { offset: 0x8A8CC, size: 0x8, addend: 0x0, symName: __ZNSt3__18_IterOpsINS_17_ClassicAlgPolicyEE11__iter_moveB9nqe210106IRNS_16reverse_iteratorIN5QListIPN5Tiled9MapObjectEE8iteratorEEELi0EEEDTclsr3stdE4movedeclsr3stdE7declvalIRT_EEEEOSD_, symObjAddr: 0x14D60, symBinAddr: 0x18C80, symSize: 0x20 }
  - { offset: 0x8A8FE, size: 0x8, addend: 0x0, symName: __ZNSt3__116reverse_iteratorIN5QListIPN5Tiled9MapObjectEE8iteratorEEppB9nqe210106Ev, symObjAddr: 0x14D80, symBinAddr: 0x18CA0, symSize: 0x30 }
  - { offset: 0x8A924, size: 0x8, addend: 0x0, symName: __ZNSt3__18_IterOpsINS_17_ClassicAlgPolicyEE11__iter_moveB9nqe210106IRNS_16reverse_iteratorIPPN5Tiled9MapObjectEEELi0EEEDTclsr3stdE4movedeclsr3stdE7declvalIRT_EEEEOSB_, symObjAddr: 0x14DB0, symBinAddr: 0x18CD0, symSize: 0x20 }
  - { offset: 0x8A956, size: 0x8, addend: 0x0, symName: __ZNSt3__116reverse_iteratorIPPN5Tiled9MapObjectEEppB9nqe210106Ev, symObjAddr: 0x14DD0, symBinAddr: 0x18CF0, symSize: 0x20 }
  - { offset: 0x8A97C, size: 0x8, addend: 0x0, symName: __ZNKSt3__116reverse_iteratorIPPN5Tiled9MapObjectEE4baseB9nqe210106Ev, symObjAddr: 0x14DF0, symBinAddr: 0x18D10, symSize: 0x20 }
  - { offset: 0x8A9A2, size: 0x8, addend: 0x0, symName: __ZNKSt3__116reverse_iteratorIN5QListIPN5Tiled9MapObjectEE8iteratorEE4baseB9nqe210106Ev, symObjAddr: 0x14E10, symBinAddr: 0x18D30, symSize: 0x20 }
  - { offset: 0x8A9E4, size: 0x8, addend: 0x0, symName: __ZNKSt3__111__move_implINS_17_ClassicAlgPolicyEEclB9nqe210106INS_16reverse_iteratorIPPN5Tiled9MapObjectEEES9_NS4_IN5QListIS7_E8iteratorEEEEENS_4pairIT_T1_EESF_T0_SG_, symObjAddr: 0x150D0, symBinAddr: 0x18FF0, symSize: 0x90 }
  - { offset: 0x8AA71, size: 0x8, addend: 0x0, symName: __ZNSt3__14pairINS_16reverse_iteratorIPPN5Tiled9MapObjectEEES6_EC1B9nqe210106IS6_S6_Li0EEEOT_OT0_, symObjAddr: 0x15310, symBinAddr: 0x19230, symSize: 0x30 }
  - { offset: 0x8AACF, size: 0x8, addend: 0x0, symName: __ZNSt3__14pairINS_16reverse_iteratorIPPN5Tiled9MapObjectEEES6_EC2B9nqe210106IS6_S6_Li0EEEOT_OT0_, symObjAddr: 0x15340, symBinAddr: 0x19260, symSize: 0x40 }
  - { offset: 0x8AB2D, size: 0x8, addend: 0x0, symName: __ZNSt3__118__unwrap_iter_implINS_16reverse_iteratorIPPN5Tiled9MapObjectEEELb0EE8__unwrapB9nqe210106ES6_, symObjAddr: 0x15380, symBinAddr: 0x192A0, symSize: 0x20 }
  - { offset: 0x8AB50, size: 0x8, addend: 0x0, symName: __ZNSt3__118__unwrap_iter_implINS_16reverse_iteratorIN5QListIPN5Tiled9MapObjectEE8iteratorEEELb0EE8__unwrapB9nqe210106ES8_, symObjAddr: 0x153A0, symBinAddr: 0x192C0, symSize: 0x20 }
  - { offset: 0x8AB79, size: 0x8, addend: 0x0, symName: __ZNSt3__14pairINS_16reverse_iteratorIPPN5Tiled9MapObjectEEENS1_IN5QListIS4_E8iteratorEEEEC1B9nqe210106IS6_SA_Li0EEEOT_OT0_, symObjAddr: 0x153C0, symBinAddr: 0x192E0, symSize: 0x30 }
  - { offset: 0x8ABD7, size: 0x8, addend: 0x0, symName: __ZNSt3__14pairINS_16reverse_iteratorIPPN5Tiled9MapObjectEEENS1_IN5QListIS4_E8iteratorEEEEC2B9nqe210106IS6_SA_Li0EEEOT_OT0_, symObjAddr: 0x153F0, symBinAddr: 0x19310, symSize: 0x40 }
  - { offset: 0x8AC35, size: 0x8, addend: 0x0, symName: __ZNSt3__118__unwrap_iter_implINS_16reverse_iteratorIPPN5Tiled9MapObjectEEELb0EE8__rewrapB9nqe210106ES6_S6_, symObjAddr: 0x154A0, symBinAddr: 0x193C0, symSize: 0x30 }
  - { offset: 0x8AC62, size: 0x8, addend: 0x0, symName: __ZNSt3__118__unwrap_iter_implINS_16reverse_iteratorIN5QListIPN5Tiled9MapObjectEE8iteratorEEELb0EE8__rewrapB9nqe210106ES8_S8_, symObjAddr: 0x154D0, symBinAddr: 0x193F0, symSize: 0x30 }
  - { offset: 0x8AC8F, size: 0x8, addend: 0x0, symName: __ZNSt3__18_IterOpsINS_17_ClassicAlgPolicyEE25__validate_iter_referenceB9nqe210106IRNS_16reverse_iteratorIN5QListIPN5Tiled9MapObjectEE8iteratorEEEEEvv, symObjAddr: 0x15500, symBinAddr: 0x19420, symSize: 0x10 }
  - { offset: 0x8ACAD, size: 0x8, addend: 0x0, symName: __ZNSt3__18_IterOpsINS_17_ClassicAlgPolicyEE25__validate_iter_referenceB9nqe210106IRNS_16reverse_iteratorIPPN5Tiled9MapObjectEEEEEvv, symObjAddr: 0x15510, symBinAddr: 0x19430, symSize: 0x10 }
  - { offset: 0x8ACCB, size: 0x8, addend: 0x0, symName: __ZNSt3__116reverse_iteratorIPPN5Tiled9MapObjectEEC2B9nqe210106ES4_, symObjAddr: 0x15520, symBinAddr: 0x19440, symSize: 0x30 }
  - { offset: 0x8AD03, size: 0x8, addend: 0x0, symName: __ZNSt3__116reverse_iteratorIN5QListIPN5Tiled9MapObjectEE8iteratorEEC2B9nqe210106ES6_, symObjAddr: 0x15550, symBinAddr: 0x19470, symSize: 0x30 }
  - { offset: 0x8AD3B, size: 0x8, addend: 0x0, symName: '__ZNSt3__18__invertIRZN3Gmx9GmxPlugin5writeEPKN5Tiled3MapERK7QString6QFlagsINS3_10FileFormat6OptionEEE3$_0EC2B9nqe210106ESF_', symObjAddr: 0x15580, symBinAddr: 0x194A0, symSize: 0x20 }
  - { offset: 0x8AD73, size: 0x8, addend: 0x0, symName: __ZN5QListIPN5Tiled9MapObjectEE8iteratorC2Ev, symObjAddr: 0x155A0, symBinAddr: 0x194C0, symSize: 0x20 }
  - { offset: 0x8AD9D, size: 0x8, addend: 0x0, symName: __ZN5QListIPN5Tiled9MapObjectEE8iteratorpLEx, symObjAddr: 0x15630, symBinAddr: 0x19550, symSize: 0x20 }
  - { offset: 0x8ADD1, size: 0x8, addend: 0x0, symName: __ZNSt3__18_IterOpsINS_17_ClassicAlgPolicyEE4nextB9nqe210106IRN5QListIPN5Tiled9MapObjectEE8iteratorEEEu14__remove_cvrefIT_EOSB_NS_15iterator_traitsISC_E15difference_typeE, symObjAddr: 0x15670, symBinAddr: 0x19590, symSize: 0x40 }
  - { offset: 0x8AE15, size: 0x8, addend: 0x0, symName: __ZNKSt3__110__identityclB9nqe210106IRPN5Tiled9MapObjectEEEOT_S7_, symObjAddr: 0x15750, symBinAddr: 0x19670, symSize: 0x20 }
  - { offset: 0x8AE52, size: 0x8, addend: 0x0, symName: __ZNSt3__18_IterOpsINS_17_ClassicAlgPolicyEE4nextB9nqe210106IN5QListIPN5Tiled9MapObjectEE8iteratorEEET_SA_SA_, symObjAddr: 0x15960, symBinAddr: 0x19880, symSize: 0x20 }
  - { offset: 0x8AEA4, size: 0x8, addend: 0x0, symName: __ZNSt3__14pairIN5QListIPN5Tiled9MapObjectEE8iteratorES6_EC1B9nqe210106IRS6_S9_Li0EEEOT_OT0_, symObjAddr: 0x15980, symBinAddr: 0x198A0, symSize: 0x30 }
  - { offset: 0x8AF02, size: 0x8, addend: 0x0, symName: __ZNSt3__14pairIN5QListIPN5Tiled9MapObjectEE8iteratorES6_EC1B9nqe210106IS6_S6_Li0EEEOT_OT0_, symObjAddr: 0x159B0, symBinAddr: 0x198D0, symSize: 0x30 }
  - { offset: 0x8AF60, size: 0x8, addend: 0x0, symName: __ZNSt3__14pairIN5QListIPN5Tiled9MapObjectEE8iteratorES6_EC2B9nqe210106IRS6_S9_Li0EEEOT_OT0_, symObjAddr: 0x15AE0, symBinAddr: 0x19A00, symSize: 0x30 }
  - { offset: 0x8AFBE, size: 0x8, addend: 0x0, symName: __ZNSt3__14pairIN5QListIPN5Tiled9MapObjectEE8iteratorES6_EC2B9nqe210106IS6_S6_Li0EEEOT_OT0_, symObjAddr: 0x15B10, symBinAddr: 0x19A30, symSize: 0x30 }
  - { offset: 0x8B01C, size: 0x8, addend: 0x0, symName: __ZNKSt3__111__move_implINS_17_ClassicAlgPolicyEEclB9nqe210106IN5QListIPN5Tiled9MapObjectEE8iteratorES9_S9_EENS_4pairIT_T1_EESB_T0_SC_, symObjAddr: 0x16090, symBinAddr: 0x19FB0, symSize: 0x90 }
  - { offset: 0x8B087, size: 0x8, addend: 0x0, symName: __ZNSt3__18_IterOpsINS_17_ClassicAlgPolicyEE4prevB9nqe210106IRN5QListIPN5Tiled9MapObjectEE8iteratorEEEu14__remove_cvrefIT_EOSB_NS_15iterator_traitsISC_E15difference_typeE, symObjAddr: 0x16190, symBinAddr: 0x1A0B0, symSize: 0x40 }
  - { offset: 0x8B0CB, size: 0x8, addend: 0x0, symName: __ZNKSt3__120__move_backward_implINS_17_ClassicAlgPolicyEEclB9nqe210106IN5QListIPN5Tiled9MapObjectEE8iteratorES9_S9_EENS_4pairIT_T1_EESB_T0_SC_, symObjAddr: 0x16380, symBinAddr: 0x1A2A0, symSize: 0xC0 }
  - { offset: 0x8B153, size: 0x8, addend: 0x0, symName: __ZNSt3__18functionIFvvEEC2IN5Tiled11SelectLayerEvEET_, symObjAddr: 0x16520, symBinAddr: 0x1A440, symSize: 0x20 }
  - { offset: 0x8B198, size: 0x8, addend: 0x0, symName: __ZNSt3__110__function12__value_funcIFvvEEC1B9nqe210106IN5Tiled11SelectLayerELi0EEEOT_, symObjAddr: 0x16540, symBinAddr: 0x1A460, symSize: 0x30 }
  - { offset: 0x8B1DF, size: 0x8, addend: 0x0, symName: __ZNSt3__110__function12__value_funcIFvvEEC2B9nqe210106IN5Tiled11SelectLayerELi0EEEOT_, symObjAddr: 0x16570, symBinAddr: 0x1A490, symSize: 0x90 }
  - { offset: 0x8B226, size: 0x8, addend: 0x0, symName: __ZNSt3__110__function6__funcIN5Tiled11SelectLayerEFvvEEC1B9nqe210106EOS3_, symObjAddr: 0x16610, symBinAddr: 0x1A530, symSize: 0x30 }
  - { offset: 0x8B25E, size: 0x8, addend: 0x0, symName: __ZNSt3__110__function6__funcIN5Tiled11SelectLayerEFvvEEC2B9nqe210106EOS3_, symObjAddr: 0x16640, symBinAddr: 0x1A560, symSize: 0x50 }
  - { offset: 0x8B296, size: 0x8, addend: 0x0, symName: __ZN5Tiled11SelectLayerC1EOS0_, symObjAddr: 0x16690, symBinAddr: 0x1A5B0, symSize: 0x30 }
  - { offset: 0x8B2CB, size: 0x8, addend: 0x0, symName: __ZNSt3__110__function6__funcIN5Tiled11SelectLayerEFvvEED1Ev, symObjAddr: 0x166C0, symBinAddr: 0x1A5E0, symSize: 0x20 }
  - { offset: 0x8B2F7, size: 0x8, addend: 0x0, symName: __ZNSt3__110__function6__funcIN5Tiled11SelectLayerEFvvEED0Ev, symObjAddr: 0x166E0, symBinAddr: 0x1A600, symSize: 0x30 }
  - { offset: 0x8B323, size: 0x8, addend: 0x0, symName: __ZNKSt3__110__function6__funcIN5Tiled11SelectLayerEFvvEE7__cloneEv, symObjAddr: 0x16710, symBinAddr: 0x1A630, symSize: 0x60 }
  - { offset: 0x8B349, size: 0x8, addend: 0x0, symName: __ZNKSt3__110__function6__funcIN5Tiled11SelectLayerEFvvEE7__cloneEPNS0_6__baseIS4_EE, symObjAddr: 0x16770, symBinAddr: 0x1A690, symSize: 0x30 }
  - { offset: 0x8B37D, size: 0x8, addend: 0x0, symName: __ZNSt3__110__function6__funcIN5Tiled11SelectLayerEFvvEE7destroyEv, symObjAddr: 0x167A0, symBinAddr: 0x1A6C0, symSize: 0x20 }
  - { offset: 0x8B3A3, size: 0x8, addend: 0x0, symName: __ZNSt3__110__function6__funcIN5Tiled11SelectLayerEFvvEE18destroy_deallocateEv, symObjAddr: 0x167C0, symBinAddr: 0x1A6E0, symSize: 0x30 }
  - { offset: 0x8B3C9, size: 0x8, addend: 0x0, symName: __ZNSt3__110__function6__funcIN5Tiled11SelectLayerEFvvEEclEv, symObjAddr: 0x167F0, symBinAddr: 0x1A710, symSize: 0x20 }
  - { offset: 0x8B3EF, size: 0x8, addend: 0x0, symName: __ZNKSt3__110__function6__funcIN5Tiled11SelectLayerEFvvEE6targetERKSt9type_info, symObjAddr: 0x16810, symBinAddr: 0x1A730, symSize: 0x50 }
  - { offset: 0x8B423, size: 0x8, addend: 0x0, symName: __ZNKSt3__110__function6__funcIN5Tiled11SelectLayerEFvvEE11target_typeEv, symObjAddr: 0x16860, symBinAddr: 0x1A780, symSize: 0x20 }
  - { offset: 0x8B449, size: 0x8, addend: 0x0, symName: __ZN5Tiled11SelectLayerC2EOS0_, symObjAddr: 0x16880, symBinAddr: 0x1A7A0, symSize: 0x40 }
  - { offset: 0x8B47E, size: 0x8, addend: 0x0, symName: __ZNSt3__110__function6__funcIN5Tiled11SelectLayerEFvvEED2Ev, symObjAddr: 0x168C0, symBinAddr: 0x1A7E0, symSize: 0x40 }
  - { offset: 0x8B4AA, size: 0x8, addend: 0x0, symName: __ZNSt3__110__function6__funcIN5Tiled11SelectLayerEFvvEEC1B9nqe210106ERKS3_, symObjAddr: 0x16900, symBinAddr: 0x1A820, symSize: 0x30 }
  - { offset: 0x8B4E2, size: 0x8, addend: 0x0, symName: __ZNSt3__110__function6__funcIN5Tiled11SelectLayerEFvvEEC2B9nqe210106ERKS3_, symObjAddr: 0x16930, symBinAddr: 0x1A850, symSize: 0x50 }
  - { offset: 0x8B51A, size: 0x8, addend: 0x0, symName: __ZN5Tiled11SelectLayerC1ERKS0_, symObjAddr: 0x16980, symBinAddr: 0x1A8A0, symSize: 0x30 }
  - { offset: 0x8B54F, size: 0x8, addend: 0x0, symName: __ZN5Tiled11SelectLayerC2ERKS0_, symObjAddr: 0x169B0, symBinAddr: 0x1A8D0, symSize: 0x40 }
  - { offset: 0x8B58A, size: 0x8, addend: 0x0, symName: __ZNSt3__128__invoke_void_return_wrapperIvLb1EE6__callB9nqe210106IJRN5Tiled11SelectLayerEEEEvDpOT_, symObjAddr: 0x16A10, symBinAddr: 0x1A930, symSize: 0x20 }
  - { offset: 0x8B5BB, size: 0x8, addend: 0x0, symName: __ZNK5Tiled11ActivatableINS_11SelectLayerEEclEv, symObjAddr: 0x16A50, symBinAddr: 0x1A970, symSize: 0x30 }
  - { offset: 0x8B5E1, size: 0x8, addend: 0x0, symName: __ZNKSt3__18functionIFvRKN5Tiled11SelectLayerEEEclES4_, symObjAddr: 0x16A80, symBinAddr: 0x1A9A0, symSize: 0x30 }
  - { offset: 0x8B618, size: 0x8, addend: 0x0, symName: __ZNKSt3__110__function12__value_funcIFvRKN5Tiled11SelectLayerEEEclB9nqe210106ES5_, symObjAddr: 0x16AB0, symBinAddr: 0x1A9D0, symSize: 0x40 }
  - { offset: 0x8B64D, size: 0x8, addend: 0x0, symName: __ZNSt3__18functionIFvRKN5Tiled11SelectLayerEEEC2B9nqe210106Ev, symObjAddr: 0x16AF0, symBinAddr: 0x1AA10, symSize: 0x20 }
  - { offset: 0x8B677, size: 0x8, addend: 0x0, symName: __ZNSt3__110__function12__value_funcIFvRKN5Tiled11SelectLayerEEEC1B9nqe210106Ev, symObjAddr: 0x16B10, symBinAddr: 0x1AA30, symSize: 0x20 }
  - { offset: 0x8B6A1, size: 0x8, addend: 0x0, symName: __ZNSt3__110__function12__value_funcIFvRKN5Tiled11SelectLayerEEEC2B9nqe210106Ev, symObjAddr: 0x16B30, symBinAddr: 0x1AA50, symSize: 0x20 }
  - { offset: 0x8B6CB, size: 0x8, addend: 0x0, symName: __ZNSt3__18functionIFvRKN5Tiled11SelectLayerEEED2Ev, symObjAddr: 0x16B50, symBinAddr: 0x1AA70, symSize: 0x20 }
  - { offset: 0x8B6F5, size: 0x8, addend: 0x0, symName: __ZNSt3__110__function12__value_funcIFvRKN5Tiled11SelectLayerEEED1B9nqe210106Ev, symObjAddr: 0x16B70, symBinAddr: 0x1AA90, symSize: 0x20 }
  - { offset: 0x8B71F, size: 0x8, addend: 0x0, symName: __ZNSt3__110__function12__value_funcIFvRKN5Tiled11SelectLayerEEED2B9nqe210106Ev, symObjAddr: 0x16B90, symBinAddr: 0x1AAB0, symSize: 0x50 }
  - { offset: 0x8B748, size: 0x8, addend: 0x0, symName: __ZL8toStringIdE7QStringT_, symObjAddr: 0x16BE0, symBinAddr: 0x1AB00, symSize: 0x36 }
  - { offset: 0x8E548, size: 0x8, addend: 0x0, symName: __ZN9QtPrivate20q_relocate_overlap_nI7QStringxEEvPT_T0_S3_, symObjAddr: 0x1B90, symBinAddr: 0x1C0A0, symSize: 0x50 }
  - { offset: 0x8E59E, size: 0x8, addend: 0x0, symName: __ZN9QtPrivateL19q_points_into_rangeI17QArrayDataPointerI7QStringEPKS2_EEbRKT0_RKT_, symObjAddr: 0x1BE0, symBinAddr: 0x1C0F0, symSize: 0xA0 }
  - { offset: 0x8E5EA, size: 0x8, addend: 0x0, symName: __ZN9QtPrivateL19q_points_into_rangeI7QStringNSt3__14lessIvEEEEbPKT_S7_S7_T0_, symObjAddr: 0x1C80, symBinAddr: 0x1C190, symSize: 0x50 }
  - { offset: 0x8E66D, size: 0x8, addend: 0x0, symName: __ZN3Gmx9GmxPlugin16staticMetaObjectE, symObjAddr: 0x3378, symBinAddr: 0x20610, symSize: 0x0 }
  - { offset: 0x9364C, size: 0x8, addend: 0x0, symName: __ZNSt3__14dataB9nqe210106I17QArrayDataPointerI7QStringEEEDTcldtfp_4dataEERKT_, symObjAddr: 0x1CD0, symBinAddr: 0x1C1E0, symSize: 0x20 }
  - { offset: 0x93681, size: 0x8, addend: 0x0, symName: __ZNSt3__18distanceB9nqe210106IPK7QStringEENS_15iterator_traitsIT_E15difference_typeES5_S5_, symObjAddr: 0x1CF0, symBinAddr: 0x1C200, symSize: 0x30 }
  - { offset: 0x936C4, size: 0x8, addend: 0x0, symName: __ZNSt3__15beginB9nqe210106I17QArrayDataPointerI7QStringEEEDTcldtfp_5beginEERKT_, symObjAddr: 0x1D20, symBinAddr: 0x1C230, symSize: 0x20 }
  - { offset: 0x936F9, size: 0x8, addend: 0x0, symName: __ZNSt3__13endB9nqe210106I17QArrayDataPointerI7QStringEEEDTcldtfp_3endEERKT_, symObjAddr: 0x1D40, symBinAddr: 0x1C250, symSize: 0x20 }
  - { offset: 0x93771, size: 0x8, addend: 0x0, symName: __ZNSt3__110__distanceB9nqe210106IPK7QStringEENS_15iterator_traitsIT_E15difference_typeES5_S5_NS_26random_access_iterator_tagE, symObjAddr: 0x1DB0, symBinAddr: 0x1C2C0, symSize: 0x30 }
  - { offset: 0x937BE, size: 0x8, addend: 0x0, symName: __ZNSt3__13getB9nqe210106ILm0EP15QTypedArrayDataI7QStringEPS2_EEONS_13tuple_elementIXT_ENS_4pairIT0_T1_EEE4typeEOSA_, symObjAddr: 0x25A0, symBinAddr: 0x1CA70, symSize: 0x20 }
  - { offset: 0x93808, size: 0x8, addend: 0x0, symName: __ZNSt3__13getB9nqe210106ILm1EP15QTypedArrayDataI7QStringEPS2_EEONS_13tuple_elementIXT_ENS_4pairIT0_T1_EEE4typeEOSA_, symObjAddr: 0x25C0, symBinAddr: 0x1CA90, symSize: 0x20 }
  - { offset: 0x938CC, size: 0x8, addend: 0x0, symName: __ZNSt3__17destroyB9nqe210106IP7QStringEEvT_S3_, symObjAddr: 0x2E80, symBinAddr: 0x1CF70, symSize: 0x30 }
  - { offset: 0x9390B, size: 0x8, addend: 0x0, symName: __ZNSt3__19__destroyB9nqe210106IP7QStringEET_S3_S3_, symObjAddr: 0x2EB0, symBinAddr: 0x1CFA0, symSize: 0x40 }
  - { offset: 0x9394E, size: 0x8, addend: 0x0, symName: __ZNSt3__112__destroy_atB9nqe210106I7QStringLi0EEEvPT_, symObjAddr: 0x2EF0, symBinAddr: 0x1CFE0, symSize: 0x20 }
  - { offset: 0xA3F88, size: 0x8, addend: 0x0, symName: _qt_plugin_query_metadata_v2, symObjAddr: 0x150, symBinAddr: 0x1AD50, symSize: 0x30 }
  - { offset: 0xA3FAE, size: 0x8, addend: 0x0, symName: __ZZ27qt_plugin_query_metadata_v2E2md, symObjAddr: 0x3478, symBinAddr: 0x1F3B4, symSize: 0x0 }
  - { offset: 0xA3FD1, size: 0x8, addend: 0x0, symName: __ZL29qt_pluginMetaDataV2_GmxPlugin, symObjAddr: 0x34C0, symBinAddr: 0x1D840, symSize: 0x0 }
  - { offset: 0xA4143, size: 0x8, addend: 0x0, symName: _qt_plugin_instance, symObjAddr: 0x1E0, symBinAddr: 0x1ADE0, symSize: 0xC0 }
  - { offset: 0xA4169, size: 0x8, addend: 0x0, symName: __ZZ18qt_plugin_instanceE9_instance, symObjAddr: 0x147EB8, symBinAddr: 0x21148, symSize: 0x0 }
  - { offset: 0xA417B, size: 0x8, addend: 0x0, symName: __ZTVN3Gmx9GmxPluginE, symObjAddr: 0x33B0, symBinAddr: 0x20648, symSize: 0x0 }
  - { offset: 0xA418F, size: 0x8, addend: 0x0, symName: __ZN3Gmx9GmxPlugin32qt_staticMetaObjectStaticContentIN12_GLOBAL__N_131qt_meta_tag_ZN3Gmx9GmxPluginE_tEEE, symObjAddr: 0x3518, symBinAddr: 0x1D898, symSize: 0x0 }
  - { offset: 0xA41B9, size: 0x8, addend: 0x0, symName: __ZN3Gmx9GmxPlugin36qt_staticMetaObjectRelocatingContentIN12_GLOBAL__N_131qt_meta_tag_ZN3Gmx9GmxPluginE_tEEE, symObjAddr: 0x3370, symBinAddr: 0x20608, symSize: 0x0 }
  - { offset: 0xA41D6, size: 0x8, addend: 0x0, symName: __ZN9QtPrivate25QMetaTypeInterfaceWrapperIN3Gmx9GmxPluginEE8metaTypeE, symObjAddr: 0x3570, symBinAddr: 0x210C8, symSize: 0x0 }
  - { offset: 0xA41E9, size: 0x8, addend: 0x0, symName: __ZN9QtPrivate16QMetaTypeForTypeIN3Gmx9GmxPluginEE4nameE, symObjAddr: 0x3508, symBinAddr: 0x1D888, symSize: 0x0 }
  - { offset: 0xA423E, size: 0x8, addend: 0x0, symName: __ZL29qt_pluginMetaDataV2_GmxPlugin, symObjAddr: 0x34C0, symBinAddr: 0x1D840, symSize: 0x0 }
  - { offset: 0xA425D, size: 0x8, addend: 0x0, symName: __ZN3Gmx9GmxPlugin18qt_static_metacallEP7QObjectN11QMetaObject4CallEiPPv, symObjAddr: 0x0, symBinAddr: 0x1AC00, symSize: 0x20 }
  - { offset: 0xA42BA, size: 0x8, addend: 0x0, symName: __ZNK3Gmx9GmxPlugin10metaObjectEv, symObjAddr: 0x20, symBinAddr: 0x1AC20, symSize: 0x60 }
  - { offset: 0xA42E2, size: 0x8, addend: 0x0, symName: __ZNK14QScopedPointerI11QObjectData21QScopedPointerDeleterIS0_EEptEv, symObjAddr: 0x80, symBinAddr: 0x1AC80, symSize: 0x20 }
  - { offset: 0xA4308, size: 0x8, addend: 0x0, symName: __ZN3Gmx9GmxPlugin11qt_metacastEPKc, symObjAddr: 0xA0, symBinAddr: 0x1ACA0, symSize: 0x70 }
  - { offset: 0xA433E, size: 0x8, addend: 0x0, symName: __ZN3Gmx9GmxPlugin11qt_metacallEN11QMetaObject4CallEiPPv, symObjAddr: 0x110, symBinAddr: 0x1AD10, symSize: 0x40 }
  - { offset: 0xA4390, size: 0x8, addend: 0x0, symName: __ZNK17QPluginMetaDataV2IL_ZL29qt_pluginMetaDataV2_GmxPluginEEcv15QPluginMetaDataEv, symObjAddr: 0x180, symBinAddr: 0x1AD80, symSize: 0x60 }
  - { offset: 0xA43B6, size: 0x8, addend: 0x0, symName: __ZN8QPointerI7QObjectED1Ev, symObjAddr: 0x2A0, symBinAddr: 0x1AEA0, symSize: 0x20 }
  - { offset: 0xA43E2, size: 0x8, addend: 0x0, symName: __ZNK8QPointerI7QObjectEcvbEv, symObjAddr: 0x2C0, symBinAddr: 0x1AEC0, symSize: 0x20 }
  - { offset: 0xA4408, size: 0x8, addend: 0x0, symName: __ZN8QPointerI7QObjectEaSEPS0_, symObjAddr: 0x2E0, symBinAddr: 0x1AEE0, symSize: 0x30 }
  - { offset: 0xA443C, size: 0x8, addend: 0x0, symName: __ZNK8QPointerI7QObjectEcvPS0_Ev, symObjAddr: 0x310, symBinAddr: 0x1AF10, symSize: 0x20 }
  - { offset: 0xA4462, size: 0x8, addend: 0x0, symName: __ZN3Gmx9GmxPluginD1Ev, symObjAddr: 0x330, symBinAddr: 0x1AF30, symSize: 0x20 }
  - { offset: 0xA448E, size: 0x8, addend: 0x0, symName: __ZN3Gmx9GmxPluginD0Ev, symObjAddr: 0x350, symBinAddr: 0x1AF50, symSize: 0x30 }
  - { offset: 0xA44BA, size: 0x8, addend: 0x0, symName: __ZNK5Tiled17WritableMapFormat12capabilitiesEv, symObjAddr: 0x380, symBinAddr: 0x1AF80, symSize: 0x30 }
  - { offset: 0xA44E0, size: 0x8, addend: 0x0, symName: __ZNK5Tiled17WritableMapFormat12supportsFileERK7QString, symObjAddr: 0x3B0, symBinAddr: 0x1AFB0, symSize: 0x20 }
  - { offset: 0xA4510, size: 0x8, addend: 0x0, symName: __ZNK5Tiled9MapFormat11outputFilesEPKNS_3MapERK7QString, symObjAddr: 0x3D0, symBinAddr: 0x1AFD0, symSize: 0x40 }
  - { offset: 0xA454E, size: 0x8, addend: 0x0, symName: __ZN5Tiled17WritableMapFormat4readERK7QString, symObjAddr: 0x410, symBinAddr: 0x1B010, symSize: 0x30 }
  - { offset: 0xA457E, size: 0x8, addend: 0x0, symName: __ZN9QtPrivate17MetaObjectForTypeIN3Gmx9GmxPluginEvE18metaObjectFunctionEPKNS_18QMetaTypeInterfaceE, symObjAddr: 0x440, symBinAddr: 0x1B040, symSize: 0x20 }
  - { offset: 0xA45D2, size: 0x8, addend: 0x0, symName: __ZZN9QtPrivate16QMetaTypeForTypeIN3Gmx9GmxPluginEE13getDefaultCtrEvENUlPKNS_18QMetaTypeInterfaceEPvE_8__invokeES6_S7_, symObjAddr: 0x460, symBinAddr: 0x1B060, symSize: 0x30 }
  - { offset: 0xA4637, size: 0x8, addend: 0x0, symName: __ZZN9QtPrivate16QMetaTypeForTypeIN3Gmx9GmxPluginEE7getDtorEvENUlPKNS_18QMetaTypeInterfaceEPvE_8__invokeES6_S7_, symObjAddr: 0x490, symBinAddr: 0x1B090, symSize: 0x30 }
  - { offset: 0xA4673, size: 0x8, addend: 0x0, symName: __ZZN9QtPrivate16QMetaTypeForTypeIN3Gmx9GmxPluginEE13getDefaultCtrEvENKUlPKNS_18QMetaTypeInterfaceEPvE_clES6_S7_, symObjAddr: 0x4C0, symBinAddr: 0x1B0C0, symSize: 0x30 }
  - { offset: 0xA46C2, size: 0x8, addend: 0x0, symName: __ZZN9QtPrivate16QMetaTypeForTypeIN3Gmx9GmxPluginEE7getDtorEvENKUlPKNS_18QMetaTypeInterfaceEPvE_clES6_S7_, symObjAddr: 0x4F0, symBinAddr: 0x1B0F0, symSize: 0x30 }
  - { offset: 0xA4707, size: 0x8, addend: 0x0, symName: __ZN8QPointerI7QObjectED2Ev, symObjAddr: 0x520, symBinAddr: 0x1B120, symSize: 0x20 }
  - { offset: 0xA4733, size: 0x8, addend: 0x0, symName: __ZN12QWeakPointerI7QObjectED1Ev, symObjAddr: 0x540, symBinAddr: 0x1B140, symSize: 0x20 }
  - { offset: 0xA475D, size: 0x8, addend: 0x0, symName: __ZN12QWeakPointerI7QObjectED2Ev, symObjAddr: 0x560, symBinAddr: 0x1B160, symSize: 0x60 }
  - { offset: 0xA4787, size: 0x8, addend: 0x0, symName: __ZN15QtSharedPointer20ExternalRefCountDataD1Ev, symObjAddr: 0x5E0, symBinAddr: 0x1B1C0, symSize: 0x20 }
  - { offset: 0xA47B1, size: 0x8, addend: 0x0, symName: __ZN15QtSharedPointer20ExternalRefCountDatadlEPv, symObjAddr: 0x600, symBinAddr: 0x1B1E0, symSize: 0x20 }
  - { offset: 0xA47D4, size: 0x8, addend: 0x0, symName: __ZN15QtSharedPointer20ExternalRefCountDataD2Ev, symObjAddr: 0x740, symBinAddr: 0x1B200, symSize: 0x70 }
  - { offset: 0xA47FE, size: 0x8, addend: 0x0, symName: __ZN3Gmx9GmxPluginD2Ev, symObjAddr: 0x870, symBinAddr: 0x1B270, symSize: 0x40 }
  - { offset: 0xA482A, size: 0x8, addend: 0x0, symName: __ZN5Tiled17WritableMapFormatD2Ev, symObjAddr: 0x8D0, symBinAddr: 0x1B2B0, symSize: 0x20 }
  - { offset: 0xA4856, size: 0x8, addend: 0x0, symName: __ZN5Tiled9MapFormatD2Ev, symObjAddr: 0xA80, symBinAddr: 0x1B2D0, symSize: 0x20 }
  - { offset: 0xA4882, size: 0x8, addend: 0x0, symName: __ZN5Tiled10FileFormatD2Ev, symObjAddr: 0xAA0, symBinAddr: 0x1B2F0, symSize: 0x20 }
  - { offset: 0xA48AE, size: 0x8, addend: 0x0, symName: __ZN6QFlagsIN5Tiled10FileFormat10CapabilityEEC1ES2_, symObjAddr: 0xAC0, symBinAddr: 0x1B310, symSize: 0x30 }
  - { offset: 0xA48E6, size: 0x8, addend: 0x0, symName: __ZN6QFlagsIN5Tiled10FileFormat10CapabilityEEC2ES2_, symObjAddr: 0xAF0, symBinAddr: 0x1B340, symSize: 0x30 }
  - { offset: 0xA491E, size: 0x8, addend: 0x0, symName: __ZN9QtPrivate19QFlagsStorageHelperIN5Tiled10FileFormat10CapabilityELi4EECI2NS_13QFlagsStorageIS3_EEENSt3__110in_place_tEj, symObjAddr: 0xB20, symBinAddr: 0x1B370, symSize: 0x30 }
  - { offset: 0xA495C, size: 0x8, addend: 0x0, symName: __ZN9QtPrivate13QFlagsStorageIN5Tiled10FileFormat10CapabilityEEC2ENSt3__110in_place_tEj, symObjAddr: 0xB60, symBinAddr: 0x1B3A0, symSize: 0x20 }
  - { offset: 0xA499E, size: 0x8, addend: 0x0, symName: __ZN5QListI7QStringEC1IS0_vEERKT_, symObjAddr: 0xB80, symBinAddr: 0x1B3C0, symSize: 0x30 }
  - { offset: 0xA49E2, size: 0x8, addend: 0x0, symName: __ZN5QListI7QStringEC2IS0_vEERKT_, symObjAddr: 0xBB0, symBinAddr: 0x1B3F0, symSize: 0x50 }
  - { offset: 0xA4A26, size: 0x8, addend: 0x0, symName: __ZN17QArrayDataPointerI7QStringEC1Ev, symObjAddr: 0xC00, symBinAddr: 0x1B440, symSize: 0x20 }
  - { offset: 0xA4A50, size: 0x8, addend: 0x0, symName: __ZN5QListI7QStringE6appendERKS0_, symObjAddr: 0xC20, symBinAddr: 0x1B460, symSize: 0x30 }
  - { offset: 0xA4A85, size: 0x8, addend: 0x0, symName: __ZN17QArrayDataPointerI7QStringED1Ev, symObjAddr: 0xC50, symBinAddr: 0x1B490, symSize: 0x20 }
  - { offset: 0xA4AAF, size: 0x8, addend: 0x0, symName: __ZN17QArrayDataPointerI7QStringEC2Ev, symObjAddr: 0xC70, symBinAddr: 0x1B4B0, symSize: 0x30 }
  - { offset: 0xA4AD9, size: 0x8, addend: 0x0, symName: __ZN5QListI7QStringE11emplaceBackIJRKS0_EEERS0_DpOT_, symObjAddr: 0xCA0, symBinAddr: 0x1B4E0, symSize: 0x70 }
  - { offset: 0xA4B1B, size: 0x8, addend: 0x0, symName: __ZN17QArrayDataPointerI7QStringEptEv, symObjAddr: 0xD10, symBinAddr: 0x1B550, symSize: 0x10 }
  - { offset: 0xA4B41, size: 0x8, addend: 0x0, symName: __ZN9QtPrivate16QMovableArrayOpsI7QStringE7emplaceIJRKS1_EEEvxDpOT_, symObjAddr: 0xD20, symBinAddr: 0x1B560, symSize: 0x210 }
  - { offset: 0xA4BCE, size: 0x8, addend: 0x0, symName: __ZN5QListI7QStringE3endEv, symObjAddr: 0xF30, symBinAddr: 0x1B770, symSize: 0x40 }
  - { offset: 0xA4BF4, size: 0x8, addend: 0x0, symName: __ZNK5QListI7QStringE8iteratormiEx, symObjAddr: 0xF70, symBinAddr: 0x1B7B0, symSize: 0x40 }
  - { offset: 0xA4C28, size: 0x8, addend: 0x0, symName: __ZNK5QListI7QStringE8iteratordeEv, symObjAddr: 0xFB0, symBinAddr: 0x1B7F0, symSize: 0x20 }
  - { offset: 0xA4C4E, size: 0x8, addend: 0x0, symName: __ZNK17QArrayDataPointerI7QStringE11needsDetachEv, symObjAddr: 0xFD0, symBinAddr: 0x1B810, symSize: 0x40 }
  - { offset: 0xA4C74, size: 0x8, addend: 0x0, symName: __ZNK17QArrayDataPointerI7QStringE14freeSpaceAtEndEv, symObjAddr: 0x1010, symBinAddr: 0x1B850, symSize: 0x60 }
  - { offset: 0xA4C9A, size: 0x8, addend: 0x0, symName: __ZN17QArrayDataPointerI7QStringE3endEv, symObjAddr: 0x1070, symBinAddr: 0x1B8B0, symSize: 0x30 }
  - { offset: 0xA4CC0, size: 0x8, addend: 0x0, symName: __ZNK17QArrayDataPointerI7QStringE16freeSpaceAtBeginEv, symObjAddr: 0x10D0, symBinAddr: 0x1B8E0, symSize: 0x60 }
  - { offset: 0xA4CE6, size: 0x8, addend: 0x0, symName: __ZN17QArrayDataPointerI7QStringE5beginEv, symObjAddr: 0x1130, symBinAddr: 0x1B940, symSize: 0x20 }
  - { offset: 0xA4D0C, size: 0x8, addend: 0x0, symName: __ZN17QArrayDataPointerI7QStringE13detachAndGrowEN10QArrayData14GrowthPositionExPPKS0_PS1_, symObjAddr: 0x1150, symBinAddr: 0x1B960, symSize: 0x100 }
  - { offset: 0xA4DAB, size: 0x8, addend: 0x0, symName: __ZN9QtPrivate16QMovableArrayOpsI7QStringE8InserterC1EP17QArrayDataPointerIS1_Exx, symObjAddr: 0x1280, symBinAddr: 0x1BA60, symSize: 0x40 }
  - { offset: 0xA4E02, size: 0x8, addend: 0x0, symName: __ZN9QtPrivate16QMovableArrayOpsI7QStringE8Inserter9insertOneEOS1_, symObjAddr: 0x12C0, symBinAddr: 0x1BAA0, symSize: 0x40 }
  - { offset: 0xA4E37, size: 0x8, addend: 0x0, symName: __ZN9QtPrivate16QMovableArrayOpsI7QStringE8InserterD1Ev, symObjAddr: 0x1300, symBinAddr: 0x1BAE0, symSize: 0x20 }
  - { offset: 0xA4E61, size: 0x8, addend: 0x0, symName: __ZN17QArrayDataPointerI7QStringE4dataEv, symObjAddr: 0x1370, symBinAddr: 0x1BB00, symSize: 0x20 }
  - { offset: 0xA4E87, size: 0x8, addend: 0x0, symName: __ZN15QTypedArrayDataI7QStringE9dataStartEP10QArrayDatax, symObjAddr: 0x15C0, symBinAddr: 0x1BB20, symSize: 0x80 }
  - { offset: 0xA4EC6, size: 0x8, addend: 0x0, symName: __ZN17QArrayDataPointerI7QStringE20tryReadjustFreeSpaceEN10QArrayData14GrowthPositionExPPKS0_, symObjAddr: 0x1640, symBinAddr: 0x1BBA0, symSize: 0x1E0 }
  - { offset: 0xA4F56, size: 0x8, addend: 0x0, symName: __ZN17QArrayDataPointerI7QStringE17reallocateAndGrowEN10QArrayData14GrowthPositionExPS1_, symObjAddr: 0x1820, symBinAddr: 0x1BD80, symSize: 0x260 }
  - { offset: 0xA4FD2, size: 0x8, addend: 0x0, symName: __ZNK17QArrayDataPointerI7QStringE22constAllocatedCapacityEv, symObjAddr: 0x1A80, symBinAddr: 0x1BFE0, symSize: 0x40 }
  - { offset: 0xA4FF8, size: 0x8, addend: 0x0, symName: __ZN17QArrayDataPointerI7QStringE8relocateExPPKS0_, symObjAddr: 0x1B10, symBinAddr: 0x1C020, symSize: 0x80 }
  - { offset: 0xA505B, size: 0x8, addend: 0x0, symName: __ZNKSt3__14lessIvEclB9nqe210106IRPK7QStringS6_EEDTltclsr3stdE7forwardIT_Efp_Eclsr3stdE7forwardIT0_Efp0_EEOS7_OS8_, symObjAddr: 0x1D60, symBinAddr: 0x1C270, symSize: 0x30 }
  - { offset: 0xA50B1, size: 0x8, addend: 0x0, symName: __ZNK17QArrayDataPointerI7QStringE4dataEv, symObjAddr: 0x1D90, symBinAddr: 0x1C2A0, symSize: 0x20 }
  - { offset: 0xA50D7, size: 0x8, addend: 0x0, symName: __ZNK17QArrayDataPointerI7QStringE5beginEv, symObjAddr: 0x1DE0, symBinAddr: 0x1C2F0, symSize: 0x20 }
  - { offset: 0xA50FD, size: 0x8, addend: 0x0, symName: __ZNK17QArrayDataPointerI7QStringE3endEv, symObjAddr: 0x1E00, symBinAddr: 0x1C310, symSize: 0x30 }
  - { offset: 0xA5123, size: 0x8, addend: 0x0, symName: __ZN9QtPrivate16QMovableArrayOpsI7QStringE10reallocateExN10QArrayData16AllocationOptionE, symObjAddr: 0x1E30, symBinAddr: 0x1C340, symSize: 0x80 }
  - { offset: 0xA5176, size: 0x8, addend: 0x0, symName: __ZN17QArrayDataPointerI7QStringE12allocateGrowERKS1_xN10QArrayData14GrowthPositionE, symObjAddr: 0x1EB0, symBinAddr: 0x1C3C0, symSize: 0x230 }
  - { offset: 0xA5211, size: 0x8, addend: 0x0, symName: __ZN9QtPrivate16QGenericArrayOpsI7QStringE10copyAppendEPKS1_S4_, symObjAddr: 0x20E0, symBinAddr: 0x1C5F0, symSize: 0x150 }
  - { offset: 0xA5264, size: 0x8, addend: 0x0, symName: __ZN9QtPrivate16QGenericArrayOpsI7QStringE10moveAppendEPS1_S3_, symObjAddr: 0x2230, symBinAddr: 0x1C740, symSize: 0x150 }
  - { offset: 0xA52B7, size: 0x8, addend: 0x0, symName: __ZN17QArrayDataPointerI7QStringE4swapERS1_, symObjAddr: 0x2380, symBinAddr: 0x1C890, symSize: 0x60 }
  - { offset: 0xA52EB, size: 0x8, addend: 0x0, symName: __ZN15QTypedArrayDataI7QStringE19reallocateUnalignedEPS1_PS0_xN10QArrayData16AllocationOptionE, symObjAddr: 0x23E0, symBinAddr: 0x1C8F0, symSize: 0x70 }
  - { offset: 0xA5352, size: 0x8, addend: 0x0, symName: __ZNSt3__14pairIP15QTypedArrayDataI7QStringEPS2_EC1B9nqe210106IS4_S5_Li0EEEOT_OT0_, symObjAddr: 0x2450, symBinAddr: 0x1C960, symSize: 0x30 }
  - { offset: 0xA53B0, size: 0x8, addend: 0x0, symName: __ZNSt3__14pairIP15QTypedArrayDataI7QStringEPS2_EC2B9nqe210106IS4_S5_Li0EEEOT_OT0_, symObjAddr: 0x2480, symBinAddr: 0x1C990, symSize: 0x30 }
  - { offset: 0xA540E, size: 0x8, addend: 0x0, symName: __ZNK17QArrayDataPointerI7QStringE14detachCapacityEx, symObjAddr: 0x24F0, symBinAddr: 0x1C9C0, symSize: 0x50 }
  - { offset: 0xA5443, size: 0x8, addend: 0x0, symName: __ZN15QTypedArrayDataI7QStringE8allocateExN10QArrayData16AllocationOptionE, symObjAddr: 0x2540, symBinAddr: 0x1CA10, symSize: 0x60 }
  - { offset: 0xA5490, size: 0x8, addend: 0x0, symName: __ZN17QArrayDataPointerI7QStringEC1EP15QTypedArrayDataIS0_EPS0_x, symObjAddr: 0x25E0, symBinAddr: 0x1CAB0, symSize: 0x40 }
  - { offset: 0xA54E4, size: 0x8, addend: 0x0, symName: __ZNK17QArrayDataPointerI7QStringE5flagsEv, symObjAddr: 0x2620, symBinAddr: 0x1CAF0, symSize: 0x40 }
  - { offset: 0xA550A, size: 0x8, addend: 0x0, symName: __ZNSt3__110__get_pairILm0EE3getB9nqe210106IP15QTypedArrayDataI7QStringEPS4_EEOT_ONS_4pairIS8_T0_EE, symObjAddr: 0x27F0, symBinAddr: 0x1CB30, symSize: 0x10 }
  - { offset: 0xA5540, size: 0x8, addend: 0x0, symName: __ZNSt3__110__get_pairILm1EE3getB9nqe210106IP15QTypedArrayDataI7QStringEPS4_EEOT0_ONS_4pairIT_S8_EE, symObjAddr: 0x2800, symBinAddr: 0x1CB40, symSize: 0x20 }
  - { offset: 0xA5576, size: 0x8, addend: 0x0, symName: __ZN17QArrayDataPointerI7QStringEC2EP15QTypedArrayDataIS0_EPS0_x, symObjAddr: 0x2820, symBinAddr: 0x1CB60, symSize: 0x40 }
  - { offset: 0xA55CA, size: 0x8, addend: 0x0, symName: __ZNK17QArrayDataPointerI7QStringE9isMutableEv, symObjAddr: 0x28C0, symBinAddr: 0x1CBA0, symSize: 0x20 }
  - { offset: 0xA55F0, size: 0x8, addend: 0x0, symName: __ZNK17QArrayDataPointerI7QStringE8isSharedEv, symObjAddr: 0x28E0, symBinAddr: 0x1CBC0, symSize: 0x40 }
  - { offset: 0xA5615, size: 0x8, addend: 0x0, symName: __Z11qt_ptr_swapI15QTypedArrayDataI7QStringEEvRPT_S5_, symObjAddr: 0x2950, symBinAddr: 0x1CC00, symSize: 0x40 }
  - { offset: 0xA5662, size: 0x8, addend: 0x0, symName: __Z11qt_ptr_swapI7QStringEvRPT_S3_, symObjAddr: 0x2990, symBinAddr: 0x1CC40, symSize: 0x40 }
  - { offset: 0xA56B0, size: 0x8, addend: 0x0, symName: __ZN9QtPrivate16QMovableArrayOpsI7QStringE8InserterC2EP17QArrayDataPointerIS1_Exx, symObjAddr: 0x2B90, symBinAddr: 0x1CC80, symSize: 0x80 }
  - { offset: 0xA5707, size: 0x8, addend: 0x0, symName: __ZN9QtPrivate16QMovableArrayOpsI7QStringE8Inserter10verifyPostEv, symObjAddr: 0x2C10, symBinAddr: 0x1CD00, symSize: 0x40 }
  - { offset: 0xA572D, size: 0x8, addend: 0x0, symName: __ZN9QtPrivate16QMovableArrayOpsI7QStringE8InserterD2Ev, symObjAddr: 0x2C50, symBinAddr: 0x1CD40, symSize: 0x30 }
  - { offset: 0xA5775, size: 0x8, addend: 0x0, symName: __ZN5QListI7QStringE6detachEv, symObjAddr: 0x2C80, symBinAddr: 0x1CD70, symSize: 0x20 }
  - { offset: 0xA579B, size: 0x8, addend: 0x0, symName: __ZN5QListI7QStringE8iteratorC1EPS0_, symObjAddr: 0x2CA0, symBinAddr: 0x1CD90, symSize: 0x30 }
  - { offset: 0xA57D3, size: 0x8, addend: 0x0, symName: __ZN17QArrayDataPointerI7QStringE6detachEPS1_, symObjAddr: 0x2CD0, symBinAddr: 0x1CDC0, symSize: 0x40 }
  - { offset: 0xA5807, size: 0x8, addend: 0x0, symName: __ZN5QListI7QStringE8iteratorC2EPS0_, symObjAddr: 0x2D10, symBinAddr: 0x1CE00, symSize: 0x20 }
  - { offset: 0xA583F, size: 0x8, addend: 0x0, symName: __ZN17QArrayDataPointerI7QStringED2Ev, symObjAddr: 0x2D30, symBinAddr: 0x1CE20, symSize: 0x50 }
  - { offset: 0xA5869, size: 0x8, addend: 0x0, symName: __ZN17QArrayDataPointerI7QStringE5derefEv, symObjAddr: 0x2D80, symBinAddr: 0x1CE70, symSize: 0x40 }
  - { offset: 0xA588F, size: 0x8, addend: 0x0, symName: __ZN9QtPrivate16QGenericArrayOpsI7QStringE10destroyAllEv, symObjAddr: 0x2DC0, symBinAddr: 0x1CEB0, symSize: 0x90 }
  - { offset: 0xA58B5, size: 0x8, addend: 0x0, symName: __ZN15QTypedArrayDataI7QStringE10deallocateEP10QArrayData, symObjAddr: 0x2E50, symBinAddr: 0x1CF40, symSize: 0x30 }
  - { offset: 0xA58D8, size: 0x8, addend: 0x0, symName: __ZNSt3__110unique_ptrIN5Tiled3MapENS_14default_deleteIS2_EEEC1B9nqe210106ILb1EvEEDn, symObjAddr: 0x2F10, symBinAddr: 0x1D000, symSize: 0x30 }
  - { offset: 0xA5918, size: 0x8, addend: 0x0, symName: __ZNSt3__110unique_ptrIN5Tiled3MapENS_14default_deleteIS2_EEEC2B9nqe210106ILb1EvEEDn, symObjAddr: 0x2F40, symBinAddr: 0x1D030, symSize: 0x20 }
  - { offset: 0xA5958, size: 0x8, addend: 0x0, symName: __ZNK8QPointerI7QObjectE6isNullEv, symObjAddr: 0x2F60, symBinAddr: 0x1D050, symSize: 0x20 }
  - { offset: 0xA597E, size: 0x8, addend: 0x0, symName: __ZNK12QWeakPointerI7QObjectE6isNullEv, symObjAddr: 0x2F80, symBinAddr: 0x1D070, symSize: 0x60 }
  - { offset: 0xA59A4, size: 0x8, addend: 0x0, symName: __ZN12QWeakPointerI7QObjectE6assignIS0_EERS1_PT_, symObjAddr: 0x2FE0, symBinAddr: 0x1D0D0, symSize: 0x50 }
  - { offset: 0xA59E2, size: 0x8, addend: 0x0, symName: __ZN12QWeakPointerI7QObjectEC1EPS0_b, symObjAddr: 0x3030, symBinAddr: 0x1D120, symSize: 0x40 }
  - { offset: 0xA5A27, size: 0x8, addend: 0x0, symName: __ZN12QWeakPointerI7QObjectEaSEOS1_, symObjAddr: 0x3070, symBinAddr: 0x1D160, symSize: 0x50 }
  - { offset: 0xA5A6B, size: 0x8, addend: 0x0, symName: __ZN12QWeakPointerI7QObjectEC2EPS0_b, symObjAddr: 0x30C0, symBinAddr: 0x1D1B0, symSize: 0x60 }
  - { offset: 0xA5AB0, size: 0x8, addend: 0x0, symName: __ZN12QWeakPointerI7QObjectEC1EOS1_, symObjAddr: 0x3120, symBinAddr: 0x1D210, symSize: 0x30 }
  - { offset: 0xA5AE9, size: 0x8, addend: 0x0, symName: __ZN12QWeakPointerI7QObjectE4swapERS1_, symObjAddr: 0x3150, symBinAddr: 0x1D240, symSize: 0x40 }
  - { offset: 0xA5B1E, size: 0x8, addend: 0x0, symName: __ZN12QWeakPointerI7QObjectEC2EOS1_, symObjAddr: 0x3190, symBinAddr: 0x1D280, symSize: 0x40 }
  - { offset: 0xA5B56, size: 0x8, addend: 0x0, symName: __Z11qt_ptr_swapIN15QtSharedPointer20ExternalRefCountDataEEvRPT_S4_, symObjAddr: 0x31D0, symBinAddr: 0x1D2C0, symSize: 0x40 }
  - { offset: 0xA5BA3, size: 0x8, addend: 0x0, symName: __Z11qt_ptr_swapI7QObjectEvRPT_S3_, symObjAddr: 0x3210, symBinAddr: 0x1D300, symSize: 0x40 }
  - { offset: 0xA5BF1, size: 0x8, addend: 0x0, symName: __ZNK8QPointerI7QObjectE4dataEv, symObjAddr: 0x3250, symBinAddr: 0x1D340, symSize: 0x20 }
  - { offset: 0xA5C17, size: 0x8, addend: 0x0, symName: __ZNK12QWeakPointerI7QObjectE12internalDataEv, symObjAddr: 0x3270, symBinAddr: 0x1D360, symSize: 0x4D }
...
