---
triple:          'x86_64-apple-darwin'
binary-path:     '/Users/dz0400621/Documents/project/tiled/debug/rpmap.bf8dc609/librpmap.dylib'
relocations:
  - { offset: 0x3F, size: 0x8, addend: 0x0, symName: _qt_version_tag_6_11_use, symObjAddr: 0x18750, symBinAddr: 0x4D000, symSize: 0x0 }
  - { offset: 0x32BF, size: 0x8, addend: 0x0, symName: __ZN9QtPrivate16QCheckedIntegerseqERKNS0_11QCheckedIntIiNS0_13SafeCheckImplIiEENS0_18AssertReportPolicyEEES7_, symObjAddr: 0xE160, symBinAddr: 0x12160, symSize: 0x40 }
  - { offset: 0x3311, size: 0x8, addend: 0x0, symName: __ZN9QtPrivate16QCheckedIntegers13comparesEqualENS0_11QCheckedIntIiNS0_13SafeCheckImplIiEENS0_18AssertReportPolicyEEES5_, symObjAddr: 0xE1A0, symBinAddr: 0x121A0, symSize: 0x20 }
  - { offset: 0x334E, size: 0x8, addend: 0x0, symName: __ZN9QtPrivate16QCheckedIntegersplIiLb1EEENS0_11QCheckedIntIiNS0_13SafeCheckImplIiEENS0_18AssertReportPolicyEEES6_T_, symObjAddr: 0xF300, symBinAddr: 0x13110, symSize: 0x40 }
  - { offset: 0x3397, size: 0x8, addend: 0x0, symName: __ZN9QtPrivate16QCheckedIntegersmiENS0_11QCheckedIntIiNS0_13SafeCheckImplIiEENS0_18AssertReportPolicyEEES5_, symObjAddr: 0xF340, symBinAddr: 0x13150, symSize: 0x60 }
  - { offset: 0x33ED, size: 0x8, addend: 0x0, symName: __ZN9QtPrivate16QCheckedIntegersplENS0_11QCheckedIntIiNS0_13SafeCheckImplIiEENS0_18AssertReportPolicyEEES5_, symObjAddr: 0xF3B0, symBinAddr: 0x131C0, symSize: 0x60 }
  - { offset: 0x707E, size: 0x8, addend: 0x0, symName: __ZN9QtPrivate20q_relocate_overlap_nIjxEEvPT_T0_S2_, symObjAddr: 0x16700, symBinAddr: 0x1A0E0, symSize: 0x50 }
  - { offset: 0x70D4, size: 0x8, addend: 0x0, symName: __ZN9QtPrivateL19q_points_into_rangeI17QArrayDataPointerIjEPKjEEbRKT0_RKT_, symObjAddr: 0x16750, symBinAddr: 0x1A130, symSize: 0xA0 }
  - { offset: 0x7120, size: 0x8, addend: 0x0, symName: __ZN9QtPrivateL19q_points_into_rangeIjNSt3__14lessIvEEEEbPKT_S6_S6_T0_, symObjAddr: 0x167F0, symBinAddr: 0x1A1D0, symSize: 0x50 }
  - { offset: 0x7589, size: 0x8, addend: 0x0, symName: __ZN5RpMapL9writeTileER16QXmlStreamWriteriiPKN5Tiled4TileEiRK7QStringbb, symObjAddr: 0x10F0, symBinAddr: 0x5400, symSize: 0x4A10 }
  - { offset: 0x8147, size: 0x8, addend: 0x0, symName: __ZN5RpMapL9writeGUIDER16QXmlStreamWriterRK7QStringRK5QUuid, symObjAddr: 0x85F0, symBinAddr: 0xC8B0, symSize: 0x1E0 }
  - { offset: 0x81B0, size: 0x8, addend: 0x0, symName: __ZN5RpMapL9writeGridER16QXmlStreamWriterPKN5Tiled3MapE, symObjAddr: 0x87D0, symBinAddr: 0xCA90, symSize: 0x9A0 }
  - { offset: 0x8342, size: 0x8, addend: 0x0, symName: __ZN5RpMapL10writeClassER16QXmlStreamWriterRK7QStringS4_, symObjAddr: 0x9170, symBinAddr: 0xD430, symSize: 0x140 }
  - { offset: 0x83AB, size: 0x8, addend: 0x0, symName: __ZN5RpMapL10writeZone2ER16QXmlStreamWriter, symObjAddr: 0x92B0, symBinAddr: 0xD570, symSize: 0x2E40 }
  - { offset: 0x8B51, size: 0x8, addend: 0x0, symName: __ZN5RpMapL10writeEntryER16QXmlStreamWriterRK7QStringS4_, symObjAddr: 0xCE20, symBinAddr: 0x110B0, symSize: 0x300 }
  - { offset: 0x8C08, size: 0x8, addend: 0x0, symName: __ZN5RpMapL14writeCellShapeER16QXmlStreamWriterPKN5Tiled3MapE, symObjAddr: 0xF990, symBinAddr: 0x13690, symSize: 0x1FD0 }
  - { offset: 0x23214, size: 0x8, addend: 0x0, symName: __ZNSt3__117__cxx_atomic_loadB9nqe210106IiEET_PKNS_22__cxx_atomic_base_implIS1_EENS_12memory_orderE, symObjAddr: 0xF110, symBinAddr: 0x12F20, symSize: 0x50 }
  - { offset: 0x23262, size: 0x8, addend: 0x0, symName: __ZNSt3__17advanceB9nqe210106INS_21__tree_const_iteratorINS_12__value_typeI7QStringS3_EEPNS_11__tree_nodeIS4_PvEElEEllLi0EEEvRT_T0_, symObjAddr: 0x13FB0, symBinAddr: 0x17A30, symSize: 0x30 }
  - { offset: 0x232F8, size: 0x8, addend: 0x0, symName: __ZNSt3__18exchangeB9nqe210106IP15QTypedArrayDataIDsEDnEET_RS4_OT0_, symObjAddr: 0xD430, symBinAddr: 0x116C0, symSize: 0x30 }
  - { offset: 0x23352, size: 0x8, addend: 0x0, symName: __ZNSt3__18exchangeB9nqe210106IPDsDnEET_RS2_OT0_, symObjAddr: 0xD460, symBinAddr: 0x116F0, symSize: 0x30 }
  - { offset: 0x233AC, size: 0x8, addend: 0x0, symName: __ZNSt3__18exchangeB9nqe210106IxiEET_RS1_OT0_, symObjAddr: 0xD490, symBinAddr: 0x11720, symSize: 0x30 }
  - { offset: 0x23406, size: 0x8, addend: 0x0, symName: __ZNSt3__122__cxx_atomic_fetch_addB9nqe210106IiEET_PNS_22__cxx_atomic_base_implIS1_EES1_NS_12memory_orderE, symObjAddr: 0xD640, symBinAddr: 0x11830, symSize: 0xB0 }
  - { offset: 0x23457, size: 0x8, addend: 0x0, symName: __ZNSt3__1neB9nqe210106ERKNS_20__map_const_iteratorINS_21__tree_const_iteratorINS_12__value_typeIiPN5Tiled4TileEEEPNS_11__tree_nodeIS6_PvEElEEEESE_, symObjAddr: 0xE7E0, symBinAddr: 0x127E0, symSize: 0x30 }
  - { offset: 0x23494, size: 0x8, addend: 0x0, symName: __ZNSt3__1neB9nqe210106ERKNS_21__tree_const_iteratorINS_12__value_typeIiPN5Tiled4TileEEEPNS_11__tree_nodeIS5_PvEElEESC_, symObjAddr: 0xEA60, symBinAddr: 0x12A60, symSize: 0x30 }
  - { offset: 0x23504, size: 0x8, addend: 0x0, symName: __ZNSt3__1eqB9nqe210106ERKNS_21__tree_const_iteratorINS_12__value_typeIiPN5Tiled4TileEEEPNS_11__tree_nodeIS5_PvEElEESC_, symObjAddr: 0xEBF0, symBinAddr: 0x12BF0, symSize: 0x30 }
  - { offset: 0x23574, size: 0x8, addend: 0x0, symName: __ZNSt3__122__cxx_atomic_fetch_subB9nqe210106IiEET_PNS_22__cxx_atomic_base_implIS1_EES1_NS_12memory_orderE, symObjAddr: 0xEFE0, symBinAddr: 0x12E30, symSize: 0xC0 }
  - { offset: 0x235C5, size: 0x8, addend: 0x0, symName: __ZNSt3__13maxB9nqe210106IiEERKT_S3_S3_, symObjAddr: 0xF960, symBinAddr: 0x13660, symSize: 0x30 }
  - { offset: 0x23608, size: 0x8, addend: 0x0, symName: __ZNSt3__13maxB9nqe210106IiNS_6__lessIvvEEEERKT_S5_S5_T0_, symObjAddr: 0x11960, symBinAddr: 0x15660, symSize: 0x50 }
  - { offset: 0x236A9, size: 0x8, addend: 0x0, symName: __ZNSt3__14swapB9nqe210106IxEENS_9enable_ifIXaasr21is_move_constructibleIT_EE5valuesr18is_move_assignableIS2_EE5valueEvE4typeERS2_S5_, symObjAddr: 0x11AF0, symBinAddr: 0x156E0, symSize: 0x40 }
  - { offset: 0x236FA, size: 0x8, addend: 0x0, symName: __ZNSt3__112__destroy_atB9nqe210106INS_4pairIK7QStringS2_EELi0EEEvPT_, symObjAddr: 0x124F0, symBinAddr: 0x15FB0, symSize: 0x20 }
  - { offset: 0x23731, size: 0x8, addend: 0x0, symName: __ZNSt3__119__libcpp_deallocateB9nqe210106INS_11__tree_nodeINS_12__value_typeI7QStringS3_EEPvEEEEvPNS_15__type_identityIT_E4typeENS_15__element_countEm, symObjAddr: 0x12590, symBinAddr: 0x16050, symSize: 0x50 }
  - { offset: 0x2378C, size: 0x8, addend: 0x0, symName: __ZNSt3__124__is_overaligned_for_newB9nqe210106Em, symObjAddr: 0x125E0, symBinAddr: 0x160A0, symSize: 0x20 }
  - { offset: 0x237B8, size: 0x8, addend: 0x0, symName: __ZNSt3__1neB9nqe210106ERKNS_20__map_const_iteratorINS_21__tree_const_iteratorINS_12__value_typeI7QStringS3_EEPNS_11__tree_nodeIS4_PvEElEEEESC_, symObjAddr: 0x12F20, symBinAddr: 0x169B0, symSize: 0x30 }
  - { offset: 0x237F5, size: 0x8, addend: 0x0, symName: __ZNSt3__1neB9nqe210106ERKNS_21__tree_const_iteratorINS_12__value_typeI7QStringS2_EEPNS_11__tree_nodeIS3_PvEElEESA_, symObjAddr: 0x13020, symBinAddr: 0x16AB0, symSize: 0x30 }
  - { offset: 0x23832, size: 0x8, addend: 0x0, symName: __ZNSt3__1eqB9nqe210106ERKNS_21__tree_const_iteratorINS_12__value_typeI7QStringS2_EEPNS_11__tree_nodeIS3_PvEElEESA_, symObjAddr: 0x13050, symBinAddr: 0x16AE0, symSize: 0x30 }
  - { offset: 0x23878, size: 0x8, addend: 0x0, symName: __ZNSt3__14nextB9nqe210106INS_21__tree_const_iteratorINS_12__value_typeI7QStringS3_EEPNS_11__tree_nodeIS4_PvEElEELi0EEET_SA_NS_15iterator_traitsISA_E15difference_typeE, symObjAddr: 0x13A50, symBinAddr: 0x174E0, symSize: 0x30 }
  - { offset: 0x238C1, size: 0x8, addend: 0x0, symName: __ZNSt3__116__tree_prev_iterB9nqe210106IPNS_16__tree_node_baseIPvEEPNS_15__tree_end_nodeIS4_EEEET_T0_, symObjAddr: 0x13E90, symBinAddr: 0x17910, symSize: 0x90 }
  - { offset: 0x2390D, size: 0x8, addend: 0x0, symName: __ZNSt3__110__tree_maxB9nqe210106IPNS_16__tree_node_baseIPvEEEET_S5_, symObjAddr: 0x13F20, symBinAddr: 0x179A0, symSize: 0x30 }
  - { offset: 0x23942, size: 0x8, addend: 0x0, symName: __ZNSt3__120__tree_is_left_childB9nqe210106IPNS_16__tree_node_baseIPvEEEEbT_, symObjAddr: 0x13F50, symBinAddr: 0x179D0, symSize: 0x20 }
  - { offset: 0x23977, size: 0x8, addend: 0x0, symName: __ZNSt3__121__convert_to_integralB9nqe210106El, symObjAddr: 0x13FE0, symBinAddr: 0x17A60, symSize: 0x10 }
  - { offset: 0x239A3, size: 0x8, addend: 0x0, symName: __ZNSt3__19__advanceB9nqe210106INS_21__tree_const_iteratorINS_12__value_typeI7QStringS3_EEPNS_11__tree_nodeIS4_PvEElEEEEvRT_NS_15iterator_traitsISA_E15difference_typeENS_26bidirectional_iterator_tagE, symObjAddr: 0x13FF0, symBinAddr: 0x17A70, symSize: 0x70 }
  - { offset: 0x239ED, size: 0x8, addend: 0x0, symName: __ZNSt3__116__tree_next_iterB9nqe210106IPNS_15__tree_end_nodeIPNS_16__tree_node_baseIPvEEEES5_EET_T0_, symObjAddr: 0x14090, symBinAddr: 0x17B10, symSize: 0x70 }
  - { offset: 0x23A2B, size: 0x8, addend: 0x0, symName: __ZNSt3__110__tree_minB9nqe210106IPNS_16__tree_node_baseIPvEEEET_S5_, symObjAddr: 0x14100, symBinAddr: 0x17B80, symSize: 0x30 }
  - { offset: 0x23A7E, size: 0x8, addend: 0x0, symName: __ZNSt3__117__libcpp_allocateB9nqe210106INS_11__tree_nodeINS_12__value_typeI7QStringS3_EEPvEEEEPT_NS_15__element_countEm, symObjAddr: 0x142F0, symBinAddr: 0x17D70, symSize: 0x60 }
  - { offset: 0x23AD0, size: 0x8, addend: 0x0, symName: __ZNSt3__127__tree_balance_after_insertB9nqe210106IPNS_16__tree_node_baseIPvEEEEvT_S5_, symObjAddr: 0x144F0, symBinAddr: 0x17F70, symSize: 0x210 }
  - { offset: 0x23B4E, size: 0x8, addend: 0x0, symName: __ZNSt3__118__tree_left_rotateB9nqe210106IPNS_16__tree_node_baseIPvEEEEvT_, symObjAddr: 0x14720, symBinAddr: 0x181A0, symSize: 0xC0 }
  - { offset: 0x23B8D, size: 0x8, addend: 0x0, symName: __ZNSt3__119__tree_right_rotateB9nqe210106IPNS_16__tree_node_baseIPvEEEEvT_, symObjAddr: 0x147E0, symBinAddr: 0x18260, symSize: 0xB0 }
  - { offset: 0x23BCC, size: 0x8, addend: 0x0, symName: __ZNSt3__1neB9nqe210106ERKNS_15__tree_iteratorINS_12__value_typeI7QStringS2_EEPNS_11__tree_nodeIS3_PvEElEESA_, symObjAddr: 0x14D60, symBinAddr: 0x187E0, symSize: 0x30 }
  - { offset: 0x23C09, size: 0x8, addend: 0x0, symName: __ZNSt3__1eqB9nqe210106ERKNS_15__tree_iteratorINS_12__value_typeI7QStringS2_EEPNS_11__tree_nodeIS3_PvEElEESA_, symObjAddr: 0x14DB0, symBinAddr: 0x18830, symSize: 0x30 }
  - { offset: 0x23C46, size: 0x8, addend: 0x0, symName: __ZNSt3__1eqB9nqe210106ERKNS_14__map_iteratorINS_15__tree_iteratorINS_12__value_typeI7QStringS3_EEPNS_11__tree_nodeIS4_PvEElEEEESC_, symObjAddr: 0x14ED0, symBinAddr: 0x18950, symSize: 0x30 }
  - { offset: 0x23CB6, size: 0x8, addend: 0x0, symName: __ZNSt3__1neB9nqe210106ERKNS_14__map_iteratorINS_15__tree_iteratorINS_12__value_typeI7QStringS3_EEPNS_11__tree_nodeIS4_PvEElEEEESC_, symObjAddr: 0x15520, symBinAddr: 0x18FA0, symSize: 0x30 }
  - { offset: 0x23CF3, size: 0x8, addend: 0x0, symName: __ZNSt3__19make_pairB9nqe210106IRNS_14__map_iteratorINS_15__tree_iteratorINS_12__value_typeI7QStringS4_EEPNS_11__tree_nodeIS5_PvEElEEEEbEENS_4pairINS_18__unwrap_referenceIu7__decayIT_EE4typeENSE_Iu7__decayIT0_EE4typeEEEOSF_OSJ_, symObjAddr: 0x15580, symBinAddr: 0x19000, symSize: 0x30 }
  - { offset: 0x23D42, size: 0x8, addend: 0x0, symName: __ZNSt3__19make_pairB9nqe210106INS_14__map_iteratorINS_15__tree_iteratorINS_12__value_typeI7QStringS4_EEPNS_11__tree_nodeIS5_PvEElEEEEbEENS_4pairINS_18__unwrap_referenceIu7__decayIT_EE4typeENSD_Iu7__decayIT0_EE4typeEEEOSE_OSI_, symObjAddr: 0x155B0, symBinAddr: 0x19030, symSize: 0x30 }
  - { offset: 0x23DE0, size: 0x8, addend: 0x0, symName: __ZNSt3__14dataB9nqe210106I17QArrayDataPointerIjEEEDTcldtfp_4dataEERKT_, symObjAddr: 0x16840, symBinAddr: 0x1A220, symSize: 0x20 }
  - { offset: 0x23E15, size: 0x8, addend: 0x0, symName: __ZNSt3__18distanceB9nqe210106IPKjEENS_15iterator_traitsIT_E15difference_typeES4_S4_, symObjAddr: 0x16860, symBinAddr: 0x1A240, symSize: 0x30 }
  - { offset: 0x23E58, size: 0x8, addend: 0x0, symName: __ZNSt3__15beginB9nqe210106I17QArrayDataPointerIjEEEDTcldtfp_5beginEERKT_, symObjAddr: 0x16890, symBinAddr: 0x1A270, symSize: 0x20 }
  - { offset: 0x23E8D, size: 0x8, addend: 0x0, symName: __ZNSt3__13endB9nqe210106I17QArrayDataPointerIjEEEDTcldtfp_3endEERKT_, symObjAddr: 0x168B0, symBinAddr: 0x1A290, symSize: 0x20 }
  - { offset: 0x23F05, size: 0x8, addend: 0x0, symName: __ZNSt3__110__distanceB9nqe210106IPKjEENS_15iterator_traitsIT_E15difference_typeES4_S4_NS_26random_access_iterator_tagE, symObjAddr: 0x16920, symBinAddr: 0x1A300, symSize: 0x20 }
  - { offset: 0x23F53, size: 0x8, addend: 0x0, symName: __ZNSt3__13getB9nqe210106ILm0EP15QTypedArrayDataIjEPjEEONS_13tuple_elementIXT_ENS_4pairIT0_T1_EEE4typeEOS9_, symObjAddr: 0x16FF0, symBinAddr: 0x1A990, symSize: 0x20 }
  - { offset: 0x23F9D, size: 0x8, addend: 0x0, symName: __ZNSt3__13getB9nqe210106ILm1EP15QTypedArrayDataIjEPjEEONS_13tuple_elementIXT_ENS_4pairIT0_T1_EEE4typeEOS9_, symObjAddr: 0x17010, symBinAddr: 0x1A9B0, symSize: 0x20 }
  - { offset: 0x26DA3, size: 0x8, addend: 0x0, symName: __ZSt28__throw_bad_array_new_lengthB9nqe210106v, symObjAddr: 0x142B0, symBinAddr: 0x17D30, symSize: 0x40 }
  - { offset: 0x30D3D, size: 0x8, addend: 0x0, symName: __ZN2Qt15strong_ordering10equivalentE, symObjAddr: 0x19EE4, symBinAddr: 0x45754, symSize: 0x0 }
  - { offset: 0x30D51, size: 0x8, addend: 0x0, symName: __ZN2Qt15strong_ordering4lessE, symObjAddr: 0x19EE5, symBinAddr: 0x45755, symSize: 0x0 }
  - { offset: 0x30D65, size: 0x8, addend: 0x0, symName: __ZN2Qt15strong_ordering7greaterE, symObjAddr: 0x19EE6, symBinAddr: 0x45756, symSize: 0x0 }
  - { offset: 0x30D72, size: 0x8, addend: 0x0, symName: __ZN2Qt5is_ltENS_15strong_orderingE, symObjAddr: 0x13B80, symBinAddr: 0x17610, symSize: 0x50 }
  - { offset: 0x30DA0, size: 0x8, addend: 0x0, symName: __ZN2QtltENS_15strong_orderingEN9QtPrivate25CompareAgainstLiteralZeroE, symObjAddr: 0x13C20, symBinAddr: 0x176B0, symSize: 0x20 }
  - { offset: 0x30DDA, size: 0x8, addend: 0x0, symName: __ZN2Qt15compareThreeWayIiiLb1ELb1EEENS_15strong_orderingET_T0_, symObjAddr: 0x13D80, symBinAddr: 0x17810, symSize: 0x40 }
  - { offset: 0x30E36, size: 0x8, addend: 0x0, symName: __ZN2Qt11qt_ptr_swapERNS_23totally_ordered_wrapperIP8QMapDataINSt3__13mapI7QStringS4_NS2_4lessIS4_EENS2_9allocatorINS2_4pairIKS4_S4_EEEEEEEEESG_, symObjAddr: 0x14B20, symBinAddr: 0x185A0, symSize: 0x30 }
  - { offset: 0x498D7, size: 0x8, addend: 0x0, symName: __ZN12QHashPrivate13calculateHashI6QPointEEmRKT_m, symObjAddr: 0xDDD0, symBinAddr: 0x11DF0, symSize: 0x30 }
  - { offset: 0x7F333, size: 0x8, addend: 0x0, symName: __ZN5RpMap11RpMapPlugin13writeTokenMapER16QXmlStreamWriterPKN5Tiled3MapE, symObjAddr: 0x2E0, symBinAddr: 0x45F0, symSize: 0x7D0 }
  - { offset: 0x7F35A, size: 0x8, addend: 0x0, symName: __ZZN5RpMap11RpMapPlugin13writeTokenMapER16QXmlStreamWriterPKN5Tiled3MapEE8rotation, symObjAddr: 0x19EC0, symBinAddr: 0x45730, symSize: 0x0 }
  - { offset: 0x7F371, size: 0x8, addend: 0x0, symName: __ZZN5RpMap11RpMapPlugin13writeTokenMapER16QXmlStreamWriterPKN5Tiled3MapEE10flip_horiz, symObjAddr: 0x19ED0, symBinAddr: 0x45740, symSize: 0x0 }
  - { offset: 0x7F388, size: 0x8, addend: 0x0, symName: __ZZN5RpMap11RpMapPlugin13writeTokenMapER16QXmlStreamWriterPKN5Tiled3MapEE9flip_vert, symObjAddr: 0x19ED8, symBinAddr: 0x45748, symSize: 0x0 }
  - { offset: 0x81155, size: 0x8, addend: 0x0, symName: __ZN5RpMap11RpMapPluginC2Ev, symObjAddr: 0x0, symBinAddr: 0x4310, symSize: 0x60 }
  - { offset: 0x81181, size: 0x8, addend: 0x0, symName: __ZN5Tiled17WritableMapFormatC2EP7QObject, symObjAddr: 0x60, symBinAddr: 0x4370, symSize: 0x40 }
  - { offset: 0x811B9, size: 0x8, addend: 0x0, symName: __ZN7QStringC1Ev, symObjAddr: 0xA0, symBinAddr: 0x43B0, symSize: 0x20 }
  - { offset: 0x811E5, size: 0x8, addend: 0x0, symName: __ZN4QMapI7QStringS0_EC1Ev, symObjAddr: 0xC0, symBinAddr: 0x43D0, symSize: 0x20 }
  - { offset: 0x8120F, size: 0x8, addend: 0x0, symName: __ZN5QListIjEC1Ev, symObjAddr: 0xE0, symBinAddr: 0x43F0, symSize: 0x20 }
  - { offset: 0x81239, size: 0x8, addend: 0x0, symName: __ZN5RpMap11RpMapPluginC1Ev, symObjAddr: 0x100, symBinAddr: 0x4410, symSize: 0x20 }
  - { offset: 0x81265, size: 0x8, addend: 0x0, symName: __ZNK5RpMap11RpMapPlugin10nameFilterEv, symObjAddr: 0x120, symBinAddr: 0x4430, symSize: 0x40 }
  - { offset: 0x8128D, size: 0x8, addend: 0x0, symName: __ZN5RpMap11RpMapPlugin2trEPKcS2_i, symObjAddr: 0x160, symBinAddr: 0x4470, symSize: 0x40 }
  - { offset: 0x812D2, size: 0x8, addend: 0x0, symName: __ZNK5RpMap11RpMapPlugin9shortNameEv, symObjAddr: 0x1A0, symBinAddr: 0x44B0, symSize: 0x90 }
  - { offset: 0x8131F, size: 0x8, addend: 0x0, symName: __ZN7QStringC1EO17QArrayDataPointerIDsE, symObjAddr: 0x230, symBinAddr: 0x4540, symSize: 0x30 }
  - { offset: 0x81358, size: 0x8, addend: 0x0, symName: __ZN17QArrayDataPointerIDsED1Ev, symObjAddr: 0x260, symBinAddr: 0x4570, symSize: 0x20 }
  - { offset: 0x81382, size: 0x8, addend: 0x0, symName: __ZNK5RpMap11RpMapPlugin11errorStringEv, symObjAddr: 0x280, symBinAddr: 0x4590, symSize: 0x30 }
  - { offset: 0x813AA, size: 0x8, addend: 0x0, symName: __ZN7QStringC1ERKS_, symObjAddr: 0x2B0, symBinAddr: 0x45C0, symSize: 0x30 }
  - { offset: 0x813EB, size: 0x8, addend: 0x0, symName: __ZNK5Tiled3Map9tileWidthEv, symObjAddr: 0xAB0, symBinAddr: 0x4DC0, symSize: 0x20 }
  - { offset: 0x81413, size: 0x8, addend: 0x0, symName: __ZNK5Tiled3Map10tileHeightEv, symObjAddr: 0xAD0, symBinAddr: 0x4DE0, symSize: 0x20 }
  - { offset: 0x8143B, size: 0x8, addend: 0x0, symName: __ZN14QAnyStringViewC1ERK7QString, symObjAddr: 0xAF0, symBinAddr: 0x4E00, symSize: 0x50 }
  - { offset: 0x81477, size: 0x8, addend: 0x0, symName: __ZN7QStringD1Ev, symObjAddr: 0xB40, symBinAddr: 0x4E50, symSize: 0x20 }
  - { offset: 0x814A3, size: 0x8, addend: 0x0, symName: __ZNK5Tiled3Map6layersEv, symObjAddr: 0xB60, symBinAddr: 0x4E70, symSize: 0x20 }
  - { offset: 0x814CB, size: 0x8, addend: 0x0, symName: __ZNK5QListIPN5Tiled5LayerEE5beginEv, symObjAddr: 0xB80, symBinAddr: 0x4E90, symSize: 0x40 }
  - { offset: 0x814F1, size: 0x8, addend: 0x0, symName: __ZNK5QListIPN5Tiled5LayerEE3endEv, symObjAddr: 0xBC0, symBinAddr: 0x4ED0, symSize: 0x40 }
  - { offset: 0x81517, size: 0x8, addend: 0x0, symName: __ZNK5QListIPN5Tiled5LayerEE14const_iteratorneES4_, symObjAddr: 0xC00, symBinAddr: 0x4F10, symSize: 0x20 }
  - { offset: 0x8154B, size: 0x8, addend: 0x0, symName: __ZNK5QListIPN5Tiled5LayerEE14const_iteratordeEv, symObjAddr: 0xC20, symBinAddr: 0x4F30, symSize: 0x20 }
  - { offset: 0x81571, size: 0x8, addend: 0x0, symName: __ZNK5Tiled9TileLayer6heightEv, symObjAddr: 0xC40, symBinAddr: 0x4F50, symSize: 0x20 }
  - { offset: 0x81597, size: 0x8, addend: 0x0, symName: __ZNK5Tiled9TileLayer5widthEv, symObjAddr: 0xC60, symBinAddr: 0x4F70, symSize: 0x20 }
  - { offset: 0x815BD, size: 0x8, addend: 0x0, symName: __ZNK5Tiled9TileLayer6cellAtEii, symObjAddr: 0xC80, symBinAddr: 0x4F90, symSize: 0x60 }
  - { offset: 0x81621, size: 0x8, addend: 0x0, symName: __ZNK5Tiled4Cell4tileEv, symObjAddr: 0xCE0, symBinAddr: 0x4FF0, symSize: 0x50 }
  - { offset: 0x81648, size: 0x8, addend: 0x0, symName: __ZNK5Tiled4Cell17flippedVerticallyEv, symObjAddr: 0xD30, symBinAddr: 0x5040, symSize: 0x20 }
  - { offset: 0x8166E, size: 0x8, addend: 0x0, symName: __ZNK5Tiled4Cell19flippedHorizontallyEv, symObjAddr: 0xD50, symBinAddr: 0x5060, symSize: 0x20 }
  - { offset: 0x81694, size: 0x8, addend: 0x0, symName: __ZNK5Tiled4Cell21flippedAntiDiagonallyEv, symObjAddr: 0xD70, symBinAddr: 0x5080, symSize: 0x20 }
  - { offset: 0x816BA, size: 0x8, addend: 0x0, symName: __ZNK5Tiled4Tile11imageSourceEv, symObjAddr: 0xD90, symBinAddr: 0x50A0, symSize: 0x20 }
  - { offset: 0x816E1, size: 0x8, addend: 0x0, symName: __ZN4QMapI7QStringS0_E4findERKS0_, symObjAddr: 0xDB0, symBinAddr: 0x50C0, symSize: 0x90 }
  - { offset: 0x81724, size: 0x8, addend: 0x0, symName: __ZeqRKN4QMapI7QStringS0_E8iteratorES4_, symObjAddr: 0xE40, symBinAddr: 0x5150, symSize: 0x30 }
  - { offset: 0x81762, size: 0x8, addend: 0x0, symName: __ZN4QMapI7QStringS0_E3endEv, symObjAddr: 0xE70, symBinAddr: 0x5180, symSize: 0x50 }
  - { offset: 0x81788, size: 0x8, addend: 0x0, symName: __ZN6QFlagsIN13QIODeviceBase12OpenModeFlagEEC1ES1_, symObjAddr: 0xEC0, symBinAddr: 0x51D0, symSize: 0x30 }
  - { offset: 0x817C0, size: 0x8, addend: 0x0, symName: __ZN14QByteArrayViewC1I10QByteArrayLb1EEERKT_, symObjAddr: 0xEF0, symBinAddr: 0x5200, symSize: 0x50 }
  - { offset: 0x81807, size: 0x8, addend: 0x0, symName: __ZN7QStringC1ERK10QByteArray, symObjAddr: 0xF40, symBinAddr: 0x5250, symSize: 0x50 }
  - { offset: 0x81840, size: 0x8, addend: 0x0, symName: __ZN10QByteArrayD1Ev, symObjAddr: 0xF90, symBinAddr: 0x52A0, symSize: 0x20 }
  - { offset: 0x8186C, size: 0x8, addend: 0x0, symName: __ZN4QMapI7QStringS0_E6insertERKS0_S3_, symObjAddr: 0xFB0, symBinAddr: 0x52C0, symSize: 0xC0 }
  - { offset: 0x818BF, size: 0x8, addend: 0x0, symName: __ZN5QListIjE9push_backEj, symObjAddr: 0x1070, symBinAddr: 0x5380, symSize: 0x30 }
  - { offset: 0x818F3, size: 0x8, addend: 0x0, symName: __ZneRKN4QMapI7QStringS0_E8iteratorES4_, symObjAddr: 0x10A0, symBinAddr: 0x53B0, symSize: 0x30 }
  - { offset: 0x81931, size: 0x8, addend: 0x0, symName: __ZNK4QMapI7QStringS0_E8iterator5valueEv, symObjAddr: 0x10D0, symBinAddr: 0x53E0, symSize: 0x20 }
  - { offset: 0x819D5, size: 0x8, addend: 0x0, symName: __ZN5QListIPN5Tiled5LayerEE14const_iteratorppEv, symObjAddr: 0x5B00, symBinAddr: 0x9E10, symSize: 0x20 }
  - { offset: 0x81A13, size: 0x8, addend: 0x0, symName: __ZN5RpMap11RpMapPlugin21writeTokenOrderedListER16QXmlStreamWriter, symObjAddr: 0x5B20, symBinAddr: 0x9E30, symSize: 0x9C0 }
  - { offset: 0x81BFB, size: 0x8, addend: 0x0, symName: __ZN5RpMap11RpMapPlugin8writeMapER16QXmlStreamWriterPKN5Tiled3MapE, symObjAddr: 0x6530, symBinAddr: 0xA7F0, symSize: 0x20C0 }
  - { offset: 0x821A7, size: 0x8, addend: 0x0, symName: __ZN5QListIjE5beginEv, symObjAddr: 0xC0F0, symBinAddr: 0x103B0, symSize: 0x40 }
  - { offset: 0x821CD, size: 0x8, addend: 0x0, symName: __ZN5QListIjE3endEv, symObjAddr: 0xC130, symBinAddr: 0x103F0, symSize: 0x40 }
  - { offset: 0x821F3, size: 0x8, addend: 0x0, symName: __ZNK5QListIjE8iteratorneES1_, symObjAddr: 0xC170, symBinAddr: 0x10430, symSize: 0x20 }
  - { offset: 0x82227, size: 0x8, addend: 0x0, symName: __ZNK5QListIjE8iteratordeEv, symObjAddr: 0xC190, symBinAddr: 0x10450, symSize: 0x20 }
  - { offset: 0x8224D, size: 0x8, addend: 0x0, symName: __ZN5QListIjE8iteratorppEv, symObjAddr: 0xC1E0, symBinAddr: 0x10470, symSize: 0x20 }
  - { offset: 0x82279, size: 0x8, addend: 0x0, symName: __ZN5RpMap11RpMapPlugin5writeEPKN5Tiled3MapERK7QString6QFlagsINS1_10FileFormat6OptionEE, symObjAddr: 0xC200, symBinAddr: 0x10490, symSize: 0xB10 }
  - { offset: 0x8246C, size: 0x8, addend: 0x0, symName: __ZN4QMapI7QStringS0_E5clearEv, symObjAddr: 0xCD10, symBinAddr: 0x10FA0, symSize: 0x60 }
  - { offset: 0x82492, size: 0x8, addend: 0x0, symName: __ZN5QListIjE5clearEv, symObjAddr: 0xCD70, symBinAddr: 0x11000, symSize: 0x90 }
  - { offset: 0x824CE, size: 0x8, addend: 0x0, symName: __ZN10QByteArrayC1Ev, symObjAddr: 0xCE00, symBinAddr: 0x11090, symSize: 0x20 }
  - { offset: 0x824FA, size: 0x8, addend: 0x0, symName: __ZN5Tiled9MapFormatC2EP7QObject, symObjAddr: 0xD120, symBinAddr: 0x113B0, symSize: 0x40 }
  - { offset: 0x82532, size: 0x8, addend: 0x0, symName: __ZN7QStringC2Ev, symObjAddr: 0xD160, symBinAddr: 0x113F0, symSize: 0x20 }
  - { offset: 0x8255E, size: 0x8, addend: 0x0, symName: __ZN17QArrayDataPointerIDsEC1Ev, symObjAddr: 0xD180, symBinAddr: 0x11410, symSize: 0x20 }
  - { offset: 0x82588, size: 0x8, addend: 0x0, symName: __ZN17QArrayDataPointerIDsEC2Ev, symObjAddr: 0xD1A0, symBinAddr: 0x11430, symSize: 0x30 }
  - { offset: 0x825B2, size: 0x8, addend: 0x0, symName: __ZN4QMapI7QStringS0_EC2Ev, symObjAddr: 0xD1D0, symBinAddr: 0x11460, symSize: 0x20 }
  - { offset: 0x825DC, size: 0x8, addend: 0x0, symName: __ZN9QtPrivate30QExplicitlySharedDataPointerV2I8QMapDataINSt3__13mapI7QStringS4_NS2_4lessIS4_EENS2_9allocatorINS2_4pairIKS4_S4_EEEEEEEEC1Ev, symObjAddr: 0xD1F0, symBinAddr: 0x11480, symSize: 0x20 }
  - { offset: 0x82606, size: 0x8, addend: 0x0, symName: __ZN9QtPrivate30QExplicitlySharedDataPointerV2I8QMapDataINSt3__13mapI7QStringS4_NS2_4lessIS4_EENS2_9allocatorINS2_4pairIKS4_S4_EEEEEEEEC2Ev, symObjAddr: 0xD210, symBinAddr: 0x114A0, symSize: 0x30 }
  - { offset: 0x82630, size: 0x8, addend: 0x0, symName: __ZN2Qt23totally_ordered_wrapperIP8QMapDataINSt3__13mapI7QStringS4_NS2_4lessIS4_EENS2_9allocatorINS2_4pairIKS4_S4_EEEEEEEEC1EDn, symObjAddr: 0xD240, symBinAddr: 0x114D0, symSize: 0x30 }
  - { offset: 0x82666, size: 0x8, addend: 0x0, symName: __ZN2Qt23totally_ordered_wrapperIP8QMapDataINSt3__13mapI7QStringS4_NS2_4lessIS4_EENS2_9allocatorINS2_4pairIKS4_S4_EEEEEEEEC1ESE_, symObjAddr: 0xD280, symBinAddr: 0x11510, symSize: 0x30 }
  - { offset: 0x8269F, size: 0x8, addend: 0x0, symName: __ZN2Qt23totally_ordered_wrapperIP8QMapDataINSt3__13mapI7QStringS4_NS2_4lessIS4_EENS2_9allocatorINS2_4pairIKS4_S4_EEEEEEEEC2ESE_, symObjAddr: 0xD2B0, symBinAddr: 0x11540, symSize: 0x20 }
  - { offset: 0x826D8, size: 0x8, addend: 0x0, symName: __ZN5QListIjEC2Ev, symObjAddr: 0xD2D0, symBinAddr: 0x11560, symSize: 0x20 }
  - { offset: 0x82702, size: 0x8, addend: 0x0, symName: __ZN17QArrayDataPointerIjEC1Ev, symObjAddr: 0xD2F0, symBinAddr: 0x11580, symSize: 0x20 }
  - { offset: 0x8272C, size: 0x8, addend: 0x0, symName: __ZN17QArrayDataPointerIjEC2Ev, symObjAddr: 0xD310, symBinAddr: 0x115A0, symSize: 0x30 }
  - { offset: 0x82756, size: 0x8, addend: 0x0, symName: __ZN7QStringC2EO17QArrayDataPointerIDsE, symObjAddr: 0xD340, symBinAddr: 0x115D0, symSize: 0x30 }
  - { offset: 0x8278F, size: 0x8, addend: 0x0, symName: __ZN17QArrayDataPointerIDsEC1EOS0_, symObjAddr: 0xD370, symBinAddr: 0x11600, symSize: 0x30 }
  - { offset: 0x827C7, size: 0x8, addend: 0x0, symName: __ZN17QArrayDataPointerIDsEC2EOS0_, symObjAddr: 0xD3A0, symBinAddr: 0x11630, symSize: 0x90 }
  - { offset: 0x827FF, size: 0x8, addend: 0x0, symName: __ZN7QStringC2ERKS_, symObjAddr: 0xD4C0, symBinAddr: 0x11750, symSize: 0x30 }
  - { offset: 0x8283A, size: 0x8, addend: 0x0, symName: __ZN17QArrayDataPointerIDsEC1ERKS0_, symObjAddr: 0xD4F0, symBinAddr: 0x11780, symSize: 0x30 }
  - { offset: 0x82872, size: 0x8, addend: 0x0, symName: __ZN17QArrayDataPointerIDsEC2ERKS0_, symObjAddr: 0xD520, symBinAddr: 0x117B0, symSize: 0x50 }
  - { offset: 0x828D4, size: 0x8, addend: 0x0, symName: __ZNSt3__113__atomic_baseIiLb1EE9fetch_addB9nqe210106EiNS_12memory_orderE, symObjAddr: 0xD610, symBinAddr: 0x11800, symSize: 0x30 }
  - { offset: 0x82916, size: 0x8, addend: 0x0, symName: __ZN14QAnyStringViewC1I5QCharLb1EEEPKT_x, symObjAddr: 0xD760, symBinAddr: 0x118E0, symSize: 0x30 }
  - { offset: 0x8296B, size: 0x8, addend: 0x0, symName: __ZN14QAnyStringViewC2I5QCharLb1EEEPKT_x, symObjAddr: 0xD800, symBinAddr: 0x11910, symSize: 0x50 }
  - { offset: 0x829C0, size: 0x8, addend: 0x0, symName: __ZN7QStringD2Ev, symObjAddr: 0xD940, symBinAddr: 0x11960, symSize: 0x20 }
  - { offset: 0x829EC, size: 0x8, addend: 0x0, symName: __ZNK5Tiled9TileLayer9findChunkEii, symObjAddr: 0xD960, symBinAddr: 0x11980, symSize: 0xA0 }
  - { offset: 0x82A50, size: 0x8, addend: 0x0, symName: __ZNK5Tiled5Chunk6cellAtEii, symObjAddr: 0xDA00, symBinAddr: 0x11A20, symSize: 0x30 }
  - { offset: 0x82A93, size: 0x8, addend: 0x0, symName: __ZN6QPointC1Eii, symObjAddr: 0xDA30, symBinAddr: 0x11A50, symSize: 0x30 }
  - { offset: 0x82ADA, size: 0x8, addend: 0x0, symName: __ZNK5QHashI6QPointN5Tiled5ChunkEE4findERKS0_, symObjAddr: 0xDA60, symBinAddr: 0x11A80, symSize: 0x40 }
  - { offset: 0x82B0F, size: 0x8, addend: 0x0, symName: __ZNK5QHashI6QPointN5Tiled5ChunkEE14const_iteratorneERKS4_, symObjAddr: 0xDAA0, symBinAddr: 0x11AC0, symSize: 0x40 }
  - { offset: 0x82B44, size: 0x8, addend: 0x0, symName: __ZNK5QHashI6QPointN5Tiled5ChunkEE3endEv, symObjAddr: 0xDAE0, symBinAddr: 0x11B00, symSize: 0x30 }
  - { offset: 0x82B6A, size: 0x8, addend: 0x0, symName: __ZNK5QHashI6QPointN5Tiled5ChunkEE14const_iterator5valueEv, symObjAddr: 0xDB10, symBinAddr: 0x11B30, symSize: 0x20 }
  - { offset: 0x82B90, size: 0x8, addend: 0x0, symName: __ZN6QPointC2Eii, symObjAddr: 0xDB30, symBinAddr: 0x11B50, symSize: 0x40 }
  - { offset: 0x82BD7, size: 0x8, addend: 0x0, symName: __ZN9QtPrivate16QCheckedIntegers11QCheckedIntIiNS0_13SafeCheckImplIiEENS0_18AssertReportPolicyEEC1Ei, symObjAddr: 0xDB70, symBinAddr: 0x11B90, symSize: 0x30 }
  - { offset: 0x82C0F, size: 0x8, addend: 0x0, symName: __ZN9QtPrivate16QCheckedIntegers11QCheckedIntIiNS0_13SafeCheckImplIiEENS0_18AssertReportPolicyEEC2Ei, symObjAddr: 0xDBA0, symBinAddr: 0x11BC0, symSize: 0x20 }
  - { offset: 0x82C47, size: 0x8, addend: 0x0, symName: __ZNK5QHashI6QPointN5Tiled5ChunkEE13constFindImplIS0_EENS3_14const_iteratorERKT_, symObjAddr: 0xDBC0, symBinAddr: 0x11BE0, symSize: 0xC0 }
  - { offset: 0x82C94, size: 0x8, addend: 0x0, symName: __ZNK5QHashI6QPointN5Tiled5ChunkEE7isEmptyEv, symObjAddr: 0xDC80, symBinAddr: 0x11CA0, symSize: 0x40 }
  - { offset: 0x82CBA, size: 0x8, addend: 0x0, symName: __ZNK12QHashPrivate4DataINS_4NodeI6QPointN5Tiled5ChunkEEEE10findBucketIS2_EENS6_6BucketERKT_, symObjAddr: 0xDCC0, symBinAddr: 0x11CE0, symSize: 0x70 }
  - { offset: 0x82D07, size: 0x8, addend: 0x0, symName: __ZNK12QHashPrivate4DataINS_4NodeI6QPointN5Tiled5ChunkEEEE6Bucket8isUnusedEv, symObjAddr: 0xDD30, symBinAddr: 0x11D50, symSize: 0x30 }
  - { offset: 0x82D2D, size: 0x8, addend: 0x0, symName: __ZNK12QHashPrivate4DataINS_4NodeI6QPointN5Tiled5ChunkEEEE6Bucket13toBucketIndexEPKS6_, symObjAddr: 0xDD60, symBinAddr: 0x11D80, symSize: 0x40 }
  - { offset: 0x82D62, size: 0x8, addend: 0x0, symName: __ZN5QHashI6QPointN5Tiled5ChunkEE14const_iteratorC1EN12QHashPrivate8iteratorINS5_4NodeIS0_S2_EEEE, symObjAddr: 0xDDA0, symBinAddr: 0x11DC0, symSize: 0x30 }
  - { offset: 0x82D9B, size: 0x8, addend: 0x0, symName: __ZNK12QHashPrivate4DataINS_4NodeI6QPointN5Tiled5ChunkEEEE18findBucketWithHashIS2_EENS6_6BucketERKT_m, symObjAddr: 0xDE00, symBinAddr: 0x11E20, symSize: 0xE0 }
  - { offset: 0x82E23, size: 0x8, addend: 0x0, symName: __ZN12QHashPrivate4DataINS_4NodeI6QPointN5Tiled5ChunkEEEE6BucketC1EPKS6_m, symObjAddr: 0xDF00, symBinAddr: 0x11F00, symSize: 0x30 }
  - { offset: 0x82E6B, size: 0x8, addend: 0x0, symName: __ZNK12QHashPrivate4DataINS_4NodeI6QPointN5Tiled5ChunkEEEE6Bucket6offsetEv, symObjAddr: 0xDF30, symBinAddr: 0x11F30, symSize: 0x30 }
  - { offset: 0x82E91, size: 0x8, addend: 0x0, symName: __ZN12QHashPrivate4DataINS_4NodeI6QPointN5Tiled5ChunkEEEE6Bucket12nodeAtOffsetEm, symObjAddr: 0xDF60, symBinAddr: 0x11F60, symSize: 0x30 }
  - { offset: 0x82EC5, size: 0x8, addend: 0x0, symName: __Z11qHashEqualsI6QPointEbRKT_S3_, symObjAddr: 0xDF90, symBinAddr: 0x11F90, symSize: 0x30 }
  - { offset: 0x82F0C, size: 0x8, addend: 0x0, symName: __ZN12QHashPrivate4DataINS_4NodeI6QPointN5Tiled5ChunkEEEE6Bucket14advanceWrappedEPKS6_, symObjAddr: 0xDFC0, symBinAddr: 0x11FC0, symSize: 0x30 }
  - { offset: 0x82F41, size: 0x8, addend: 0x0, symName: __ZN12QHashPrivate4DataINS_4NodeI6QPointN5Tiled5ChunkEEEE6BucketC2EPKS6_m, symObjAddr: 0xDFF0, symBinAddr: 0x11FF0, symSize: 0x40 }
  - { offset: 0x82F89, size: 0x8, addend: 0x0, symName: __ZNK12QHashPrivate4SpanINS_4NodeI6QPointN5Tiled5ChunkEEEE6offsetEm, symObjAddr: 0xE030, symBinAddr: 0x12030, symSize: 0x20 }
  - { offset: 0x82FBE, size: 0x8, addend: 0x0, symName: __ZN12QHashPrivate4SpanINS_4NodeI6QPointN5Tiled5ChunkEEEE8atOffsetEm, symObjAddr: 0xE050, symBinAddr: 0x12050, symSize: 0x80 }
  - { offset: 0x82FF3, size: 0x8, addend: 0x0, symName: __ZN12QHashPrivate4SpanINS_4NodeI6QPointN5Tiled5ChunkEEEE5Entry4nodeEv, symObjAddr: 0xE0D0, symBinAddr: 0x120D0, symSize: 0x10 }
  - { offset: 0x83018, size: 0x8, addend: 0x0, symName: __ZeqRK6QPointS1_, symObjAddr: 0xE0E0, symBinAddr: 0x120E0, symSize: 0x30 }
  - { offset: 0x83066, size: 0x8, addend: 0x0, symName: __Z13comparesEqualRK6QPointS1_, symObjAddr: 0xE110, symBinAddr: 0x12110, symSize: 0x50 }
  - { offset: 0x830A1, size: 0x8, addend: 0x0, symName: __ZN12QHashPrivate4DataINS_4NodeI6QPointN5Tiled5ChunkEEEE6Bucket12advance_implEPKS6_PNS_4SpanIS5_EE, symObjAddr: 0xE1C0, symBinAddr: 0x121C0, symSize: 0xC0 }
  - { offset: 0x830E5, size: 0x8, addend: 0x0, symName: __ZNK12QHashPrivate4SpanINS_4NodeI6QPointN5Tiled5ChunkEEEE7hasNodeEm, symObjAddr: 0xE280, symBinAddr: 0x12280, symSize: 0x30 }
  - { offset: 0x8311A, size: 0x8, addend: 0x0, symName: __ZN5QHashI6QPointN5Tiled5ChunkEE14const_iteratorC2EN12QHashPrivate8iteratorINS5_4NodeIS0_S2_EEEE, symObjAddr: 0xE2B0, symBinAddr: 0x122B0, symSize: 0x30 }
  - { offset: 0x83153, size: 0x8, addend: 0x0, symName: __ZNK12QHashPrivate8iteratorINS_4NodeI6QPointN5Tiled5ChunkEEEEneES6_, symObjAddr: 0xE2E0, symBinAddr: 0x122E0, symSize: 0x40 }
  - { offset: 0x83188, size: 0x8, addend: 0x0, symName: __ZNK12QHashPrivate8iteratorINS_4NodeI6QPointN5Tiled5ChunkEEEEeqES6_, symObjAddr: 0xE320, symBinAddr: 0x12320, symSize: 0x40 }
  - { offset: 0x831BD, size: 0x8, addend: 0x0, symName: __ZN5QHashI6QPointN5Tiled5ChunkEE14const_iteratorC1Ev, symObjAddr: 0xE360, symBinAddr: 0x12360, symSize: 0x20 }
  - { offset: 0x831E7, size: 0x8, addend: 0x0, symName: __ZN5QHashI6QPointN5Tiled5ChunkEE14const_iteratorC2Ev, symObjAddr: 0xE380, symBinAddr: 0x12380, symSize: 0x20 }
  - { offset: 0x83211, size: 0x8, addend: 0x0, symName: __ZN12QHashPrivate8iteratorINS_4NodeI6QPointN5Tiled5ChunkEEEEC1Ev, symObjAddr: 0xE3A0, symBinAddr: 0x123A0, symSize: 0x20 }
  - { offset: 0x8323E, size: 0x8, addend: 0x0, symName: __ZN12QHashPrivate8iteratorINS_4NodeI6QPointN5Tiled5ChunkEEEEC2Ev, symObjAddr: 0xE3C0, symBinAddr: 0x123C0, symSize: 0x20 }
  - { offset: 0x8326B, size: 0x8, addend: 0x0, symName: __ZNK12QHashPrivate8iteratorINS_4NodeI6QPointN5Tiled5ChunkEEEE4nodeEv, symObjAddr: 0xE3E0, symBinAddr: 0x123E0, symSize: 0x80 }
  - { offset: 0x83291, size: 0x8, addend: 0x0, symName: __ZNK12QHashPrivate8iteratorINS_4NodeI6QPointN5Tiled5ChunkEEEE8isUnusedEv, symObjAddr: 0xE460, symBinAddr: 0x12460, symSize: 0x60 }
  - { offset: 0x832B7, size: 0x8, addend: 0x0, symName: __ZNK12QHashPrivate8iteratorINS_4NodeI6QPointN5Tiled5ChunkEEEE4spanEv, symObjAddr: 0xE4C0, symBinAddr: 0x124C0, symSize: 0x20 }
  - { offset: 0x832DD, size: 0x8, addend: 0x0, symName: __ZN12QHashPrivate4SpanINS_4NodeI6QPointN5Tiled5ChunkEEEE2atEm, symObjAddr: 0xE4E0, symBinAddr: 0x124E0, symSize: 0x90 }
  - { offset: 0x83312, size: 0x8, addend: 0x0, symName: __ZNK12QHashPrivate8iteratorINS_4NodeI6QPointN5Tiled5ChunkEEEE5indexEv, symObjAddr: 0xE570, symBinAddr: 0x12570, symSize: 0x20 }
  - { offset: 0x83338, size: 0x8, addend: 0x0, symName: __ZNK5QListIN5Tiled4CellEE2atEx, symObjAddr: 0xE590, symBinAddr: 0x12590, symSize: 0x70 }
  - { offset: 0x8336D, size: 0x8, addend: 0x0, symName: __ZNK17QArrayDataPointerIN5Tiled4CellEEptEv, symObjAddr: 0xE600, symBinAddr: 0x12600, symSize: 0x10 }
  - { offset: 0x83393, size: 0x8, addend: 0x0, symName: __ZNK5QListIN5Tiled4CellEE4dataEv, symObjAddr: 0xE610, symBinAddr: 0x12610, symSize: 0x30 }
  - { offset: 0x833B9, size: 0x8, addend: 0x0, symName: __ZNK17QArrayDataPointerIN5Tiled4CellEE4dataEv, symObjAddr: 0xE640, symBinAddr: 0x12640, symSize: 0x20 }
  - { offset: 0x833DF, size: 0x8, addend: 0x0, symName: __ZNK5Tiled7Tileset8findTileEi, symObjAddr: 0xE660, symBinAddr: 0x12660, symSize: 0x40 }
  - { offset: 0x83416, size: 0x8, addend: 0x0, symName: __ZNK4QMapIiPN5Tiled4TileEE5valueERKiRKS2_, symObjAddr: 0xE6A0, symBinAddr: 0x126A0, symSize: 0xB0 }
  - { offset: 0x83469, size: 0x8, addend: 0x0, symName: __ZNK9QtPrivate30QExplicitlySharedDataPointerV2I8QMapDataINSt3__13mapIiPN5Tiled4TileENS2_4lessIiEENS2_9allocatorINS2_4pairIKiS6_EEEEEEEEcvbEv, symObjAddr: 0xE750, symBinAddr: 0x12750, symSize: 0x30 }
  - { offset: 0x8348F, size: 0x8, addend: 0x0, symName: __ZNK9QtPrivate30QExplicitlySharedDataPointerV2I8QMapDataINSt3__13mapIiPN5Tiled4TileENS2_4lessIiEENS2_9allocatorINS2_4pairIKiS6_EEEEEEEEptEv, symObjAddr: 0xE780, symBinAddr: 0x12780, symSize: 0x20 }
  - { offset: 0x834B5, size: 0x8, addend: 0x0, symName: __ZNKSt3__13mapIiPN5Tiled4TileENS_4lessIiEENS_9allocatorINS_4pairIKiS3_EEEEE4findB9nqe210106ERS8_, symObjAddr: 0xE7A0, symBinAddr: 0x127A0, symSize: 0x40 }
  - { offset: 0x834EA, size: 0x8, addend: 0x0, symName: __ZNKSt3__13mapIiPN5Tiled4TileENS_4lessIiEENS_9allocatorINS_4pairIKiS3_EEEEE4cendB9nqe210106Ev, symObjAddr: 0xE810, symBinAddr: 0x12810, symSize: 0x30 }
  - { offset: 0x83510, size: 0x8, addend: 0x0, symName: __ZNKSt3__120__map_const_iteratorINS_21__tree_const_iteratorINS_12__value_typeIiPN5Tiled4TileEEEPNS_11__tree_nodeIS6_PvEElEEEptB9nqe210106Ev, symObjAddr: 0xE840, symBinAddr: 0x12840, symSize: 0x30 }
  - { offset: 0x83536, size: 0x8, addend: 0x0, symName: __ZNK2Qt23totally_ordered_wrapperIP8QMapDataINSt3__13mapIiPN5Tiled4TileENS2_4lessIiEENS2_9allocatorINS2_4pairIKiS6_EEEEEEEE3getEv, symObjAddr: 0xE870, symBinAddr: 0x12870, symSize: 0x20 }
  - { offset: 0x8355C, size: 0x8, addend: 0x0, symName: __ZNKSt3__16__treeINS_12__value_typeIiPN5Tiled4TileEEENS_19__map_value_compareIiNS_4pairIKiS4_EENS_4lessIiEELb1EEENS_9allocatorIS9_EEE4findIiEENS_21__tree_const_iteratorIS5_PNS_11__tree_nodeIS5_PvEElEERKT_, symObjAddr: 0xE890, symBinAddr: 0x12890, symSize: 0xD0 }
  - { offset: 0x835A9, size: 0x8, addend: 0x0, symName: __ZNSt3__120__map_const_iteratorINS_21__tree_const_iteratorINS_12__value_typeIiPN5Tiled4TileEEEPNS_11__tree_nodeIS6_PvEElEEEC1B9nqe210106ESB_, symObjAddr: 0xE960, symBinAddr: 0x12960, symSize: 0x30 }
  - { offset: 0x835E2, size: 0x8, addend: 0x0, symName: __ZNKSt3__16__treeINS_12__value_typeIiPN5Tiled4TileEEENS_19__map_value_compareIiNS_4pairIKiS4_EENS_4lessIiEELb1EEENS_9allocatorIS9_EEE13__lower_boundIiEENS_21__tree_const_iteratorIS5_PNS_11__tree_nodeIS5_PvEElEERKT_SL_PNS_15__tree_end_nodeIPNS_16__tree_node_baseISJ_EEEE, symObjAddr: 0xE990, symBinAddr: 0x12990, symSize: 0x90 }
  - { offset: 0x8363E, size: 0x8, addend: 0x0, symName: __ZNKSt3__16__treeINS_12__value_typeIiPN5Tiled4TileEEENS_19__map_value_compareIiNS_4pairIKiS4_EENS_4lessIiEELb1EEENS_9allocatorIS9_EEE6__rootB9nqe210106Ev, symObjAddr: 0xEA20, symBinAddr: 0x12A20, symSize: 0x20 }
  - { offset: 0x83664, size: 0x8, addend: 0x0, symName: __ZNKSt3__16__treeINS_12__value_typeIiPN5Tiled4TileEEENS_19__map_value_compareIiNS_4pairIKiS4_EENS_4lessIiEELb1EEENS_9allocatorIS9_EEE10__end_nodeB9nqe210106Ev, symObjAddr: 0xEA40, symBinAddr: 0x12A40, symSize: 0x20 }
  - { offset: 0x8368A, size: 0x8, addend: 0x0, symName: __ZNKSt3__16__treeINS_12__value_typeIiPN5Tiled4TileEEENS_19__map_value_compareIiNS_4pairIKiS4_EENS_4lessIiEELb1EEENS_9allocatorIS9_EEE3endB9nqe210106Ev, symObjAddr: 0xEA90, symBinAddr: 0x12A90, symSize: 0x30 }
  - { offset: 0x836B0, size: 0x8, addend: 0x0, symName: __ZNKSt3__16__treeINS_12__value_typeIiPN5Tiled4TileEEENS_19__map_value_compareIiNS_4pairIKiS4_EENS_4lessIiEELb1EEENS_9allocatorIS9_EEE10value_compB9nqe210106Ev, symObjAddr: 0xEAC0, symBinAddr: 0x12AC0, symSize: 0x20 }
  - { offset: 0x836D6, size: 0x8, addend: 0x0, symName: __ZNKSt3__119__map_value_compareIiNS_4pairIKiPN5Tiled4TileEEENS_4lessIiEELb1EEclB9nqe210106ERS2_RKS6_, symObjAddr: 0xEAE0, symBinAddr: 0x12AE0, symSize: 0x30 }
  - { offset: 0x8371A, size: 0x8, addend: 0x0, symName: __ZNKSt3__121__tree_const_iteratorINS_12__value_typeIiPN5Tiled4TileEEEPNS_11__tree_nodeIS5_PvEElEdeB9nqe210106Ev, symObjAddr: 0xEB10, symBinAddr: 0x12B10, symSize: 0x20 }
  - { offset: 0x83740, size: 0x8, addend: 0x0, symName: __ZNKSt3__119__map_value_compareIiNS_4pairIKiPN5Tiled4TileEEENS_4lessIiEELb1EEclB9nqe210106ERKS6_RS2_, symObjAddr: 0xEB30, symBinAddr: 0x12B30, symSize: 0x30 }
  - { offset: 0x83784, size: 0x8, addend: 0x0, symName: __ZNSt3__121__tree_const_iteratorINS_12__value_typeIiPN5Tiled4TileEEEPNS_11__tree_nodeIS5_PvEElEC1B9nqe210106EPNS_15__tree_end_nodeIPNS_16__tree_node_baseIS7_EEEE, symObjAddr: 0xEB60, symBinAddr: 0x12B60, symSize: 0x30 }
  - { offset: 0x837BD, size: 0x8, addend: 0x0, symName: __ZNKSt3__14lessIiEclB9nqe210106ERKiS3_, symObjAddr: 0xEB90, symBinAddr: 0x12B90, symSize: 0x30 }
  - { offset: 0x83801, size: 0x8, addend: 0x0, symName: __ZNSt3__121__tree_const_iteratorINS_12__value_typeIiPN5Tiled4TileEEEPNS_11__tree_nodeIS5_PvEElEC2B9nqe210106EPNS_15__tree_end_nodeIPNS_16__tree_node_baseIS7_EEEE, symObjAddr: 0xEBC0, symBinAddr: 0x12BC0, symSize: 0x20 }
  - { offset: 0x83840, size: 0x8, addend: 0x0, symName: __ZNSt3__114pointer_traitsIPNS_15__tree_end_nodeIPNS_16__tree_node_baseIPvEEEEE10pointer_toB9nqe210106ERS6_, symObjAddr: 0xEBE0, symBinAddr: 0x12BE0, symSize: 0x10 }
  - { offset: 0x83863, size: 0x8, addend: 0x0, symName: __ZNKSt3__121__tree_const_iteratorINS_12__value_typeIiPN5Tiled4TileEEEPNS_11__tree_nodeIS5_PvEElE8__get_npB9nqe210106Ev, symObjAddr: 0xEC20, symBinAddr: 0x12C20, symSize: 0x20 }
  - { offset: 0x83889, size: 0x8, addend: 0x0, symName: __ZNSt3__120__map_const_iteratorINS_21__tree_const_iteratorINS_12__value_typeIiPN5Tiled4TileEEEPNS_11__tree_nodeIS6_PvEElEEEC2B9nqe210106ESB_, symObjAddr: 0xEC40, symBinAddr: 0x12C40, symSize: 0x20 }
  - { offset: 0x838C2, size: 0x8, addend: 0x0, symName: __ZNKSt3__13mapIiPN5Tiled4TileENS_4lessIiEENS_9allocatorINS_4pairIKiS3_EEEEE3endB9nqe210106Ev, symObjAddr: 0xEC60, symBinAddr: 0x12C60, symSize: 0x30 }
  - { offset: 0x838E8, size: 0x8, addend: 0x0, symName: __ZNSt3__114pointer_traitsIPKNS_4pairIKiPN5Tiled4TileEEEE10pointer_toB9nqe210106ERS7_, symObjAddr: 0xEC90, symBinAddr: 0x12C90, symSize: 0x10 }
  - { offset: 0x8390B, size: 0x8, addend: 0x0, symName: __ZN6QFlagsIN13QIODeviceBase12OpenModeFlagEEC2ES1_, symObjAddr: 0xECA0, symBinAddr: 0x12CA0, symSize: 0x30 }
  - { offset: 0x83943, size: 0x8, addend: 0x0, symName: __ZN9QtPrivate19QFlagsStorageHelperIN13QIODeviceBase12OpenModeFlagELi4EECI2NS_13QFlagsStorageIS2_EEENSt3__110in_place_tEj, symObjAddr: 0xECD0, symBinAddr: 0x12CD0, symSize: 0x30 }
  - { offset: 0x83981, size: 0x8, addend: 0x0, symName: __ZN9QtPrivate13QFlagsStorageIN13QIODeviceBase12OpenModeFlagEEC2ENSt3__110in_place_tEj, symObjAddr: 0xED00, symBinAddr: 0x12D00, symSize: 0x20 }
  - { offset: 0x839C4, size: 0x8, addend: 0x0, symName: __ZN7QStringC1EOS_, symObjAddr: 0xED70, symBinAddr: 0x12D20, symSize: 0x30 }
  - { offset: 0x839FD, size: 0x8, addend: 0x0, symName: __ZN7QStringC2EOS_, symObjAddr: 0xEDA0, symBinAddr: 0x12D50, symSize: 0x30 }
  - { offset: 0x83A36, size: 0x8, addend: 0x0, symName: __ZN10QByteArrayD2Ev, symObjAddr: 0xEDD0, symBinAddr: 0x12D80, symSize: 0x20 }
  - { offset: 0x83A62, size: 0x8, addend: 0x0, symName: __ZN17QArrayDataPointerIcED1Ev, symObjAddr: 0xEDF0, symBinAddr: 0x12DA0, symSize: 0x20 }
  - { offset: 0x83A8C, size: 0x8, addend: 0x0, symName: __ZN17QArrayDataPointerIcED2Ev, symObjAddr: 0xEE10, symBinAddr: 0x12DC0, symSize: 0x40 }
  - { offset: 0x83AB6, size: 0x8, addend: 0x0, symName: __ZNSt3__113__atomic_baseIiLb1EE9fetch_subB9nqe210106EiNS_12memory_orderE, symObjAddr: 0xEFB0, symBinAddr: 0x12E00, symSize: 0x30 }
  - { offset: 0x83AF8, size: 0x8, addend: 0x0, symName: __ZNKSt3__113__atomic_baseIiLb0EE4loadB9nqe210106ENS_12memory_orderE, symObjAddr: 0xF0E0, symBinAddr: 0x12EF0, symSize: 0x30 }
  - { offset: 0x83B2C, size: 0x8, addend: 0x0, symName: __ZNK5Tiled4Tile4sizeEv, symObjAddr: 0xF160, symBinAddr: 0x12F70, symSize: 0x30 }
  - { offset: 0x83B53, size: 0x8, addend: 0x0, symName: __ZNK5QSize5widthEv, symObjAddr: 0xF190, symBinAddr: 0x12FA0, symSize: 0x20 }
  - { offset: 0x83B7A, size: 0x8, addend: 0x0, symName: __ZNK5QSize6heightEv, symObjAddr: 0xF1B0, symBinAddr: 0x12FC0, symSize: 0x20 }
  - { offset: 0x83BA1, size: 0x8, addend: 0x0, symName: __ZNK5QRect4sizeEv, symObjAddr: 0xF1D0, symBinAddr: 0x12FE0, symSize: 0x40 }
  - { offset: 0x83BC9, size: 0x8, addend: 0x0, symName: __ZNK5QRect5widthEv, symObjAddr: 0xF210, symBinAddr: 0x13020, symSize: 0x60 }
  - { offset: 0x83BF1, size: 0x8, addend: 0x0, symName: __ZNK5QRect6heightEv, symObjAddr: 0xF270, symBinAddr: 0x13080, symSize: 0x60 }
  - { offset: 0x83C19, size: 0x8, addend: 0x0, symName: __ZN5QSizeC1Eii, symObjAddr: 0xF2D0, symBinAddr: 0x130E0, symSize: 0x30 }
  - { offset: 0x83C60, size: 0x8, addend: 0x0, symName: __ZNK9QtPrivate16QCheckedIntegers11QCheckedIntIiNS0_13SafeCheckImplIiEENS0_18AssertReportPolicyEE5valueEv, symObjAddr: 0xF3A0, symBinAddr: 0x131B0, symSize: 0x10 }
  - { offset: 0x83C86, size: 0x8, addend: 0x0, symName: __ZN9QtPrivate16QCheckedIntegers13SafeCheckImplIiE3addEiiPi, symObjAddr: 0xF410, symBinAddr: 0x13220, symSize: 0x40 }
  - { offset: 0x83CC5, size: 0x8, addend: 0x0, symName: __ZN9QtPrivate16QCheckedIntegers18AssertReportPolicy5checkEbPKcS3_, symObjAddr: 0xF450, symBinAddr: 0x13260, symSize: 0x40 }
  - { offset: 0x83D03, size: 0x8, addend: 0x0, symName: __Z12qAddOverflowIiENSt3__19enable_ifIXsr3stdE11is_signed_vIT_EEbE4typeES2_S2_PS2_, symObjAddr: 0xF490, symBinAddr: 0x132A0, symSize: 0x30 }
  - { offset: 0x83D59, size: 0x8, addend: 0x0, symName: __ZN9QtPrivate16QCheckedIntegers13SafeCheckImplIiE3subEiiPi, symObjAddr: 0xF4C0, symBinAddr: 0x132D0, symSize: 0x40 }
  - { offset: 0x83D97, size: 0x8, addend: 0x0, symName: __Z12qSubOverflowIiENSt3__19enable_ifIXsr3stdE11is_signed_vIT_EEbE4typeES2_S2_PS2_, symObjAddr: 0xF500, symBinAddr: 0x13310, symSize: 0x30 }
  - { offset: 0x83DED, size: 0x8, addend: 0x0, symName: __ZN5QSizeC2Eii, symObjAddr: 0xF530, symBinAddr: 0x13340, symSize: 0x40 }
  - { offset: 0x83E34, size: 0x8, addend: 0x0, symName: __ZN17QArrayDataPointerIDsEC1EP15QTypedArrayDataIDsEPDsx, symObjAddr: 0xF570, symBinAddr: 0x13380, symSize: 0x40 }
  - { offset: 0x83E88, size: 0x8, addend: 0x0, symName: __ZN17QArrayDataPointerIDsEC2EP15QTypedArrayDataIDsEPDsx, symObjAddr: 0xF5B0, symBinAddr: 0x133C0, symSize: 0x40 }
  - { offset: 0x83EDC, size: 0x8, addend: 0x0, symName: __ZN6QFlagsIN10QByteArray12Base64OptionEEC1ES1_, symObjAddr: 0xF620, symBinAddr: 0x13400, symSize: 0x30 }
  - { offset: 0x83F14, size: 0x8, addend: 0x0, symName: __ZN14QAnyStringViewC1ERK10QByteArray, symObjAddr: 0xF650, symBinAddr: 0x13430, symSize: 0x50 }
  - { offset: 0x83F50, size: 0x8, addend: 0x0, symName: __ZN6QFlagsIN10QByteArray12Base64OptionEEC2ES1_, symObjAddr: 0xF6A0, symBinAddr: 0x13480, symSize: 0x30 }
  - { offset: 0x83F88, size: 0x8, addend: 0x0, symName: __ZN9QtPrivate19QFlagsStorageHelperIN10QByteArray12Base64OptionELi4EECI2NS_13QFlagsStorageIS2_EEENSt3__110in_place_tEj, symObjAddr: 0xF6D0, symBinAddr: 0x134B0, symSize: 0x30 }
  - { offset: 0x83FC6, size: 0x8, addend: 0x0, symName: __ZN9QtPrivate13QFlagsStorageIN10QByteArray12Base64OptionEEC2ENSt3__110in_place_tEj, symObjAddr: 0xF700, symBinAddr: 0x134E0, symSize: 0x20 }
  - { offset: 0x84009, size: 0x8, addend: 0x0, symName: __ZN14QAnyStringViewC1IcLb1EEEPKT_x, symObjAddr: 0xF790, symBinAddr: 0x13500, symSize: 0x30 }
  - { offset: 0x8405E, size: 0x8, addend: 0x0, symName: __ZN14QAnyStringViewC2IcLb1EEEPKT_x, symObjAddr: 0xF830, symBinAddr: 0x13530, symSize: 0x50 }
  - { offset: 0x840B3, size: 0x8, addend: 0x0, symName: __ZN14QAnyStringView10encodeTypeIcEEmPKT_x, symObjAddr: 0xF880, symBinAddr: 0x13580, symSize: 0xC0 }
  - { offset: 0x840ED, size: 0x8, addend: 0x0, symName: __ZN14QAnyStringView29isAsciiOnlyCharsAtCompileTimeIKcEEbPT_x, symObjAddr: 0xF940, symBinAddr: 0x13640, symSize: 0x20 }
  - { offset: 0x84131, size: 0x8, addend: 0x0, symName: __ZNKSt3__16__lessIvvEclB9nqe210106IiiEEbRKT_RKT0_, symObjAddr: 0x119B0, symBinAddr: 0x156B0, symSize: 0x30 }
  - { offset: 0x84185, size: 0x8, addend: 0x0, symName: __ZN10QByteArrayC2Ev, symObjAddr: 0x11B30, symBinAddr: 0x15720, symSize: 0x20 }
  - { offset: 0x841B1, size: 0x8, addend: 0x0, symName: __ZN17QArrayDataPointerIcEC1Ev, symObjAddr: 0x11B50, symBinAddr: 0x15740, symSize: 0x20 }
  - { offset: 0x841DB, size: 0x8, addend: 0x0, symName: __ZN17QArrayDataPointerIcEC2Ev, symObjAddr: 0x11B70, symBinAddr: 0x15760, symSize: 0x30 }
  - { offset: 0x84205, size: 0x8, addend: 0x0, symName: __ZN14QByteArrayViewC1IcLb1EEEPKT_x, symObjAddr: 0x11BA0, symBinAddr: 0x15790, symSize: 0x30 }
  - { offset: 0x8425A, size: 0x8, addend: 0x0, symName: __ZN14QByteArrayViewC2IcLb1EEEPKT_x, symObjAddr: 0x11BD0, symBinAddr: 0x157C0, symSize: 0x90 }
  - { offset: 0x842AF, size: 0x8, addend: 0x0, symName: __ZN17QArrayDataPointerIDsED2Ev, symObjAddr: 0x11C70, symBinAddr: 0x15850, symSize: 0x40 }
  - { offset: 0x842D9, size: 0x8, addend: 0x0, symName: __ZNK17QArrayDataPointerIPN5Tiled5LayerEEptEv, symObjAddr: 0x11DA0, symBinAddr: 0x15890, symSize: 0x10 }
  - { offset: 0x842FF, size: 0x8, addend: 0x0, symName: __ZNK17QArrayDataPointerIPN5Tiled5LayerEE10constBeginEv, symObjAddr: 0x11DB0, symBinAddr: 0x158A0, symSize: 0x20 }
  - { offset: 0x84325, size: 0x8, addend: 0x0, symName: __ZN5QListIPN5Tiled5LayerEE14const_iteratorC1EPKS2_, symObjAddr: 0x11DD0, symBinAddr: 0x158C0, symSize: 0x30 }
  - { offset: 0x8435D, size: 0x8, addend: 0x0, symName: __ZNK17QArrayDataPointerIPN5Tiled5LayerEE4dataEv, symObjAddr: 0x11E00, symBinAddr: 0x158F0, symSize: 0x20 }
  - { offset: 0x84383, size: 0x8, addend: 0x0, symName: __ZN5QListIPN5Tiled5LayerEE14const_iteratorC2EPKS2_, symObjAddr: 0x11E20, symBinAddr: 0x15910, symSize: 0x20 }
  - { offset: 0x843BB, size: 0x8, addend: 0x0, symName: __ZNK17QArrayDataPointerIPN5Tiled5LayerEE8constEndEv, symObjAddr: 0x11E40, symBinAddr: 0x15930, symSize: 0x30 }
  - { offset: 0x843E1, size: 0x8, addend: 0x0, symName: __ZN4QMapI7QStringS0_E22referenceHoldingDetachEv, symObjAddr: 0x11E70, symBinAddr: 0x15960, symSize: 0xE0 }
  - { offset: 0x8441E, size: 0x8, addend: 0x0, symName: __ZN9QtPrivate30QExplicitlySharedDataPointerV2I8QMapDataINSt3__13mapI7QStringS4_NS2_4lessIS4_EENS2_9allocatorINS2_4pairIKS4_S4_EEEEEEEEptEv, symObjAddr: 0x11F50, symBinAddr: 0x15A40, symSize: 0x20 }
  - { offset: 0x84444, size: 0x8, addend: 0x0, symName: __ZNSt3__13mapI7QStringS1_NS_4lessIS1_EENS_9allocatorINS_4pairIKS1_S1_EEEEE4findB9nqe210106ERS6_, symObjAddr: 0x11F70, symBinAddr: 0x15A60, symSize: 0x40 }
  - { offset: 0x84479, size: 0x8, addend: 0x0, symName: __ZN4QMapI7QStringS0_E8iteratorC1ENSt3__114__map_iteratorINS3_15__tree_iteratorINS3_12__value_typeIS0_S0_EEPNS3_11__tree_nodeIS7_PvEElEEEE, symObjAddr: 0x11FB0, symBinAddr: 0x15AA0, symSize: 0x30 }
  - { offset: 0x844B2, size: 0x8, addend: 0x0, symName: __ZN4QMapI7QStringS0_ED1Ev, symObjAddr: 0x11FE0, symBinAddr: 0x15AD0, symSize: 0x20 }
  - { offset: 0x844DE, size: 0x8, addend: 0x0, symName: __ZNK9QtPrivate30QExplicitlySharedDataPointerV2I8QMapDataINSt3__13mapI7QStringS4_NS2_4lessIS4_EENS2_9allocatorINS2_4pairIKS4_S4_EEEEEEEEcvbEv, symObjAddr: 0x12000, symBinAddr: 0x15AF0, symSize: 0x30 }
  - { offset: 0x84504, size: 0x8, addend: 0x0, symName: __ZN9QtPrivate30QExplicitlySharedDataPointerV2I8QMapDataINSt3__13mapI7QStringS4_NS2_4lessIS4_EENS2_9allocatorINS2_4pairIKS4_S4_EEEEEEEE5resetEPSD_, symObjAddr: 0x12030, symBinAddr: 0x15B20, symSize: 0xA0 }
  - { offset: 0x84538, size: 0x8, addend: 0x0, symName: __ZN8QMapDataINSt3__13mapI7QStringS2_NS0_4lessIS2_EENS0_9allocatorINS0_4pairIKS2_S2_EEEEEEEC1Ev, symObjAddr: 0x120D0, symBinAddr: 0x15BC0, symSize: 0x20 }
  - { offset: 0x84562, size: 0x8, addend: 0x0, symName: __ZNK9QtPrivate30QExplicitlySharedDataPointerV2I8QMapDataINSt3__13mapI7QStringS4_NS2_4lessIS4_EENS2_9allocatorINS2_4pairIKS4_S4_EEEEEEEE8isSharedEv, symObjAddr: 0x120F0, symBinAddr: 0x15BE0, symSize: 0x50 }
  - { offset: 0x84588, size: 0x8, addend: 0x0, symName: __ZN4QMapI7QStringS0_EC1ERKS1_, symObjAddr: 0x12140, symBinAddr: 0x15C30, symSize: 0x30 }
  - { offset: 0x845BD, size: 0x8, addend: 0x0, symName: __ZN9QtPrivate30QExplicitlySharedDataPointerV2I8QMapDataINSt3__13mapI7QStringS4_NS2_4lessIS4_EENS2_9allocatorINS2_4pairIKS4_S4_EEEEEEEE6detachEv, symObjAddr: 0x12170, symBinAddr: 0x15C60, symSize: 0xE0 }
  - { offset: 0x845F8, size: 0x8, addend: 0x0, symName: __ZNK2Qt23totally_ordered_wrapperIP8QMapDataINSt3__13mapI7QStringS4_NS2_4lessIS4_EENS2_9allocatorINS2_4pairIKS4_S4_EEEEEEEE3getEv, symObjAddr: 0x12250, symBinAddr: 0x15D40, symSize: 0x20 }
  - { offset: 0x8461E, size: 0x8, addend: 0x0, symName: __ZNK2Qt23totally_ordered_wrapperIP8QMapDataINSt3__13mapI7QStringS4_NS2_4lessIS4_EENS2_9allocatorINS2_4pairIKS4_S4_EEEEEEEEcvbEv, symObjAddr: 0x12270, symBinAddr: 0x15D60, symSize: 0x30 }
  - { offset: 0x84644, size: 0x8, addend: 0x0, symName: __ZNK2Qt23totally_ordered_wrapperIP8QMapDataINSt3__13mapI7QStringS4_NS2_4lessIS4_EENS2_9allocatorINS2_4pairIKS4_S4_EEEEEEEEptEv, symObjAddr: 0x122A0, symBinAddr: 0x15D90, symSize: 0x20 }
  - { offset: 0x8466A, size: 0x8, addend: 0x0, symName: __ZN8QMapDataINSt3__13mapI7QStringS2_NS0_4lessIS2_EENS0_9allocatorINS0_4pairIKS2_S2_EEEEEEED1Ev, symObjAddr: 0x122C0, symBinAddr: 0x15DB0, symSize: 0x20 }
  - { offset: 0x84696, size: 0x8, addend: 0x0, symName: __ZN2Qt23totally_ordered_wrapperIP8QMapDataINSt3__13mapI7QStringS4_NS2_4lessIS4_EENS2_9allocatorINS2_4pairIKS4_S4_EEEEEEEE5resetESE_, symObjAddr: 0x122E0, symBinAddr: 0x15DD0, symSize: 0x20 }
  - { offset: 0x846CB, size: 0x8, addend: 0x0, symName: __ZN8QMapDataINSt3__13mapI7QStringS2_NS0_4lessIS2_EENS0_9allocatorINS0_4pairIKS2_S2_EEEEEEED2Ev, symObjAddr: 0x12330, symBinAddr: 0x15DF0, symSize: 0x20 }
  - { offset: 0x846F7, size: 0x8, addend: 0x0, symName: __ZNSt3__13mapI7QStringS1_NS_4lessIS1_EENS_9allocatorINS_4pairIKS1_S1_EEEEED1B9nqe210106Ev, symObjAddr: 0x12350, symBinAddr: 0x15E10, symSize: 0x20 }
  - { offset: 0x84721, size: 0x8, addend: 0x0, symName: __ZNSt3__13mapI7QStringS1_NS_4lessIS1_EENS_9allocatorINS_4pairIKS1_S1_EEEEED2B9nqe210106Ev, symObjAddr: 0x12370, symBinAddr: 0x15E30, symSize: 0x20 }
  - { offset: 0x8474B, size: 0x8, addend: 0x0, symName: __ZNSt3__16__treeINS_12__value_typeI7QStringS2_EENS_19__map_value_compareIS2_NS_4pairIKS2_S2_EENS_4lessIS2_EELb1EEENS_9allocatorIS7_EEED1Ev, symObjAddr: 0x12390, symBinAddr: 0x15E50, symSize: 0x20 }
  - { offset: 0x84777, size: 0x8, addend: 0x0, symName: __ZNSt3__16__treeINS_12__value_typeI7QStringS2_EENS_19__map_value_compareIS2_NS_4pairIKS2_S2_EENS_4lessIS2_EELb1EEENS_9allocatorIS7_EEED2Ev, symObjAddr: 0x123B0, symBinAddr: 0x15E70, symSize: 0x30 }
  - { offset: 0x847A3, size: 0x8, addend: 0x0, symName: __ZNSt3__16__treeINS_12__value_typeI7QStringS2_EENS_19__map_value_compareIS2_NS_4pairIKS2_S2_EENS_4lessIS2_EELb1EEENS_9allocatorIS7_EEE7destroyEPNS_11__tree_nodeIS3_PvEE, symObjAddr: 0x123E0, symBinAddr: 0x15EA0, symSize: 0x80 }
  - { offset: 0x847F0, size: 0x8, addend: 0x0, symName: __ZNKSt3__16__treeINS_12__value_typeI7QStringS2_EENS_19__map_value_compareIS2_NS_4pairIKS2_S2_EENS_4lessIS2_EELb1EEENS_9allocatorIS7_EEE6__rootB9nqe210106Ev, symObjAddr: 0x12460, symBinAddr: 0x15F20, symSize: 0x20 }
  - { offset: 0x84816, size: 0x8, addend: 0x0, symName: __ZNSt3__16__treeINS_12__value_typeI7QStringS2_EENS_19__map_value_compareIS2_NS_4pairIKS2_S2_EENS_4lessIS2_EELb1EEENS_9allocatorIS7_EEE12__node_allocB9nqe210106Ev, symObjAddr: 0x12480, symBinAddr: 0x15F40, symSize: 0x20 }
  - { offset: 0x8483C, size: 0x8, addend: 0x0, symName: __ZNSt3__116allocator_traitsINS_9allocatorINS_11__tree_nodeINS_12__value_typeI7QStringS4_EEPvEEEEE7destroyB9nqe210106INS_4pairIKS4_S4_EELi0EEEvRS8_PT_, symObjAddr: 0x124A0, symBinAddr: 0x15F60, symSize: 0x20 }
  - { offset: 0x8487B, size: 0x8, addend: 0x0, symName: __ZNSt3__116allocator_traitsINS_9allocatorINS_11__tree_nodeINS_12__value_typeI7QStringS4_EEPvEEEEE10deallocateB9nqe210106ERS8_PS7_m, symObjAddr: 0x124C0, symBinAddr: 0x15F80, symSize: 0x30 }
  - { offset: 0x848BD, size: 0x8, addend: 0x0, symName: __ZNSt3__14pairIK7QStringS1_ED1Ev, symObjAddr: 0x12510, symBinAddr: 0x15FD0, symSize: 0x20 }
  - { offset: 0x848E9, size: 0x8, addend: 0x0, symName: __ZNSt3__14pairIK7QStringS1_ED2Ev, symObjAddr: 0x12530, symBinAddr: 0x15FF0, symSize: 0x30 }
  - { offset: 0x84915, size: 0x8, addend: 0x0, symName: __ZNSt3__19allocatorINS_11__tree_nodeINS_12__value_typeI7QStringS3_EEPvEEE10deallocateB9nqe210106EPS6_m, symObjAddr: 0x12560, symBinAddr: 0x16020, symSize: 0x30 }
  - { offset: 0x84957, size: 0x8, addend: 0x0, symName: __ZNKSt3__16__treeINS_12__value_typeI7QStringS2_EENS_19__map_value_compareIS2_NS_4pairIKS2_S2_EENS_4lessIS2_EELb1EEENS_9allocatorIS7_EEE10__end_nodeB9nqe210106Ev, symObjAddr: 0x12600, symBinAddr: 0x160C0, symSize: 0x20 }
  - { offset: 0x8497D, size: 0x8, addend: 0x0, symName: __ZN8QMapDataINSt3__13mapI7QStringS2_NS0_4lessIS2_EENS0_9allocatorINS0_4pairIKS2_S2_EEEEEEEC2Ev, symObjAddr: 0x12650, symBinAddr: 0x160E0, symSize: 0x30 }
  - { offset: 0x849A7, size: 0x8, addend: 0x0, symName: __ZN11QSharedDataC2Ev, symObjAddr: 0x12680, symBinAddr: 0x16110, symSize: 0x20 }
  - { offset: 0x849D1, size: 0x8, addend: 0x0, symName: __ZNSt3__13mapI7QStringS1_NS_4lessIS1_EENS_9allocatorINS_4pairIKS1_S1_EEEEEC1B9nqe210106Ev, symObjAddr: 0x126A0, symBinAddr: 0x16130, symSize: 0x20 }
  - { offset: 0x849FB, size: 0x8, addend: 0x0, symName: __ZN10QAtomicIntC1Ei, symObjAddr: 0x126C0, symBinAddr: 0x16150, symSize: 0x30 }
  - { offset: 0x84A33, size: 0x8, addend: 0x0, symName: __ZN10QAtomicIntC2Ei, symObjAddr: 0x126F0, symBinAddr: 0x16180, symSize: 0x30 }
  - { offset: 0x84A6B, size: 0x8, addend: 0x0, symName: __ZN14QAtomicIntegerIiEC2Ei, symObjAddr: 0x12720, symBinAddr: 0x161B0, symSize: 0x30 }
  - { offset: 0x84AA3, size: 0x8, addend: 0x0, symName: __ZN19QBasicAtomicIntegerIiEC2Ei, symObjAddr: 0x12750, symBinAddr: 0x161E0, symSize: 0x30 }
  - { offset: 0x84ADB, size: 0x8, addend: 0x0, symName: __ZNSt3__16atomicIiEC1B9nqe210106Ei, symObjAddr: 0x12780, symBinAddr: 0x16210, symSize: 0x30 }
  - { offset: 0x84B13, size: 0x8, addend: 0x0, symName: __ZNSt3__16atomicIiEC2B9nqe210106Ei, symObjAddr: 0x127B0, symBinAddr: 0x16240, symSize: 0x30 }
  - { offset: 0x84B4B, size: 0x8, addend: 0x0, symName: __ZNSt3__113__atomic_baseIiLb1EEC2B9nqe210106Ei, symObjAddr: 0x127E0, symBinAddr: 0x16270, symSize: 0x30 }
  - { offset: 0x84B83, size: 0x8, addend: 0x0, symName: __ZNSt3__113__atomic_baseIiLb0EEC2B9nqe210106Ei, symObjAddr: 0x12810, symBinAddr: 0x162A0, symSize: 0x30 }
  - { offset: 0x84BBB, size: 0x8, addend: 0x0, symName: __ZNSt3__117__cxx_atomic_implIiNS_22__cxx_atomic_base_implIiEEEC1B9nqe210106Ei, symObjAddr: 0x12840, symBinAddr: 0x162D0, symSize: 0x30 }
  - { offset: 0x84BF3, size: 0x8, addend: 0x0, symName: __ZNSt3__117__cxx_atomic_implIiNS_22__cxx_atomic_base_implIiEEEC2B9nqe210106Ei, symObjAddr: 0x12870, symBinAddr: 0x16300, symSize: 0x30 }
  - { offset: 0x84C2B, size: 0x8, addend: 0x0, symName: __ZNSt3__122__cxx_atomic_base_implIiEC2Ei, symObjAddr: 0x128A0, symBinAddr: 0x16330, symSize: 0x20 }
  - { offset: 0x84C63, size: 0x8, addend: 0x0, symName: __ZNSt3__13mapI7QStringS1_NS_4lessIS1_EENS_9allocatorINS_4pairIKS1_S1_EEEEEC2B9nqe210106Ev, symObjAddr: 0x128C0, symBinAddr: 0x16350, symSize: 0x30 }
  - { offset: 0x84C8D, size: 0x8, addend: 0x0, symName: __ZNSt3__119__map_value_compareI7QStringNS_4pairIKS1_S1_EENS_4lessIS1_EELb1EEC1B9nqe210106ES6_, symObjAddr: 0x128F0, symBinAddr: 0x16380, symSize: 0x20 }
  - { offset: 0x84CC6, size: 0x8, addend: 0x0, symName: __ZNSt3__16__treeINS_12__value_typeI7QStringS2_EENS_19__map_value_compareIS2_NS_4pairIKS2_S2_EENS_4lessIS2_EELb1EEENS_9allocatorIS7_EEEC1ERKSA_, symObjAddr: 0x12910, symBinAddr: 0x163A0, symSize: 0x30 }
  - { offset: 0x84D01, size: 0x8, addend: 0x0, symName: __ZNSt3__119__map_value_compareI7QStringNS_4pairIKS1_S1_EENS_4lessIS1_EELb1EEC2B9nqe210106ES6_, symObjAddr: 0x12940, symBinAddr: 0x163D0, symSize: 0x10 }
  - { offset: 0x84D3A, size: 0x8, addend: 0x0, symName: __ZNSt3__16__treeINS_12__value_typeI7QStringS2_EENS_19__map_value_compareIS2_NS_4pairIKS2_S2_EENS_4lessIS2_EELb1EEENS_9allocatorIS7_EEEC2ERKSA_, symObjAddr: 0x12950, symBinAddr: 0x163E0, symSize: 0x60 }
  - { offset: 0x84D75, size: 0x8, addend: 0x0, symName: __ZNSt3__115__tree_end_nodeIPNS_16__tree_node_baseIPvEEEC1B9nqe210106Ev, symObjAddr: 0x129B0, symBinAddr: 0x16440, symSize: 0x20 }
  - { offset: 0x84D9F, size: 0x8, addend: 0x0, symName: __ZNSt3__19allocatorINS_11__tree_nodeINS_12__value_typeI7QStringS3_EEPvEEEC1B9nqe210106Ev, symObjAddr: 0x129D0, symBinAddr: 0x16460, symSize: 0x20 }
  - { offset: 0x84DC9, size: 0x8, addend: 0x0, symName: __ZNSt3__16__treeINS_12__value_typeI7QStringS2_EENS_19__map_value_compareIS2_NS_4pairIKS2_S2_EENS_4lessIS2_EELb1EEENS_9allocatorIS7_EEE10__end_nodeB9nqe210106Ev, symObjAddr: 0x129F0, symBinAddr: 0x16480, symSize: 0x20 }
  - { offset: 0x84DEF, size: 0x8, addend: 0x0, symName: __ZNSt3__16__treeINS_12__value_typeI7QStringS2_EENS_19__map_value_compareIS2_NS_4pairIKS2_S2_EENS_4lessIS2_EELb1EEENS_9allocatorIS7_EEE12__begin_nodeB9nqe210106Ev, symObjAddr: 0x12A10, symBinAddr: 0x164A0, symSize: 0x10 }
  - { offset: 0x84E15, size: 0x8, addend: 0x0, symName: __ZNSt3__115__tree_end_nodeIPNS_16__tree_node_baseIPvEEEC2B9nqe210106Ev, symObjAddr: 0x12A20, symBinAddr: 0x164B0, symSize: 0x20 }
  - { offset: 0x84E3F, size: 0x8, addend: 0x0, symName: __ZNSt3__19allocatorINS_11__tree_nodeINS_12__value_typeI7QStringS3_EEPvEEEC2B9nqe210106Ev, symObjAddr: 0x12A40, symBinAddr: 0x164D0, symSize: 0x20 }
  - { offset: 0x84E69, size: 0x8, addend: 0x0, symName: __ZNSt3__116__non_trivial_ifILb1ENS_9allocatorINS_11__tree_nodeINS_12__value_typeI7QStringS4_EEPvEEEEEC2B9nqe210106Ev, symObjAddr: 0x12A60, symBinAddr: 0x164F0, symSize: 0x10 }
  - { offset: 0x84E93, size: 0x8, addend: 0x0, symName: __ZN4QMapI7QStringS0_EC2ERKS1_, symObjAddr: 0x12A70, symBinAddr: 0x16500, symSize: 0x30 }
  - { offset: 0x84EC8, size: 0x8, addend: 0x0, symName: __ZN9QtPrivate30QExplicitlySharedDataPointerV2I8QMapDataINSt3__13mapI7QStringS4_NS2_4lessIS4_EENS2_9allocatorINS2_4pairIKS4_S4_EEEEEEEEC1ERKSE_, symObjAddr: 0x12AA0, symBinAddr: 0x16530, symSize: 0x30 }
  - { offset: 0x84F00, size: 0x8, addend: 0x0, symName: __ZN9QtPrivate30QExplicitlySharedDataPointerV2I8QMapDataINSt3__13mapI7QStringS4_NS2_4lessIS4_EENS2_9allocatorINS2_4pairIKS4_S4_EEEEEEEEC2ERKSE_, symObjAddr: 0x12AD0, symBinAddr: 0x16560, symSize: 0x50 }
  - { offset: 0x84F38, size: 0x8, addend: 0x0, symName: __ZNK2Qt23totally_ordered_wrapperIP8QMapDataINSt3__13mapI7QStringS4_NS2_4lessIS4_EENS2_9allocatorINS2_4pairIKS4_S4_EEEEEEEEdeISD_Lb1EEERT_v, symObjAddr: 0x12B20, symBinAddr: 0x165B0, symSize: 0x20 }
  - { offset: 0x84F6D, size: 0x8, addend: 0x0, symName: __ZN8QMapDataINSt3__13mapI7QStringS2_NS0_4lessIS2_EENS0_9allocatorINS0_4pairIKS2_S2_EEEEEEEC1ERKSB_, symObjAddr: 0x12B40, symBinAddr: 0x165D0, symSize: 0x30 }
  - { offset: 0x84FA2, size: 0x8, addend: 0x0, symName: __ZN9QtPrivate30QExplicitlySharedDataPointerV2I8QMapDataINSt3__13mapI7QStringS4_NS2_4lessIS4_EENS2_9allocatorINS2_4pairIKS4_S4_EEEEEEEEC1EPSD_, symObjAddr: 0x12B70, symBinAddr: 0x16600, symSize: 0x30 }
  - { offset: 0x84FDA, size: 0x8, addend: 0x0, symName: __ZN9QtPrivate30QExplicitlySharedDataPointerV2I8QMapDataINSt3__13mapI7QStringS4_NS2_4lessIS4_EENS2_9allocatorINS2_4pairIKS4_S4_EEEEEEEE4swapERSE_, symObjAddr: 0x12BA0, symBinAddr: 0x16630, symSize: 0x30 }
  - { offset: 0x8500E, size: 0x8, addend: 0x0, symName: __ZN9QtPrivate30QExplicitlySharedDataPointerV2I8QMapDataINSt3__13mapI7QStringS4_NS2_4lessIS4_EENS2_9allocatorINS2_4pairIKS4_S4_EEEEEEEED1Ev, symObjAddr: 0x12BD0, symBinAddr: 0x16660, symSize: 0x20 }
  - { offset: 0x85038, size: 0x8, addend: 0x0, symName: __ZN8QMapDataINSt3__13mapI7QStringS2_NS0_4lessIS2_EENS0_9allocatorINS0_4pairIKS2_S2_EEEEEEEC2ERKSB_, symObjAddr: 0x12BF0, symBinAddr: 0x16680, symSize: 0x40 }
  - { offset: 0x8506D, size: 0x8, addend: 0x0, symName: __ZN11QSharedDataC2ERKS_, symObjAddr: 0x12C30, symBinAddr: 0x166C0, symSize: 0x30 }
  - { offset: 0x850A2, size: 0x8, addend: 0x0, symName: __ZNSt3__13mapI7QStringS1_NS_4lessIS1_EENS_9allocatorINS_4pairIKS1_S1_EEEEEC1B9nqe210106ERKS9_, symObjAddr: 0x12C60, symBinAddr: 0x166F0, symSize: 0x30 }
  - { offset: 0x850DB, size: 0x8, addend: 0x0, symName: __ZNSt3__13mapI7QStringS1_NS_4lessIS1_EENS_9allocatorINS_4pairIKS1_S1_EEEEEC2B9nqe210106ERKS9_, symObjAddr: 0x12C90, symBinAddr: 0x16720, symSize: 0x80 }
  - { offset: 0x85114, size: 0x8, addend: 0x0, symName: __ZNSt3__16__treeINS_12__value_typeI7QStringS2_EENS_19__map_value_compareIS2_NS_4pairIKS2_S2_EENS_4lessIS2_EELb1EEENS_9allocatorIS7_EEEC1ERKSD_, symObjAddr: 0x12D10, symBinAddr: 0x167A0, symSize: 0x30 }
  - { offset: 0x8514F, size: 0x8, addend: 0x0, symName: __ZNSt3__13mapI7QStringS1_NS_4lessIS1_EENS_9allocatorINS_4pairIKS1_S1_EEEEE6insertB9nqe210106INS_20__map_const_iteratorINS_21__tree_const_iteratorINS_12__value_typeIS1_S1_EEPNS_11__tree_nodeISE_PvEElEEEEEEvT_SL_, symObjAddr: 0x12D40, symBinAddr: 0x167D0, symSize: 0x80 }
  - { offset: 0x851BA, size: 0x8, addend: 0x0, symName: __ZNKSt3__13mapI7QStringS1_NS_4lessIS1_EENS_9allocatorINS_4pairIKS1_S1_EEEEE5beginB9nqe210106Ev, symObjAddr: 0x12DC0, symBinAddr: 0x16850, symSize: 0x30 }
  - { offset: 0x851E0, size: 0x8, addend: 0x0, symName: __ZNKSt3__13mapI7QStringS1_NS_4lessIS1_EENS_9allocatorINS_4pairIKS1_S1_EEEEE3endB9nqe210106Ev, symObjAddr: 0x12DF0, symBinAddr: 0x16880, symSize: 0x30 }
  - { offset: 0x85206, size: 0x8, addend: 0x0, symName: __ZNSt3__16__treeINS_12__value_typeI7QStringS2_EENS_19__map_value_compareIS2_NS_4pairIKS2_S2_EENS_4lessIS2_EELb1EEENS_9allocatorIS7_EEEC2ERKSD_, symObjAddr: 0x12E20, symBinAddr: 0x168B0, symSize: 0x80 }
  - { offset: 0x8524C, size: 0x8, addend: 0x0, symName: __ZNSt3__116allocator_traitsINS_9allocatorINS_11__tree_nodeINS_12__value_typeI7QStringS4_EEPvEEEEE37select_on_container_copy_constructionB9nqe210106IS8_Li0EEES8_RKS8_, symObjAddr: 0x12EA0, symBinAddr: 0x16930, symSize: 0x10 }
  - { offset: 0x8527F, size: 0x8, addend: 0x0, symName: __ZNKSt3__16__treeINS_12__value_typeI7QStringS2_EENS_19__map_value_compareIS2_NS_4pairIKS2_S2_EENS_4lessIS2_EELb1EEENS_9allocatorIS7_EEE12__node_allocB9nqe210106Ev, symObjAddr: 0x12EB0, symBinAddr: 0x16940, symSize: 0x20 }
  - { offset: 0x852A5, size: 0x8, addend: 0x0, symName: __ZNKSt3__16__treeINS_12__value_typeI7QStringS2_EENS_19__map_value_compareIS2_NS_4pairIKS2_S2_EENS_4lessIS2_EELb1EEENS_9allocatorIS7_EEE10value_compB9nqe210106Ev, symObjAddr: 0x12ED0, symBinAddr: 0x16960, symSize: 0x20 }
  - { offset: 0x852CB, size: 0x8, addend: 0x0, symName: __ZNKSt3__13mapI7QStringS1_NS_4lessIS1_EENS_9allocatorINS_4pairIKS1_S1_EEEEE4cendB9nqe210106Ev, symObjAddr: 0x12EF0, symBinAddr: 0x16980, symSize: 0x30 }
  - { offset: 0x852F1, size: 0x8, addend: 0x0, symName: __ZNSt3__13mapI7QStringS1_NS_4lessIS1_EENS_9allocatorINS_4pairIKS1_S1_EEEEE6insertB9nqe210106ENS_20__map_const_iteratorINS_21__tree_const_iteratorINS_12__value_typeIS1_S1_EEPNS_11__tree_nodeISD_PvEElEEEERKS7_, symObjAddr: 0x12F50, symBinAddr: 0x169E0, symSize: 0x50 }
  - { offset: 0x85335, size: 0x8, addend: 0x0, symName: __ZNSt3__120__map_const_iteratorINS_21__tree_const_iteratorINS_12__value_typeI7QStringS3_EEPNS_11__tree_nodeIS4_PvEElEEEC1B9nqe210106ES9_, symObjAddr: 0x12FA0, symBinAddr: 0x16A30, symSize: 0x30 }
  - { offset: 0x8536E, size: 0x8, addend: 0x0, symName: __ZNKSt3__120__map_const_iteratorINS_21__tree_const_iteratorINS_12__value_typeI7QStringS3_EEPNS_11__tree_nodeIS4_PvEElEEEdeB9nqe210106Ev, symObjAddr: 0x12FD0, symBinAddr: 0x16A60, symSize: 0x20 }
  - { offset: 0x85394, size: 0x8, addend: 0x0, symName: __ZNSt3__120__map_const_iteratorINS_21__tree_const_iteratorINS_12__value_typeI7QStringS3_EEPNS_11__tree_nodeIS4_PvEElEEEppB9nqe210106Ev, symObjAddr: 0x12FF0, symBinAddr: 0x16A80, symSize: 0x30 }
  - { offset: 0x853BA, size: 0x8, addend: 0x0, symName: __ZNSt3__16__treeINS_12__value_typeI7QStringS2_EENS_19__map_value_compareIS2_NS_4pairIKS2_S2_EENS_4lessIS2_EELb1EEENS_9allocatorIS7_EEE21__emplace_hint_uniqueB9nqe210106IRKS7_EENS_15__tree_iteratorIS3_PNS_11__tree_nodeIS3_PvEElEENS_21__tree_const_iteratorIS3_SL_lEEOT_, symObjAddr: 0x13080, symBinAddr: 0x16B10, symSize: 0x40 }
  - { offset: 0x85407, size: 0x8, addend: 0x0, symName: __ZNSt3__114__map_iteratorINS_15__tree_iteratorINS_12__value_typeI7QStringS3_EEPNS_11__tree_nodeIS4_PvEElEEEC1B9nqe210106ES9_, symObjAddr: 0x130C0, symBinAddr: 0x16B50, symSize: 0x30 }
  - { offset: 0x85440, size: 0x8, addend: 0x0, symName: __ZNSt3__16__treeINS_12__value_typeI7QStringS2_EENS_19__map_value_compareIS2_NS_4pairIKS2_S2_EENS_4lessIS2_EELb1EEENS_9allocatorIS7_EEE33__emplace_hint_unique_extract_keyB9nqe210106IRKS7_EENS_15__tree_iteratorIS3_PNS_11__tree_nodeIS3_PvEElEENS_21__tree_const_iteratorIS3_SL_lEEOT_NS_23__extract_key_first_tagE, symObjAddr: 0x130F0, symBinAddr: 0x16B80, symSize: 0x60 }
  - { offset: 0x85499, size: 0x8, addend: 0x0, symName: __ZNSt3__16__treeINS_12__value_typeI7QStringS2_EENS_19__map_value_compareIS2_NS_4pairIKS2_S2_EENS_4lessIS2_EELb1EEENS_9allocatorIS7_EEE30__emplace_hint_unique_key_argsIS2_JRKS7_EEENS5_INS_15__tree_iteratorIS3_PNS_11__tree_nodeIS3_PvEElEEbEENS_21__tree_const_iteratorIS3_SL_lEERKT_DpOT0_, symObjAddr: 0x13150, symBinAddr: 0x16BE0, symSize: 0x110 }
  - { offset: 0x8556D, size: 0x8, addend: 0x0, symName: __ZNSt3__16__treeINS_12__value_typeI7QStringS2_EENS_19__map_value_compareIS2_NS_4pairIKS2_S2_EENS_4lessIS2_EELb1EEENS_9allocatorIS7_EEE12__find_equalIS2_EERPNS_16__tree_node_baseIPvEENS_21__tree_const_iteratorIS3_PNS_11__tree_nodeIS3_SG_EElEERPNS_15__tree_end_nodeISI_EESJ_RKT_, symObjAddr: 0x13260, symBinAddr: 0x16CF0, symSize: 0x2F0 }
  - { offset: 0x85616, size: 0x8, addend: 0x0, symName: __ZNSt3__16__treeINS_12__value_typeI7QStringS2_EENS_19__map_value_compareIS2_NS_4pairIKS2_S2_EENS_4lessIS2_EELb1EEENS_9allocatorIS7_EEE16__construct_nodeIJRKS7_EEENS_10unique_ptrINS_11__tree_nodeIS3_PvEENS_22__tree_node_destructorINSB_ISK_EEEEEEDpOT_, symObjAddr: 0x13550, symBinAddr: 0x16FE0, symSize: 0xE0 }
  - { offset: 0x85675, size: 0x8, addend: 0x0, symName: __ZNSt3__16__treeINS_12__value_typeI7QStringS2_EENS_19__map_value_compareIS2_NS_4pairIKS2_S2_EENS_4lessIS2_EELb1EEENS_9allocatorIS7_EEE16__insert_node_atEPNS_15__tree_end_nodeIPNS_16__tree_node_baseIPvEEEERSI_SI_, symObjAddr: 0x13630, symBinAddr: 0x170C0, symSize: 0xB0 }
  - { offset: 0x856CA, size: 0x8, addend: 0x0, symName: __ZNKSt3__110unique_ptrINS_11__tree_nodeINS_12__value_typeI7QStringS3_EEPvEENS_22__tree_node_destructorINS_9allocatorIS6_EEEEE3getB9nqe210106Ev, symObjAddr: 0x136E0, symBinAddr: 0x17170, symSize: 0x20 }
  - { offset: 0x856F0, size: 0x8, addend: 0x0, symName: __ZNSt3__110unique_ptrINS_11__tree_nodeINS_12__value_typeI7QStringS3_EEPvEENS_22__tree_node_destructorINS_9allocatorIS6_EEEEE7releaseB9nqe210106Ev, symObjAddr: 0x13700, symBinAddr: 0x17190, symSize: 0x20 }
  - { offset: 0x85725, size: 0x8, addend: 0x0, symName: __ZNSt3__110unique_ptrINS_11__tree_nodeINS_12__value_typeI7QStringS3_EEPvEENS_22__tree_node_destructorINS_9allocatorIS6_EEEEED1B9nqe210106Ev, symObjAddr: 0x13720, symBinAddr: 0x171B0, symSize: 0x20 }
  - { offset: 0x8574F, size: 0x8, addend: 0x0, symName: __ZNSt3__115__tree_iteratorINS_12__value_typeI7QStringS2_EEPNS_11__tree_nodeIS3_PvEElEC1B9nqe210106ES7_, symObjAddr: 0x13740, symBinAddr: 0x171D0, symSize: 0x30 }
  - { offset: 0x8578E, size: 0x8, addend: 0x0, symName: __ZNSt3__14pairINS_15__tree_iteratorINS_12__value_typeI7QStringS3_EEPNS_11__tree_nodeIS4_PvEElEEbEC1B9nqe210106IS9_RbLi0EEEOT_OT0_, symObjAddr: 0x13770, symBinAddr: 0x17200, symSize: 0x30 }
  - { offset: 0x857EC, size: 0x8, addend: 0x0, symName: __ZNSt3__16__treeINS_12__value_typeI7QStringS2_EENS_19__map_value_compareIS2_NS_4pairIKS2_S2_EENS_4lessIS2_EELb1EEENS_9allocatorIS7_EEE3endB9nqe210106Ev, symObjAddr: 0x137A0, symBinAddr: 0x17230, symSize: 0x30 }
  - { offset: 0x85812, size: 0x8, addend: 0x0, symName: __ZNSt3__121__tree_const_iteratorINS_12__value_typeI7QStringS2_EEPNS_11__tree_nodeIS3_PvEElEC1B9nqe210106ENS_15__tree_iteratorIS3_S7_lEE, symObjAddr: 0x137D0, symBinAddr: 0x17260, symSize: 0x30 }
  - { offset: 0x8584B, size: 0x8, addend: 0x0, symName: __ZNSt3__16__treeINS_12__value_typeI7QStringS2_EENS_19__map_value_compareIS2_NS_4pairIKS2_S2_EENS_4lessIS2_EELb1EEENS_9allocatorIS7_EEE10value_compB9nqe210106Ev, symObjAddr: 0x13800, symBinAddr: 0x17290, symSize: 0x20 }
  - { offset: 0x85871, size: 0x8, addend: 0x0, symName: __ZNKSt3__119__map_value_compareI7QStringNS_4pairIKS1_S1_EENS_4lessIS1_EELb1EEclB9nqe210106ERS3_RKS4_, symObjAddr: 0x13820, symBinAddr: 0x172B0, symSize: 0x30 }
  - { offset: 0x858B5, size: 0x8, addend: 0x0, symName: __ZNKSt3__121__tree_const_iteratorINS_12__value_typeI7QStringS2_EEPNS_11__tree_nodeIS3_PvEElEdeB9nqe210106Ev, symObjAddr: 0x13850, symBinAddr: 0x172E0, symSize: 0x20 }
  - { offset: 0x858DB, size: 0x8, addend: 0x0, symName: __ZNSt3__16__treeINS_12__value_typeI7QStringS2_EENS_19__map_value_compareIS2_NS_4pairIKS2_S2_EENS_4lessIS2_EELb1EEENS_9allocatorIS7_EEE5beginB9nqe210106Ev, symObjAddr: 0x13870, symBinAddr: 0x17300, symSize: 0x30 }
  - { offset: 0x85901, size: 0x8, addend: 0x0, symName: __ZNKSt3__119__map_value_compareI7QStringNS_4pairIKS1_S1_EENS_4lessIS1_EELb1EEclB9nqe210106ERKS4_RS3_, symObjAddr: 0x138A0, symBinAddr: 0x17330, symSize: 0x30 }
  - { offset: 0x85945, size: 0x8, addend: 0x0, symName: __ZNSt3__121__tree_const_iteratorINS_12__value_typeI7QStringS2_EEPNS_11__tree_nodeIS3_PvEElEmmB9nqe210106Ev, symObjAddr: 0x138D0, symBinAddr: 0x17360, symSize: 0x30 }
  - { offset: 0x8596B, size: 0x8, addend: 0x0, symName: __ZNSt3__16__treeINS_12__value_typeI7QStringS2_EENS_19__map_value_compareIS2_NS_4pairIKS2_S2_EENS_4lessIS2_EELb1EEENS_9allocatorIS7_EEE12__find_equalIS2_EERPNS_16__tree_node_baseIPvEERPNS_15__tree_end_nodeISI_EERKT_, symObjAddr: 0x13900, symBinAddr: 0x17390, symSize: 0x150 }
  - { offset: 0x859D6, size: 0x8, addend: 0x0, symName: __ZNKSt3__121__tree_const_iteratorINS_12__value_typeI7QStringS2_EEPNS_11__tree_nodeIS3_PvEElE8__get_npB9nqe210106Ev, symObjAddr: 0x13A80, symBinAddr: 0x17510, symSize: 0x20 }
  - { offset: 0x859FC, size: 0x8, addend: 0x0, symName: __ZNSt3__115__tree_iteratorINS_12__value_typeI7QStringS2_EEPNS_11__tree_nodeIS3_PvEElEC1B9nqe210106EPNS_15__tree_end_nodeIPNS_16__tree_node_baseIS5_EEEE, symObjAddr: 0x13AA0, symBinAddr: 0x17530, symSize: 0x30 }
  - { offset: 0x85A35, size: 0x8, addend: 0x0, symName: __ZNSt3__115__tree_iteratorINS_12__value_typeI7QStringS2_EEPNS_11__tree_nodeIS3_PvEElEC2B9nqe210106EPNS_15__tree_end_nodeIPNS_16__tree_node_baseIS5_EEEE, symObjAddr: 0x13AD0, symBinAddr: 0x17560, symSize: 0x20 }
  - { offset: 0x85A6E, size: 0x8, addend: 0x0, symName: __ZNSt3__121__tree_const_iteratorINS_12__value_typeI7QStringS2_EEPNS_11__tree_nodeIS3_PvEElEC2B9nqe210106ENS_15__tree_iteratorIS3_S7_lEE, symObjAddr: 0x13AF0, symBinAddr: 0x17580, symSize: 0x20 }
  - { offset: 0x85AA7, size: 0x8, addend: 0x0, symName: __ZNKSt3__14lessI7QStringEclB9nqe210106ERKS1_S4_, symObjAddr: 0x13B10, symBinAddr: 0x175A0, symSize: 0x30 }
  - { offset: 0x85AEA, size: 0x8, addend: 0x0, symName: __ZltRK7QStringS1_, symObjAddr: 0x13B40, symBinAddr: 0x175D0, symSize: 0x40 }
  - { offset: 0x85B3C, size: 0x8, addend: 0x0, symName: __Z15compareThreeWayRK7QStringS1_, symObjAddr: 0x13BD0, symBinAddr: 0x17660, symSize: 0x50 }
  - { offset: 0x85B91, size: 0x8, addend: 0x0, symName: __ZN9QtPrivate25CompareAgainstLiteralZeroC1EMS0_FvvE, symObjAddr: 0x13C40, symBinAddr: 0x176D0, symSize: 0x50 }
  - { offset: 0x85BC6, size: 0x8, addend: 0x0, symName: __ZN9QtPrivate25CompareAgainstLiteralZeroC2EMS0_FvvE, symObjAddr: 0x13C90, symBinAddr: 0x17720, symSize: 0x30 }
  - { offset: 0x85BFA, size: 0x8, addend: 0x0, symName: __Z15compareThreeWayRK11QStringViewS1_, symObjAddr: 0x13CC0, symBinAddr: 0x17750, symSize: 0x70 }
  - { offset: 0x85C47, size: 0x8, addend: 0x0, symName: __ZN11QStringViewC1I7QStringLb1EEERKT_, symObjAddr: 0x13D30, symBinAddr: 0x177C0, symSize: 0x50 }
  - { offset: 0x85C8E, size: 0x8, addend: 0x0, symName: __ZN11QStringViewC1I5QCharLb1EEEPKT_x, symObjAddr: 0x13DC0, symBinAddr: 0x17850, symSize: 0x30 }
  - { offset: 0x85CE3, size: 0x8, addend: 0x0, symName: __ZN11QStringViewC2I5QCharLb1EEEPKT_x, symObjAddr: 0x13DF0, symBinAddr: 0x17880, symSize: 0x90 }
  - { offset: 0x85D38, size: 0x8, addend: 0x0, symName: __ZNKSt3__116__tree_node_baseIPvE15__parent_unsafeB9nqe210106Ev, symObjAddr: 0x13F70, symBinAddr: 0x179F0, symSize: 0x20 }
  - { offset: 0x85D5E, size: 0x8, addend: 0x0, symName: __ZNKSt3__16__treeINS_12__value_typeI7QStringS2_EENS_19__map_value_compareIS2_NS_4pairIKS2_S2_EENS_4lessIS2_EELb1EEENS_9allocatorIS7_EEE10__root_ptrB9nqe210106Ev, symObjAddr: 0x13F90, symBinAddr: 0x17A10, symSize: 0x20 }
  - { offset: 0x85D84, size: 0x8, addend: 0x0, symName: __ZNSt3__121__tree_const_iteratorINS_12__value_typeI7QStringS2_EEPNS_11__tree_nodeIS3_PvEElEppB9nqe210106Ev, symObjAddr: 0x14060, symBinAddr: 0x17AE0, symSize: 0x30 }
  - { offset: 0x85DAA, size: 0x8, addend: 0x0, symName: __ZNSt3__116allocator_traitsINS_9allocatorINS_11__tree_nodeINS_12__value_typeI7QStringS4_EEPvEEEEE8allocateB9nqe210106ERS8_m, symObjAddr: 0x14130, symBinAddr: 0x17BB0, symSize: 0x30 }
  - { offset: 0x85DDD, size: 0x8, addend: 0x0, symName: __ZNSt3__122__tree_node_destructorINS_9allocatorINS_11__tree_nodeINS_12__value_typeI7QStringS4_EEPvEEEEEC1B9nqe210106ERS8_b, symObjAddr: 0x14160, symBinAddr: 0x17BE0, symSize: 0x40 }
  - { offset: 0x85E2B, size: 0x8, addend: 0x0, symName: __ZNSt3__110unique_ptrINS_11__tree_nodeINS_12__value_typeI7QStringS3_EEPvEENS_22__tree_node_destructorINS_9allocatorIS6_EEEEEC1B9nqe210106ILb1EvEEPS6_NS_16__dependent_typeINS_27__unique_ptr_deleter_sfinaeISA_EEXT_EE20__good_rval_ref_typeE, symObjAddr: 0x141A0, symBinAddr: 0x17C20, symSize: 0x30 }
  - { offset: 0x85E7D, size: 0x8, addend: 0x0, symName: __ZNSt3__116allocator_traitsINS_9allocatorINS_11__tree_nodeINS_12__value_typeI7QStringS4_EEPvEEEEE9constructB9nqe210106INS_4pairIKS4_S4_EEJRKSD_ELi0EEEvRS8_PT_DpOT0_, symObjAddr: 0x141D0, symBinAddr: 0x17C50, symSize: 0x30 }
  - { offset: 0x85ED9, size: 0x8, addend: 0x0, symName: __ZNKSt3__110unique_ptrINS_11__tree_nodeINS_12__value_typeI7QStringS3_EEPvEENS_22__tree_node_destructorINS_9allocatorIS6_EEEEEptB9nqe210106Ev, symObjAddr: 0x14200, symBinAddr: 0x17C80, symSize: 0x20 }
  - { offset: 0x85EFF, size: 0x8, addend: 0x0, symName: __ZNSt3__110unique_ptrINS_11__tree_nodeINS_12__value_typeI7QStringS3_EEPvEENS_22__tree_node_destructorINS_9allocatorIS6_EEEEE11get_deleterB9nqe210106Ev, symObjAddr: 0x14220, symBinAddr: 0x17CA0, symSize: 0x20 }
  - { offset: 0x85F25, size: 0x8, addend: 0x0, symName: __ZNSt3__19allocatorINS_11__tree_nodeINS_12__value_typeI7QStringS3_EEPvEEE8allocateB9nqe210106Em, symObjAddr: 0x14240, symBinAddr: 0x17CC0, symSize: 0x50 }
  - { offset: 0x85F59, size: 0x8, addend: 0x0, symName: __ZNSt3__116allocator_traitsINS_9allocatorINS_11__tree_nodeINS_12__value_typeI7QStringS4_EEPvEEEEE8max_sizeB9nqe210106IS8_Li0EEEmRKS8_, symObjAddr: 0x14290, symBinAddr: 0x17D10, symSize: 0x20 }
  - { offset: 0x85F8C, size: 0x8, addend: 0x0, symName: __ZNKSt3__19allocatorINS_11__tree_nodeINS_12__value_typeI7QStringS3_EEPvEEE8max_sizeB9nqe210106Ev, symObjAddr: 0x14350, symBinAddr: 0x17DD0, symSize: 0x20 }
  - { offset: 0x85FB2, size: 0x8, addend: 0x0, symName: __ZNSt3__122__tree_node_destructorINS_9allocatorINS_11__tree_nodeINS_12__value_typeI7QStringS4_EEPvEEEEEC2B9nqe210106ERS8_b, symObjAddr: 0x14370, symBinAddr: 0x17DF0, symSize: 0x30 }
  - { offset: 0x85FFA, size: 0x8, addend: 0x0, symName: __ZNSt3__110unique_ptrINS_11__tree_nodeINS_12__value_typeI7QStringS3_EEPvEENS_22__tree_node_destructorINS_9allocatorIS6_EEEEEC2B9nqe210106ILb1EvEEPS6_NS_16__dependent_typeINS_27__unique_ptr_deleter_sfinaeISA_EEXT_EE20__good_rval_ref_typeE, symObjAddr: 0x143A0, symBinAddr: 0x17E20, symSize: 0x50 }
  - { offset: 0x86051, size: 0x8, addend: 0x0, symName: __ZNSt3__125__compressed_pair_paddingINS_22__tree_node_destructorINS_9allocatorINS_11__tree_nodeINS_12__value_typeI7QStringS5_EEPvEEEEEELb0EEC1Ev, symObjAddr: 0x143F0, symBinAddr: 0x17E70, symSize: 0x20 }
  - { offset: 0x8607D, size: 0x8, addend: 0x0, symName: __ZNSt3__125__compressed_pair_paddingINS_22__tree_node_destructorINS_9allocatorINS_11__tree_nodeINS_12__value_typeI7QStringS5_EEPvEEEEEELb0EEC2Ev, symObjAddr: 0x14410, symBinAddr: 0x17E90, symSize: 0x40 }
  - { offset: 0x860A9, size: 0x8, addend: 0x0, symName: __ZNSt3__19allocatorINS_11__tree_nodeINS_12__value_typeI7QStringS3_EEPvEEE9constructB9nqe210106INS_4pairIKS3_S3_EEJRKSB_EEEvPT_DpOT0_, symObjAddr: 0x14450, symBinAddr: 0x17ED0, symSize: 0x30 }
  - { offset: 0x860FF, size: 0x8, addend: 0x0, symName: __ZNSt3__14pairIK7QStringS1_EC1B9nqe210106ERKS3_, symObjAddr: 0x14480, symBinAddr: 0x17F00, symSize: 0x30 }
  - { offset: 0x86134, size: 0x8, addend: 0x0, symName: __ZNSt3__14pairIK7QStringS1_EC2B9nqe210106ERKS3_, symObjAddr: 0x144B0, symBinAddr: 0x17F30, symSize: 0x40 }
  - { offset: 0x86169, size: 0x8, addend: 0x0, symName: __ZNSt3__16__treeINS_12__value_typeI7QStringS2_EENS_19__map_value_compareIS2_NS_4pairIKS2_S2_EENS_4lessIS2_EELb1EEENS_9allocatorIS7_EEE4sizeB9nqe210106Ev, symObjAddr: 0x14700, symBinAddr: 0x18180, symSize: 0x20 }
  - { offset: 0x8618F, size: 0x8, addend: 0x0, symName: __ZNSt3__116__tree_node_baseIPvE12__set_parentB9nqe210106EPS2_, symObjAddr: 0x14890, symBinAddr: 0x18310, symSize: 0x20 }
  - { offset: 0x861C4, size: 0x8, addend: 0x0, symName: __ZNSt3__110unique_ptrINS_11__tree_nodeINS_12__value_typeI7QStringS3_EEPvEENS_22__tree_node_destructorINS_9allocatorIS6_EEEEED2B9nqe210106Ev, symObjAddr: 0x148B0, symBinAddr: 0x18330, symSize: 0x20 }
  - { offset: 0x861EE, size: 0x8, addend: 0x0, symName: __ZNSt3__110unique_ptrINS_11__tree_nodeINS_12__value_typeI7QStringS3_EEPvEENS_22__tree_node_destructorINS_9allocatorIS6_EEEEE5resetB9nqe210106EPS6_, symObjAddr: 0x148D0, symBinAddr: 0x18350, symSize: 0x50 }
  - { offset: 0x86232, size: 0x8, addend: 0x0, symName: __ZNSt3__122__tree_node_destructorINS_9allocatorINS_11__tree_nodeINS_12__value_typeI7QStringS4_EEPvEEEEEclB9nqe210106EPS7_, symObjAddr: 0x14920, symBinAddr: 0x183A0, symSize: 0x60 }
  - { offset: 0x86267, size: 0x8, addend: 0x0, symName: __ZNSt3__115__tree_iteratorINS_12__value_typeI7QStringS2_EEPNS_11__tree_nodeIS3_PvEElEC2B9nqe210106ES7_, symObjAddr: 0x14980, symBinAddr: 0x18400, symSize: 0x20 }
  - { offset: 0x862A0, size: 0x8, addend: 0x0, symName: __ZNSt3__14pairINS_15__tree_iteratorINS_12__value_typeI7QStringS3_EEPNS_11__tree_nodeIS4_PvEElEEbEC2B9nqe210106IS9_RbLi0EEEOT_OT0_, symObjAddr: 0x149A0, symBinAddr: 0x18420, symSize: 0x30 }
  - { offset: 0x862FE, size: 0x8, addend: 0x0, symName: __ZNSt3__114__map_iteratorINS_15__tree_iteratorINS_12__value_typeI7QStringS3_EEPNS_11__tree_nodeIS4_PvEElEEEC2B9nqe210106ES9_, symObjAddr: 0x149D0, symBinAddr: 0x18450, symSize: 0x20 }
  - { offset: 0x86337, size: 0x8, addend: 0x0, symName: __ZNSt3__120__map_const_iteratorINS_21__tree_const_iteratorINS_12__value_typeI7QStringS3_EEPNS_11__tree_nodeIS4_PvEElEEEC2B9nqe210106ES9_, symObjAddr: 0x149F0, symBinAddr: 0x18470, symSize: 0x20 }
  - { offset: 0x86370, size: 0x8, addend: 0x0, symName: __ZNKSt3__16__treeINS_12__value_typeI7QStringS2_EENS_19__map_value_compareIS2_NS_4pairIKS2_S2_EENS_4lessIS2_EELb1EEENS_9allocatorIS7_EEE5beginB9nqe210106Ev, symObjAddr: 0x14A10, symBinAddr: 0x18490, symSize: 0x30 }
  - { offset: 0x86396, size: 0x8, addend: 0x0, symName: __ZNKSt3__16__treeINS_12__value_typeI7QStringS2_EENS_19__map_value_compareIS2_NS_4pairIKS2_S2_EENS_4lessIS2_EELb1EEENS_9allocatorIS7_EEE12__begin_nodeB9nqe210106Ev, symObjAddr: 0x14A40, symBinAddr: 0x184C0, symSize: 0x10 }
  - { offset: 0x863BC, size: 0x8, addend: 0x0, symName: __ZNSt3__121__tree_const_iteratorINS_12__value_typeI7QStringS2_EEPNS_11__tree_nodeIS3_PvEElEC1B9nqe210106EPNS_15__tree_end_nodeIPNS_16__tree_node_baseIS5_EEEE, symObjAddr: 0x14A50, symBinAddr: 0x184D0, symSize: 0x30 }
  - { offset: 0x863F5, size: 0x8, addend: 0x0, symName: __ZNSt3__121__tree_const_iteratorINS_12__value_typeI7QStringS2_EEPNS_11__tree_nodeIS3_PvEElEC2B9nqe210106EPNS_15__tree_end_nodeIPNS_16__tree_node_baseIS5_EEEE, symObjAddr: 0x14A80, symBinAddr: 0x18500, symSize: 0x20 }
  - { offset: 0x8642E, size: 0x8, addend: 0x0, symName: __ZNKSt3__16__treeINS_12__value_typeI7QStringS2_EENS_19__map_value_compareIS2_NS_4pairIKS2_S2_EENS_4lessIS2_EELb1EEENS_9allocatorIS7_EEE3endB9nqe210106Ev, symObjAddr: 0x14AA0, symBinAddr: 0x18520, symSize: 0x30 }
  - { offset: 0x86454, size: 0x8, addend: 0x0, symName: __ZN9QtPrivate30QExplicitlySharedDataPointerV2I8QMapDataINSt3__13mapI7QStringS4_NS2_4lessIS4_EENS2_9allocatorINS2_4pairIKS4_S4_EEEEEEEEC2EPSD_, symObjAddr: 0x14AD0, symBinAddr: 0x18550, symSize: 0x50 }
  - { offset: 0x8648B, size: 0x8, addend: 0x0, symName: __Z11qt_ptr_swapI8QMapDataINSt3__13mapI7QStringS3_NS1_4lessIS3_EENS1_9allocatorINS1_4pairIKS3_S3_EEEEEEEEvRPT_SF_, symObjAddr: 0x14B50, symBinAddr: 0x185D0, symSize: 0x40 }
  - { offset: 0x864D9, size: 0x8, addend: 0x0, symName: __ZN9QtPrivate30QExplicitlySharedDataPointerV2I8QMapDataINSt3__13mapI7QStringS4_NS2_4lessIS4_EENS2_9allocatorINS2_4pairIKS4_S4_EEEEEEEED2Ev, symObjAddr: 0x14B90, symBinAddr: 0x18610, symSize: 0x70 }
  - { offset: 0x86503, size: 0x8, addend: 0x0, symName: __ZNSt3__16__treeINS_12__value_typeI7QStringS2_EENS_19__map_value_compareIS2_NS_4pairIKS2_S2_EENS_4lessIS2_EELb1EEENS_9allocatorIS7_EEE4findIS2_EENS_15__tree_iteratorIS3_PNS_11__tree_nodeIS3_PvEElEERKT_, symObjAddr: 0x14C00, symBinAddr: 0x18680, symSize: 0xD0 }
  - { offset: 0x86550, size: 0x8, addend: 0x0, symName: __ZNSt3__16__treeINS_12__value_typeI7QStringS2_EENS_19__map_value_compareIS2_NS_4pairIKS2_S2_EENS_4lessIS2_EELb1EEENS_9allocatorIS7_EEE13__lower_boundIS2_EENS_15__tree_iteratorIS3_PNS_11__tree_nodeIS3_PvEElEERKT_SJ_PNS_15__tree_end_nodeIPNS_16__tree_node_baseISH_EEEE, symObjAddr: 0x14CD0, symBinAddr: 0x18750, symSize: 0x90 }
  - { offset: 0x865AC, size: 0x8, addend: 0x0, symName: __ZNKSt3__115__tree_iteratorINS_12__value_typeI7QStringS2_EEPNS_11__tree_nodeIS3_PvEElEdeB9nqe210106Ev, symObjAddr: 0x14D90, symBinAddr: 0x18810, symSize: 0x20 }
  - { offset: 0x865D2, size: 0x8, addend: 0x0, symName: __ZNKSt3__115__tree_iteratorINS_12__value_typeI7QStringS2_EEPNS_11__tree_nodeIS3_PvEElE8__get_npB9nqe210106Ev, symObjAddr: 0x14DE0, symBinAddr: 0x18860, symSize: 0x20 }
  - { offset: 0x865F8, size: 0x8, addend: 0x0, symName: __ZN4QMapI7QStringS0_E8iteratorC2ENSt3__114__map_iteratorINS3_15__tree_iteratorINS3_12__value_typeIS0_S0_EEPNS3_11__tree_nodeIS7_PvEElEEEE, symObjAddr: 0x14E00, symBinAddr: 0x18880, symSize: 0x20 }
  - { offset: 0x86631, size: 0x8, addend: 0x0, symName: __ZN4QMapI7QStringS0_ED2Ev, symObjAddr: 0x14E20, symBinAddr: 0x188A0, symSize: 0x20 }
  - { offset: 0x8665D, size: 0x8, addend: 0x0, symName: __ZN4QMapI7QStringS0_E6detachEv, symObjAddr: 0x14E40, symBinAddr: 0x188C0, symSize: 0x60 }
  - { offset: 0x86683, size: 0x8, addend: 0x0, symName: __ZNSt3__13mapI7QStringS1_NS_4lessIS1_EENS_9allocatorINS_4pairIKS1_S1_EEEEE3endB9nqe210106Ev, symObjAddr: 0x14EA0, symBinAddr: 0x18920, symSize: 0x30 }
  - { offset: 0x866A9, size: 0x8, addend: 0x0, symName: __ZN4QMapI7QStringS0_E28referenceHoldingDetachExceptERKS0_, symObjAddr: 0x14F00, symBinAddr: 0x18980, symSize: 0x160 }
  - { offset: 0x86704, size: 0x8, addend: 0x0, symName: __ZNSt3__13mapI7QStringS1_NS_4lessIS1_EENS_9allocatorINS_4pairIKS1_S1_EEEEE16insert_or_assignB9nqe210106IRS6_EENS5_INS_14__map_iteratorINS_15__tree_iteratorINS_12__value_typeIS1_S1_EEPNS_11__tree_nodeISF_PvEElEEEEbEESB_OT_, symObjAddr: 0x15060, symBinAddr: 0x18AE0, symSize: 0x170 }
  - { offset: 0x86760, size: 0x8, addend: 0x0, symName: __ZN8QMapDataINSt3__13mapI7QStringS2_NS0_4lessIS2_EENS0_9allocatorINS0_4pairIKS2_S2_EEEEEEE21copyIfNotEquivalentToERKSA_RS7_, symObjAddr: 0x151D0, symBinAddr: 0x18C50, symSize: 0x1B0 }
  - { offset: 0x86818, size: 0x8, addend: 0x0, symName: __ZNKSt3__13mapI7QStringS1_NS_4lessIS1_EENS_9allocatorINS_4pairIKS1_S1_EEEEE5emptyB9nqe210106Ev, symObjAddr: 0x15380, symBinAddr: 0x18E00, symSize: 0x30 }
  - { offset: 0x8683E, size: 0x8, addend: 0x0, symName: __ZNKSt3__13mapI7QStringS1_NS_4lessIS1_EENS_9allocatorINS_4pairIKS1_S1_EEEEE6cbeginB9nqe210106Ev, symObjAddr: 0x153B0, symBinAddr: 0x18E30, symSize: 0x30 }
  - { offset: 0x86864, size: 0x8, addend: 0x0, symName: __ZNKSt3__13mapI7QStringS1_NS_4lessIS1_EENS_9allocatorINS_4pairIKS1_S1_EEEEE8key_compB9nqe210106Ev, symObjAddr: 0x153E0, symBinAddr: 0x18E60, symSize: 0x30 }
  - { offset: 0x8688A, size: 0x8, addend: 0x0, symName: __ZNKSt3__120__map_const_iteratorINS_21__tree_const_iteratorINS_12__value_typeI7QStringS3_EEPNS_11__tree_nodeIS4_PvEElEEEptB9nqe210106Ev, symObjAddr: 0x15410, symBinAddr: 0x18E90, symSize: 0x30 }
  - { offset: 0x868BA, size: 0x8, addend: 0x0, symName: __ZZN8QMapDataINSt3__13mapI7QStringS2_NS0_4lessIS2_EENS0_9allocatorINS0_4pairIKS2_S2_EEEEEEE21copyIfNotEquivalentToERKSA_RS7_ENKUlT_E_clINS0_20__map_const_iteratorINS0_21__tree_const_iteratorINS0_12__value_typeIS2_S2_EEPNS0_11__tree_nodeISL_PvEElEEEEEEDaSF_, symObjAddr: 0x15440, symBinAddr: 0x18EC0, symSize: 0x60 }
  - { offset: 0x868FB, size: 0x8, addend: 0x0, symName: __ZNKSt3__16__treeINS_12__value_typeI7QStringS2_EENS_19__map_value_compareIS2_NS_4pairIKS2_S2_EENS_4lessIS2_EELb1EEENS_9allocatorIS7_EEE4sizeB9nqe210106Ev, symObjAddr: 0x154A0, symBinAddr: 0x18F20, symSize: 0x20 }
  - { offset: 0x86921, size: 0x8, addend: 0x0, symName: __ZNKSt3__119__map_value_compareI7QStringNS_4pairIKS1_S1_EENS_4lessIS1_EELb1EE8key_compB9nqe210106Ev, symObjAddr: 0x154C0, symBinAddr: 0x18F40, symSize: 0x10 }
  - { offset: 0x86947, size: 0x8, addend: 0x0, symName: __ZNSt3__114pointer_traitsIPKNS_4pairIK7QStringS2_EEE10pointer_toB9nqe210106ERS5_, symObjAddr: 0x154D0, symBinAddr: 0x18F50, symSize: 0x10 }
  - { offset: 0x8696A, size: 0x8, addend: 0x0, symName: __ZNSt3__13mapI7QStringS1_NS_4lessIS1_EENS_9allocatorINS_4pairIKS1_S1_EEEEE11lower_boundB9nqe210106ERS6_, symObjAddr: 0x154E0, symBinAddr: 0x18F60, symSize: 0x40 }
  - { offset: 0x8699F, size: 0x8, addend: 0x0, symName: __ZNKSt3__114__map_iteratorINS_15__tree_iteratorINS_12__value_typeI7QStringS3_EEPNS_11__tree_nodeIS4_PvEElEEEptB9nqe210106Ev, symObjAddr: 0x15550, symBinAddr: 0x18FD0, symSize: 0x30 }
  - { offset: 0x869C5, size: 0x8, addend: 0x0, symName: __ZNSt3__13mapI7QStringS1_NS_4lessIS1_EENS_9allocatorINS_4pairIKS1_S1_EEEEE12emplace_hintB9nqe210106IJRS6_SB_EEENS_14__map_iteratorINS_15__tree_iteratorINS_12__value_typeIS1_S1_EEPNS_11__tree_nodeISF_PvEElEEEENS_20__map_const_iteratorINS_21__tree_const_iteratorISF_SJ_lEEEEDpOT_, symObjAddr: 0x155E0, symBinAddr: 0x19060, symSize: 0x50 }
  - { offset: 0x86A28, size: 0x8, addend: 0x0, symName: __ZNSt3__120__map_const_iteratorINS_21__tree_const_iteratorINS_12__value_typeI7QStringS3_EEPNS_11__tree_nodeIS4_PvEElEEEC1B9nqe210106ENS_14__map_iteratorINS_15__tree_iteratorIS4_S8_lEEEE, symObjAddr: 0x15630, symBinAddr: 0x190B0, symSize: 0x30 }
  - { offset: 0x86A61, size: 0x8, addend: 0x0, symName: __ZNSt3__16__treeINS_12__value_typeI7QStringS2_EENS_19__map_value_compareIS2_NS_4pairIKS2_S2_EENS_4lessIS2_EELb1EEENS_9allocatorIS7_EEE11lower_boundB9nqe210106IS2_EENS_15__tree_iteratorIS3_PNS_11__tree_nodeIS3_PvEElEERKT_, symObjAddr: 0x15660, symBinAddr: 0x190E0, symSize: 0x60 }
  - { offset: 0x86A9F, size: 0x8, addend: 0x0, symName: __ZNSt3__114pointer_traitsIPNS_4pairIK7QStringS2_EEE10pointer_toB9nqe210106ERS4_, symObjAddr: 0x156C0, symBinAddr: 0x19140, symSize: 0x10 }
  - { offset: 0x86AC8, size: 0x8, addend: 0x0, symName: __ZNSt3__14pairINS_14__map_iteratorINS_15__tree_iteratorINS_12__value_typeI7QStringS4_EEPNS_11__tree_nodeIS5_PvEElEEEEbEC1B9nqe210106IRSB_bLi0EEEOT_OT0_, symObjAddr: 0x156D0, symBinAddr: 0x19150, symSize: 0x30 }
  - { offset: 0x86B26, size: 0x8, addend: 0x0, symName: __ZNSt3__14pairINS_14__map_iteratorINS_15__tree_iteratorINS_12__value_typeI7QStringS4_EEPNS_11__tree_nodeIS5_PvEElEEEEbEC2B9nqe210106IRSB_bLi0EEEOT_OT0_, symObjAddr: 0x15700, symBinAddr: 0x19180, symSize: 0x30 }
  - { offset: 0x86B8A, size: 0x8, addend: 0x0, symName: __ZNSt3__14pairINS_14__map_iteratorINS_15__tree_iteratorINS_12__value_typeI7QStringS4_EEPNS_11__tree_nodeIS5_PvEElEEEEbEC1B9nqe210106ISB_bLi0EEEOT_OT0_, symObjAddr: 0x15730, symBinAddr: 0x191B0, symSize: 0x30 }
  - { offset: 0x86BE8, size: 0x8, addend: 0x0, symName: __ZNSt3__14pairINS_14__map_iteratorINS_15__tree_iteratorINS_12__value_typeI7QStringS4_EEPNS_11__tree_nodeIS5_PvEElEEEEbEC2B9nqe210106ISB_bLi0EEEOT_OT0_, symObjAddr: 0x15760, symBinAddr: 0x191E0, symSize: 0x30 }
  - { offset: 0x86C46, size: 0x8, addend: 0x0, symName: __ZNSt3__16__treeINS_12__value_typeI7QStringS2_EENS_19__map_value_compareIS2_NS_4pairIKS2_S2_EENS_4lessIS2_EELb1EEENS_9allocatorIS7_EEE21__emplace_hint_uniqueB9nqe210106IRS6_SF_Li0EEENS_15__tree_iteratorIS3_PNS_11__tree_nodeIS3_PvEElEENS_21__tree_const_iteratorIS3_SK_lEEOT_OT0_, symObjAddr: 0x15790, symBinAddr: 0x19210, symSize: 0x60 }
  - { offset: 0x86CB1, size: 0x8, addend: 0x0, symName: __ZNSt3__16__treeINS_12__value_typeI7QStringS2_EENS_19__map_value_compareIS2_NS_4pairIKS2_S2_EENS_4lessIS2_EELb1EEENS_9allocatorIS7_EEE30__emplace_hint_unique_key_argsIS2_JRS6_SF_EEENS5_INS_15__tree_iteratorIS3_PNS_11__tree_nodeIS3_PvEElEEbEENS_21__tree_const_iteratorIS3_SK_lEERKT_DpOT0_, symObjAddr: 0x157F0, symBinAddr: 0x19270, symSize: 0x110 }
  - { offset: 0x86D9A, size: 0x8, addend: 0x0, symName: __ZNSt3__16__treeINS_12__value_typeI7QStringS2_EENS_19__map_value_compareIS2_NS_4pairIKS2_S2_EENS_4lessIS2_EELb1EEENS_9allocatorIS7_EEE16__construct_nodeIJRS6_SF_EEENS_10unique_ptrINS_11__tree_nodeIS3_PvEENS_22__tree_node_destructorINSB_ISJ_EEEEEEDpOT_, symObjAddr: 0x15900, symBinAddr: 0x19380, symSize: 0xF0 }
  - { offset: 0x86E0D, size: 0x8, addend: 0x0, symName: __ZNSt3__116allocator_traitsINS_9allocatorINS_11__tree_nodeINS_12__value_typeI7QStringS4_EEPvEEEEE9constructB9nqe210106INS_4pairIKS4_S4_EEJRSC_SE_ELi0EEEvRS8_PT_DpOT0_, symObjAddr: 0x159F0, symBinAddr: 0x19470, symSize: 0x40 }
  - { offset: 0x86E7D, size: 0x8, addend: 0x0, symName: __ZNSt3__19allocatorINS_11__tree_nodeINS_12__value_typeI7QStringS3_EEPvEEE9constructB9nqe210106INS_4pairIKS3_S3_EEJRSA_SC_EEEvPT_DpOT0_, symObjAddr: 0x15A30, symBinAddr: 0x194B0, symSize: 0x30 }
  - { offset: 0x86EE6, size: 0x8, addend: 0x0, symName: __ZNSt3__14pairIK7QStringS1_EC1B9nqe210106INS_25__check_pair_constructionIS2_S1_EELi0EEERS2_S7_, symObjAddr: 0x15A60, symBinAddr: 0x194E0, symSize: 0x30 }
  - { offset: 0x86F3B, size: 0x8, addend: 0x0, symName: __ZNSt3__14pairIK7QStringS1_EC2B9nqe210106INS_25__check_pair_constructionIS2_S1_EELi0EEERS2_S7_, symObjAddr: 0x15A90, symBinAddr: 0x19510, symSize: 0x40 }
  - { offset: 0x86F90, size: 0x8, addend: 0x0, symName: __ZNSt3__120__map_const_iteratorINS_21__tree_const_iteratorINS_12__value_typeI7QStringS3_EEPNS_11__tree_nodeIS4_PvEElEEEC2B9nqe210106ENS_14__map_iteratorINS_15__tree_iteratorIS4_S8_lEEEE, symObjAddr: 0x15AD0, symBinAddr: 0x19550, symSize: 0x30 }
  - { offset: 0x86FC9, size: 0x8, addend: 0x0, symName: __ZN5QListIjE6appendEj, symObjAddr: 0x15B00, symBinAddr: 0x19580, symSize: 0x30 }
  - { offset: 0x86FFE, size: 0x8, addend: 0x0, symName: __ZN5QListIjE11emplaceBackIJRjEEES2_DpOT_, symObjAddr: 0x15B30, symBinAddr: 0x195B0, symSize: 0x70 }
  - { offset: 0x8703E, size: 0x8, addend: 0x0, symName: __ZN17QArrayDataPointerIjEptEv, symObjAddr: 0x15BA0, symBinAddr: 0x19620, symSize: 0x10 }
  - { offset: 0x87064, size: 0x8, addend: 0x0, symName: __ZN9QtPrivate12QPodArrayOpsIjE7emplaceIJRjEEEvxDpOT_, symObjAddr: 0x15BB0, symBinAddr: 0x19630, symSize: 0x130 }
  - { offset: 0x870E9, size: 0x8, addend: 0x0, symName: __ZNK5QListIjE8iteratormiEx, symObjAddr: 0x15CE0, symBinAddr: 0x19760, symSize: 0x40 }
  - { offset: 0x8711D, size: 0x8, addend: 0x0, symName: __ZNK17QArrayDataPointerIjE11needsDetachEv, symObjAddr: 0x15D20, symBinAddr: 0x197A0, symSize: 0x40 }
  - { offset: 0x87143, size: 0x8, addend: 0x0, symName: __ZNK17QArrayDataPointerIjE14freeSpaceAtEndEv, symObjAddr: 0x15D60, symBinAddr: 0x197E0, symSize: 0x60 }
  - { offset: 0x87169, size: 0x8, addend: 0x0, symName: __ZN17QArrayDataPointerIjE3endEv, symObjAddr: 0x15DC0, symBinAddr: 0x19840, symSize: 0x30 }
  - { offset: 0x8718F, size: 0x8, addend: 0x0, symName: __ZNK17QArrayDataPointerIjE16freeSpaceAtBeginEv, symObjAddr: 0x15DF0, symBinAddr: 0x19870, symSize: 0x60 }
  - { offset: 0x871B5, size: 0x8, addend: 0x0, symName: __ZN17QArrayDataPointerIjE5beginEv, symObjAddr: 0x15E50, symBinAddr: 0x198D0, symSize: 0x20 }
  - { offset: 0x871DB, size: 0x8, addend: 0x0, symName: __ZN17QArrayDataPointerIjE13detachAndGrowEN10QArrayData14GrowthPositionExPPKjPS0_, symObjAddr: 0x15E70, symBinAddr: 0x198F0, symSize: 0x100 }
  - { offset: 0x87255, size: 0x8, addend: 0x0, symName: __ZN9QtPrivate12QPodArrayOpsIjE10createHoleEN10QArrayData14GrowthPositionExx, symObjAddr: 0x15F70, symBinAddr: 0x199F0, symSize: 0x150 }
  - { offset: 0x872B3, size: 0x8, addend: 0x0, symName: __ZN17QArrayDataPointerIjE4dataEv, symObjAddr: 0x16110, symBinAddr: 0x19B40, symSize: 0x20 }
  - { offset: 0x872D9, size: 0x8, addend: 0x0, symName: __ZN15QTypedArrayDataIjE9dataStartEP10QArrayDatax, symObjAddr: 0x16130, symBinAddr: 0x19B60, symSize: 0x80 }
  - { offset: 0x87318, size: 0x8, addend: 0x0, symName: __ZN17QArrayDataPointerIjE20tryReadjustFreeSpaceEN10QArrayData14GrowthPositionExPPKj, symObjAddr: 0x161B0, symBinAddr: 0x19BE0, symSize: 0x1E0 }
  - { offset: 0x873A8, size: 0x8, addend: 0x0, symName: __ZN17QArrayDataPointerIjE17reallocateAndGrowEN10QArrayData14GrowthPositionExPS0_, symObjAddr: 0x16390, symBinAddr: 0x19DC0, symSize: 0x260 }
  - { offset: 0x87424, size: 0x8, addend: 0x0, symName: __ZNK17QArrayDataPointerIjE22constAllocatedCapacityEv, symObjAddr: 0x165F0, symBinAddr: 0x1A020, symSize: 0x40 }
  - { offset: 0x8744A, size: 0x8, addend: 0x0, symName: __ZN17QArrayDataPointerIjE8relocateExPPKj, symObjAddr: 0x16680, symBinAddr: 0x1A060, symSize: 0x80 }
  - { offset: 0x874AD, size: 0x8, addend: 0x0, symName: __ZNKSt3__14lessIvEclB9nqe210106IRPKjS5_EEDTltclsr3stdE7forwardIT_Efp_Eclsr3stdE7forwardIT0_Efp0_EEOS6_OS7_, symObjAddr: 0x168D0, symBinAddr: 0x1A2B0, symSize: 0x30 }
  - { offset: 0x87503, size: 0x8, addend: 0x0, symName: __ZNK17QArrayDataPointerIjE4dataEv, symObjAddr: 0x16900, symBinAddr: 0x1A2E0, symSize: 0x20 }
  - { offset: 0x87529, size: 0x8, addend: 0x0, symName: __ZNK17QArrayDataPointerIjE5beginEv, symObjAddr: 0x16940, symBinAddr: 0x1A320, symSize: 0x20 }
  - { offset: 0x8754F, size: 0x8, addend: 0x0, symName: __ZNK17QArrayDataPointerIjE3endEv, symObjAddr: 0x16960, symBinAddr: 0x1A340, symSize: 0x30 }
  - { offset: 0x87575, size: 0x8, addend: 0x0, symName: __ZN9QtPrivate12QPodArrayOpsIjE10reallocateExN10QArrayData16AllocationOptionE, symObjAddr: 0x16990, symBinAddr: 0x1A370, symSize: 0x80 }
  - { offset: 0x875C8, size: 0x8, addend: 0x0, symName: __ZN17QArrayDataPointerIjE12allocateGrowERKS0_xN10QArrayData14GrowthPositionE, symObjAddr: 0x16A10, symBinAddr: 0x1A3F0, symSize: 0x230 }
  - { offset: 0x87663, size: 0x8, addend: 0x0, symName: __ZN9QtPrivate12QPodArrayOpsIjE10copyAppendEPKjS3_, symObjAddr: 0x16C40, symBinAddr: 0x1A620, symSize: 0x140 }
  - { offset: 0x876A5, size: 0x8, addend: 0x0, symName: __ZN9QtPrivate12QPodArrayOpsIjE10moveAppendEPjS2_, symObjAddr: 0x16D80, symBinAddr: 0x1A760, symSize: 0x30 }
  - { offset: 0x876E7, size: 0x8, addend: 0x0, symName: __ZN17QArrayDataPointerIjE4swapERS0_, symObjAddr: 0x16DB0, symBinAddr: 0x1A790, symSize: 0x60 }
  - { offset: 0x8771B, size: 0x8, addend: 0x0, symName: __ZN17QArrayDataPointerIjED1Ev, symObjAddr: 0x16E10, symBinAddr: 0x1A7F0, symSize: 0x20 }
  - { offset: 0x87745, size: 0x8, addend: 0x0, symName: __ZN15QTypedArrayDataIjE19reallocateUnalignedEPS0_PjxN10QArrayData16AllocationOptionE, symObjAddr: 0x16E30, symBinAddr: 0x1A810, symSize: 0x70 }
  - { offset: 0x877AC, size: 0x8, addend: 0x0, symName: __ZNSt3__14pairIP15QTypedArrayDataIjEPjEC1B9nqe210106IS3_S4_Li0EEEOT_OT0_, symObjAddr: 0x16EA0, symBinAddr: 0x1A880, symSize: 0x30 }
  - { offset: 0x8780A, size: 0x8, addend: 0x0, symName: __ZNSt3__14pairIP15QTypedArrayDataIjEPjEC2B9nqe210106IS3_S4_Li0EEEOT_OT0_, symObjAddr: 0x16ED0, symBinAddr: 0x1A8B0, symSize: 0x30 }
  - { offset: 0x87868, size: 0x8, addend: 0x0, symName: __ZNK17QArrayDataPointerIjE14detachCapacityEx, symObjAddr: 0x16F40, symBinAddr: 0x1A8E0, symSize: 0x50 }
  - { offset: 0x8789D, size: 0x8, addend: 0x0, symName: __ZN15QTypedArrayDataIjE8allocateExN10QArrayData16AllocationOptionE, symObjAddr: 0x16F90, symBinAddr: 0x1A930, symSize: 0x60 }
  - { offset: 0x878EA, size: 0x8, addend: 0x0, symName: __ZN17QArrayDataPointerIjEC1EP15QTypedArrayDataIjEPjx, symObjAddr: 0x17030, symBinAddr: 0x1A9D0, symSize: 0x40 }
  - { offset: 0x8793E, size: 0x8, addend: 0x0, symName: __ZNK17QArrayDataPointerIjE5flagsEv, symObjAddr: 0x17070, symBinAddr: 0x1AA10, symSize: 0x40 }
  - { offset: 0x87964, size: 0x8, addend: 0x0, symName: __ZN6QFlagsIN10QArrayData11ArrayOptionEECI1N9QtPrivate13QFlagsStorageIS1_EEENSt3__110in_place_tEj, symObjAddr: 0x17190, symBinAddr: 0x1AA50, symSize: 0x30 }
  - { offset: 0x879A2, size: 0x8, addend: 0x0, symName: __ZN6QFlagsIN10QArrayData11ArrayOptionEECI2N9QtPrivate13QFlagsStorageIS1_EEENSt3__110in_place_tEj, symObjAddr: 0x171C0, symBinAddr: 0x1AA80, symSize: 0x30 }
  - { offset: 0x879E0, size: 0x8, addend: 0x0, symName: __ZN9QtPrivate19QFlagsStorageHelperIN10QArrayData11ArrayOptionELi4EECI2NS_13QFlagsStorageIS2_EEENSt3__110in_place_tEj, symObjAddr: 0x171F0, symBinAddr: 0x1AAB0, symSize: 0x30 }
  - { offset: 0x87A1E, size: 0x8, addend: 0x0, symName: __ZN9QtPrivate13QFlagsStorageIN10QArrayData11ArrayOptionEEC2ENSt3__110in_place_tEj, symObjAddr: 0x17220, symBinAddr: 0x1AAE0, symSize: 0x20 }
  - { offset: 0x87A61, size: 0x8, addend: 0x0, symName: __ZNSt3__110__get_pairILm0EE3getB9nqe210106IP15QTypedArrayDataIjEPjEEOT_ONS_4pairIS7_T0_EE, symObjAddr: 0x17240, symBinAddr: 0x1AB00, symSize: 0x10 }
  - { offset: 0x87A97, size: 0x8, addend: 0x0, symName: __ZNSt3__110__get_pairILm1EE3getB9nqe210106IP15QTypedArrayDataIjEPjEEOT0_ONS_4pairIT_S7_EE, symObjAddr: 0x17250, symBinAddr: 0x1AB10, symSize: 0x20 }
  - { offset: 0x87ACD, size: 0x8, addend: 0x0, symName: __ZN17QArrayDataPointerIjEC2EP15QTypedArrayDataIjEPjx, symObjAddr: 0x17270, symBinAddr: 0x1AB30, symSize: 0x40 }
  - { offset: 0x87B21, size: 0x8, addend: 0x0, symName: __ZN6QFlagsIN10QArrayData11ArrayOptionEEC1ES1_, symObjAddr: 0x172B0, symBinAddr: 0x1AB70, symSize: 0x30 }
  - { offset: 0x87B59, size: 0x8, addend: 0x0, symName: __ZN6QFlagsIN10QArrayData11ArrayOptionEEC2ES1_, symObjAddr: 0x172E0, symBinAddr: 0x1ABA0, symSize: 0x30 }
  - { offset: 0x87B91, size: 0x8, addend: 0x0, symName: __ZNK17QArrayDataPointerIjE9isMutableEv, symObjAddr: 0x17310, symBinAddr: 0x1ABD0, symSize: 0x20 }
  - { offset: 0x87BB7, size: 0x8, addend: 0x0, symName: __ZNK17QArrayDataPointerIjE8isSharedEv, symObjAddr: 0x17330, symBinAddr: 0x1ABF0, symSize: 0x40 }
  - { offset: 0x87BDC, size: 0x8, addend: 0x0, symName: __Z11qt_ptr_swapI15QTypedArrayDataIjEEvRPT_S4_, symObjAddr: 0x173A0, symBinAddr: 0x1AC30, symSize: 0x40 }
  - { offset: 0x87C29, size: 0x8, addend: 0x0, symName: __Z11qt_ptr_swapIjEvRPT_S2_, symObjAddr: 0x173E0, symBinAddr: 0x1AC70, symSize: 0x40 }
  - { offset: 0x87C77, size: 0x8, addend: 0x0, symName: __ZN17QArrayDataPointerIjED2Ev, symObjAddr: 0x17420, symBinAddr: 0x1ACB0, symSize: 0x40 }
  - { offset: 0x87CA1, size: 0x8, addend: 0x0, symName: __ZN17QArrayDataPointerIjE5derefEv, symObjAddr: 0x17460, symBinAddr: 0x1ACF0, symSize: 0x40 }
  - { offset: 0x87CC7, size: 0x8, addend: 0x0, symName: __ZN9QtPrivate12QPodArrayOpsIjE10destroyAllEv, symObjAddr: 0x174A0, symBinAddr: 0x1AD30, symSize: 0x70 }
  - { offset: 0x87CED, size: 0x8, addend: 0x0, symName: __ZN15QTypedArrayDataIjE10deallocateEP10QArrayData, symObjAddr: 0x17510, symBinAddr: 0x1ADA0, symSize: 0x30 }
  - { offset: 0x87D10, size: 0x8, addend: 0x0, symName: __ZN5QListIjE8iteratorC1EPj, symObjAddr: 0x17540, symBinAddr: 0x1ADD0, symSize: 0x30 }
  - { offset: 0x87D48, size: 0x8, addend: 0x0, symName: __ZN5QListIjE8iteratorC2EPj, symObjAddr: 0x17570, symBinAddr: 0x1AE00, symSize: 0x20 }
  - { offset: 0x87D80, size: 0x8, addend: 0x0, symName: __ZN5QListIjE6detachEv, symObjAddr: 0x17590, symBinAddr: 0x1AE20, symSize: 0x20 }
  - { offset: 0x87DA6, size: 0x8, addend: 0x0, symName: __ZN17QArrayDataPointerIjE6detachEPS0_, symObjAddr: 0x175B0, symBinAddr: 0x1AE40, symSize: 0x40 }
  - { offset: 0x87DDA, size: 0x8, addend: 0x0, symName: __ZNSt3__13mapI7QStringS1_NS_4lessIS1_EENS_9allocatorINS_4pairIKS1_S1_EEEEE5clearB9nqe210106Ev, symObjAddr: 0x175F0, symBinAddr: 0x1AE80, symSize: 0x20 }
  - { offset: 0x87E00, size: 0x8, addend: 0x0, symName: __ZNSt3__16__treeINS_12__value_typeI7QStringS2_EENS_19__map_value_compareIS2_NS_4pairIKS2_S2_EENS_4lessIS2_EELb1EEENS_9allocatorIS7_EEE5clearEv, symObjAddr: 0x17610, symBinAddr: 0x1AEA0, symSize: 0x70 }
  - { offset: 0x87E28, size: 0x8, addend: 0x0, symName: __ZNK5QListIjE4sizeEv, symObjAddr: 0x17680, symBinAddr: 0x1AF10, symSize: 0x50 }
  - { offset: 0x87E82, size: 0x8, addend: 0x0, symName: __ZN17QArrayDataPointerIjE17allocatedCapacityEv, symObjAddr: 0x176D0, symBinAddr: 0x1AF60, symSize: 0x40 }
  - { offset: 0x87EA8, size: 0x8, addend: 0x0, symName: __ZN17QArrayDataPointerIjEC1ExxN10QArrayData16AllocationOptionE, symObjAddr: 0x17710, symBinAddr: 0x1AFA0, symSize: 0x50 }
  - { offset: 0x87EFC, size: 0x8, addend: 0x0, symName: __ZN9QtPrivate12QPodArrayOpsIjE8truncateEm, symObjAddr: 0x17760, symBinAddr: 0x1AFF0, symSize: 0xA0 }
  - { offset: 0x87F3F, size: 0x8, addend: 0x0, symName: __ZZNK5QListIjE4sizeEvENKUlvE_clEv, symObjAddr: 0x17800, symBinAddr: 0x1B090, symSize: 0x50 }
  - { offset: 0x87F69, size: 0x8, addend: 0x0, symName: __ZN17QArrayDataPointerIjEC1ENSt3__14pairIP15QTypedArrayDataIjEPjEEx, symObjAddr: 0x17870, symBinAddr: 0x1B0E0, symSize: 0x40 }
  - { offset: 0x87FAF, size: 0x8, addend: 0x0, symName: __ZN17QArrayDataPointerIjEC2ENSt3__14pairIP15QTypedArrayDataIjEPjEEx, symObjAddr: 0x178B0, symBinAddr: 0x1B120, symSize: 0x31 }
  - { offset: 0x8B71B, size: 0x8, addend: 0x0, symName: __ZN9QtPrivateL19q_points_into_rangeI17QArrayDataPointerI7QStringEPKS2_EEbRKT0_RKT_, symObjAddr: 0x2210, symBinAddr: 0x1BAD0, symSize: 0xA0 }
  - { offset: 0x8B767, size: 0x8, addend: 0x0, symName: __ZN9QtPrivateL19q_points_into_rangeI7QStringNSt3__14lessIvEEEEbPKT_S7_S7_T0_, symObjAddr: 0x22B0, symBinAddr: 0x1BB70, symSize: 0x50 }
  - { offset: 0x8B7EB, size: 0x8, addend: 0x0, symName: __ZN5RpMap11RpMapPlugin16staticMetaObjectE, symObjAddr: 0x39B8, symBinAddr: 0x4B870, symSize: 0x0 }
  - { offset: 0x912D8, size: 0x8, addend: 0x0, symName: __ZNSt3__14dataB9nqe210106I17QArrayDataPointerI7QStringEEEDTcldtfp_4dataEERKT_, symObjAddr: 0x2300, symBinAddr: 0x1BBC0, symSize: 0x20 }
  - { offset: 0x9130D, size: 0x8, addend: 0x0, symName: __ZNSt3__18distanceB9nqe210106IPK7QStringEENS_15iterator_traitsIT_E15difference_typeES5_S5_, symObjAddr: 0x2320, symBinAddr: 0x1BBE0, symSize: 0x30 }
  - { offset: 0x91350, size: 0x8, addend: 0x0, symName: __ZNSt3__15beginB9nqe210106I17QArrayDataPointerI7QStringEEEDTcldtfp_5beginEERKT_, symObjAddr: 0x2350, symBinAddr: 0x1BC10, symSize: 0x20 }
  - { offset: 0x91385, size: 0x8, addend: 0x0, symName: __ZNSt3__13endB9nqe210106I17QArrayDataPointerI7QStringEEEDTcldtfp_3endEERKT_, symObjAddr: 0x2370, symBinAddr: 0x1BC30, symSize: 0x20 }
  - { offset: 0x913FD, size: 0x8, addend: 0x0, symName: __ZNSt3__110__distanceB9nqe210106IPK7QStringEENS_15iterator_traitsIT_E15difference_typeES5_S5_NS_26random_access_iterator_tagE, symObjAddr: 0x23E0, symBinAddr: 0x1BC80, symSize: 0x30 }
  - { offset: 0x9144B, size: 0x8, addend: 0x0, symName: __ZNSt3__13getB9nqe210106ILm0EP15QTypedArrayDataI7QStringEPS2_EEONS_13tuple_elementIXT_ENS_4pairIT0_T1_EEE4typeEOSA_, symObjAddr: 0x2BD0, symBinAddr: 0x1BD10, symSize: 0x20 }
  - { offset: 0x91495, size: 0x8, addend: 0x0, symName: __ZNSt3__13getB9nqe210106ILm1EP15QTypedArrayDataI7QStringEPS2_EEONS_13tuple_elementIXT_ENS_4pairIT0_T1_EEE4typeEOSA_, symObjAddr: 0x2BF0, symBinAddr: 0x1BD30, symSize: 0x20 }
  - { offset: 0x91559, size: 0x8, addend: 0x0, symName: __ZNSt3__17destroyB9nqe210106IP7QStringEEvT_S3_, symObjAddr: 0x34B0, symBinAddr: 0x1BF50, symSize: 0x30 }
  - { offset: 0x91598, size: 0x8, addend: 0x0, symName: __ZNSt3__19__destroyB9nqe210106IP7QStringEET_S3_S3_, symObjAddr: 0x34E0, symBinAddr: 0x1BF80, symSize: 0x40 }
  - { offset: 0x915DB, size: 0x8, addend: 0x0, symName: __ZNSt3__112__destroy_atB9nqe210106I7QStringLi0EEEvPT_, symObjAddr: 0x3520, symBinAddr: 0x1BFC0, symSize: 0x20 }
  - { offset: 0xA2FAA, size: 0x8, addend: 0x0, symName: _qt_plugin_query_metadata_v2, symObjAddr: 0x170, symBinAddr: 0x1B2B0, symSize: 0x30 }
  - { offset: 0xA2FD0, size: 0x8, addend: 0x0, symName: __ZZ27qt_plugin_query_metadata_v2E2md, symObjAddr: 0x3FB4, symBinAddr: 0x484CA, symSize: 0x0 }
  - { offset: 0xA2FF3, size: 0x8, addend: 0x0, symName: __ZL31qt_pluginMetaDataV2_RpMapPlugin, symObjAddr: 0x4000, symBinAddr: 0x45760, symSize: 0x0 }
  - { offset: 0xA3166, size: 0x8, addend: 0x0, symName: _qt_plugin_instance, symObjAddr: 0x200, symBinAddr: 0x1B340, symSize: 0xC0 }
  - { offset: 0xA318C, size: 0x8, addend: 0x0, symName: __ZZ18qt_plugin_instanceE9_instance, symObjAddr: 0x15DB00, symBinAddr: 0x4D160, symSize: 0x0 }
  - { offset: 0xA319E, size: 0x8, addend: 0x0, symName: __ZTVN5RpMap11RpMapPluginE, symObjAddr: 0x39F0, symBinAddr: 0x4B8A8, symSize: 0x0 }
  - { offset: 0xA31B2, size: 0x8, addend: 0x0, symName: __ZN5RpMap11RpMapPlugin32qt_staticMetaObjectStaticContentIN12_GLOBAL__N_136qt_meta_tag_ZN5RpMap11RpMapPluginE_tEEE, symObjAddr: 0x4064, symBinAddr: 0x457C4, symSize: 0x0 }
  - { offset: 0xA31DC, size: 0x8, addend: 0x0, symName: __ZN5RpMap11RpMapPlugin36qt_staticMetaObjectRelocatingContentIN12_GLOBAL__N_136qt_meta_tag_ZN5RpMap11RpMapPluginE_tEEE, symObjAddr: 0x39B0, symBinAddr: 0x4B868, symSize: 0x0 }
  - { offset: 0xA31FA, size: 0x8, addend: 0x0, symName: __ZN9QtPrivate25QMetaTypeInterfaceWrapperIN5RpMap11RpMapPluginEE8metaTypeE, symObjAddr: 0x40C0, symBinAddr: 0x4D010, symSize: 0x0 }
  - { offset: 0xA320E, size: 0x8, addend: 0x0, symName: __ZN9QtPrivate16QMetaTypeForTypeIN5RpMap11RpMapPluginEE4nameE, symObjAddr: 0x404F, symBinAddr: 0x457AF, symSize: 0x0 }
  - { offset: 0xA3263, size: 0x8, addend: 0x0, symName: __ZL31qt_pluginMetaDataV2_RpMapPlugin, symObjAddr: 0x4000, symBinAddr: 0x45760, symSize: 0x0 }
  - { offset: 0xA3287, size: 0x8, addend: 0x0, symName: __ZN5RpMap11RpMapPlugin18qt_static_metacallEP7QObjectN11QMetaObject4CallEiPPv, symObjAddr: 0x0, symBinAddr: 0x1B160, symSize: 0x20 }
  - { offset: 0xA32E4, size: 0x8, addend: 0x0, symName: __ZNK5RpMap11RpMapPlugin10metaObjectEv, symObjAddr: 0x20, symBinAddr: 0x1B180, symSize: 0x60 }
  - { offset: 0xA330C, size: 0x8, addend: 0x0, symName: __ZN5RpMap11RpMapPlugin11qt_metacastEPKc, symObjAddr: 0xA0, symBinAddr: 0x1B1E0, symSize: 0x90 }
  - { offset: 0xA3342, size: 0x8, addend: 0x0, symName: __ZN5RpMap11RpMapPlugin11qt_metacallEN11QMetaObject4CallEiPPv, symObjAddr: 0x130, symBinAddr: 0x1B270, symSize: 0x40 }
  - { offset: 0xA3394, size: 0x8, addend: 0x0, symName: __ZNK17QPluginMetaDataV2IL_ZL31qt_pluginMetaDataV2_RpMapPluginEEcv15QPluginMetaDataEv, symObjAddr: 0x1A0, symBinAddr: 0x1B2E0, symSize: 0x60 }
  - { offset: 0xA33BA, size: 0x8, addend: 0x0, symName: __ZN8QPointerI7QObjectED1Ev, symObjAddr: 0x2C0, symBinAddr: 0x1B400, symSize: 0x20 }
  - { offset: 0xA33E6, size: 0x8, addend: 0x0, symName: __ZNK8QPointerI7QObjectEcvbEv, symObjAddr: 0x2E0, symBinAddr: 0x1B420, symSize: 0x20 }
  - { offset: 0xA340C, size: 0x8, addend: 0x0, symName: __ZN8QPointerI7QObjectEaSEPS0_, symObjAddr: 0x300, symBinAddr: 0x1B440, symSize: 0x30 }
  - { offset: 0xA3440, size: 0x8, addend: 0x0, symName: __ZNK8QPointerI7QObjectEcvPS0_Ev, symObjAddr: 0x330, symBinAddr: 0x1B470, symSize: 0x20 }
  - { offset: 0xA3466, size: 0x8, addend: 0x0, symName: __ZN5RpMap11RpMapPluginD1Ev, symObjAddr: 0x350, symBinAddr: 0x1B490, symSize: 0x20 }
  - { offset: 0xA3492, size: 0x8, addend: 0x0, symName: __ZN5RpMap11RpMapPluginD0Ev, symObjAddr: 0x370, symBinAddr: 0x1B4B0, symSize: 0x30 }
  - { offset: 0xA34BE, size: 0x8, addend: 0x0, symName: __ZNK5Tiled17WritableMapFormat12capabilitiesEv, symObjAddr: 0x3A0, symBinAddr: 0x1B4E0, symSize: 0x30 }
  - { offset: 0xA34E4, size: 0x8, addend: 0x0, symName: __ZNK5Tiled17WritableMapFormat12supportsFileERK7QString, symObjAddr: 0x3D0, symBinAddr: 0x1B510, symSize: 0x20 }
  - { offset: 0xA3515, size: 0x8, addend: 0x0, symName: __ZNK5Tiled9MapFormat11outputFilesEPKNS_3MapERK7QString, symObjAddr: 0x3F0, symBinAddr: 0x1B530, symSize: 0x40 }
  - { offset: 0xA3554, size: 0x8, addend: 0x0, symName: __ZN5Tiled17WritableMapFormat4readERK7QString, symObjAddr: 0x430, symBinAddr: 0x1B570, symSize: 0x30 }
  - { offset: 0xA3585, size: 0x8, addend: 0x0, symName: __ZN9QtPrivate17MetaObjectForTypeIN5RpMap11RpMapPluginEvE18metaObjectFunctionEPKNS_18QMetaTypeInterfaceE, symObjAddr: 0x460, symBinAddr: 0x1B5A0, symSize: 0x20 }
  - { offset: 0xA35D9, size: 0x8, addend: 0x0, symName: __ZZN9QtPrivate16QMetaTypeForTypeIN5RpMap11RpMapPluginEE13getDefaultCtrEvENUlPKNS_18QMetaTypeInterfaceEPvE_8__invokeES6_S7_, symObjAddr: 0x480, symBinAddr: 0x1B5C0, symSize: 0x30 }
  - { offset: 0xA363E, size: 0x8, addend: 0x0, symName: __ZZN9QtPrivate16QMetaTypeForTypeIN5RpMap11RpMapPluginEE7getDtorEvENUlPKNS_18QMetaTypeInterfaceEPvE_8__invokeES6_S7_, symObjAddr: 0x4B0, symBinAddr: 0x1B5F0, symSize: 0x30 }
  - { offset: 0xA367A, size: 0x8, addend: 0x0, symName: __ZZN9QtPrivate16QMetaTypeForTypeIN5RpMap11RpMapPluginEE13getDefaultCtrEvENKUlPKNS_18QMetaTypeInterfaceEPvE_clES6_S7_, symObjAddr: 0x4E0, symBinAddr: 0x1B620, symSize: 0x30 }
  - { offset: 0xA36C9, size: 0x8, addend: 0x0, symName: __ZZN9QtPrivate16QMetaTypeForTypeIN5RpMap11RpMapPluginEE7getDtorEvENKUlPKNS_18QMetaTypeInterfaceEPvE_clES6_S7_, symObjAddr: 0x510, symBinAddr: 0x1B650, symSize: 0x30 }
  - { offset: 0xA370E, size: 0x8, addend: 0x0, symName: __ZN8QPointerI7QObjectED2Ev, symObjAddr: 0x540, symBinAddr: 0x1B680, symSize: 0x20 }
  - { offset: 0xA373A, size: 0x8, addend: 0x0, symName: __ZN12QWeakPointerI7QObjectED1Ev, symObjAddr: 0x560, symBinAddr: 0x1B6A0, symSize: 0x20 }
  - { offset: 0xA3764, size: 0x8, addend: 0x0, symName: __ZN12QWeakPointerI7QObjectED2Ev, symObjAddr: 0x580, symBinAddr: 0x1B6C0, symSize: 0x60 }
  - { offset: 0xA378E, size: 0x8, addend: 0x0, symName: __ZN15QtSharedPointer20ExternalRefCountDataD1Ev, symObjAddr: 0x600, symBinAddr: 0x1B720, symSize: 0x20 }
  - { offset: 0xA37B8, size: 0x8, addend: 0x0, symName: __ZN15QtSharedPointer20ExternalRefCountDatadlEPv, symObjAddr: 0x620, symBinAddr: 0x1B740, symSize: 0x20 }
  - { offset: 0xA37DB, size: 0x8, addend: 0x0, symName: __ZN15QtSharedPointer20ExternalRefCountDataD2Ev, symObjAddr: 0x760, symBinAddr: 0x1B760, symSize: 0x70 }
  - { offset: 0xA3805, size: 0x8, addend: 0x0, symName: __ZN5RpMap11RpMapPluginD2Ev, symObjAddr: 0x890, symBinAddr: 0x1B7D0, symSize: 0x60 }
  - { offset: 0xA3831, size: 0x8, addend: 0x0, symName: __ZN5QListIjED1Ev, symObjAddr: 0x8F0, symBinAddr: 0x1B830, symSize: 0x20 }
  - { offset: 0xA385D, size: 0x8, addend: 0x0, symName: __ZN5Tiled17WritableMapFormatD2Ev, symObjAddr: 0x950, symBinAddr: 0x1B850, symSize: 0x20 }
  - { offset: 0xA3889, size: 0x8, addend: 0x0, symName: __ZN5QListIjED2Ev, symObjAddr: 0x970, symBinAddr: 0x1B870, symSize: 0x20 }
  - { offset: 0xA38B5, size: 0x8, addend: 0x0, symName: __ZN5Tiled9MapFormatD2Ev, symObjAddr: 0x10C0, symBinAddr: 0x1B890, symSize: 0x20 }
  - { offset: 0xA38E1, size: 0x8, addend: 0x0, symName: __ZN5Tiled10FileFormatD2Ev, symObjAddr: 0x10E0, symBinAddr: 0x1B8B0, symSize: 0x20 }
  - { offset: 0xA390D, size: 0x8, addend: 0x0, symName: __ZN6QFlagsIN5Tiled10FileFormat10CapabilityEEC1ES2_, symObjAddr: 0x1100, symBinAddr: 0x1B8D0, symSize: 0x30 }
  - { offset: 0xA3945, size: 0x8, addend: 0x0, symName: __ZN6QFlagsIN5Tiled10FileFormat10CapabilityEEC2ES2_, symObjAddr: 0x1130, symBinAddr: 0x1B900, symSize: 0x30 }
  - { offset: 0xA397D, size: 0x8, addend: 0x0, symName: __ZN9QtPrivate19QFlagsStorageHelperIN5Tiled10FileFormat10CapabilityELi4EECI2NS_13QFlagsStorageIS3_EEENSt3__110in_place_tEj, symObjAddr: 0x1160, symBinAddr: 0x1B930, symSize: 0x30 }
  - { offset: 0xA39BB, size: 0x8, addend: 0x0, symName: __ZN9QtPrivate13QFlagsStorageIN5Tiled10FileFormat10CapabilityEEC2ENSt3__110in_place_tEj, symObjAddr: 0x1190, symBinAddr: 0x1B960, symSize: 0x20 }
  - { offset: 0xA39FE, size: 0x8, addend: 0x0, symName: __ZN5QListI7QStringEC1IS0_vEERKT_, symObjAddr: 0x11B0, symBinAddr: 0x1B980, symSize: 0x30 }
  - { offset: 0xA3A42, size: 0x8, addend: 0x0, symName: __ZN5QListI7QStringEC2IS0_vEERKT_, symObjAddr: 0x11E0, symBinAddr: 0x1B9B0, symSize: 0x50 }
  - { offset: 0xA3A86, size: 0x8, addend: 0x0, symName: __ZN17QArrayDataPointerI7QStringEC1Ev, symObjAddr: 0x1230, symBinAddr: 0x1BA00, symSize: 0x20 }
  - { offset: 0xA3AB0, size: 0x8, addend: 0x0, symName: __ZN17QArrayDataPointerI7QStringED1Ev, symObjAddr: 0x1280, symBinAddr: 0x1BA20, symSize: 0x20 }
  - { offset: 0xA3ADA, size: 0x8, addend: 0x0, symName: __ZN17QArrayDataPointerI7QStringEC2Ev, symObjAddr: 0x12A0, symBinAddr: 0x1BA40, symSize: 0x30 }
  - { offset: 0xA3B29, size: 0x8, addend: 0x0, symName: __ZN9QtPrivate16QMovableArrayOpsI7QStringE8InserterC1EP17QArrayDataPointerIS1_Exx, symObjAddr: 0x18B0, symBinAddr: 0x1BA70, symSize: 0x40 }
  - { offset: 0xA3B80, size: 0x8, addend: 0x0, symName: __ZN9QtPrivate16QMovableArrayOpsI7QStringE8InserterD1Ev, symObjAddr: 0x1930, symBinAddr: 0x1BAB0, symSize: 0x20 }
  - { offset: 0xA3BBA, size: 0x8, addend: 0x0, symName: __ZNKSt3__14lessIvEclB9nqe210106IRPK7QStringS6_EEDTltclsr3stdE7forwardIT_Efp_Eclsr3stdE7forwardIT0_Efp0_EEOS7_OS8_, symObjAddr: 0x2390, symBinAddr: 0x1BC50, symSize: 0x30 }
  - { offset: 0xA3C1C, size: 0x8, addend: 0x0, symName: __ZNSt3__14pairIP15QTypedArrayDataI7QStringEPS2_EC1B9nqe210106IS4_S5_Li0EEEOT_OT0_, symObjAddr: 0x2A80, symBinAddr: 0x1BCB0, symSize: 0x30 }
  - { offset: 0xA3C7A, size: 0x8, addend: 0x0, symName: __ZNSt3__14pairIP15QTypedArrayDataI7QStringEPS2_EC2B9nqe210106IS4_S5_Li0EEEOT_OT0_, symObjAddr: 0x2AB0, symBinAddr: 0x1BCE0, symSize: 0x30 }
  - { offset: 0xA3CD8, size: 0x8, addend: 0x0, symName: __ZN17QArrayDataPointerI7QStringEC1EP15QTypedArrayDataIS0_EPS0_x, symObjAddr: 0x2C10, symBinAddr: 0x1BD50, symSize: 0x40 }
  - { offset: 0xA3D2C, size: 0x8, addend: 0x0, symName: __ZNSt3__110__get_pairILm0EE3getB9nqe210106IP15QTypedArrayDataI7QStringEPS4_EEOT_ONS_4pairIS8_T0_EE, symObjAddr: 0x2E20, symBinAddr: 0x1BD90, symSize: 0x10 }
  - { offset: 0xA3D62, size: 0x8, addend: 0x0, symName: __ZNSt3__110__get_pairILm1EE3getB9nqe210106IP15QTypedArrayDataI7QStringEPS4_EEOT0_ONS_4pairIT_S8_EE, symObjAddr: 0x2E30, symBinAddr: 0x1BDA0, symSize: 0x20 }
  - { offset: 0xA3D98, size: 0x8, addend: 0x0, symName: __ZN17QArrayDataPointerI7QStringEC2EP15QTypedArrayDataIS0_EPS0_x, symObjAddr: 0x2E50, symBinAddr: 0x1BDC0, symSize: 0x40 }
  - { offset: 0xA3DEC, size: 0x8, addend: 0x0, symName: __ZN9QtPrivate16QMovableArrayOpsI7QStringE8InserterC2EP17QArrayDataPointerIS1_Exx, symObjAddr: 0x31C0, symBinAddr: 0x1BE00, symSize: 0x80 }
  - { offset: 0xA3E43, size: 0x8, addend: 0x0, symName: __ZN9QtPrivate16QMovableArrayOpsI7QStringE8InserterD2Ev, symObjAddr: 0x3280, symBinAddr: 0x1BE80, symSize: 0x30 }
  - { offset: 0xA3E8B, size: 0x8, addend: 0x0, symName: __ZN5QListI7QStringE8iteratorC1EPS0_, symObjAddr: 0x32D0, symBinAddr: 0x1BEB0, symSize: 0x30 }
  - { offset: 0xA3EC3, size: 0x8, addend: 0x0, symName: __ZN5QListI7QStringE8iteratorC2EPS0_, symObjAddr: 0x3340, symBinAddr: 0x1BEE0, symSize: 0x20 }
  - { offset: 0xA3EFB, size: 0x8, addend: 0x0, symName: __ZN17QArrayDataPointerI7QStringED2Ev, symObjAddr: 0x3360, symBinAddr: 0x1BF00, symSize: 0x50 }
  - { offset: 0xA3F25, size: 0x8, addend: 0x0, symName: __ZNSt3__110unique_ptrIN5Tiled3MapENS_14default_deleteIS2_EEEC1B9nqe210106ILb1EvEEDn, symObjAddr: 0x3540, symBinAddr: 0x1BFE0, symSize: 0x30 }
  - { offset: 0xA3F66, size: 0x8, addend: 0x0, symName: __ZNSt3__110unique_ptrIN5Tiled3MapENS_14default_deleteIS2_EEEC2B9nqe210106ILb1EvEEDn, symObjAddr: 0x3570, symBinAddr: 0x1C010, symSize: 0x20 }
  - { offset: 0xA3FA7, size: 0x8, addend: 0x0, symName: __ZNK8QPointerI7QObjectE6isNullEv, symObjAddr: 0x3590, symBinAddr: 0x1C030, symSize: 0x20 }
  - { offset: 0xA3FCD, size: 0x8, addend: 0x0, symName: __ZNK12QWeakPointerI7QObjectE6isNullEv, symObjAddr: 0x35B0, symBinAddr: 0x1C050, symSize: 0x60 }
  - { offset: 0xA3FF3, size: 0x8, addend: 0x0, symName: __ZN12QWeakPointerI7QObjectE6assignIS0_EERS1_PT_, symObjAddr: 0x3610, symBinAddr: 0x1C0B0, symSize: 0x50 }
  - { offset: 0xA4031, size: 0x8, addend: 0x0, symName: __ZN12QWeakPointerI7QObjectEC1EPS0_b, symObjAddr: 0x3660, symBinAddr: 0x1C100, symSize: 0x40 }
  - { offset: 0xA4076, size: 0x8, addend: 0x0, symName: __ZN12QWeakPointerI7QObjectEaSEOS1_, symObjAddr: 0x36A0, symBinAddr: 0x1C140, symSize: 0x50 }
  - { offset: 0xA40BA, size: 0x8, addend: 0x0, symName: __ZN12QWeakPointerI7QObjectEC2EPS0_b, symObjAddr: 0x36F0, symBinAddr: 0x1C190, symSize: 0x60 }
  - { offset: 0xA40FF, size: 0x8, addend: 0x0, symName: __ZN12QWeakPointerI7QObjectEC1EOS1_, symObjAddr: 0x3750, symBinAddr: 0x1C1F0, symSize: 0x30 }
  - { offset: 0xA4138, size: 0x8, addend: 0x0, symName: __ZN12QWeakPointerI7QObjectE4swapERS1_, symObjAddr: 0x3780, symBinAddr: 0x1C220, symSize: 0x40 }
  - { offset: 0xA416D, size: 0x8, addend: 0x0, symName: __ZN12QWeakPointerI7QObjectEC2EOS1_, symObjAddr: 0x37C0, symBinAddr: 0x1C260, symSize: 0x40 }
  - { offset: 0xA41A5, size: 0x8, addend: 0x0, symName: __Z11qt_ptr_swapIN15QtSharedPointer20ExternalRefCountDataEEvRPT_S4_, symObjAddr: 0x3800, symBinAddr: 0x1C2A0, symSize: 0x40 }
  - { offset: 0xA41F2, size: 0x8, addend: 0x0, symName: __Z11qt_ptr_swapI7QObjectEvRPT_S3_, symObjAddr: 0x3840, symBinAddr: 0x1C2E0, symSize: 0x40 }
  - { offset: 0xA4240, size: 0x8, addend: 0x0, symName: __ZNK8QPointerI7QObjectE4dataEv, symObjAddr: 0x3880, symBinAddr: 0x1C320, symSize: 0x20 }
  - { offset: 0xA4266, size: 0x8, addend: 0x0, symName: __ZNK12QWeakPointerI7QObjectE12internalDataEv, symObjAddr: 0x38A0, symBinAddr: 0x1C340, symSize: 0x4D }
  - { offset: 0xA6021, size: 0x8, addend: 0x0, symName: __ZN18KCompressionDevice18qt_static_metacallEP7QObjectN11QMetaObject4CallEiPPv, symObjAddr: 0x0, symBinAddr: 0x1C390, symSize: 0x20 }
  - { offset: 0xA6175, size: 0x8, addend: 0x0, symName: __ZN18KCompressionDevice16staticMetaObjectE, symObjAddr: 0x1E0, symBinAddr: 0x4B978, symSize: 0x0 }
  - { offset: 0xAA58A, size: 0x8, addend: 0x0, symName: __ZTV18KCompressionDevice, symObjAddr: 0x218, symBinAddr: 0x4B9B0, symSize: 0x0 }
  - { offset: 0xAA59E, size: 0x8, addend: 0x0, symName: __ZN18KCompressionDevice32qt_staticMetaObjectStaticContentIN12_GLOBAL__N_137qt_meta_tag_ZN18KCompressionDeviceE_tEEE, symObjAddr: 0x350, symBinAddr: 0x45844, symSize: 0x0 }
  - { offset: 0xAA5C8, size: 0x8, addend: 0x0, symName: __ZN18KCompressionDevice36qt_staticMetaObjectRelocatingContentIN12_GLOBAL__N_137qt_meta_tag_ZN18KCompressionDeviceE_tEEE, symObjAddr: 0x1D8, symBinAddr: 0x4B970, symSize: 0x0 }
  - { offset: 0xAA5E6, size: 0x8, addend: 0x0, symName: __ZN9QtPrivate25QMetaTypeInterfaceWrapperI18KCompressionDeviceE8metaTypeE, symObjAddr: 0x3A8, symBinAddr: 0x4D080, symSize: 0x0 }
  - { offset: 0xAA5FA, size: 0x8, addend: 0x0, symName: __ZN9QtPrivate16QMetaTypeForTypeI18KCompressionDeviceE4nameE, symObjAddr: 0x33D, symBinAddr: 0x45831, symSize: 0x0 }
  - { offset: 0xAA612, size: 0x8, addend: 0x0, symName: __ZN18KCompressionDevice18qt_static_metacallEP7QObjectN11QMetaObject4CallEiPPv, symObjAddr: 0x0, symBinAddr: 0x1C390, symSize: 0x20 }
  - { offset: 0xAA66F, size: 0x8, addend: 0x0, symName: __ZNK18KCompressionDevice10metaObjectEv, symObjAddr: 0x20, symBinAddr: 0x1C3B0, symSize: 0x60 }
  - { offset: 0xAA697, size: 0x8, addend: 0x0, symName: __ZNK14QScopedPointerI11QObjectData21QScopedPointerDeleterIS0_EEptEv, symObjAddr: 0x80, symBinAddr: 0x1C410, symSize: 0x20 }
  - { offset: 0xAA6BD, size: 0x8, addend: 0x0, symName: __ZN18KCompressionDevice11qt_metacastEPKc, symObjAddr: 0xA0, symBinAddr: 0x1C430, symSize: 0x70 }
  - { offset: 0xAA6F3, size: 0x8, addend: 0x0, symName: __ZN18KCompressionDevice11qt_metacallEN11QMetaObject4CallEiPPv, symObjAddr: 0x110, symBinAddr: 0x1C4A0, symSize: 0x40 }
  - { offset: 0xAA745, size: 0x8, addend: 0x0, symName: __ZN9QtPrivate17MetaObjectForTypeI18KCompressionDevicevE18metaObjectFunctionEPKNS_18QMetaTypeInterfaceE, symObjAddr: 0x150, symBinAddr: 0x1C4E0, symSize: 0x20 }
  - { offset: 0xAA799, size: 0x8, addend: 0x0, symName: __ZZN9QtPrivate16QMetaTypeForTypeI18KCompressionDeviceE7getDtorEvENUlPKNS_18QMetaTypeInterfaceEPvE_8__invokeES5_S6_, symObjAddr: 0x170, symBinAddr: 0x1C500, symSize: 0x30 }
  - { offset: 0xAA7D5, size: 0x8, addend: 0x0, symName: __ZZN9QtPrivate16QMetaTypeForTypeI18KCompressionDeviceE7getDtorEvENKUlPKNS_18QMetaTypeInterfaceEPvE_clES5_S6_, symObjAddr: 0x1A0, symBinAddr: 0x1C530, symSize: 0x24 }
  - { offset: 0xAC6E0, size: 0x8, addend: 0x0, symName: __ZN16KLimitedIODevice18qt_static_metacallEP7QObjectN11QMetaObject4CallEiPPv, symObjAddr: 0x0, symBinAddr: 0x1C560, symSize: 0x20 }
  - { offset: 0xAC834, size: 0x8, addend: 0x0, symName: __ZN16KLimitedIODevice16staticMetaObjectE, symObjAddr: 0x278, symBinAddr: 0x4BAC8, symSize: 0x0 }
  - { offset: 0xB1114, size: 0x8, addend: 0x0, symName: __ZTV16KLimitedIODevice, symObjAddr: 0x2B0, symBinAddr: 0x4BB00, symSize: 0x0 }
  - { offset: 0xB1128, size: 0x8, addend: 0x0, symName: __ZN16KLimitedIODevice32qt_staticMetaObjectStaticContentIN12_GLOBAL__N_135qt_meta_tag_ZN16KLimitedIODeviceE_tEEE, symObjAddr: 0x3E4, symBinAddr: 0x458C0, symSize: 0x0 }
  - { offset: 0xB1152, size: 0x8, addend: 0x0, symName: __ZN16KLimitedIODevice36qt_staticMetaObjectRelocatingContentIN12_GLOBAL__N_135qt_meta_tag_ZN16KLimitedIODeviceE_tEEE, symObjAddr: 0x270, symBinAddr: 0x4BAC0, symSize: 0x0 }
  - { offset: 0xB1170, size: 0x8, addend: 0x0, symName: __ZN9QtPrivate25QMetaTypeInterfaceWrapperI16KLimitedIODeviceE8metaTypeE, symObjAddr: 0x440, symBinAddr: 0x4D0F0, symSize: 0x0 }
  - { offset: 0xB1184, size: 0x8, addend: 0x0, symName: __ZN9QtPrivate16QMetaTypeForTypeI16KLimitedIODeviceE4nameE, symObjAddr: 0x3D3, symBinAddr: 0x458AF, symSize: 0x0 }
  - { offset: 0xB11C7, size: 0x8, addend: 0x0, symName: __ZN16KLimitedIODevice18qt_static_metacallEP7QObjectN11QMetaObject4CallEiPPv, symObjAddr: 0x0, symBinAddr: 0x1C560, symSize: 0x20 }
  - { offset: 0xB1224, size: 0x8, addend: 0x0, symName: __ZNK16KLimitedIODevice10metaObjectEv, symObjAddr: 0x20, symBinAddr: 0x1C580, symSize: 0x60 }
  - { offset: 0xB124C, size: 0x8, addend: 0x0, symName: __ZN16KLimitedIODevice11qt_metacastEPKc, symObjAddr: 0xA0, symBinAddr: 0x1C5E0, symSize: 0x70 }
  - { offset: 0xB1282, size: 0x8, addend: 0x0, symName: __ZN16KLimitedIODevice11qt_metacallEN11QMetaObject4CallEiPPv, symObjAddr: 0x110, symBinAddr: 0x1C650, symSize: 0x40 }
  - { offset: 0xB12D4, size: 0x8, addend: 0x0, symName: __ZN16KLimitedIODeviceD1Ev, symObjAddr: 0x150, symBinAddr: 0x1C690, symSize: 0x20 }
  - { offset: 0xB12FE, size: 0x8, addend: 0x0, symName: __ZN16KLimitedIODeviceD0Ev, symObjAddr: 0x170, symBinAddr: 0x1C6B0, symSize: 0x30 }
  - { offset: 0xB1328, size: 0x8, addend: 0x0, symName: __ZN16KLimitedIODevice9writeDataEPKcx, symObjAddr: 0x1A0, symBinAddr: 0x1C6E0, symSize: 0x20 }
  - { offset: 0xB1364, size: 0x8, addend: 0x0, symName: __ZN9QtPrivate17MetaObjectForTypeI16KLimitedIODevicevE18metaObjectFunctionEPKNS_18QMetaTypeInterfaceE, symObjAddr: 0x1C0, symBinAddr: 0x1C700, symSize: 0x20 }
  - { offset: 0xB13B8, size: 0x8, addend: 0x0, symName: __ZZN9QtPrivate16QMetaTypeForTypeI16KLimitedIODeviceE7getDtorEvENUlPKNS_18QMetaTypeInterfaceEPvE_8__invokeES5_S6_, symObjAddr: 0x1E0, symBinAddr: 0x1C720, symSize: 0x30 }
  - { offset: 0xB13F4, size: 0x8, addend: 0x0, symName: __ZZN9QtPrivate16QMetaTypeForTypeI16KLimitedIODeviceE7getDtorEvENKUlPKNS_18QMetaTypeInterfaceEPvE_clES5_S6_, symObjAddr: 0x210, symBinAddr: 0x1C750, symSize: 0x30 }
  - { offset: 0xB1439, size: 0x8, addend: 0x0, symName: __ZN16KLimitedIODeviceD2Ev, symObjAddr: 0x240, symBinAddr: 0x1C780, symSize: 0x1B }
  - { offset: 0xB3EF4, size: 0x8, addend: 0x0, symName: __ZN9QtPrivateL19lengthHelperPointerIcEExPKT_, symObjAddr: 0x7650, symBinAddr: 0x23CB0, symSize: 0x50 }
  - { offset: 0xB3F37, size: 0x8, addend: 0x0, symName: __ZN9QtPrivate10findStringE11QStringViewx5QCharN2Qt15CaseSensitivityE, symObjAddr: 0x8CA0, symBinAddr: 0x24910, symSize: 0x1D0 }
  - { offset: 0xB3FE1, size: 0x8, addend: 0x0, symName: __ZN9QtPrivate16qStringLikeToArgE14QAnyStringView, symObjAddr: 0xB4D0, symBinAddr: 0x27080, symSize: 0x40 }
  - { offset: 0xB400F, size: 0x8, addend: 0x0, symName: __ZN9QtPrivate21lengthHelperContainerI11QStringViewEExRKT_, symObjAddr: 0xB580, symBinAddr: 0x270E0, symSize: 0x20 }
  - { offset: 0xB4050, size: 0x8, addend: 0x0, symName: __ZN9QtPrivate20q_relocate_overlap_nIPK17KArchiveDirectoryxEEvPT_T0_S5_, symObjAddr: 0xEF40, symBinAddr: 0x2A7D0, symSize: 0x50 }
  - { offset: 0xB40A6, size: 0x8, addend: 0x0, symName: __ZN9QtPrivateL19q_points_into_rangeI17QArrayDataPointerIPK17KArchiveDirectoryEPKS4_EEbRKT0_RKT_, symObjAddr: 0xEF90, symBinAddr: 0x2A820, symSize: 0xA0 }
  - { offset: 0xB40F2, size: 0x8, addend: 0x0, symName: __ZN9QtPrivateL19q_points_into_rangeIPK17KArchiveDirectoryNSt3__14lessIvEEEEbPKT_S9_S9_T0_, symObjAddr: 0xF030, symBinAddr: 0x2A8C0, symSize: 0x50 }
  - { offset: 0xB415A, size: 0x8, addend: 0x0, symName: __ZN9QtPrivate20q_relocate_overlap_nI7QStringxEEvPT_T0_S3_, symObjAddr: 0x107F0, symBinAddr: 0x2BF10, symSize: 0x50 }
  - { offset: 0xB41B0, size: 0x8, addend: 0x0, symName: __ZN9QtPrivateL19q_points_into_rangeI17QArrayDataPointerI7QStringEPKS2_EEbRKT0_RKT_, symObjAddr: 0x10840, symBinAddr: 0x2BF60, symSize: 0xA0 }
  - { offset: 0xB41FC, size: 0x8, addend: 0x0, symName: __ZN9QtPrivateL19q_points_into_rangeI7QStringNSt3__14lessIvEEEEbPKT_S7_S7_T0_, symObjAddr: 0x108E0, symBinAddr: 0x2C000, symSize: 0x50 }
  - { offset: 0xB4264, size: 0x8, addend: 0x0, symName: __ZN9QtPrivate20q_relocate_overlap_nIPK12KArchiveFilexEEvPT_T0_S5_, symObjAddr: 0x12260, symBinAddr: 0x2D6A0, symSize: 0x50 }
  - { offset: 0xB42BA, size: 0x8, addend: 0x0, symName: __ZN9QtPrivateL19q_points_into_rangeI17QArrayDataPointerIPK12KArchiveFileEPKS4_EEbRKT0_RKT_, symObjAddr: 0x122B0, symBinAddr: 0x2D6F0, symSize: 0xA0 }
  - { offset: 0xB4306, size: 0x8, addend: 0x0, symName: __ZN9QtPrivateL19q_points_into_rangeIPK12KArchiveFileNSt3__14lessIvEEEEbPKT_S9_S9_T0_, symObjAddr: 0x12350, symBinAddr: 0x2D790, symSize: 0x50 }
  - { offset: 0xB43B6, size: 0x8, addend: 0x0, symName: __ZTV8KArchive, symObjAddr: 0x1A480, symBinAddr: 0x4BC10, symSize: 0x0 }
  - { offset: 0xBEC91, size: 0x8, addend: 0x0, symName: __ZNSt3__18in_placeE, symObjAddr: 0x1B55A, symBinAddr: 0x45956, symSize: 0x0 }
  - { offset: 0xBECAC, size: 0x8, addend: 0x0, symName: __ZNSt3__17nulloptE, symObjAddr: 0x1B51C, symBinAddr: 0x45918, symSize: 0x0 }
  - { offset: 0xC1C78, size: 0x8, addend: 0x0, symName: __ZNSt3__117__cxx_atomic_loadB9nqe210106IbEET_PKNS_22__cxx_atomic_base_implIS1_EENS_12memory_orderE, symObjAddr: 0xB3F0, symBinAddr: 0x26FA0, symSize: 0x60 }
  - { offset: 0xC1CE9, size: 0x8, addend: 0x0, symName: __ZNSt3__17advanceB9nqe210106INS_21__tree_const_iteratorINS_12__value_typeIx7QStringEEPNS_11__tree_nodeIS4_PvEElEEllLi0EEEvRT_T0_, symObjAddr: 0x14800, symBinAddr: 0x2FA50, symSize: 0x30 }
  - { offset: 0xC1D80, size: 0x8, addend: 0x0, symName: __ZNSt3__111__introsortINS_17_ClassicAlgPolicyERPFbPK12KArchiveFileS4_EN5QListIS4_E8iteratorELb0EEEvT1_SB_T0_NS_15iterator_traitsISB_E15difference_typeEb, symObjAddr: 0x15F80, symBinAddr: 0x30D40, symSize: 0x7C0 }
  - { offset: 0xC1EE4, size: 0x8, addend: 0x0, symName: __ZNSt3__126__insertion_sort_unguardedB9nqe210106INS_17_ClassicAlgPolicyERPFbPK12KArchiveFileS4_EN5QListIS4_E8iteratorEEEvT1_SB_T0_, symObjAddr: 0x16E30, symBinAddr: 0x31BF0, symSize: 0x180 }
  - { offset: 0xC1FD9, size: 0x8, addend: 0x0, symName: __ZNSt3__111__sift_downB9nqe210106INS_17_ClassicAlgPolicyERPFbPK12KArchiveFileS4_EN5QListIS4_E8iteratorEEEvT1_OT0_NS_15iterator_traitsISB_E15difference_typeESB_, symObjAddr: 0x18250, symBinAddr: 0x33010, symSize: 0x2A0 }
  - { offset: 0xC2087, size: 0x8, addend: 0x0, symName: __ZNSt3__117__floyd_sift_downB9nqe210106INS_17_ClassicAlgPolicyERPFbPK12KArchiveFileS4_EN5QListIS4_E8iteratorEEET1_SB_OT0_NS_15iterator_traitsISB_E15difference_typeE, symObjAddr: 0x186D0, symBinAddr: 0x33490, symSize: 0x130 }
  - { offset: 0xC211F, size: 0x8, addend: 0x0, symName: __ZNSt3__131__partition_with_equals_on_leftB9nqe210106INS_17_ClassicAlgPolicyEN5QListIPK12KArchiveFileE8iteratorERPFbS5_S5_EEET0_SB_SB_T1_, symObjAddr: 0x170D0, symBinAddr: 0x31E90, symSize: 0x2F0 }
  - { offset: 0xC21DB, size: 0x8, addend: 0x0, symName: __ZNSt3__118__bitset_partitionB9nqe210106INS_17_ClassicAlgPolicyEN5QListIPK12KArchiveFileE8iteratorERPFbS5_S5_EEENS_4pairIT0_bEESC_SC_T1_, symObjAddr: 0x173C0, symBinAddr: 0x32180, symSize: 0x400 }
  - { offset: 0xC22D8, size: 0x8, addend: 0x0, symName: __ZNSt3__124__swap_bitmap_pos_withinB9nqe210106INS_17_ClassicAlgPolicyEN5QListIPK12KArchiveFileE8iteratorEEEvRT0_S9_RySA_, symObjAddr: 0x18E30, symBinAddr: 0x33BF0, symSize: 0x190 }
  - { offset: 0xC23A9, size: 0x8, addend: 0x0, symName: __ZNSt3__132__partition_with_equals_on_rightB9nqe210106INS_17_ClassicAlgPolicyEN5QListIPK12KArchiveFileE8iteratorERPFbS5_S5_EEENS_4pairIT0_bEESC_SC_T1_, symObjAddr: 0x177C0, symBinAddr: 0x32580, symSize: 0x2C0 }
  - { offset: 0xC2475, size: 0x8, addend: 0x0, symName: __ZNSt3__127__insertion_sort_incompleteB9nqe210106INS_17_ClassicAlgPolicyERPFbPK12KArchiveFileS4_EN5QListIS4_E8iteratorEEEbT1_SB_T0_, symObjAddr: 0x17A80, symBinAddr: 0x32840, symSize: 0x490 }
  - { offset: 0xC2D4D, size: 0x8, addend: 0x0, symName: __ZNSt3__14sortB9nqe210106IN5QListIPK12KArchiveFileE8iteratorEPFbS4_S4_EEEvT_S9_T0_, symObjAddr: 0x6E80, symBinAddr: 0x234E0, symSize: 0x40 }
  - { offset: 0xC2DA7, size: 0x8, addend: 0x0, symName: __ZNSt3__112__destroy_atB9nqe210106INS_4pairIKx7QStringEELi0EEEvPT_, symObjAddr: 0xA880, symBinAddr: 0x264A0, symSize: 0x20 }
  - { offset: 0xC2DDE, size: 0x8, addend: 0x0, symName: __ZNSt3__119__libcpp_deallocateB9nqe210106INS_11__tree_nodeINS_12__value_typeIx7QStringEEPvEEEEvPNS_15__type_identityIT_E4typeENS_15__element_countEm, symObjAddr: 0xA910, symBinAddr: 0x26530, symSize: 0x50 }
  - { offset: 0xC2E39, size: 0x8, addend: 0x0, symName: __ZNSt3__14dataB9nqe210106I11QStringViewEEDTcldtfp_4dataEERT_, symObjAddr: 0xB560, symBinAddr: 0x270C0, symSize: 0x20 }
  - { offset: 0xC2E6E, size: 0x8, addend: 0x0, symName: __ZNSt3__14sizeB9nqe210106I11QStringViewEEDTcldtfp_4sizeEERKT_, symObjAddr: 0xB5F0, symBinAddr: 0x27120, symSize: 0x20 }
  - { offset: 0xC2EA3, size: 0x8, addend: 0x0, symName: __ZNSt3__18distanceB9nqe210106IN5QHashI7QStringP13KArchiveEntryE12key_iteratorEEENS_15iterator_traitsIT_E15difference_typeES8_S8_, symObjAddr: 0xBCD0, symBinAddr: 0x27730, symSize: 0x60 }
  - { offset: 0xC2EE6, size: 0x8, addend: 0x0, symName: __ZNSt3__110__distanceB9nqe210106IN5QHashI7QStringP13KArchiveEntryE12key_iteratorEEENS_15iterator_traitsIT_E15difference_typeES8_S8_NS_18input_iterator_tagE, symObjAddr: 0xBFD0, symBinAddr: 0x27A30, symSize: 0x70 }
  - { offset: 0xC2F42, size: 0x8, addend: 0x0, symName: __ZNSt3__18exchangeB9nqe210106IP15QTypedArrayDataI7QStringEDnEET_RS5_OT0_, symObjAddr: 0xC300, symBinAddr: 0x27D00, symSize: 0x30 }
  - { offset: 0xC2F9C, size: 0x8, addend: 0x0, symName: __ZNSt3__18exchangeB9nqe210106IP7QStringDnEET_RS3_OT0_, symObjAddr: 0xC330, symBinAddr: 0x27D30, symSize: 0x30 }
  - { offset: 0xC2FF6, size: 0x8, addend: 0x0, symName: __ZNSt3__14dataB9nqe210106I17QArrayDataPointerIPK17KArchiveDirectoryEEEDTcldtfp_4dataEERKT_, symObjAddr: 0xF080, symBinAddr: 0x2A910, symSize: 0x20 }
  - { offset: 0xC302B, size: 0x8, addend: 0x0, symName: __ZNSt3__18distanceB9nqe210106IPKPK17KArchiveDirectoryEENS_15iterator_traitsIT_E15difference_typeES7_S7_, symObjAddr: 0xF0A0, symBinAddr: 0x2A930, symSize: 0x30 }
  - { offset: 0xC306E, size: 0x8, addend: 0x0, symName: __ZNSt3__15beginB9nqe210106I17QArrayDataPointerIPK17KArchiveDirectoryEEEDTcldtfp_5beginEERKT_, symObjAddr: 0xF0D0, symBinAddr: 0x2A960, symSize: 0x20 }
  - { offset: 0xC30A3, size: 0x8, addend: 0x0, symName: __ZNSt3__13endB9nqe210106I17QArrayDataPointerIPK17KArchiveDirectoryEEEDTcldtfp_3endEERKT_, symObjAddr: 0xF0F0, symBinAddr: 0x2A980, symSize: 0x20 }
  - { offset: 0xC317F, size: 0x8, addend: 0x0, symName: __ZNSt3__110__distanceB9nqe210106IPKPK17KArchiveDirectoryEENS_15iterator_traitsIT_E15difference_typeES7_S7_NS_26random_access_iterator_tagE, symObjAddr: 0xF160, symBinAddr: 0x2A9F0, symSize: 0x20 }
  - { offset: 0xC31CD, size: 0x8, addend: 0x0, symName: __ZNSt3__13getB9nqe210106ILm0EP15QTypedArrayDataIPK17KArchiveDirectoryEPS4_EEONS_13tuple_elementIXT_ENS_4pairIT0_T1_EEE4typeEOSC_, symObjAddr: 0xF7D0, symBinAddr: 0x2B060, symSize: 0x20 }
  - { offset: 0xC3217, size: 0x8, addend: 0x0, symName: __ZNSt3__13getB9nqe210106ILm1EP15QTypedArrayDataIPK17KArchiveDirectoryEPS4_EEONS_13tuple_elementIXT_ENS_4pairIT0_T1_EEE4typeEOSC_, symObjAddr: 0xF7F0, symBinAddr: 0x2B080, symSize: 0x20 }
  - { offset: 0xC337B, size: 0x8, addend: 0x0, symName: __ZNSt3__14dataB9nqe210106I17QArrayDataPointerIPK12KArchiveFileEEEDTcldtfp_4dataEERKT_, symObjAddr: 0x123A0, symBinAddr: 0x2D7E0, symSize: 0x20 }
  - { offset: 0xC33B0, size: 0x8, addend: 0x0, symName: __ZNSt3__18distanceB9nqe210106IPKPK12KArchiveFileEENS_15iterator_traitsIT_E15difference_typeES7_S7_, symObjAddr: 0x123C0, symBinAddr: 0x2D800, symSize: 0x30 }
  - { offset: 0xC33F3, size: 0x8, addend: 0x0, symName: __ZNSt3__15beginB9nqe210106I17QArrayDataPointerIPK12KArchiveFileEEEDTcldtfp_5beginEERKT_, symObjAddr: 0x123F0, symBinAddr: 0x2D830, symSize: 0x20 }
  - { offset: 0xC3428, size: 0x8, addend: 0x0, symName: __ZNSt3__13endB9nqe210106I17QArrayDataPointerIPK12KArchiveFileEEEDTcldtfp_3endEERKT_, symObjAddr: 0x12410, symBinAddr: 0x2D850, symSize: 0x20 }
  - { offset: 0xC345D, size: 0x8, addend: 0x0, symName: __ZNSt3__110__distanceB9nqe210106IPKPK12KArchiveFileEENS_15iterator_traitsIT_E15difference_typeES7_S7_NS_26random_access_iterator_tagE, symObjAddr: 0x12480, symBinAddr: 0x2D8C0, symSize: 0x20 }
  - { offset: 0xC34AB, size: 0x8, addend: 0x0, symName: __ZNSt3__13getB9nqe210106ILm0EP15QTypedArrayDataIPK12KArchiveFileEPS4_EEONS_13tuple_elementIXT_ENS_4pairIT0_T1_EEE4typeEOSC_, symObjAddr: 0x12AF0, symBinAddr: 0x2DF30, symSize: 0x20 }
  - { offset: 0xC34F5, size: 0x8, addend: 0x0, symName: __ZNSt3__13getB9nqe210106ILm1EP15QTypedArrayDataIPK12KArchiveFileEPS4_EEONS_13tuple_elementIXT_ENS_4pairIT0_T1_EEE4typeEOSC_, symObjAddr: 0x12B10, symBinAddr: 0x2DF50, symSize: 0x20 }
  - { offset: 0xC353F, size: 0x8, addend: 0x0, symName: __ZNSt3__1neB9nqe210106ERKNS_20__map_const_iteratorINS_21__tree_const_iteratorINS_12__value_typeIx7QStringEEPNS_11__tree_nodeIS4_PvEElEEEESC_, symObjAddr: 0x13890, symBinAddr: 0x2EBE0, symSize: 0x30 }
  - { offset: 0xC357C, size: 0x8, addend: 0x0, symName: __ZNSt3__1neB9nqe210106ERKNS_21__tree_const_iteratorINS_12__value_typeIx7QStringEEPNS_11__tree_nodeIS3_PvEElEESA_, symObjAddr: 0x13B70, symBinAddr: 0x2EEC0, symSize: 0x30 }
  - { offset: 0xC35B9, size: 0x8, addend: 0x0, symName: __ZNSt3__1eqB9nqe210106ERKNS_21__tree_const_iteratorINS_12__value_typeIx7QStringEEPNS_11__tree_nodeIS3_PvEElEESA_, symObjAddr: 0x13BA0, symBinAddr: 0x2EEF0, symSize: 0x30 }
  - { offset: 0xC3629, size: 0x8, addend: 0x0, symName: __ZNSt3__14nextB9nqe210106INS_21__tree_const_iteratorINS_12__value_typeIx7QStringEEPNS_11__tree_nodeIS4_PvEElEELi0EEET_SA_NS_15iterator_traitsISA_E15difference_typeE, symObjAddr: 0x14640, symBinAddr: 0x2F990, symSize: 0x30 }
  - { offset: 0xC3672, size: 0x8, addend: 0x0, symName: __ZNSt3__19__advanceB9nqe210106INS_21__tree_const_iteratorINS_12__value_typeIx7QStringEEPNS_11__tree_nodeIS4_PvEElEEEEvRT_NS_15iterator_traitsISA_E15difference_typeENS_26bidirectional_iterator_tagE, symObjAddr: 0x14840, symBinAddr: 0x2FA80, symSize: 0x70 }
  - { offset: 0xC36DA, size: 0x8, addend: 0x0, symName: __ZNSt3__117__libcpp_allocateB9nqe210106INS_11__tree_nodeINS_12__value_typeIx7QStringEEPvEEEEPT_NS_15__element_countEm, symObjAddr: 0x14B40, symBinAddr: 0x2FCA0, symSize: 0x60 }
  - { offset: 0xC372B, size: 0x8, addend: 0x0, symName: __ZNSt3__1neB9nqe210106ERKNS_14__map_iteratorINS_15__tree_iteratorINS_12__value_typeIx7QStringEEPNS_11__tree_nodeIS4_PvEElEEEESC_, symObjAddr: 0x152F0, symBinAddr: 0x300B0, symSize: 0x30 }
  - { offset: 0xC3768, size: 0x8, addend: 0x0, symName: __ZNSt3__19make_pairB9nqe210106IRNS_14__map_iteratorINS_15__tree_iteratorINS_12__value_typeIx7QStringEEPNS_11__tree_nodeIS5_PvEElEEEEbEENS_4pairINS_18__unwrap_referenceIu7__decayIT_EE4typeENSE_Iu7__decayIT0_EE4typeEEEOSF_OSJ_, symObjAddr: 0x15380, symBinAddr: 0x30140, symSize: 0x30 }
  - { offset: 0xC37B7, size: 0x8, addend: 0x0, symName: __ZNSt3__19make_pairB9nqe210106INS_14__map_iteratorINS_15__tree_iteratorINS_12__value_typeIx7QStringEEPNS_11__tree_nodeIS5_PvEElEEEEbEENS_4pairINS_18__unwrap_referenceIu7__decayIT_EE4typeENSD_Iu7__decayIT0_EE4typeEEEOSE_OSI_, symObjAddr: 0x153B0, symBinAddr: 0x30170, symSize: 0x30 }
  - { offset: 0xC3806, size: 0x8, addend: 0x0, symName: __ZNSt3__1neB9nqe210106ERKNS_15__tree_iteratorINS_12__value_typeIx7QStringEEPNS_11__tree_nodeIS3_PvEElEESA_, symObjAddr: 0x15550, symBinAddr: 0x30310, symSize: 0x30 }
  - { offset: 0xC3843, size: 0x8, addend: 0x0, symName: __ZNSt3__1eqB9nqe210106ERKNS_15__tree_iteratorINS_12__value_typeIx7QStringEEPNS_11__tree_nodeIS3_PvEElEESA_, symObjAddr: 0x15580, symBinAddr: 0x30340, symSize: 0x30 }
  - { offset: 0xC38D0, size: 0x8, addend: 0x0, symName: __ZNSt3__111__sort_implB9nqe210106INS_17_ClassicAlgPolicyEN5QListIPK12KArchiveFileE8iteratorEPFbS5_S5_EEEvT0_SA_RT1_, symObjAddr: 0x15D60, symBinAddr: 0x30B20, symSize: 0xB0 }
  - { offset: 0xC3933, size: 0x8, addend: 0x0, symName: __ZNSt3__123__debug_randomize_rangeB9nqe210106INS_17_ClassicAlgPolicyEN5QListIPK12KArchiveFileE8iteratorES7_EEvT0_T1_, symObjAddr: 0x15E10, symBinAddr: 0x30BD0, symSize: 0x10 }
  - { offset: 0xC3985, size: 0x8, addend: 0x0, symName: __ZNSt3__115__sort_dispatchB9nqe210106INS_17_ClassicAlgPolicyEN5QListIPK12KArchiveFileE8iteratorEPFbS5_S5_EEEvT0_SA_RT1_, symObjAddr: 0x15E20, symBinAddr: 0x30BE0, symSize: 0x90 }
  - { offset: 0xC3A03, size: 0x8, addend: 0x0, symName: __ZNSt3__113__unwrap_iterB9nqe210106IN5QListIPK12KArchiveFileE8iteratorENS_18__unwrap_iter_implIS6_Lb0EEELi0EEEDTclsrT0_8__unwrapclsr3stdE7declvalIT_EEEESA_, symObjAddr: 0x15EB0, symBinAddr: 0x30C70, symSize: 0x30 }
  - { offset: 0xC3A47, size: 0x8, addend: 0x0, symName: __ZNSt3__135__check_strict_weak_ordering_sortedB9nqe210106IN5QListIPK12KArchiveFileE8iteratorEPFbS4_S4_EEEvT_S9_RT0_, symObjAddr: 0x15EE0, symBinAddr: 0x30CA0, symSize: 0x20 }
  - { offset: 0xC3A9D, size: 0x8, addend: 0x0, symName: __ZNSt3__110__bit_log2B9nqe210106IyEET_S1_, symObjAddr: 0x15F20, symBinAddr: 0x30CE0, symSize: 0x30 }
  - { offset: 0xC3AD2, size: 0x8, addend: 0x0, symName: __ZNSt3__118__to_unsigned_likeB9nqe210106IxEEu15__make_unsignedIT_ES1_, symObjAddr: 0x15F50, symBinAddr: 0x30D10, symSize: 0x10 }
  - { offset: 0xC3B07, size: 0x8, addend: 0x0, symName: __ZNSt3__113__countl_zeroB9nqe210106IyEEiT_, symObjAddr: 0x16740, symBinAddr: 0x31500, symSize: 0x30 }
  - { offset: 0xC3C2C, size: 0x8, addend: 0x0, symName: __ZNSt3__17__sort3B9nqe210106INS_17_ClassicAlgPolicyERPFbPK12KArchiveFileS4_EN5QListIS4_E8iteratorELi0EEEbT1_SB_SB_T0_, symObjAddr: 0x167D0, symBinAddr: 0x31590, symSize: 0x1B0 }
  - { offset: 0xC3CA3, size: 0x8, addend: 0x0, symName: __ZNSt3__17__sort4B9nqe210106INS_17_ClassicAlgPolicyERPFbPK12KArchiveFileS4_EN5QListIS4_E8iteratorELi0EEEvT1_SB_SB_SB_T0_, symObjAddr: 0x169C0, symBinAddr: 0x31780, symSize: 0x130 }
  - { offset: 0xC3D24, size: 0x8, addend: 0x0, symName: __ZNSt3__17__sort5B9nqe210106INS_17_ClassicAlgPolicyERPFbPK12KArchiveFileS4_EN5QListIS4_E8iteratorELi0EEEvT1_SB_SB_SB_SB_T0_, symObjAddr: 0x16AF0, symBinAddr: 0x318B0, symSize: 0x1A0 }
  - { offset: 0xC3DB3, size: 0x8, addend: 0x0, symName: __ZNSt3__116__insertion_sortB9nqe210106INS_17_ClassicAlgPolicyERPFbPK12KArchiveFileS4_EN5QListIS4_E8iteratorEEEvT1_SB_T0_, symObjAddr: 0x16C90, symBinAddr: 0x31A50, symSize: 0x1A0 }
  - { offset: 0xC3E75, size: 0x8, addend: 0x0, symName: __ZNSt3__114__partial_sortB9nqe210106INS_17_ClassicAlgPolicyERPFbPK12KArchiveFileS4_EN5QListIS4_E8iteratorESA_EET1_SB_SB_T2_RT0_, symObjAddr: 0x16FB0, symBinAddr: 0x31D70, symSize: 0xE0 }
  - { offset: 0xC3EFD, size: 0x8, addend: 0x0, symName: __ZNSt3__19iter_swapB9nqe210106IN5QListIPK12KArchiveFileE8iteratorES6_EEvT_T0_, symObjAddr: 0x17F30, symBinAddr: 0x32CF0, symSize: 0x40 }
  - { offset: 0xC3F45, size: 0x8, addend: 0x0, symName: __ZNSt3__14swapB9nqe210106IPK12KArchiveFileEENS_9enable_ifIXaasr21is_move_constructibleIT_EE5valuesr18is_move_assignableIS5_EE5valueEvE4typeERS5_S8_, symObjAddr: 0x17F70, symBinAddr: 0x32D30, symSize: 0x40 }
  - { offset: 0xC3F96, size: 0x8, addend: 0x0, symName: __ZNSt3__119__partial_sort_implB9nqe210106INS_17_ClassicAlgPolicyERPFbPK12KArchiveFileS4_EN5QListIS4_E8iteratorESA_EET1_SB_SB_T2_OT0_, symObjAddr: 0x18020, symBinAddr: 0x32DE0, symSize: 0x180 }
  - { offset: 0xC402D, size: 0x8, addend: 0x0, symName: __ZNSt3__111__make_heapB9nqe210106INS_17_ClassicAlgPolicyERPFbPK12KArchiveFileS4_EN5QListIS4_E8iteratorEEEvT1_SB_OT0_, symObjAddr: 0x181A0, symBinAddr: 0x32F60, symSize: 0xB0 }
  - { offset: 0xC40D0, size: 0x8, addend: 0x0, symName: __ZNSt3__111__sort_heapB9nqe210106INS_17_ClassicAlgPolicyERPFbPK12KArchiveFileS4_EN5QListIS4_E8iteratorEEEvT1_SB_OT0_, symObjAddr: 0x184F0, symBinAddr: 0x332B0, symSize: 0xB0 }
  - { offset: 0xC4173, size: 0x8, addend: 0x0, symName: __ZNSt3__110__pop_heapB9nqe210106INS_17_ClassicAlgPolicyEPFbPK12KArchiveFileS4_EN5QListIS4_E8iteratorEEEvT1_SA_RT0_NS_15iterator_traitsISA_E15difference_typeE, symObjAddr: 0x185A0, symBinAddr: 0x33360, symSize: 0x130 }
  - { offset: 0xC4224, size: 0x8, addend: 0x0, symName: __ZNSt3__19__sift_upB9nqe210106INS_17_ClassicAlgPolicyERPFbPK12KArchiveFileS4_EN5QListIS4_E8iteratorEEEvT1_SB_OT0_NS_15iterator_traitsISB_E15difference_typeE, symObjAddr: 0x18800, symBinAddr: 0x335C0, symSize: 0x150 }
  - { offset: 0xC42D7, size: 0x8, addend: 0x0, symName: __ZNSt3__122__populate_left_bitsetB9nqe210106IRPFbPK12KArchiveFileS3_EN5QListIS3_E8iteratorES3_EEvT0_T_RT1_Ry, symObjAddr: 0x189B0, symBinAddr: 0x33770, symSize: 0x90 }
  - { offset: 0xC4395, size: 0x8, addend: 0x0, symName: __ZNSt3__123__populate_right_bitsetB9nqe210106IRPFbPK12KArchiveFileS3_EN5QListIS3_E8iteratorES3_EEvT0_T_RT1_Ry, symObjAddr: 0x18A40, symBinAddr: 0x33800, symSize: 0x90 }
  - { offset: 0xC4453, size: 0x8, addend: 0x0, symName: __ZNSt3__117__swap_bitmap_posB9nqe210106INS_17_ClassicAlgPolicyEN5QListIPK12KArchiveFileE8iteratorEEEvT0_S8_RyS9_, symObjAddr: 0x18AD0, symBinAddr: 0x33890, symSize: 0xD0 }
  - { offset: 0xC44F6, size: 0x8, addend: 0x0, symName: __ZNSt3__133__bitset_partition_partial_blocksB9nqe210106INS_17_ClassicAlgPolicyERPFbPK12KArchiveFileS4_EN5QListIS4_E8iteratorES4_EEvRT1_SC_T0_RT2_RySG_, symObjAddr: 0x18BD0, symBinAddr: 0x33990, symSize: 0x260 }
  - { offset: 0xC4684, size: 0x8, addend: 0x0, symName: __ZNSt3__19make_pairB9nqe210106IRN5QListIPK12KArchiveFileE8iteratorERbEENS_4pairINS_18__unwrap_referenceIu7__decayIT_EE4typeENSA_Iu7__decayIT0_EE4typeEEEOSB_OSF_, symObjAddr: 0x18FC0, symBinAddr: 0x33D80, symSize: 0x30 }
  - { offset: 0xC46D3, size: 0x8, addend: 0x0, symName: __ZNSt3__113__countr_zeroB9nqe210106IyEEiT_, symObjAddr: 0x18FF0, symBinAddr: 0x33DB0, symSize: 0x20 }
  - { offset: 0xC4708, size: 0x8, addend: 0x0, symName: __ZNSt3__113__libcpp_blsrB9nqe210106Ey, symObjAddr: 0x19010, symBinAddr: 0x33DD0, symSize: 0x20 }
  - { offset: 0xC485A, size: 0x8, addend: 0x0, symName: __ZNSt3__1eqB9nqe210106ERKNS_14__map_iteratorINS_15__tree_iteratorINS_12__value_typeIx7QStringEEPNS_11__tree_nodeIS4_PvEElEEEESC_, symObjAddr: 0x192C0, symBinAddr: 0x34080, symSize: 0x30 }
  - { offset: 0xC6C03, size: 0x8, addend: 0x0, symName: __ZN2Qt11qt_ptr_swapERNS_23totally_ordered_wrapperIP8QMapDataINSt3__13mapIx7QStringNS2_4lessIxEENS2_9allocatorINS2_4pairIKxS4_EEEEEEEEESG_, symObjAddr: 0x15240, symBinAddr: 0x30000, symSize: 0x30 }
  - { offset: 0xD0AD2, size: 0x8, addend: 0x0, symName: __ZN12QHashPrivate13calculateHashI7QStringEEmRKT_m, symObjAddr: 0xADF0, symBinAddr: 0x269A0, symSize: 0x30 }
  - { offset: 0xD0B1A, size: 0x8, addend: 0x0, symName: __ZN12QHashPrivate12GrowthPolicy13bucketForHashEmm, symObjAddr: 0xAF40, symBinAddr: 0x26AF0, symSize: 0x20 }
  - { offset: 0xD0B57, size: 0x8, addend: 0x0, symName: __ZN12QHashPrivate12GrowthPolicy18bucketsForCapacityEm, symObjAddr: 0xCE00, symBinAddr: 0x28800, symSize: 0x70 }
  - { offset: 0xD0BA4, size: 0x8, addend: 0x0, symName: __ZN12QHashPrivateeqENS_4DataINS_4NodeI7QStringP13KArchiveEntryEEE6BucketES7_, symObjAddr: 0xE010, symBinAddr: 0x298A0, symSize: 0x40 }
  - { offset: 0xD1F5A, size: 0x8, addend: 0x0, symName: __ZTV13KArchiveEntry, symObjAddr: 0x1A500, symBinAddr: 0x4BC90, symSize: 0x0 }
  - { offset: 0xD1F6F, size: 0x8, addend: 0x0, symName: __ZTV12KArchiveFile, symObjAddr: 0x1A538, symBinAddr: 0x4BCC8, symSize: 0x0 }
  - { offset: 0xD1F84, size: 0x8, addend: 0x0, symName: __ZTV17KArchiveDirectory, symObjAddr: 0x1A580, symBinAddr: 0x4BD10, symSize: 0x0 }
  - { offset: 0xD774D, size: 0x8, addend: 0x0, symName: __ZN8KArchiveC2ERK7QString, symObjAddr: 0x0, symBinAddr: 0x1C7A0, symSize: 0x150 }
  - { offset: 0xD779C, size: 0x8, addend: 0x0, symName: __ZN15KArchivePrivateC1EP8KArchive, symObjAddr: 0x150, symBinAddr: 0x1C8F0, symSize: 0x30 }
  - { offset: 0xD77D4, size: 0x8, addend: 0x0, symName: __ZNK7QString7isEmptyEv, symObjAddr: 0x180, symBinAddr: 0x1C920, symSize: 0x30 }
  - { offset: 0xD8344, size: 0x8, addend: 0x0, symName: __ZN12_GLOBAL__N_127QLoggingCategoryMacroHolderIL9QtMsgType1EEC1ERK16QLoggingCategory, symObjAddr: 0x1B0, symBinAddr: 0x1C950, symSize: 0x30 }
  - { offset: 0xD837C, size: 0x8, addend: 0x0, symName: __ZNK12_GLOBAL__N_127QLoggingCategoryMacroHolderIL9QtMsgType1EEcvbEv, symObjAddr: 0x1E0, symBinAddr: 0x1C980, symSize: 0x20 }
  - { offset: 0xD83A2, size: 0x8, addend: 0x0, symName: __ZNK12_GLOBAL__N_127QLoggingCategoryMacroHolderIL9QtMsgType1EE4nameEv, symObjAddr: 0x200, symBinAddr: 0x1C9A0, symSize: 0x20 }
  - { offset: 0xD88EA, size: 0x8, addend: 0x0, symName: __ZN14QMessageLoggerC1EPKciS1_S1_, symObjAddr: 0x220, symBinAddr: 0x1C9C0, symSize: 0x40 }
  - { offset: 0xD894C, size: 0x8, addend: 0x0, symName: __ZN6QDebuglsEPKc, symObjAddr: 0x260, symBinAddr: 0x1CA00, symSize: 0x90 }
  - { offset: 0xD8980, size: 0x8, addend: 0x0, symName: __ZN8KArchiveC2EP9QIODevice, symObjAddr: 0x2F0, symBinAddr: 0x1CA90, symSize: 0x140 }
  - { offset: 0xD89CF, size: 0x8, addend: 0x0, symName: __ZN8KArchiveD2Ev, symObjAddr: 0x430, symBinAddr: 0x1CBD0, symSize: 0x80 }
  - { offset: 0xD89FB, size: 0x8, addend: 0x0, symName: __ZNK8KArchive6isOpenEv, symObjAddr: 0x4B0, symBinAddr: 0x1CC50, symSize: 0x30 }
  - { offset: 0xD8A24, size: 0x8, addend: 0x0, symName: __ZN15KArchivePrivateD1Ev, symObjAddr: 0x4F0, symBinAddr: 0x1CC80, symSize: 0x20 }
  - { offset: 0xD8A4E, size: 0x8, addend: 0x0, symName: __ZN8KArchiveD1Ev, symObjAddr: 0x510, symBinAddr: 0x1CCA0, symSize: 0x10 }
  - { offset: 0xD8A7A, size: 0x8, addend: 0x0, symName: __ZN8KArchiveD0Ev, symObjAddr: 0x520, symBinAddr: 0x1CCB0, symSize: 0x10 }
  - { offset: 0xD8AA6, size: 0x8, addend: 0x0, symName: __ZN8KArchive4openE6QFlagsIN13QIODeviceBase12OpenModeFlagEE, symObjAddr: 0x530, symBinAddr: 0x1CCC0, symSize: 0x2A0 }
  - { offset: 0xD8ADB, size: 0x8, addend: 0x0, symName: __Zne6QFlagsIN13QIODeviceBase12OpenModeFlagEES1_, symObjAddr: 0x7D0, symBinAddr: 0x1CF60, symSize: 0x40 }
  - { offset: 0xD8B16, size: 0x8, addend: 0x0, symName: __ZN8KArchive14setErrorStringERK7QString, symObjAddr: 0x810, symBinAddr: 0x1CFA0, symSize: 0x30 }
  - { offset: 0xD8B4E, size: 0x8, addend: 0x0, symName: __ZN8KArchive2trEPKcS1_i, symObjAddr: 0x840, symBinAddr: 0x1CFD0, symSize: 0x40 }
  - { offset: 0xD8B8D, size: 0x8, addend: 0x0, symName: __ZNK7QString3argIiLb1EEES_T_ii5QChar, symObjAddr: 0x8A0, symBinAddr: 0x1D010, symSize: 0x60 }
  - { offset: 0xD8BFE, size: 0x8, addend: 0x0, symName: __ZNK6QFlagsIN13QIODeviceBase12OpenModeFlagEEcvjEv, symObjAddr: 0x900, symBinAddr: 0x1D070, symSize: 0x10 }
  - { offset: 0xD8C24, size: 0x8, addend: 0x0, symName: __ZN5QCharC1IDsLb1EEET_, symObjAddr: 0x910, symBinAddr: 0x1D080, symSize: 0x30 }
  - { offset: 0xD8C6B, size: 0x8, addend: 0x0, symName: __ZN8KArchive12createDeviceE6QFlagsIN13QIODeviceBase12OpenModeFlagEE, symObjAddr: 0x940, symBinAddr: 0x1D0B0, symSize: 0x3F0 }
  - { offset: 0xD8D0A, size: 0x8, addend: 0x0, symName: __ZNK7QString3argIJRS_S_EEENSt3__19enable_ifIXaagesZT_Li2Esr3stdE13conjunction_vIDpNS2_11conjunctionIJNS2_8negationIN9QtPrivate21treat_as_integral_argIu11__remove_cvIT_EEEEENS2_14is_convertibleIS8_14QAnyStringViewEEEEEEES_E4typeEDpOS8_, symObjAddr: 0xD60, symBinAddr: 0x1D4A0, symSize: 0x1B0 }
  - { offset: 0xD8DC9, size: 0x8, addend: 0x0, symName: __ZN8KArchive5closeEv, symObjAddr: 0xF10, symBinAddr: 0x1D650, symSize: 0x200 }
  - { offset: 0xD8DFE, size: 0x8, addend: 0x0, symName: __Zeq6QFlagsIN13QIODeviceBase12OpenModeFlagEES1_, symObjAddr: 0x1110, symBinAddr: 0x1D850, symSize: 0x40 }
  - { offset: 0xD8E39, size: 0x8, addend: 0x0, symName: __ZN15KArchivePrivate12abortWritingEv, symObjAddr: 0x1150, symBinAddr: 0x1D890, symSize: 0x60 }
  - { offset: 0xD8E62, size: 0x8, addend: 0x0, symName: __ZNK8KArchive11errorStringEv, symObjAddr: 0x11B0, symBinAddr: 0x1D8F0, symSize: 0x40 }
  - { offset: 0xD8E8A, size: 0x8, addend: 0x0, symName: __ZNK8KArchive9directoryEv, symObjAddr: 0x1220, symBinAddr: 0x1D930, symSize: 0x20 }
  - { offset: 0xD8EB2, size: 0x8, addend: 0x0, symName: __ZN8KArchive12addLocalFileERK7QStringS2_, symObjAddr: 0x1240, symBinAddr: 0x1D950, symSize: 0xBF0 }
  - { offset: 0xD8FAF, size: 0x8, addend: 0x0, symName: __ZNK7QString3argIS_Lb1EEES_RKT_i5QChar, symObjAddr: 0x1E30, symBinAddr: 0x1E540, symSize: 0x70 }
  - { offset: 0xD9011, size: 0x8, addend: 0x0, symName: __ZN5QFile10encodeNameERK7QString, symObjAddr: 0x1EA0, symBinAddr: 0x1E5B0, symSize: 0x70 }
  - { offset: 0xD9034, size: 0x8, addend: 0x0, symName: __ZNK10QByteArray9constDataEv, symObjAddr: 0x1F10, symBinAddr: 0x1E620, symSize: 0x20 }
  - { offset: 0xD9060, size: 0x8, addend: 0x0, symName: __ZNK7QString3argI13QLatin1StringLb1EEES_RKT_i5QChar, symObjAddr: 0x1F50, symBinAddr: 0x1E640, symSize: 0x90 }
  - { offset: 0xD90C2, size: 0x8, addend: 0x0, symName: __ZN13QLatin1StringC1EPKc, symObjAddr: 0x1FE0, symBinAddr: 0x1E6D0, symSize: 0x30 }
  - { offset: 0xD90FA, size: 0x8, addend: 0x0, symName: __ZNK10QByteArray4dataEv, symObjAddr: 0x2050, symBinAddr: 0x1E700, symSize: 0x50 }
  - { offset: 0xD9122, size: 0x8, addend: 0x0, symName: __ZN10QByteArray4dataEv, symObjAddr: 0x20A0, symBinAddr: 0x1E750, symSize: 0x60 }
  - { offset: 0xD914A, size: 0x8, addend: 0x0, symName: __ZNK10QByteArray4sizeEv, symObjAddr: 0x2100, symBinAddr: 0x1E7B0, symSize: 0x50 }
  - { offset: 0xD91D2, size: 0x8, addend: 0x0, symName: __ZN10QByteArrayixEx, symObjAddr: 0x2150, symBinAddr: 0x1E800, symSize: 0xE0 }
  - { offset: 0xD9237, size: 0x8, addend: 0x0, symName: __ZN5QFile10decodeNameEPKc, symObjAddr: 0x2230, symBinAddr: 0x1E8E0, symSize: 0x90 }
  - { offset: 0xD925A, size: 0x8, addend: 0x0, symName: __ZN7QStringaSEOS_, symObjAddr: 0x22C0, symBinAddr: 0x1E970, symSize: 0x30 }
  - { offset: 0xD928F, size: 0x8, addend: 0x0, symName: __ZN8KArchive12writeSymLinkERK7QStringS2_S2_S2_tRK9QDateTimeS5_S5_, symObjAddr: 0x22F0, symBinAddr: 0x1E9A0, symSize: 0x80 }
  - { offset: 0xD9ED2, size: 0x8, addend: 0x0, symName: __ZNK9QFileInfo8lastReadEv, symObjAddr: 0x2370, symBinAddr: 0x1EA20, symSize: 0x30 }
  - { offset: 0xD9EF8, size: 0x8, addend: 0x0, symName: __ZNK9QFileInfo12lastModifiedEv, symObjAddr: 0x23A0, symBinAddr: 0x1EA50, symSize: 0x30 }
  - { offset: 0xD9F1E, size: 0x8, addend: 0x0, symName: __ZNK9QFileInfo9birthTimeEv, symObjAddr: 0x23D0, symBinAddr: 0x1EA80, symSize: 0x30 }
  - { offset: 0xD9F82, size: 0x8, addend: 0x0, symName: __ZNK7QString3argIJRKS_S_EEENSt3__19enable_ifIXaagesZT_Li2Esr3stdE13conjunction_vIDpNS3_11conjunctionIJNS3_8negationIN9QtPrivate21treat_as_integral_argIu11__remove_cvIT_EEEEENS3_14is_convertibleIS9_14QAnyStringViewEEEEEEES_E4typeEDpOS9_, symObjAddr: 0x2400, symBinAddr: 0x1EAB0, symSize: 0x1B0 }
  - { offset: 0xDA041, size: 0x8, addend: 0x0, symName: __ZN8KArchive14prepareWritingERK7QStringS2_S2_xtRK9QDateTimeS5_S5_, symObjAddr: 0x25B0, symBinAddr: 0x1EC60, symSize: 0xA0 }
  - { offset: 0xDA0F0, size: 0x8, addend: 0x0, symName: __Z4qMinIxERKT_S2_S2_, symObjAddr: 0x2650, symBinAddr: 0x1ED00, symSize: 0x40 }
  - { offset: 0xDA134, size: 0x8, addend: 0x0, symName: __ZN8KArchive13finishWritingEx, symObjAddr: 0x2690, symBinAddr: 0x1ED40, symSize: 0x30 }
  - { offset: 0xDA16C, size: 0x8, addend: 0x0, symName: __ZN8KArchive17addLocalDirectoryERK7QStringS2_, symObjAddr: 0x26C0, symBinAddr: 0x1ED70, symSize: 0x5F0 }
  - { offset: 0xDA228, size: 0x8, addend: 0x0, symName: __ZNK6QFlagsIN4QDir6FilterEEorES1_, symObjAddr: 0x2CB0, symBinAddr: 0x1F360, symSize: 0x40 }
  - { offset: 0xDA25C, size: 0x8, addend: 0x0, symName: __ZN6QFlagsIN4QDir6FilterEEC1ES1_, symObjAddr: 0x2CF0, symBinAddr: 0x1F3A0, symSize: 0x30 }
  - { offset: 0xDA294, size: 0x8, addend: 0x0, symName: __ZN6QFlagsIN4QDir8SortFlagEEC1ES1_, symObjAddr: 0x2D20, symBinAddr: 0x1F3D0, symSize: 0x30 }
  - { offset: 0xDA2CC, size: 0x8, addend: 0x0, symName: __ZNK5QListI7QStringE5beginEv, symObjAddr: 0x2D50, symBinAddr: 0x1F400, symSize: 0x40 }
  - { offset: 0xDA2F2, size: 0x8, addend: 0x0, symName: __ZNK5QListI7QStringE14const_iteratorneES2_, symObjAddr: 0x2D90, symBinAddr: 0x1F440, symSize: 0x20 }
  - { offset: 0xDA326, size: 0x8, addend: 0x0, symName: __ZNK5QListI7QStringE3endEv, symObjAddr: 0x2DB0, symBinAddr: 0x1F460, symSize: 0x40 }
  - { offset: 0xDA34B, size: 0x8, addend: 0x0, symName: __ZneRK7QStringRK13QLatin1String, symObjAddr: 0x2DF0, symBinAddr: 0x1F4A0, symSize: 0x40 }
  - { offset: 0xDA389, size: 0x8, addend: 0x0, symName: __ZNK5QListI7QStringE14const_iteratordeEv, symObjAddr: 0x2E30, symBinAddr: 0x1F4E0, symSize: 0x20 }
  - { offset: 0xDA3AE, size: 0x8, addend: 0x0, symName: __ZplO7QStringRKS_, symObjAddr: 0x2E50, symBinAddr: 0x1F500, symSize: 0x50 }
  - { offset: 0xDA3EB, size: 0x8, addend: 0x0, symName: __ZplRK7QString5QChar, symObjAddr: 0x2EA0, symBinAddr: 0x1F550, symSize: 0x90 }
  - { offset: 0xDA439, size: 0x8, addend: 0x0, symName: __ZN11QLatin1CharC1Ec, symObjAddr: 0x2F30, symBinAddr: 0x1F5E0, symSize: 0x30 }
  - { offset: 0xDA471, size: 0x8, addend: 0x0, symName: __ZN5QCharC1I11QLatin1CharLb1EEET_, symObjAddr: 0x2F60, symBinAddr: 0x1F610, symSize: 0x30 }
  - { offset: 0xDA4B8, size: 0x8, addend: 0x0, symName: __ZN5QListI7QStringE14const_iteratorppEv, symObjAddr: 0x2F90, symBinAddr: 0x1F640, symSize: 0x20 }
  - { offset: 0xDA4DE, size: 0x8, addend: 0x0, symName: __ZN5QListI7QStringED1Ev, symObjAddr: 0x2FB0, symBinAddr: 0x1F660, symSize: 0x20 }
  - { offset: 0xDA50A, size: 0x8, addend: 0x0, symName: __ZN8KArchive9writeFileERK7QStringRK10QByteArraytS2_S2_RK9QDateTimeS8_S8_, symObjAddr: 0x2FD0, symBinAddr: 0x1F680, symSize: 0xF0 }
  - { offset: 0xDA5BA, size: 0x8, addend: 0x0, symName: __ZN8KArchive9writeDataEPKcx, symObjAddr: 0x30C0, symBinAddr: 0x1F770, symSize: 0x150 }
  - { offset: 0xDA610, size: 0x8, addend: 0x0, symName: __ZNK8KArchive6deviceEv, symObjAddr: 0x3210, symBinAddr: 0x1F8C0, symSize: 0x20 }
  - { offset: 0xDA639, size: 0x8, addend: 0x0, symName: __ZN8KArchive8writeDirERK7QStringS2_S2_tRK9QDateTimeS5_S5_, symObjAddr: 0x3230, symBinAddr: 0x1F8E0, symSize: 0x70 }
  - { offset: 0xDA6D1, size: 0x8, addend: 0x0, symName: __ZN8KArchive7rootDirEv, symObjAddr: 0x32A0, symBinAddr: 0x1F950, symSize: 0x220 }
  - { offset: 0xDA746, size: 0x8, addend: 0x0, symName: __ZL18getCurrentUserNamev, symObjAddr: 0x34C0, symBinAddr: 0x1FB70, symSize: 0x60 }
  - { offset: 0xDA775, size: 0x8, addend: 0x0, symName: __ZL19getCurrentGroupNamev, symObjAddr: 0x3520, symBinAddr: 0x1FBD0, symSize: 0x60 }
  - { offset: 0xDA7A4, size: 0x8, addend: 0x0, symName: __ZN17KArchiveDirectoryC1EP8KArchiveRK7QStringiRK9QDateTimeS4_S4_S4_, symObjAddr: 0x35B0, symBinAddr: 0x1FC30, symSize: 0x60 }
  - { offset: 0xDA83A, size: 0x8, addend: 0x0, symName: __ZN8KArchive12findOrCreateERK7QString, symObjAddr: 0x3630, symBinAddr: 0x1FC90, symSize: 0x30 }
  - { offset: 0xDA872, size: 0x8, addend: 0x0, symName: __ZN15KArchivePrivate12findOrCreateERK7QStringi, symObjAddr: 0x3660, symBinAddr: 0x1FCC0, symSize: 0x800 }
  - { offset: 0xDA9D1, size: 0x8, addend: 0x0, symName: __ZeqRK7QStringRK13QLatin1String, symObjAddr: 0x3E60, symBinAddr: 0x204C0, symSize: 0x50 }
  - { offset: 0xDAA24, size: 0x8, addend: 0x0, symName: __ZN24KArchiveDirectoryPrivate3getEP17KArchiveDirectory, symObjAddr: 0x3EB0, symBinAddr: 0x20510, symSize: 0x20 }
  - { offset: 0xDAA47, size: 0x8, addend: 0x0, symName: __ZNK24KArchiveDirectoryPrivate5entryERK7QStringPP17KArchiveDirectory, symObjAddr: 0x3ED0, symBinAddr: 0x20530, symSize: 0x3A0 }
  - { offset: 0xDAAD9, size: 0x8, addend: 0x0, symName: __ZNK12KArchiveFile4sizeEv, symObjAddr: 0x4270, symBinAddr: 0x208D0, symSize: 0x20 }
  - { offset: 0xDAB02, size: 0x8, addend: 0x0, symName: __ZN6QDebuglsERK7QString, symObjAddr: 0x4290, symBinAddr: 0x208F0, symSize: 0x50 }
  - { offset: 0xDAB45, size: 0x8, addend: 0x0, symName: __ZN12_GLOBAL__N_127QLoggingCategoryMacroHolderIL9QtMsgType0EEC1ERK16QLoggingCategory, symObjAddr: 0x42E0, symBinAddr: 0x20940, symSize: 0x30 }
  - { offset: 0xDAB7D, size: 0x8, addend: 0x0, symName: __ZNK12_GLOBAL__N_127QLoggingCategoryMacroHolderIL9QtMsgType0EEcvbEv, symObjAddr: 0x4310, symBinAddr: 0x20970, symSize: 0x20 }
  - { offset: 0xDABA3, size: 0x8, addend: 0x0, symName: __ZNK12_GLOBAL__N_127QLoggingCategoryMacroHolderIL9QtMsgType0EE4nameEv, symObjAddr: 0x4330, symBinAddr: 0x20990, symSize: 0x20 }
  - { offset: 0xDABC9, size: 0x8, addend: 0x0, symName: __ZN17KArchiveDirectory11removeEntryEP13KArchiveEntry, symObjAddr: 0x4350, symBinAddr: 0x209B0, symSize: 0x470 }
  - { offset: 0xDAC46, size: 0x8, addend: 0x0, symName: __ZNK7QString11lastIndexOfE5QCharN2Qt15CaseSensitivityE, symObjAddr: 0x47C0, symBinAddr: 0x20E20, symSize: 0x50 }
  - { offset: 0xDAC8A, size: 0x8, addend: 0x0, symName: __ZNKR7QString4leftEx, symObjAddr: 0x4810, symBinAddr: 0x20E70, symSize: 0x70 }
  - { offset: 0xDACBF, size: 0x8, addend: 0x0, symName: __ZNK13KArchiveEntry11permissionsEv, symObjAddr: 0x4880, symBinAddr: 0x20EE0, symSize: 0x20 }
  - { offset: 0xDACE8, size: 0x8, addend: 0x0, symName: __ZNK13KArchiveEntry4dateEv, symObjAddr: 0x48A0, symBinAddr: 0x20F00, symSize: 0x40 }
  - { offset: 0xDAD11, size: 0x8, addend: 0x0, symName: __ZNK13KArchiveEntry4userEv, symObjAddr: 0x48E0, symBinAddr: 0x20F40, symSize: 0x40 }
  - { offset: 0xDAD3A, size: 0x8, addend: 0x0, symName: __ZNK13KArchiveEntry5groupEv, symObjAddr: 0x4920, symBinAddr: 0x20F80, symSize: 0x40 }
  - { offset: 0xDAD63, size: 0x8, addend: 0x0, symName: __ZN17KArchiveDirectory10addEntryV2EP13KArchiveEntry, symObjAddr: 0x4960, symBinAddr: 0x20FC0, symSize: 0x2E0 }
  - { offset: 0xDADB1, size: 0x8, addend: 0x0, symName: __ZN8KArchive9setDeviceEP9QIODevice, symObjAddr: 0x4C40, symBinAddr: 0x212A0, symSize: 0x70 }
  - { offset: 0xDADE9, size: 0x8, addend: 0x0, symName: __ZN8KArchive10setRootDirEP17KArchiveDirectory, symObjAddr: 0x4CB0, symBinAddr: 0x21310, symSize: 0x80 }
  - { offset: 0xDAE21, size: 0x8, addend: 0x0, symName: __ZNK8KArchive4modeEv, symObjAddr: 0x4D30, symBinAddr: 0x21390, symSize: 0x20 }
  - { offset: 0xDAE4A, size: 0x8, addend: 0x0, symName: __ZNK8KArchive8fileNameEv, symObjAddr: 0x4D50, symBinAddr: 0x213B0, symSize: 0x40 }
  - { offset: 0xDAE73, size: 0x8, addend: 0x0, symName: __ZN15KArchivePrivate16time_tToDateTimeEj, symObjAddr: 0x4D90, symBinAddr: 0x213F0, symSize: 0x50 }
  - { offset: 0xDAE9A, size: 0x8, addend: 0x0, symName: __ZN13KArchiveEntryC2EP8KArchiveRK7QStringiRK9QDateTimeS4_S4_S4_, symObjAddr: 0x4DE0, symBinAddr: 0x21440, symSize: 0xB0 }
  - { offset: 0xDAF30, size: 0x8, addend: 0x0, symName: __ZN20KArchiveEntryPrivateC1EP8KArchiveRK7QStringiRK9QDateTimeS4_S4_S4_, symObjAddr: 0x4E90, symBinAddr: 0x214F0, symSize: 0x60 }
  - { offset: 0xDAFC3, size: 0x8, addend: 0x0, symName: __ZN13KArchiveEntryC1EP8KArchiveRK7QStringiRK9QDateTimeS4_S4_S4_, symObjAddr: 0x4EF0, symBinAddr: 0x21550, symSize: 0x60 }
  - { offset: 0xDB059, size: 0x8, addend: 0x0, symName: __ZN13KArchiveEntryD2Ev, symObjAddr: 0x4F50, symBinAddr: 0x215B0, symSize: 0x50 }
  - { offset: 0xDB086, size: 0x8, addend: 0x0, symName: __ZN20KArchiveEntryPrivateD1Ev, symObjAddr: 0x4FA0, symBinAddr: 0x21600, symSize: 0x20 }
  - { offset: 0xDB0B3, size: 0x8, addend: 0x0, symName: __ZN13KArchiveEntryD1Ev, symObjAddr: 0x4FC0, symBinAddr: 0x21620, symSize: 0x20 }
  - { offset: 0xDB0E0, size: 0x8, addend: 0x0, symName: __ZN13KArchiveEntryD0Ev, symObjAddr: 0x4FE0, symBinAddr: 0x21640, symSize: 0x30 }
  - { offset: 0xDB10D, size: 0x8, addend: 0x0, symName: __ZNK13KArchiveEntry4nameEv, symObjAddr: 0x5010, symBinAddr: 0x21670, symSize: 0x30 }
  - { offset: 0xDB136, size: 0x8, addend: 0x0, symName: __ZNK13KArchiveEntry13symLinkTargetEv, symObjAddr: 0x5040, symBinAddr: 0x216A0, symSize: 0x40 }
  - { offset: 0xDB15F, size: 0x8, addend: 0x0, symName: __ZNK13KArchiveEntry6isFileEv, symObjAddr: 0x5080, symBinAddr: 0x216E0, symSize: 0x10 }
  - { offset: 0xDB188, size: 0x8, addend: 0x0, symName: __ZNK13KArchiveEntry11isDirectoryEv, symObjAddr: 0x5090, symBinAddr: 0x216F0, symSize: 0x10 }
  - { offset: 0xDB1B1, size: 0x8, addend: 0x0, symName: __ZNK13KArchiveEntry7archiveEv, symObjAddr: 0x50A0, symBinAddr: 0x21700, symSize: 0x20 }
  - { offset: 0xDB1DA, size: 0x8, addend: 0x0, symName: __ZN12KArchiveFileC2EP8KArchiveRK7QStringiRK9QDateTimeS4_S4_S4_xx, symObjAddr: 0x50C0, symBinAddr: 0x21720, symSize: 0xE0 }
  - { offset: 0xDB28E, size: 0x8, addend: 0x0, symName: __ZN19KArchiveFilePrivateC1Exx, symObjAddr: 0x51A0, symBinAddr: 0x21800, symSize: 0x30 }
  - { offset: 0xDB2D6, size: 0x8, addend: 0x0, symName: __ZN12KArchiveFileC1EP8KArchiveRK7QStringiRK9QDateTimeS4_S4_S4_xx, symObjAddr: 0x51D0, symBinAddr: 0x21830, symSize: 0x80 }
  - { offset: 0xDB38A, size: 0x8, addend: 0x0, symName: __ZN12KArchiveFileD2Ev, symObjAddr: 0x5250, symBinAddr: 0x218B0, symSize: 0x50 }
  - { offset: 0xDB3B7, size: 0x8, addend: 0x0, symName: __ZN12KArchiveFileD1Ev, symObjAddr: 0x52A0, symBinAddr: 0x21900, symSize: 0x20 }
  - { offset: 0xDB3E4, size: 0x8, addend: 0x0, symName: __ZN12KArchiveFileD0Ev, symObjAddr: 0x52C0, symBinAddr: 0x21920, symSize: 0x30 }
  - { offset: 0xDB411, size: 0x8, addend: 0x0, symName: __ZNK12KArchiveFile8positionEv, symObjAddr: 0x52F0, symBinAddr: 0x21950, symSize: 0x20 }
  - { offset: 0xDB43A, size: 0x8, addend: 0x0, symName: __ZN12KArchiveFile7setSizeEx, symObjAddr: 0x5310, symBinAddr: 0x21970, symSize: 0x20 }
  - { offset: 0xDB472, size: 0x8, addend: 0x0, symName: __ZNK12KArchiveFile4dataEv, symObjAddr: 0x5330, symBinAddr: 0x21990, symSize: 0x130 }
  - { offset: 0xDB4BA, size: 0x8, addend: 0x0, symName: __ZN10QByteArrayaSEOS_, symObjAddr: 0x5460, symBinAddr: 0x21AC0, symSize: 0x30 }
  - { offset: 0xDB4EE, size: 0x8, addend: 0x0, symName: __ZNK12KArchiveFile12createDeviceEv, symObjAddr: 0x5490, symBinAddr: 0x21AF0, symSize: 0x80 }
  - { offset: 0xDB517, size: 0x8, addend: 0x0, symName: __ZNK12KArchiveFile6isFileEv, symObjAddr: 0x5510, symBinAddr: 0x21B70, symSize: 0x10 }
  - { offset: 0xDB540, size: 0x8, addend: 0x0, symName: __ZNK12KArchiveFile6copyToERK7QString, symObjAddr: 0x5520, symBinAddr: 0x21B80, symSize: 0x400 }
  - { offset: 0xDB5F4, size: 0x8, addend: 0x0, symName: __ZorN13QIODeviceBase12OpenModeFlagES0_, symObjAddr: 0x5920, symBinAddr: 0x21F80, symSize: 0x40 }
  - { offset: 0xDB62F, size: 0x8, addend: 0x0, symName: __ZL19withExecutablePerms6QFlagsIN11QFileDevice10PermissionEEt, symObjAddr: 0x5960, symBinAddr: 0x21FC0, symSize: 0x70 }
  - { offset: 0xDB66D, size: 0x8, addend: 0x0, symName: __ZN17KArchiveDirectoryC2EP8KArchiveRK7QStringiRK9QDateTimeS4_S4_S4_, symObjAddr: 0x59D0, symBinAddr: 0x22030, symSize: 0xE0 }
  - { offset: 0xDB703, size: 0x8, addend: 0x0, symName: __ZN24KArchiveDirectoryPrivateC1EP17KArchiveDirectory, symObjAddr: 0x5AB0, symBinAddr: 0x22110, symSize: 0x30 }
  - { offset: 0xDB73B, size: 0x8, addend: 0x0, symName: __ZN17KArchiveDirectoryD2Ev, symObjAddr: 0x5AE0, symBinAddr: 0x22140, symSize: 0x60 }
  - { offset: 0xDB768, size: 0x8, addend: 0x0, symName: __ZN24KArchiveDirectoryPrivateD1Ev, symObjAddr: 0x5B40, symBinAddr: 0x221A0, symSize: 0x20 }
  - { offset: 0xDB792, size: 0x8, addend: 0x0, symName: __ZN17KArchiveDirectoryD1Ev, symObjAddr: 0x5B60, symBinAddr: 0x221C0, symSize: 0x20 }
  - { offset: 0xDB7BF, size: 0x8, addend: 0x0, symName: __ZN17KArchiveDirectoryD0Ev, symObjAddr: 0x5B80, symBinAddr: 0x221E0, symSize: 0x30 }
  - { offset: 0xDB7EC, size: 0x8, addend: 0x0, symName: __ZNK17KArchiveDirectory7entriesEv, symObjAddr: 0x5BB0, symBinAddr: 0x22210, symSize: 0x40 }
  - { offset: 0xDB815, size: 0x8, addend: 0x0, symName: __ZNK5QHashI7QStringP13KArchiveEntryE4keysEv, symObjAddr: 0x5BF0, symBinAddr: 0x22250, symSize: 0x70 }
  - { offset: 0xDB83B, size: 0x8, addend: 0x0, symName: __ZNK17KArchiveDirectory5entryERK7QString, symObjAddr: 0x5C60, symBinAddr: 0x222C0, symSize: 0x30 }
  - { offset: 0xDB882, size: 0x8, addend: 0x0, symName: __ZNK17KArchiveDirectory4fileERK7QString, symObjAddr: 0x5C90, symBinAddr: 0x222F0, symSize: 0x60 }
  - { offset: 0xDB8C9, size: 0x8, addend: 0x0, symName: __ZN17KArchiveDirectory8addEntryEP13KArchiveEntry, symObjAddr: 0x5CF0, symBinAddr: 0x22350, symSize: 0x30 }
  - { offset: 0xDB901, size: 0x8, addend: 0x0, symName: __ZNK5QHashI7QStringP13KArchiveEntryE5valueERKS0_, symObjAddr: 0x5D20, symBinAddr: 0x22380, symSize: 0x50 }
  - { offset: 0xDB954, size: 0x8, addend: 0x0, symName: __ZN5QHashI7QStringP13KArchiveEntryE6insertEOS0_RKS2_, symObjAddr: 0x5D70, symBinAddr: 0x223D0, symSize: 0x40 }
  - { offset: 0xDB998, size: 0x8, addend: 0x0, symName: __ZN5QHashI7QStringP13KArchiveEntryE4findERKS0_, symObjAddr: 0x5DB0, symBinAddr: 0x22410, symSize: 0x40 }
  - { offset: 0xDB9CD, size: 0x8, addend: 0x0, symName: __ZNK5QHashI7QStringP13KArchiveEntryE8iteratoreqERKS4_, symObjAddr: 0x5DF0, symBinAddr: 0x22450, symSize: 0x40 }
  - { offset: 0xDBA02, size: 0x8, addend: 0x0, symName: __ZN5QHashI7QStringP13KArchiveEntryE3endEv, symObjAddr: 0x5E30, symBinAddr: 0x22490, symSize: 0x30 }
  - { offset: 0xDBA28, size: 0x8, addend: 0x0, symName: __ZNK5QHashI7QStringP13KArchiveEntryE8iterator5valueEv, symObjAddr: 0x5E60, symBinAddr: 0x224C0, symSize: 0x20 }
  - { offset: 0xDBA4E, size: 0x8, addend: 0x0, symName: __ZN5QHashI7QStringP13KArchiveEntryE5eraseENS3_14const_iteratorE, symObjAddr: 0x5E80, symBinAddr: 0x224E0, symSize: 0x150 }
  - { offset: 0xDBAA2, size: 0x8, addend: 0x0, symName: __ZN5QHashI7QStringP13KArchiveEntryE14const_iteratorC1ERKNS3_8iteratorE, symObjAddr: 0x5FD0, symBinAddr: 0x22630, symSize: 0x30 }
  - { offset: 0xDBADB, size: 0x8, addend: 0x0, symName: __ZNK17KArchiveDirectory11isDirectoryEv, symObjAddr: 0x6000, symBinAddr: 0x22660, symSize: 0x10 }
  - { offset: 0xDBB04, size: 0x8, addend: 0x0, symName: __ZNK17KArchiveDirectory6copyToERK7QStringb, symObjAddr: 0x6010, symBinAddr: 0x22670, symSize: 0xBA0 }
  - { offset: 0xDBCE1, size: 0x8, addend: 0x0, symName: __ZN5QListIPK12KArchiveFileEC1Ev, symObjAddr: 0x6BB0, symBinAddr: 0x23210, symSize: 0x20 }
  - { offset: 0xDBD0B, size: 0x8, addend: 0x0, symName: __ZN4QMapIx7QStringEC1Ev, symObjAddr: 0x6BD0, symBinAddr: 0x23230, symSize: 0x20 }
  - { offset: 0xDBE13, size: 0x8, addend: 0x0, symName: __ZN6QStackIPK17KArchiveDirectoryEC1Ev, symObjAddr: 0x6BF0, symBinAddr: 0x23250, symSize: 0x20 }
  - { offset: 0xDBF17, size: 0x8, addend: 0x0, symName: __ZN6QStackI7QStringEC1Ev, symObjAddr: 0x6C10, symBinAddr: 0x23270, symSize: 0x20 }
  - { offset: 0xDBF43, size: 0x8, addend: 0x0, symName: __ZN6QStackIPK17KArchiveDirectoryE4pushEOS2_, symObjAddr: 0x6C30, symBinAddr: 0x23290, symSize: 0x30 }
  - { offset: 0xDBF77, size: 0x8, addend: 0x0, symName: __ZN6QStackI7QStringE4pushERKS0_, symObjAddr: 0x6C60, symBinAddr: 0x232C0, symSize: 0x30 }
  - { offset: 0xDBFAB, size: 0x8, addend: 0x0, symName: __ZN6QStackIPK17KArchiveDirectoryE3popEv, symObjAddr: 0x6C90, symBinAddr: 0x232F0, symSize: 0x20 }
  - { offset: 0xDBFD1, size: 0x8, addend: 0x0, symName: __ZN6QStackI7QStringE3popEv, symObjAddr: 0x6CB0, symBinAddr: 0x23310, symSize: 0x30 }
  - { offset: 0xDBFF7, size: 0x8, addend: 0x0, symName: __ZNSt3__18optionalI6QFlagsIN11QFileDevice10PermissionEEEC1B9nqe210106ENS_9nullopt_tE, symObjAddr: 0x6CE0, symBinAddr: 0x23340, symSize: 0x20 }
  - { offset: 0xDC02D, size: 0x8, addend: 0x0, symName: __ZN5QListIPK12KArchiveFileE6appendES2_, symObjAddr: 0x6D00, symBinAddr: 0x23360, symSize: 0x30 }
  - { offset: 0xDC062, size: 0x8, addend: 0x0, symName: __ZN4QMapIx7QStringE6insertERKxRKS0_, symObjAddr: 0x6D30, symBinAddr: 0x23390, symSize: 0xC0 }
  - { offset: 0xDC0B5, size: 0x8, addend: 0x0, symName: __ZN6QStackIPK17KArchiveDirectoryE4pushERKS2_, symObjAddr: 0x6DF0, symBinAddr: 0x23450, symSize: 0x30 }
  - { offset: 0xDC0E9, size: 0x8, addend: 0x0, symName: __ZN6QStackI7QStringE4pushEOS0_, symObjAddr: 0x6E20, symBinAddr: 0x23480, symSize: 0x30 }
  - { offset: 0xDC11D, size: 0x8, addend: 0x0, symName: __ZNK5QListIPK17KArchiveDirectoryE7isEmptyEv, symObjAddr: 0x6E50, symBinAddr: 0x234B0, symSize: 0x30 }
  - { offset: 0xDC143, size: 0x8, addend: 0x0, symName: __ZN5QListIPK12KArchiveFileE5beginEv, symObjAddr: 0x6EC0, symBinAddr: 0x23520, symSize: 0x40 }
  - { offset: 0xDC169, size: 0x8, addend: 0x0, symName: __ZN5QListIPK12KArchiveFileE3endEv, symObjAddr: 0x6F00, symBinAddr: 0x23560, symSize: 0x40 }
  - { offset: 0xDC18F, size: 0x8, addend: 0x0, symName: __ZL14sortByPositionPK12KArchiveFileS1_, symObjAddr: 0x6F40, symBinAddr: 0x235A0, symSize: 0x40 }
  - { offset: 0xDC1CD, size: 0x8, addend: 0x0, symName: __ZNK5QListIPK12KArchiveFileE10constBeginEv, symObjAddr: 0x6F80, symBinAddr: 0x235E0, symSize: 0x40 }
  - { offset: 0xDC1F3, size: 0x8, addend: 0x0, symName: __ZNK5QListIPK12KArchiveFileE8constEndEv, symObjAddr: 0x6FC0, symBinAddr: 0x23620, symSize: 0x40 }
  - { offset: 0xDC219, size: 0x8, addend: 0x0, symName: __ZNK5QListIPK12KArchiveFileE14const_iteratorneES4_, symObjAddr: 0x7000, symBinAddr: 0x23660, symSize: 0x20 }
  - { offset: 0xDC24D, size: 0x8, addend: 0x0, symName: __ZNK5QListIPK12KArchiveFileE14const_iteratordeEv, symObjAddr: 0x7020, symBinAddr: 0x23680, symSize: 0x20 }
  - { offset: 0xDC273, size: 0x8, addend: 0x0, symName: __ZN4QMapIx7QStringEixERKx, symObjAddr: 0x7040, symBinAddr: 0x236A0, symSize: 0x1D0 }
  - { offset: 0xDC2C6, size: 0x8, addend: 0x0, symName: __ZN5QListIPK12KArchiveFileE14const_iteratorppEv, symObjAddr: 0x7210, symBinAddr: 0x23870, symSize: 0x20 }
  - { offset: 0xDC2EC, size: 0x8, addend: 0x0, symName: __ZN6QStackI7QStringED1Ev, symObjAddr: 0x7230, symBinAddr: 0x23890, symSize: 0x20 }
  - { offset: 0xDC318, size: 0x8, addend: 0x0, symName: __ZN6QStackIPK17KArchiveDirectoryED1Ev, symObjAddr: 0x7250, symBinAddr: 0x238B0, symSize: 0x20 }
  - { offset: 0xDC344, size: 0x8, addend: 0x0, symName: __ZN4QMapIx7QStringED1Ev, symObjAddr: 0x7270, symBinAddr: 0x238D0, symSize: 0x20 }
  - { offset: 0xDC370, size: 0x8, addend: 0x0, symName: __ZN5QListIPK12KArchiveFileED1Ev, symObjAddr: 0x7290, symBinAddr: 0x238F0, symSize: 0x20 }
  - { offset: 0xDC39C, size: 0x8, addend: 0x0, symName: __ZN8KArchive12virtual_hookEiPv, symObjAddr: 0x72B0, symBinAddr: 0x23910, symSize: 0x20 }
  - { offset: 0xDC3DD, size: 0x8, addend: 0x0, symName: __ZN13KArchiveEntry12virtual_hookEiPv, symObjAddr: 0x72D0, symBinAddr: 0x23930, symSize: 0x20 }
  - { offset: 0xDC41E, size: 0x8, addend: 0x0, symName: __ZN12KArchiveFile12virtual_hookEiPv, symObjAddr: 0x72F0, symBinAddr: 0x23950, symSize: 0x30 }
  - { offset: 0xDC465, size: 0x8, addend: 0x0, symName: __ZN17KArchiveDirectory12virtual_hookEiPv, symObjAddr: 0x7320, symBinAddr: 0x23980, symSize: 0x30 }
  - { offset: 0xDC4AC, size: 0x8, addend: 0x0, symName: __ZN15KArchivePrivateC2EP8KArchive, symObjAddr: 0x7350, symBinAddr: 0x239B0, symSize: 0xA0 }
  - { offset: 0xDC4E4, size: 0x8, addend: 0x0, symName: __ZN15KArchivePrivate2trEPKcS1_i, symObjAddr: 0x73F0, symBinAddr: 0x23A50, symSize: 0x40 }
  - { offset: 0xDC523, size: 0x8, addend: 0x0, symName: __ZNK7QString4sizeEv, symObjAddr: 0x7430, symBinAddr: 0x23A90, symSize: 0x50 }
  - { offset: 0xDC587, size: 0x8, addend: 0x0, symName: __ZZNK7QString4sizeEvENKUlvE_clEv, symObjAddr: 0x7480, symBinAddr: 0x23AE0, symSize: 0x50 }
  - { offset: 0xDC5B1, size: 0x8, addend: 0x0, symName: __ZN14QMessageLoggerC2EPKciS1_S1_, symObjAddr: 0x74D0, symBinAddr: 0x23B30, symSize: 0x40 }
  - { offset: 0xDC613, size: 0x8, addend: 0x0, symName: __ZN18QMessageLogContextC1EPKciS1_S1_, symObjAddr: 0x7510, symBinAddr: 0x23B70, symSize: 0x40 }
  - { offset: 0xDC675, size: 0x8, addend: 0x0, symName: __ZN18QMessageLogContextC2EPKciS1_S1_, symObjAddr: 0x7550, symBinAddr: 0x23BB0, symSize: 0x50 }
  - { offset: 0xDC6DD, size: 0x8, addend: 0x0, symName: __ZN14QByteArrayViewC1IPKcLb1EEERKT_, symObjAddr: 0x75A0, symBinAddr: 0x23C00, symSize: 0x70 }
  - { offset: 0xDC724, size: 0x8, addend: 0x0, symName: __ZN6QDebug10maybeSpaceEv, symObjAddr: 0x7610, symBinAddr: 0x23C70, symSize: 0x40 }
  - { offset: 0xDC74A, size: 0x8, addend: 0x0, symName: __ZN14QByteArrayView10castHelperEPKc, symObjAddr: 0x7760, symBinAddr: 0x23D00, symSize: 0x10 }
  - { offset: 0xDC76D, size: 0x8, addend: 0x0, symName: __ZN15KArchivePrivateD2Ev, symObjAddr: 0x7770, symBinAddr: 0x23D10, symSize: 0x70 }
  - { offset: 0xDC796, size: 0x8, addend: 0x0, symName: __Zne6QFlagsIN13QIODeviceBase12OpenModeFlagEES2_, symObjAddr: 0x77E0, symBinAddr: 0x23D80, symSize: 0x20 }
  - { offset: 0xDC7D1, size: 0x8, addend: 0x0, symName: __ZN5QCharC2IDsLb1EEET_, symObjAddr: 0x7820, symBinAddr: 0x23DA0, symSize: 0x20 }
  - { offset: 0xDC817, size: 0x8, addend: 0x0, symName: __Zeq6QFlagsIN13QIODeviceBase12OpenModeFlagEES2_, symObjAddr: 0x78C0, symBinAddr: 0x23DC0, symSize: 0x20 }
  - { offset: 0xDC852, size: 0x8, addend: 0x0, symName: __ZN17QArrayDataPointerIDsE3refEv, symObjAddr: 0x7990, symBinAddr: 0x23DE0, symSize: 0x30 }
  - { offset: 0xDC878, size: 0x8, addend: 0x0, symName: __ZN10QArrayData3refEv, symObjAddr: 0x79C0, symBinAddr: 0x23E10, symSize: 0x20 }
  - { offset: 0xDC89E, size: 0x8, addend: 0x0, symName: __ZN19QBasicAtomicIntegerIiE10refRelaxedEv, symObjAddr: 0x79E0, symBinAddr: 0x23E30, symSize: 0x20 }
  - { offset: 0xDC8C4, size: 0x8, addend: 0x0, symName: __ZN10QAtomicOpsIiE18fetchAndAddRelaxedIiEET_RNSt3__16atomicIS2_EEN19QAtomicAdditiveTypeIS2_E9AdditiveTE, symObjAddr: 0x7A00, symBinAddr: 0x23E50, symSize: 0x30 }
  - { offset: 0xDC900, size: 0x8, addend: 0x0, symName: __ZNO7QString6toUtf8Ev, symObjAddr: 0x7B10, symBinAddr: 0x23E80, symSize: 0x30 }
  - { offset: 0xDC926, size: 0x8, addend: 0x0, symName: __ZN17QArrayDataPointerIcE5derefEv, symObjAddr: 0x7BC0, symBinAddr: 0x23EB0, symSize: 0x40 }
  - { offset: 0xDC94C, size: 0x8, addend: 0x0, symName: __ZN17QArrayDataPointerIcEptEv, symObjAddr: 0x7C00, symBinAddr: 0x23EF0, symSize: 0x10 }
  - { offset: 0xDC972, size: 0x8, addend: 0x0, symName: __ZN9QtPrivate12QPodArrayOpsIcE10destroyAllEv, symObjAddr: 0x7C10, symBinAddr: 0x23F00, symSize: 0x70 }
  - { offset: 0xDC998, size: 0x8, addend: 0x0, symName: __ZN15QTypedArrayDataIcE10deallocateEP10QArrayData, symObjAddr: 0x7C80, symBinAddr: 0x23F70, symSize: 0x30 }
  - { offset: 0xDC9BB, size: 0x8, addend: 0x0, symName: __ZN10QArrayData5derefEv, symObjAddr: 0x7CB0, symBinAddr: 0x23FA0, symSize: 0x20 }
  - { offset: 0xDC9E1, size: 0x8, addend: 0x0, symName: __ZN19QBasicAtomicIntegerIiE5derefEv, symObjAddr: 0x7CD0, symBinAddr: 0x23FC0, symSize: 0x20 }
  - { offset: 0xDCA07, size: 0x8, addend: 0x0, symName: __ZN10QAtomicOpsIiE5derefIiEEbRNSt3__16atomicIT_EE, symObjAddr: 0x7CF0, symBinAddr: 0x23FE0, symSize: 0x30 }
  - { offset: 0xDCA34, size: 0x8, addend: 0x0, symName: __ZNK19QBasicAtomicIntegerIiE11loadRelaxedEv, symObjAddr: 0x7E10, symBinAddr: 0x24010, symSize: 0x20 }
  - { offset: 0xDCA5A, size: 0x8, addend: 0x0, symName: __ZN10QAtomicOpsIiE11loadRelaxedIiEET_RKNSt3__16atomicIS2_EE, symObjAddr: 0x7E30, symBinAddr: 0x24030, symSize: 0x20 }
  - { offset: 0xDCA86, size: 0x8, addend: 0x0, symName: __ZN13QLatin1StringC2EPKc, symObjAddr: 0x7ED0, symBinAddr: 0x24050, symSize: 0x50 }
  - { offset: 0xDCABE, size: 0x8, addend: 0x0, symName: __ZNK17QArrayDataPointerIcE4dataEv, symObjAddr: 0x8000, symBinAddr: 0x240A0, symSize: 0x20 }
  - { offset: 0xDCAE4, size: 0x8, addend: 0x0, symName: __ZN10QByteArray6detachEv, symObjAddr: 0x8020, symBinAddr: 0x240C0, symSize: 0x40 }
  - { offset: 0xDCB0C, size: 0x8, addend: 0x0, symName: __ZN17QArrayDataPointerIcE4dataEv, symObjAddr: 0x8060, symBinAddr: 0x24100, symSize: 0x20 }
  - { offset: 0xDCB32, size: 0x8, addend: 0x0, symName: __ZNK17QArrayDataPointerIcE11needsDetachEv, symObjAddr: 0x8080, symBinAddr: 0x24120, symSize: 0x40 }
  - { offset: 0xDCB58, size: 0x8, addend: 0x0, symName: __ZN10QArrayData11needsDetachEv, symObjAddr: 0x80C0, symBinAddr: 0x24160, symSize: 0x30 }
  - { offset: 0xDCB88, size: 0x8, addend: 0x0, symName: __ZZNK10QByteArray4sizeEvENKUlvE_clEv, symObjAddr: 0x80F0, symBinAddr: 0x24190, symSize: 0x50 }
  - { offset: 0xDCBB2, size: 0x8, addend: 0x0, symName: __ZN7QString4swapERS_, symObjAddr: 0x8140, symBinAddr: 0x241E0, symSize: 0x30 }
  - { offset: 0xDCBE7, size: 0x8, addend: 0x0, symName: __ZN17QArrayDataPointerIDsE4swapERS0_, symObjAddr: 0x8170, symBinAddr: 0x24210, symSize: 0x60 }
  - { offset: 0xDCC1A, size: 0x8, addend: 0x0, symName: __Z11qt_ptr_swapI15QTypedArrayDataIDsEEvRPT_S4_, symObjAddr: 0x81D0, symBinAddr: 0x24270, symSize: 0x40 }
  - { offset: 0xDCC67, size: 0x8, addend: 0x0, symName: __Z11qt_ptr_swapIDsEvRPT_S2_, symObjAddr: 0x8210, symBinAddr: 0x242B0, symSize: 0x40 }
  - { offset: 0xDCCB5, size: 0x8, addend: 0x0, symName: __ZN6QFlagsIN4QDir6FilterEECI1N9QtPrivate13QFlagsStorageIS1_EEENSt3__110in_place_tEi, symObjAddr: 0x8290, symBinAddr: 0x242F0, symSize: 0x30 }
  - { offset: 0xDCCF3, size: 0x8, addend: 0x0, symName: __ZN6QFlagsIN4QDir6FilterEECI2N9QtPrivate13QFlagsStorageIS1_EEENSt3__110in_place_tEi, symObjAddr: 0x82C0, symBinAddr: 0x24320, symSize: 0x30 }
  - { offset: 0xDCD31, size: 0x8, addend: 0x0, symName: __ZN9QtPrivate19QFlagsStorageHelperIN4QDir6FilterELi4EECI2NS_13QFlagsStorageIS2_EEENSt3__110in_place_tEi, symObjAddr: 0x82F0, symBinAddr: 0x24350, symSize: 0x30 }
  - { offset: 0xDCD6F, size: 0x8, addend: 0x0, symName: __ZN9QtPrivate13QFlagsStorageIN4QDir6FilterEEC2ENSt3__110in_place_tEi, symObjAddr: 0x8320, symBinAddr: 0x24380, symSize: 0x20 }
  - { offset: 0xDCDB2, size: 0x8, addend: 0x0, symName: __ZN6QFlagsIN4QDir6FilterEEC2ES1_, symObjAddr: 0x8340, symBinAddr: 0x243A0, symSize: 0x30 }
  - { offset: 0xDCDEA, size: 0x8, addend: 0x0, symName: __ZN6QFlagsIN4QDir8SortFlagEEC2ES1_, symObjAddr: 0x8370, symBinAddr: 0x243D0, symSize: 0x30 }
  - { offset: 0xDCE22, size: 0x8, addend: 0x0, symName: __ZN9QtPrivate19QFlagsStorageHelperIN4QDir8SortFlagELi4EECI2NS_13QFlagsStorageIS2_EEENSt3__110in_place_tEi, symObjAddr: 0x83A0, symBinAddr: 0x24400, symSize: 0x30 }
  - { offset: 0xDCE60, size: 0x8, addend: 0x0, symName: __ZN9QtPrivate13QFlagsStorageIN4QDir8SortFlagEEC2ENSt3__110in_place_tEi, symObjAddr: 0x83D0, symBinAddr: 0x24430, symSize: 0x20 }
  - { offset: 0xDCEA2, size: 0x8, addend: 0x0, symName: __Z13comparesEqualRK7QString13QLatin1String, symObjAddr: 0x83F0, symBinAddr: 0x24450, symSize: 0x80 }
  - { offset: 0xDCEE0, size: 0x8, addend: 0x0, symName: __ZNK13QLatin1String4sizeEv, symObjAddr: 0x8470, symBinAddr: 0x244D0, symSize: 0x20 }
  - { offset: 0xDCF06, size: 0x8, addend: 0x0, symName: __ZNK7QString5beginEv, symObjAddr: 0x84E0, symBinAddr: 0x244F0, symSize: 0x20 }
  - { offset: 0xDCF2E, size: 0x8, addend: 0x0, symName: __ZNK17QArrayDataPointerIDsE4dataEv, symObjAddr: 0x8530, symBinAddr: 0x24510, symSize: 0x20 }
  - { offset: 0xDCF54, size: 0x8, addend: 0x0, symName: __ZN11QStringView10castHelperI5QCharEEPKDsPKT_, symObjAddr: 0x85E0, symBinAddr: 0x24530, symSize: 0x10 }
  - { offset: 0xDCF80, size: 0x8, addend: 0x0, symName: __ZN7QStringpLERKS_, symObjAddr: 0x85F0, symBinAddr: 0x24540, symSize: 0x30 }
  - { offset: 0xDCFB5, size: 0x8, addend: 0x0, symName: __ZN7QStringpLE5QChar, symObjAddr: 0x87D0, symBinAddr: 0x24570, symSize: 0x30 }
  - { offset: 0xDCFEA, size: 0x8, addend: 0x0, symName: __ZN11QLatin1CharC2Ec, symObjAddr: 0x8800, symBinAddr: 0x245A0, symSize: 0x20 }
  - { offset: 0xDD022, size: 0x8, addend: 0x0, symName: __ZN5QCharC2I11QLatin1CharLb1EEET_, symObjAddr: 0x8820, symBinAddr: 0x245C0, symSize: 0x40 }
  - { offset: 0xDD069, size: 0x8, addend: 0x0, symName: __ZNK11QLatin1CharcvDsEv, symObjAddr: 0x8860, symBinAddr: 0x24600, symSize: 0x20 }
  - { offset: 0xDD08F, size: 0x8, addend: 0x0, symName: __ZNK11QLatin1Char7unicodeEv, symObjAddr: 0x8880, symBinAddr: 0x24620, symSize: 0x20 }
  - { offset: 0xDD0B5, size: 0x8, addend: 0x0, symName: __ZN5QListI7QStringED2Ev, symObjAddr: 0x88A0, symBinAddr: 0x24640, symSize: 0x20 }
  - { offset: 0xDD0E1, size: 0x8, addend: 0x0, symName: __ZN17QArrayDataPointerI7QStringE5derefEv, symObjAddr: 0x8930, symBinAddr: 0x24660, symSize: 0x40 }
  - { offset: 0xDD107, size: 0x8, addend: 0x0, symName: __ZN17QArrayDataPointerI7QStringEptEv, symObjAddr: 0x8970, symBinAddr: 0x246A0, symSize: 0x10 }
  - { offset: 0xDD12D, size: 0x8, addend: 0x0, symName: __ZN9QtPrivate16QGenericArrayOpsI7QStringE10destroyAllEv, symObjAddr: 0x8980, symBinAddr: 0x246B0, symSize: 0x90 }
  - { offset: 0xDD153, size: 0x8, addend: 0x0, symName: __ZN15QTypedArrayDataI7QStringE10deallocateEP10QArrayData, symObjAddr: 0x8A10, symBinAddr: 0x24740, symSize: 0x30 }
  - { offset: 0xDD176, size: 0x8, addend: 0x0, symName: __ZN17QArrayDataPointerI7QStringE5beginEv, symObjAddr: 0x8A70, symBinAddr: 0x24770, symSize: 0x20 }
  - { offset: 0xDD19C, size: 0x8, addend: 0x0, symName: __ZN17QArrayDataPointerI7QStringE3endEv, symObjAddr: 0x8A90, symBinAddr: 0x24790, symSize: 0x30 }
  - { offset: 0xDD1C2, size: 0x8, addend: 0x0, symName: __ZN17QArrayDataPointerI7QStringE4dataEv, symObjAddr: 0x8B20, symBinAddr: 0x247C0, symSize: 0x20 }
  - { offset: 0xDD1E8, size: 0x8, addend: 0x0, symName: __ZNK7QString7indexOfE5QCharxN2Qt15CaseSensitivityE, symObjAddr: 0x8B70, symBinAddr: 0x247E0, symSize: 0x50 }
  - { offset: 0xDD23D, size: 0x8, addend: 0x0, symName: __ZNK7QString6lengthEv, symObjAddr: 0x8BC0, symBinAddr: 0x24830, symSize: 0x20 }
  - { offset: 0xDD262, size: 0x8, addend: 0x0, symName: __Z25qToStringViewIgnoringNullI7QStringLb1EE11QStringViewRKT_, symObjAddr: 0x8BE0, symBinAddr: 0x24850, symSize: 0x50 }
  - { offset: 0xDD2A0, size: 0x8, addend: 0x0, symName: __ZNK11QStringView7indexOfE5QCharxN2Qt15CaseSensitivityE, symObjAddr: 0x8C30, symBinAddr: 0x248A0, symSize: 0x70 }
  - { offset: 0xDD2F3, size: 0x8, addend: 0x0, symName: __ZN5QChar7unicodeEv, symObjAddr: 0x8E70, symBinAddr: 0x24AE0, symSize: 0x10 }
  - { offset: 0xDD319, size: 0x8, addend: 0x0, symName: __ZNK11QStringView4sizeEv, symObjAddr: 0x8E80, symBinAddr: 0x24AF0, symSize: 0x20 }
  - { offset: 0xDD33E, size: 0x8, addend: 0x0, symName: __Z4qMaxIxERKT_S2_S2_, symObjAddr: 0x8EA0, symBinAddr: 0x24B10, symSize: 0x40 }
  - { offset: 0xDD382, size: 0x8, addend: 0x0, symName: __ZNK11QStringView5utf16Ev, symObjAddr: 0x8EE0, symBinAddr: 0x24B50, symSize: 0x20 }
  - { offset: 0xDD3A8, size: 0x8, addend: 0x0, symName: __ZN11QStringViewC1IDsLb1EEEPKT_S3_, symObjAddr: 0x8F00, symBinAddr: 0x24B70, symSize: 0x40 }
  - { offset: 0xDD3FD, size: 0x8, addend: 0x0, symName: __ZN11QStringViewC1IDsLb1EEEPKT_x, symObjAddr: 0x8F40, symBinAddr: 0x24BB0, symSize: 0x30 }
  - { offset: 0xDD452, size: 0x8, addend: 0x0, symName: __ZN11QStringViewC2IDsLb1EEEPKT_x, symObjAddr: 0x8F70, symBinAddr: 0x24BE0, symSize: 0x90 }
  - { offset: 0xDD4A7, size: 0x8, addend: 0x0, symName: __ZN11QStringView10castHelperEPKDs, symObjAddr: 0x9000, symBinAddr: 0x24C70, symSize: 0x10 }
  - { offset: 0xDD4CA, size: 0x8, addend: 0x0, symName: __ZNK7QString9constDataEv, symObjAddr: 0x9010, symBinAddr: 0x24C80, symSize: 0x20 }
  - { offset: 0xDD4F2, size: 0x8, addend: 0x0, symName: __ZNK7QString4dataEv, symObjAddr: 0x9030, symBinAddr: 0x24CA0, symSize: 0x50 }
  - { offset: 0xDD51A, size: 0x8, addend: 0x0, symName: __ZNK7QString11lastIndexOfE5QCharxN2Qt15CaseSensitivityE, symObjAddr: 0x9080, symBinAddr: 0x24CF0, symSize: 0x50 }
  - { offset: 0xDD56F, size: 0x8, addend: 0x0, symName: __ZNK11QStringView11lastIndexOfE5QCharxN2Qt15CaseSensitivityE, symObjAddr: 0x90D0, symBinAddr: 0x24D40, symSize: 0x60 }
  - { offset: 0xDD5F0, size: 0x8, addend: 0x0, symName: __ZNKR7QString5firstEx, symObjAddr: 0x9130, symBinAddr: 0x24DA0, symSize: 0x100 }
  - { offset: 0xDD653, size: 0x8, addend: 0x0, symName: __ZNKR7QString6slicedExx, symObjAddr: 0x9230, symBinAddr: 0x24EA0, symSize: 0x110 }
  - { offset: 0xDD6C5, size: 0x8, addend: 0x0, symName: __ZN20KArchiveEntryPrivateC2EP8KArchiveRK7QStringiRK9QDateTimeS4_S4_S4_, symObjAddr: 0x9340, symBinAddr: 0x24FB0, symSize: 0xA0 }
  - { offset: 0xDD758, size: 0x8, addend: 0x0, symName: __ZN20KArchiveEntryPrivateD2Ev, symObjAddr: 0x93E0, symBinAddr: 0x25050, symSize: 0x60 }
  - { offset: 0xDD785, size: 0x8, addend: 0x0, symName: __ZN19KArchiveFilePrivateC2Exx, symObjAddr: 0x9440, symBinAddr: 0x250B0, symSize: 0x30 }
  - { offset: 0xDD7CD, size: 0x8, addend: 0x0, symName: __ZN10QByteArray4swapERS_, symObjAddr: 0x9470, symBinAddr: 0x250E0, symSize: 0x30 }
  - { offset: 0xDD801, size: 0x8, addend: 0x0, symName: __ZN17QArrayDataPointerIcE4swapERS0_, symObjAddr: 0x94A0, symBinAddr: 0x25110, symSize: 0x60 }
  - { offset: 0xDD834, size: 0x8, addend: 0x0, symName: __Z11qt_ptr_swapI15QTypedArrayDataIcEEvRPT_S4_, symObjAddr: 0x9500, symBinAddr: 0x25170, symSize: 0x40 }
  - { offset: 0xDD881, size: 0x8, addend: 0x0, symName: __Z11qt_ptr_swapIcEvRPT_S2_, symObjAddr: 0x9540, symBinAddr: 0x251B0, symSize: 0x40 }
  - { offset: 0xDD8CF, size: 0x8, addend: 0x0, symName: __ZNK6QFlagsIN13QIODeviceBase12OpenModeFlagEEorES1_, symObjAddr: 0x9580, symBinAddr: 0x251F0, symSize: 0x40 }
  - { offset: 0xDD903, size: 0x8, addend: 0x0, symName: __ZN6QFlagsIN13QIODeviceBase12OpenModeFlagEECI1N9QtPrivate13QFlagsStorageIS1_EEENSt3__110in_place_tEj, symObjAddr: 0x95C0, symBinAddr: 0x25230, symSize: 0x30 }
  - { offset: 0xDD941, size: 0x8, addend: 0x0, symName: __ZN6QFlagsIN13QIODeviceBase12OpenModeFlagEECI2N9QtPrivate13QFlagsStorageIS1_EEENSt3__110in_place_tEj, symObjAddr: 0x95F0, symBinAddr: 0x25260, symSize: 0x30 }
  - { offset: 0xDD97F, size: 0x8, addend: 0x0, symName: __ZN6QFlagsIN11QFileDevice10PermissionEEoRES1_, symObjAddr: 0x9620, symBinAddr: 0x25290, symSize: 0x20 }
  - { offset: 0xDD9B3, size: 0x8, addend: 0x0, symName: __ZN24KArchiveDirectoryPrivateC2EP17KArchiveDirectory, symObjAddr: 0x9640, symBinAddr: 0x252B0, symSize: 0x30 }
  - { offset: 0xDD9EB, size: 0x8, addend: 0x0, symName: __ZN5QHashI7QStringP13KArchiveEntryEC1Ev, symObjAddr: 0x9670, symBinAddr: 0x252E0, symSize: 0x20 }
  - { offset: 0xDDA15, size: 0x8, addend: 0x0, symName: __ZN5QHashI7QStringP13KArchiveEntryEC2Ev, symObjAddr: 0x9690, symBinAddr: 0x25300, symSize: 0x20 }
  - { offset: 0xDDA3F, size: 0x8, addend: 0x0, symName: __ZN24KArchiveDirectoryPrivateD2Ev, symObjAddr: 0x96B0, symBinAddr: 0x25320, symSize: 0x40 }
  - { offset: 0xDDA68, size: 0x8, addend: 0x0, symName: __Z10qDeleteAllI5QHashI7QStringP13KArchiveEntryEEvRKT_, symObjAddr: 0x96F0, symBinAddr: 0x25360, symSize: 0x50 }
  - { offset: 0xDDA9A, size: 0x8, addend: 0x0, symName: __ZN5QHashI7QStringP13KArchiveEntryED1Ev, symObjAddr: 0x9740, symBinAddr: 0x253B0, symSize: 0x20 }
  - { offset: 0xDDAC3, size: 0x8, addend: 0x0, symName: __Z10qDeleteAllIN5QHashI7QStringP13KArchiveEntryE14const_iteratorEEvT_S6_, symObjAddr: 0x9760, symBinAddr: 0x253D0, symSize: 0x60 }
  - { offset: 0xDDB03, size: 0x8, addend: 0x0, symName: __ZNK5QHashI7QStringP13KArchiveEntryE5beginEv, symObjAddr: 0x97C0, symBinAddr: 0x25430, symSize: 0x80 }
  - { offset: 0xDDB29, size: 0x8, addend: 0x0, symName: __ZNK5QHashI7QStringP13KArchiveEntryE3endEv, symObjAddr: 0x9840, symBinAddr: 0x254B0, symSize: 0x30 }
  - { offset: 0xDDB4F, size: 0x8, addend: 0x0, symName: __ZNK5QHashI7QStringP13KArchiveEntryE14const_iteratorneERKS4_, symObjAddr: 0x9870, symBinAddr: 0x254E0, symSize: 0x40 }
  - { offset: 0xDDB84, size: 0x8, addend: 0x0, symName: __ZNK5QHashI7QStringP13KArchiveEntryE14const_iteratordeEv, symObjAddr: 0x98B0, symBinAddr: 0x25520, symSize: 0x20 }
  - { offset: 0xDDBAA, size: 0x8, addend: 0x0, symName: __ZN5QHashI7QStringP13KArchiveEntryE14const_iteratorppEv, symObjAddr: 0x98D0, symBinAddr: 0x25540, symSize: 0x30 }
  - { offset: 0xDDBD0, size: 0x8, addend: 0x0, symName: __ZNK12QHashPrivate8iteratorINS_4NodeI7QStringP13KArchiveEntryEEEneES6_, symObjAddr: 0x9900, symBinAddr: 0x25570, symSize: 0x40 }
  - { offset: 0xDDC05, size: 0x8, addend: 0x0, symName: __ZNK12QHashPrivate8iteratorINS_4NodeI7QStringP13KArchiveEntryEEEeqES6_, symObjAddr: 0x9940, symBinAddr: 0x255B0, symSize: 0x40 }
  - { offset: 0xDDC3A, size: 0x8, addend: 0x0, symName: __ZNK12QHashPrivate8iteratorINS_4NodeI7QStringP13KArchiveEntryEEE4nodeEv, symObjAddr: 0x9980, symBinAddr: 0x255F0, symSize: 0x80 }
  - { offset: 0xDDC60, size: 0x8, addend: 0x0, symName: __ZNK12QHashPrivate8iteratorINS_4NodeI7QStringP13KArchiveEntryEEE8isUnusedEv, symObjAddr: 0x9A00, symBinAddr: 0x25670, symSize: 0x60 }
  - { offset: 0xDDC86, size: 0x8, addend: 0x0, symName: __ZNK12QHashPrivate8iteratorINS_4NodeI7QStringP13KArchiveEntryEEE4spanEv, symObjAddr: 0x9A60, symBinAddr: 0x256D0, symSize: 0x20 }
  - { offset: 0xDDCAC, size: 0x8, addend: 0x0, symName: __ZN12QHashPrivate4SpanINS_4NodeI7QStringP13KArchiveEntryEEE2atEm, symObjAddr: 0x9A80, symBinAddr: 0x256F0, symSize: 0xA0 }
  - { offset: 0xDDCE1, size: 0x8, addend: 0x0, symName: __ZNK12QHashPrivate8iteratorINS_4NodeI7QStringP13KArchiveEntryEEE5indexEv, symObjAddr: 0x9B20, symBinAddr: 0x25790, symSize: 0x20 }
  - { offset: 0xDDD07, size: 0x8, addend: 0x0, symName: __ZNK12QHashPrivate4SpanINS_4NodeI7QStringP13KArchiveEntryEEE7hasNodeEm, symObjAddr: 0x9B40, symBinAddr: 0x257B0, symSize: 0x30 }
  - { offset: 0xDDD3C, size: 0x8, addend: 0x0, symName: __ZN12QHashPrivate4SpanINS_4NodeI7QStringP13KArchiveEntryEEE5Entry4nodeEv, symObjAddr: 0x9B70, symBinAddr: 0x257E0, symSize: 0x10 }
  - { offset: 0xDDD62, size: 0x8, addend: 0x0, symName: __ZN12QHashPrivate8iteratorINS_4NodeI7QStringP13KArchiveEntryEEEppEv, symObjAddr: 0x9B80, symBinAddr: 0x257F0, symSize: 0x80 }
  - { offset: 0xDDD88, size: 0x8, addend: 0x0, symName: __ZNK12QHashPrivate4DataINS_4NodeI7QStringP13KArchiveEntryEEE5beginEv, symObjAddr: 0x9C00, symBinAddr: 0x25870, symSize: 0x50 }
  - { offset: 0xDDDBD, size: 0x8, addend: 0x0, symName: __ZN5QHashI7QStringP13KArchiveEntryE14const_iteratorC1EN12QHashPrivate8iteratorINS5_4NodeIS0_S2_EEEE, symObjAddr: 0x9C50, symBinAddr: 0x258C0, symSize: 0x30 }
  - { offset: 0xDDDF6, size: 0x8, addend: 0x0, symName: __ZN5QHashI7QStringP13KArchiveEntryE14const_iteratorC1Ev, symObjAddr: 0x9C80, symBinAddr: 0x258F0, symSize: 0x20 }
  - { offset: 0xDDE20, size: 0x8, addend: 0x0, symName: __ZN5QHashI7QStringP13KArchiveEntryE14const_iteratorC2EN12QHashPrivate8iteratorINS5_4NodeIS0_S2_EEEE, symObjAddr: 0x9CA0, symBinAddr: 0x25910, symSize: 0x30 }
  - { offset: 0xDDE59, size: 0x8, addend: 0x0, symName: __ZN5QHashI7QStringP13KArchiveEntryE14const_iteratorC2Ev, symObjAddr: 0x9CD0, symBinAddr: 0x25940, symSize: 0x20 }
  - { offset: 0xDDE83, size: 0x8, addend: 0x0, symName: __ZN12QHashPrivate8iteratorINS_4NodeI7QStringP13KArchiveEntryEEEC1Ev, symObjAddr: 0x9CF0, symBinAddr: 0x25960, symSize: 0x20 }
  - { offset: 0xDDEB0, size: 0x8, addend: 0x0, symName: __ZN12QHashPrivate8iteratorINS_4NodeI7QStringP13KArchiveEntryEEEC2Ev, symObjAddr: 0x9D10, symBinAddr: 0x25980, symSize: 0x20 }
  - { offset: 0xDDEDD, size: 0x8, addend: 0x0, symName: __ZN5QHashI7QStringP13KArchiveEntryED2Ev, symObjAddr: 0x9D30, symBinAddr: 0x259A0, symSize: 0x60 }
  - { offset: 0xDDF07, size: 0x8, addend: 0x0, symName: __ZN9QtPrivate8RefCount5derefEv, symObjAddr: 0x9D90, symBinAddr: 0x25A00, symSize: 0x50 }
  - { offset: 0xDDF3B, size: 0x8, addend: 0x0, symName: __ZN12QHashPrivate4DataINS_4NodeI7QStringP13KArchiveEntryEEED1Ev, symObjAddr: 0x9DE0, symBinAddr: 0x25A50, symSize: 0x20 }
  - { offset: 0xDDF65, size: 0x8, addend: 0x0, symName: __ZN12QHashPrivate4DataINS_4NodeI7QStringP13KArchiveEntryEEED2Ev, symObjAddr: 0x9E00, symBinAddr: 0x25A70, symSize: 0x80 }
  - { offset: 0xDDF8F, size: 0x8, addend: 0x0, symName: __ZN12QHashPrivate4SpanINS_4NodeI7QStringP13KArchiveEntryEEED1Ev, symObjAddr: 0x9E80, symBinAddr: 0x25AF0, symSize: 0x20 }
  - { offset: 0xDDFB9, size: 0x8, addend: 0x0, symName: __ZN12QHashPrivate4SpanINS_4NodeI7QStringP13KArchiveEntryEEED2Ev, symObjAddr: 0x9EA0, symBinAddr: 0x25B10, symSize: 0x20 }
  - { offset: 0xDDFE3, size: 0x8, addend: 0x0, symName: __ZN12QHashPrivate4SpanINS_4NodeI7QStringP13KArchiveEntryEEE8freeDataEv, symObjAddr: 0x9EC0, symBinAddr: 0x25B30, symSize: 0xD0 }
  - { offset: 0xDE05D, size: 0x8, addend: 0x0, symName: __ZN12QHashPrivate4NodeI7QStringP13KArchiveEntryED1Ev, symObjAddr: 0x9F90, symBinAddr: 0x25C00, symSize: 0x20 }
  - { offset: 0xDE089, size: 0x8, addend: 0x0, symName: __ZN12QHashPrivate4NodeI7QStringP13KArchiveEntryED2Ev, symObjAddr: 0x9FB0, symBinAddr: 0x25C20, symSize: 0x20 }
  - { offset: 0xDE0B5, size: 0x8, addend: 0x0, symName: __ZN5QListIPK12KArchiveFileEC2Ev, symObjAddr: 0x9FD0, symBinAddr: 0x25C40, symSize: 0x20 }
  - { offset: 0xDE0DF, size: 0x8, addend: 0x0, symName: __ZN17QArrayDataPointerIPK12KArchiveFileEC1Ev, symObjAddr: 0x9FF0, symBinAddr: 0x25C60, symSize: 0x20 }
  - { offset: 0xDE109, size: 0x8, addend: 0x0, symName: __ZN17QArrayDataPointerIPK12KArchiveFileEC2Ev, symObjAddr: 0xA010, symBinAddr: 0x25C80, symSize: 0x30 }
  - { offset: 0xDE133, size: 0x8, addend: 0x0, symName: __ZN4QMapIx7QStringEC2Ev, symObjAddr: 0xA040, symBinAddr: 0x25CB0, symSize: 0x20 }
  - { offset: 0xDE15D, size: 0x8, addend: 0x0, symName: __ZN9QtPrivate30QExplicitlySharedDataPointerV2I8QMapDataINSt3__13mapIx7QStringNS2_4lessIxEENS2_9allocatorINS2_4pairIKxS4_EEEEEEEEC1Ev, symObjAddr: 0xA060, symBinAddr: 0x25CD0, symSize: 0x20 }
  - { offset: 0xDE187, size: 0x8, addend: 0x0, symName: __ZN9QtPrivate30QExplicitlySharedDataPointerV2I8QMapDataINSt3__13mapIx7QStringNS2_4lessIxEENS2_9allocatorINS2_4pairIKxS4_EEEEEEEEC2Ev, symObjAddr: 0xA080, symBinAddr: 0x25CF0, symSize: 0x30 }
  - { offset: 0xDE1B1, size: 0x8, addend: 0x0, symName: __ZN2Qt23totally_ordered_wrapperIP8QMapDataINSt3__13mapIx7QStringNS2_4lessIxEENS2_9allocatorINS2_4pairIKxS4_EEEEEEEEC1EDn, symObjAddr: 0xA0B0, symBinAddr: 0x25D20, symSize: 0x30 }
  - { offset: 0xDE1E7, size: 0x8, addend: 0x0, symName: __ZN2Qt23totally_ordered_wrapperIP8QMapDataINSt3__13mapIx7QStringNS2_4lessIxEENS2_9allocatorINS2_4pairIKxS4_EEEEEEEEC1ESE_, symObjAddr: 0xA0E0, symBinAddr: 0x25D50, symSize: 0x30 }
  - { offset: 0xDE220, size: 0x8, addend: 0x0, symName: __ZN2Qt23totally_ordered_wrapperIP8QMapDataINSt3__13mapIx7QStringNS2_4lessIxEENS2_9allocatorINS2_4pairIKxS4_EEEEEEEEC2ESE_, symObjAddr: 0xA110, symBinAddr: 0x25D80, symSize: 0x20 }
  - { offset: 0xDE259, size: 0x8, addend: 0x0, symName: __ZN6QStackIPK17KArchiveDirectoryEC2Ev, symObjAddr: 0xA130, symBinAddr: 0x25DA0, symSize: 0x20 }
  - { offset: 0xDE285, size: 0x8, addend: 0x0, symName: __ZN5QListIPK17KArchiveDirectoryEC2Ev, symObjAddr: 0xA150, symBinAddr: 0x25DC0, symSize: 0x20 }
  - { offset: 0xDE2AF, size: 0x8, addend: 0x0, symName: __ZN17QArrayDataPointerIPK17KArchiveDirectoryEC1Ev, symObjAddr: 0xA170, symBinAddr: 0x25DE0, symSize: 0x20 }
  - { offset: 0xDE2D9, size: 0x8, addend: 0x0, symName: __ZN17QArrayDataPointerIPK17KArchiveDirectoryEC2Ev, symObjAddr: 0xA190, symBinAddr: 0x25E00, symSize: 0x30 }
  - { offset: 0xDE303, size: 0x8, addend: 0x0, symName: __ZN6QStackI7QStringEC2Ev, symObjAddr: 0xA1C0, symBinAddr: 0x25E30, symSize: 0x20 }
  - { offset: 0xDE32F, size: 0x8, addend: 0x0, symName: __ZN5QListI7QStringEC2Ev, symObjAddr: 0xA1E0, symBinAddr: 0x25E50, symSize: 0x20 }
  - { offset: 0xDE359, size: 0x8, addend: 0x0, symName: __ZNSt3__18optionalI6QFlagsIN11QFileDevice10PermissionEEEC2B9nqe210106ENS_9nullopt_tE, symObjAddr: 0xA250, symBinAddr: 0x25E70, symSize: 0x20 }
  - { offset: 0xDE394, size: 0x8, addend: 0x0, symName: __ZNSt3__127__optional_move_assign_baseI6QFlagsIN11QFileDevice10PermissionEELb1EEC2Ev, symObjAddr: 0xA270, symBinAddr: 0x25E90, symSize: 0x20 }
  - { offset: 0xDE3C6, size: 0x8, addend: 0x0, symName: __ZNSt3__127__optional_copy_assign_baseI6QFlagsIN11QFileDevice10PermissionEELb1EEC2Ev, symObjAddr: 0xA290, symBinAddr: 0x25EB0, symSize: 0x20 }
  - { offset: 0xDE3F8, size: 0x8, addend: 0x0, symName: __ZNSt3__120__optional_move_baseI6QFlagsIN11QFileDevice10PermissionEELb1EEC2Ev, symObjAddr: 0xA2B0, symBinAddr: 0x25ED0, symSize: 0x20 }
  - { offset: 0xDE42A, size: 0x8, addend: 0x0, symName: __ZNSt3__120__optional_copy_baseI6QFlagsIN11QFileDevice10PermissionEELb1EEC2Ev, symObjAddr: 0xA2D0, symBinAddr: 0x25EF0, symSize: 0x20 }
  - { offset: 0xDE457, size: 0x8, addend: 0x0, symName: __ZNSt3__123__optional_storage_baseI6QFlagsIN11QFileDevice10PermissionEELb0EEC2Ev, symObjAddr: 0xA2F0, symBinAddr: 0x25F10, symSize: 0x20 }
  - { offset: 0xDE484, size: 0x8, addend: 0x0, symName: __ZNSt3__124__optional_destruct_baseI6QFlagsIN11QFileDevice10PermissionEELb1EEC2B9nqe210106Ev, symObjAddr: 0xA310, symBinAddr: 0x25F30, symSize: 0x20 }
  - { offset: 0xDE4AE, size: 0x8, addend: 0x0, symName: __ZNK5QListIPK17KArchiveDirectoryE4sizeEv, symObjAddr: 0xA330, symBinAddr: 0x25F50, symSize: 0x50 }
  - { offset: 0xDE517, size: 0x8, addend: 0x0, symName: __ZZNK5QListIPK17KArchiveDirectoryE4sizeEvENKUlvE_clEv, symObjAddr: 0xA380, symBinAddr: 0x25FA0, symSize: 0x50 }
  - { offset: 0xDE541, size: 0x8, addend: 0x0, symName: __ZN6QStackI7QStringED2Ev, symObjAddr: 0xA3D0, symBinAddr: 0x25FF0, symSize: 0x20 }
  - { offset: 0xDE56D, size: 0x8, addend: 0x0, symName: __ZN6QStackIPK17KArchiveDirectoryED2Ev, symObjAddr: 0xA3F0, symBinAddr: 0x26010, symSize: 0x20 }
  - { offset: 0xDE599, size: 0x8, addend: 0x0, symName: __ZN5QListIPK17KArchiveDirectoryED2Ev, symObjAddr: 0xA410, symBinAddr: 0x26030, symSize: 0x20 }
  - { offset: 0xDE5C5, size: 0x8, addend: 0x0, symName: __ZN17QArrayDataPointerIPK17KArchiveDirectoryED1Ev, symObjAddr: 0xA430, symBinAddr: 0x26050, symSize: 0x20 }
  - { offset: 0xDE5EF, size: 0x8, addend: 0x0, symName: __ZN17QArrayDataPointerIPK17KArchiveDirectoryED2Ev, symObjAddr: 0xA450, symBinAddr: 0x26070, symSize: 0x40 }
  - { offset: 0xDE619, size: 0x8, addend: 0x0, symName: __ZN17QArrayDataPointerIPK17KArchiveDirectoryE5derefEv, symObjAddr: 0xA490, symBinAddr: 0x260B0, symSize: 0x40 }
  - { offset: 0xDE63F, size: 0x8, addend: 0x0, symName: __ZN17QArrayDataPointerIPK17KArchiveDirectoryEptEv, symObjAddr: 0xA4D0, symBinAddr: 0x260F0, symSize: 0x10 }
  - { offset: 0xDE665, size: 0x8, addend: 0x0, symName: __ZN9QtPrivate12QPodArrayOpsIPK17KArchiveDirectoryE10destroyAllEv, symObjAddr: 0xA4E0, symBinAddr: 0x26100, symSize: 0x70 }
  - { offset: 0xDE68B, size: 0x8, addend: 0x0, symName: __ZN15QTypedArrayDataIPK17KArchiveDirectoryE10deallocateEP10QArrayData, symObjAddr: 0xA550, symBinAddr: 0x26170, symSize: 0x30 }
  - { offset: 0xDE6AE, size: 0x8, addend: 0x0, symName: __ZN4QMapIx7QStringED2Ev, symObjAddr: 0xA580, symBinAddr: 0x261A0, symSize: 0x20 }
  - { offset: 0xDE6DA, size: 0x8, addend: 0x0, symName: __ZN9QtPrivate30QExplicitlySharedDataPointerV2I8QMapDataINSt3__13mapIx7QStringNS2_4lessIxEENS2_9allocatorINS2_4pairIKxS4_EEEEEEEED1Ev, symObjAddr: 0xA5A0, symBinAddr: 0x261C0, symSize: 0x20 }
  - { offset: 0xDE704, size: 0x8, addend: 0x0, symName: __ZN9QtPrivate30QExplicitlySharedDataPointerV2I8QMapDataINSt3__13mapIx7QStringNS2_4lessIxEENS2_9allocatorINS2_4pairIKxS4_EEEEEEEED2Ev, symObjAddr: 0xA5C0, symBinAddr: 0x261E0, symSize: 0x70 }
  - { offset: 0xDE72E, size: 0x8, addend: 0x0, symName: __ZNK2Qt23totally_ordered_wrapperIP8QMapDataINSt3__13mapIx7QStringNS2_4lessIxEENS2_9allocatorINS2_4pairIKxS4_EEEEEEEEcvbEv, symObjAddr: 0xA630, symBinAddr: 0x26250, symSize: 0x30 }
  - { offset: 0xDE754, size: 0x8, addend: 0x0, symName: __ZNK2Qt23totally_ordered_wrapperIP8QMapDataINSt3__13mapIx7QStringNS2_4lessIxEENS2_9allocatorINS2_4pairIKxS4_EEEEEEEEptEv, symObjAddr: 0xA660, symBinAddr: 0x26280, symSize: 0x20 }
  - { offset: 0xDE77A, size: 0x8, addend: 0x0, symName: __ZNK2Qt23totally_ordered_wrapperIP8QMapDataINSt3__13mapIx7QStringNS2_4lessIxEENS2_9allocatorINS2_4pairIKxS4_EEEEEEEE3getEv, symObjAddr: 0xA680, symBinAddr: 0x262A0, symSize: 0x20 }
  - { offset: 0xDE7A0, size: 0x8, addend: 0x0, symName: __ZN8QMapDataINSt3__13mapIx7QStringNS0_4lessIxEENS0_9allocatorINS0_4pairIKxS2_EEEEEEED1Ev, symObjAddr: 0xA6A0, symBinAddr: 0x262C0, symSize: 0x20 }
  - { offset: 0xDE7CC, size: 0x8, addend: 0x0, symName: __ZN8QMapDataINSt3__13mapIx7QStringNS0_4lessIxEENS0_9allocatorINS0_4pairIKxS2_EEEEEEED2Ev, symObjAddr: 0xA6C0, symBinAddr: 0x262E0, symSize: 0x20 }
  - { offset: 0xDE7F8, size: 0x8, addend: 0x0, symName: __ZNSt3__13mapIx7QStringNS_4lessIxEENS_9allocatorINS_4pairIKxS1_EEEEED1B9nqe210106Ev, symObjAddr: 0xA6E0, symBinAddr: 0x26300, symSize: 0x20 }
  - { offset: 0xDE822, size: 0x8, addend: 0x0, symName: __ZNSt3__13mapIx7QStringNS_4lessIxEENS_9allocatorINS_4pairIKxS1_EEEEED2B9nqe210106Ev, symObjAddr: 0xA700, symBinAddr: 0x26320, symSize: 0x20 }
  - { offset: 0xDE84C, size: 0x8, addend: 0x0, symName: __ZNSt3__16__treeINS_12__value_typeIx7QStringEENS_19__map_value_compareIxNS_4pairIKxS2_EENS_4lessIxEELb1EEENS_9allocatorIS7_EEED1Ev, symObjAddr: 0xA720, symBinAddr: 0x26340, symSize: 0x20 }
  - { offset: 0xDE878, size: 0x8, addend: 0x0, symName: __ZNSt3__16__treeINS_12__value_typeIx7QStringEENS_19__map_value_compareIxNS_4pairIKxS2_EENS_4lessIxEELb1EEENS_9allocatorIS7_EEED2Ev, symObjAddr: 0xA740, symBinAddr: 0x26360, symSize: 0x30 }
  - { offset: 0xDE8A4, size: 0x8, addend: 0x0, symName: __ZNSt3__16__treeINS_12__value_typeIx7QStringEENS_19__map_value_compareIxNS_4pairIKxS2_EENS_4lessIxEELb1EEENS_9allocatorIS7_EEE7destroyEPNS_11__tree_nodeIS3_PvEE, symObjAddr: 0xA770, symBinAddr: 0x26390, symSize: 0x80 }
  - { offset: 0xDE8F1, size: 0x8, addend: 0x0, symName: __ZNKSt3__16__treeINS_12__value_typeIx7QStringEENS_19__map_value_compareIxNS_4pairIKxS2_EENS_4lessIxEELb1EEENS_9allocatorIS7_EEE6__rootB9nqe210106Ev, symObjAddr: 0xA7F0, symBinAddr: 0x26410, symSize: 0x20 }
  - { offset: 0xDE917, size: 0x8, addend: 0x0, symName: __ZNSt3__16__treeINS_12__value_typeIx7QStringEENS_19__map_value_compareIxNS_4pairIKxS2_EENS_4lessIxEELb1EEENS_9allocatorIS7_EEE12__node_allocB9nqe210106Ev, symObjAddr: 0xA810, symBinAddr: 0x26430, symSize: 0x20 }
  - { offset: 0xDE93D, size: 0x8, addend: 0x0, symName: __ZNSt3__116allocator_traitsINS_9allocatorINS_11__tree_nodeINS_12__value_typeIx7QStringEEPvEEEEE7destroyB9nqe210106INS_4pairIKxS4_EELi0EEEvRS8_PT_, symObjAddr: 0xA830, symBinAddr: 0x26450, symSize: 0x20 }
  - { offset: 0xDE97C, size: 0x8, addend: 0x0, symName: __ZNSt3__116allocator_traitsINS_9allocatorINS_11__tree_nodeINS_12__value_typeIx7QStringEEPvEEEEE10deallocateB9nqe210106ERS8_PS7_m, symObjAddr: 0xA850, symBinAddr: 0x26470, symSize: 0x30 }
  - { offset: 0xDE9BE, size: 0x8, addend: 0x0, symName: __ZNSt3__14pairIKx7QStringED1Ev, symObjAddr: 0xA8A0, symBinAddr: 0x264C0, symSize: 0x20 }
  - { offset: 0xDE9EA, size: 0x8, addend: 0x0, symName: __ZNSt3__14pairIKx7QStringED2Ev, symObjAddr: 0xA8C0, symBinAddr: 0x264E0, symSize: 0x20 }
  - { offset: 0xDEA16, size: 0x8, addend: 0x0, symName: __ZNSt3__19allocatorINS_11__tree_nodeINS_12__value_typeIx7QStringEEPvEEE10deallocateB9nqe210106EPS6_m, symObjAddr: 0xA8E0, symBinAddr: 0x26500, symSize: 0x30 }
  - { offset: 0xDEA58, size: 0x8, addend: 0x0, symName: __ZNKSt3__16__treeINS_12__value_typeIx7QStringEENS_19__map_value_compareIxNS_4pairIKxS2_EENS_4lessIxEELb1EEENS_9allocatorIS7_EEE10__end_nodeB9nqe210106Ev, symObjAddr: 0xA980, symBinAddr: 0x26580, symSize: 0x20 }
  - { offset: 0xDEA7E, size: 0x8, addend: 0x0, symName: __ZN5QListIPK12KArchiveFileED2Ev, symObjAddr: 0xA9B0, symBinAddr: 0x265A0, symSize: 0x20 }
  - { offset: 0xDEAAA, size: 0x8, addend: 0x0, symName: __ZN17QArrayDataPointerIPK12KArchiveFileED1Ev, symObjAddr: 0xA9D0, symBinAddr: 0x265C0, symSize: 0x20 }
  - { offset: 0xDEAD4, size: 0x8, addend: 0x0, symName: __ZN17QArrayDataPointerIPK12KArchiveFileED2Ev, symObjAddr: 0xA9F0, symBinAddr: 0x265E0, symSize: 0x40 }
  - { offset: 0xDEAFE, size: 0x8, addend: 0x0, symName: __ZN17QArrayDataPointerIPK12KArchiveFileE5derefEv, symObjAddr: 0xAA30, symBinAddr: 0x26620, symSize: 0x40 }
  - { offset: 0xDEB24, size: 0x8, addend: 0x0, symName: __ZN17QArrayDataPointerIPK12KArchiveFileEptEv, symObjAddr: 0xAA70, symBinAddr: 0x26660, symSize: 0x10 }
  - { offset: 0xDEB4A, size: 0x8, addend: 0x0, symName: __ZN9QtPrivate12QPodArrayOpsIPK12KArchiveFileE10destroyAllEv, symObjAddr: 0xAA80, symBinAddr: 0x26670, symSize: 0x70 }
  - { offset: 0xDEB70, size: 0x8, addend: 0x0, symName: __ZN15QTypedArrayDataIPK12KArchiveFileE10deallocateEP10QArrayData, symObjAddr: 0xAAF0, symBinAddr: 0x266E0, symSize: 0x30 }
  - { offset: 0xDEB93, size: 0x8, addend: 0x0, symName: __ZN17QArrayDataPointerIDsE5derefEv, symObjAddr: 0xAB60, symBinAddr: 0x26710, symSize: 0x40 }
  - { offset: 0xDEBB9, size: 0x8, addend: 0x0, symName: __ZN17QArrayDataPointerIDsEptEv, symObjAddr: 0xABA0, symBinAddr: 0x26750, symSize: 0x10 }
  - { offset: 0xDEBDF, size: 0x8, addend: 0x0, symName: __ZN9QtPrivate12QPodArrayOpsIDsE10destroyAllEv, symObjAddr: 0xABB0, symBinAddr: 0x26760, symSize: 0x70 }
  - { offset: 0xDEC05, size: 0x8, addend: 0x0, symName: __ZN15QTypedArrayDataIDsE10deallocateEP10QArrayData, symObjAddr: 0xAC20, symBinAddr: 0x267D0, symSize: 0x30 }
  - { offset: 0xDEC28, size: 0x8, addend: 0x0, symName: __ZNK5QHashI7QStringP13KArchiveEntryE9valueImplIS0_EEPS2_RKT_, symObjAddr: 0xAC50, symBinAddr: 0x26800, symSize: 0x60 }
  - { offset: 0xDEC84, size: 0x8, addend: 0x0, symName: __ZNK12QHashPrivate4DataINS_4NodeI7QStringP13KArchiveEntryEEE8findNodeIS2_EEPS5_RKT_, symObjAddr: 0xACB0, symBinAddr: 0x26860, symSize: 0x70 }
  - { offset: 0xDECD1, size: 0x8, addend: 0x0, symName: __ZNK12QHashPrivate4DataINS_4NodeI7QStringP13KArchiveEntryEEE10findBucketIS2_EENS6_6BucketERKT_, symObjAddr: 0xAD20, symBinAddr: 0x268D0, symSize: 0x70 }
  - { offset: 0xDED1E, size: 0x8, addend: 0x0, symName: __ZNK12QHashPrivate4DataINS_4NodeI7QStringP13KArchiveEntryEEE6Bucket8isUnusedEv, symObjAddr: 0xAD90, symBinAddr: 0x26940, symSize: 0x30 }
  - { offset: 0xDED44, size: 0x8, addend: 0x0, symName: __ZN12QHashPrivate4DataINS_4NodeI7QStringP13KArchiveEntryEEE6Bucket4nodeEv, symObjAddr: 0xADC0, symBinAddr: 0x26970, symSize: 0x30 }
  - { offset: 0xDED6A, size: 0x8, addend: 0x0, symName: __ZNK12QHashPrivate4DataINS_4NodeI7QStringP13KArchiveEntryEEE18findBucketWithHashIS2_EENS6_6BucketERKT_m, symObjAddr: 0xAE20, symBinAddr: 0x269D0, symSize: 0xE0 }
  - { offset: 0xDEDF1, size: 0x8, addend: 0x0, symName: __Z5qHashRK7QStringm, symObjAddr: 0xAF00, symBinAddr: 0x26AB0, symSize: 0x40 }
  - { offset: 0xDEE2C, size: 0x8, addend: 0x0, symName: __ZN12QHashPrivate4DataINS_4NodeI7QStringP13KArchiveEntryEEE6BucketC1EPKS6_m, symObjAddr: 0xAF60, symBinAddr: 0x26B10, symSize: 0x30 }
  - { offset: 0xDEE74, size: 0x8, addend: 0x0, symName: __ZNK12QHashPrivate4DataINS_4NodeI7QStringP13KArchiveEntryEEE6Bucket6offsetEv, symObjAddr: 0xAF90, symBinAddr: 0x26B40, symSize: 0x30 }
  - { offset: 0xDEE9A, size: 0x8, addend: 0x0, symName: __ZN12QHashPrivate4DataINS_4NodeI7QStringP13KArchiveEntryEEE6Bucket12nodeAtOffsetEm, symObjAddr: 0xAFC0, symBinAddr: 0x26B70, symSize: 0x30 }
  - { offset: 0xDEECE, size: 0x8, addend: 0x0, symName: __Z11qHashEqualsI7QStringEbRKT_S3_, symObjAddr: 0xAFF0, symBinAddr: 0x26BA0, symSize: 0x30 }
  - { offset: 0xDEF15, size: 0x8, addend: 0x0, symName: __ZN12QHashPrivate4DataINS_4NodeI7QStringP13KArchiveEntryEEE6Bucket14advanceWrappedEPKS6_, symObjAddr: 0xB020, symBinAddr: 0x26BD0, symSize: 0x30 }
  - { offset: 0xDEF4A, size: 0x8, addend: 0x0, symName: __ZN12QHashPrivate4DataINS_4NodeI7QStringP13KArchiveEntryEEE6BucketC2EPKS6_m, symObjAddr: 0xB050, symBinAddr: 0x26C00, symSize: 0x40 }
  - { offset: 0xDEF92, size: 0x8, addend: 0x0, symName: __ZNK12QHashPrivate4SpanINS_4NodeI7QStringP13KArchiveEntryEEE6offsetEm, symObjAddr: 0xB090, symBinAddr: 0x26C40, symSize: 0x20 }
  - { offset: 0xDEFC7, size: 0x8, addend: 0x0, symName: __ZN12QHashPrivate4SpanINS_4NodeI7QStringP13KArchiveEntryEEE8atOffsetEm, symObjAddr: 0xB0B0, symBinAddr: 0x26C60, symSize: 0x70 }
  - { offset: 0xDEFFB, size: 0x8, addend: 0x0, symName: __ZeqRK7QStringS1_, symObjAddr: 0xB120, symBinAddr: 0x26CD0, symSize: 0x30 }
  - { offset: 0xDF04D, size: 0x8, addend: 0x0, symName: __Z13comparesEqualRK7QStringS1_, symObjAddr: 0xB150, symBinAddr: 0x26D00, symSize: 0x40 }
  - { offset: 0xDF08A, size: 0x8, addend: 0x0, symName: __Z13comparesEqualRK11QStringViewS1_, symObjAddr: 0xB190, symBinAddr: 0x26D40, symSize: 0x80 }
  - { offset: 0xDF0C8, size: 0x8, addend: 0x0, symName: __ZN12QHashPrivate4DataINS_4NodeI7QStringP13KArchiveEntryEEE6Bucket12advance_implEPKS6_PNS_4SpanIS5_EE, symObjAddr: 0xB210, symBinAddr: 0x26DC0, symSize: 0xC0 }
  - { offset: 0xDF10C, size: 0x8, addend: 0x0, symName: __ZN12_GLOBAL__N_127QLoggingCategoryMacroHolderIL9QtMsgType1EEC2ERK16QLoggingCategory, symObjAddr: 0xB2D0, symBinAddr: 0x26E80, symSize: 0x30 }
  - { offset: 0xDF144, size: 0x8, addend: 0x0, symName: __ZN12_GLOBAL__N_127QLoggingCategoryMacroHolderIL9QtMsgType1EE4initERK16QLoggingCategory, symObjAddr: 0xB300, symBinAddr: 0x26EB0, symSize: 0x50 }
  - { offset: 0xDF178, size: 0x8, addend: 0x0, symName: __ZNK16QLoggingCategory16isWarningEnabledEv, symObjAddr: 0xB350, symBinAddr: 0x26F00, symSize: 0x30 }
  - { offset: 0xDF19E, size: 0x8, addend: 0x0, symName: __ZNK19QBasicAtomicIntegerIbE11loadRelaxedEv, symObjAddr: 0xB380, symBinAddr: 0x26F30, symSize: 0x20 }
  - { offset: 0xDF1C4, size: 0x8, addend: 0x0, symName: __ZN10QAtomicOpsIbE11loadRelaxedIbEET_RKNSt3__16atomicIS2_EE, symObjAddr: 0xB3A0, symBinAddr: 0x26F50, symSize: 0x20 }
  - { offset: 0xDF1F0, size: 0x8, addend: 0x0, symName: __ZNKSt3__113__atomic_baseIbLb0EE4loadB9nqe210106ENS_12memory_orderE, symObjAddr: 0xB3C0, symBinAddr: 0x26F70, symSize: 0x30 }
  - { offset: 0xDF224, size: 0x8, addend: 0x0, symName: __ZNK16QLoggingCategory12categoryNameEv, symObjAddr: 0xB450, symBinAddr: 0x27000, symSize: 0x20 }
  - { offset: 0xDF24A, size: 0x8, addend: 0x0, symName: __ZN14QAnyStringViewC1E11QStringView, symObjAddr: 0xB470, symBinAddr: 0x27020, symSize: 0x60 }
  - { offset: 0xDF282, size: 0x8, addend: 0x0, symName: __ZNK11QStringView4dataEv, symObjAddr: 0xB5D0, symBinAddr: 0x27100, symSize: 0x20 }
  - { offset: 0xDF2A8, size: 0x8, addend: 0x0, symName: __ZN14QAnyStringView10encodeTypeI5QCharEEmPKT_x, symObjAddr: 0xB660, symBinAddr: 0x27140, symSize: 0xD0 }
  - { offset: 0xDF2E2, size: 0x8, addend: 0x0, symName: __ZN14QAnyStringView29isAsciiOnlyCharsAtCompileTimeIK5QCharEEbPT_x, symObjAddr: 0xB730, symBinAddr: 0x27210, symSize: 0x20 }
  - { offset: 0xDF31C, size: 0x8, addend: 0x0, symName: __ZN9QtPrivate13QAnyStringArgC1E14QAnyStringView, symObjAddr: 0xB750, symBinAddr: 0x27230, symSize: 0x30 }
  - { offset: 0xDF355, size: 0x8, addend: 0x0, symName: __ZN9QtPrivate13QAnyStringArgC2E14QAnyStringView, symObjAddr: 0xB780, symBinAddr: 0x27260, symSize: 0x30 }
  - { offset: 0xDF38E, size: 0x8, addend: 0x0, symName: __ZN14QAnyStringViewC1E13QLatin1String, symObjAddr: 0xB7B0, symBinAddr: 0x27290, symSize: 0x30 }
  - { offset: 0xDF3C8, size: 0x8, addend: 0x0, symName: __ZN14QAnyStringViewC2E13QLatin1String, symObjAddr: 0xB7E0, symBinAddr: 0x272C0, symSize: 0x60 }
  - { offset: 0xDF402, size: 0x8, addend: 0x0, symName: __ZNK13QLatin1String4dataEv, symObjAddr: 0xB840, symBinAddr: 0x27320, symSize: 0x20 }
  - { offset: 0xDF428, size: 0x8, addend: 0x0, symName: __ZNK17QArrayDataPointerI7QStringEptEv, symObjAddr: 0xB860, symBinAddr: 0x27340, symSize: 0x10 }
  - { offset: 0xDF44E, size: 0x8, addend: 0x0, symName: __ZNK17QArrayDataPointerI7QStringE10constBeginEv, symObjAddr: 0xB870, symBinAddr: 0x27350, symSize: 0x20 }
  - { offset: 0xDF474, size: 0x8, addend: 0x0, symName: __ZN5QListI7QStringE14const_iteratorC1EPKS0_, symObjAddr: 0xB890, symBinAddr: 0x27370, symSize: 0x30 }
  - { offset: 0xDF4AC, size: 0x8, addend: 0x0, symName: __ZNK17QArrayDataPointerI7QStringE4dataEv, symObjAddr: 0xB8C0, symBinAddr: 0x273A0, symSize: 0x20 }
  - { offset: 0xDF4D2, size: 0x8, addend: 0x0, symName: __ZN5QListI7QStringE14const_iteratorC2EPKS0_, symObjAddr: 0xB8E0, symBinAddr: 0x273C0, symSize: 0x20 }
  - { offset: 0xDF50A, size: 0x8, addend: 0x0, symName: __ZNK17QArrayDataPointerI7QStringE8constEndEv, symObjAddr: 0xB900, symBinAddr: 0x273E0, symSize: 0x30 }
  - { offset: 0xDF530, size: 0x8, addend: 0x0, symName: __ZN12_GLOBAL__N_127QLoggingCategoryMacroHolderIL9QtMsgType0EEC2ERK16QLoggingCategory, symObjAddr: 0xB9B0, symBinAddr: 0x27410, symSize: 0x30 }
  - { offset: 0xDF568, size: 0x8, addend: 0x0, symName: __ZN12_GLOBAL__N_127QLoggingCategoryMacroHolderIL9QtMsgType0EE4initERK16QLoggingCategory, symObjAddr: 0xB9E0, symBinAddr: 0x27440, symSize: 0x50 }
  - { offset: 0xDF59C, size: 0x8, addend: 0x0, symName: __ZNK16QLoggingCategory14isDebugEnabledEv, symObjAddr: 0xBA30, symBinAddr: 0x27490, symSize: 0x30 }
  - { offset: 0xDF5C2, size: 0x8, addend: 0x0, symName: __ZNK5QHashI7QStringP13KArchiveEntryE8keyBeginEv, symObjAddr: 0xBA60, symBinAddr: 0x274C0, symSize: 0x40 }
  - { offset: 0xDF5E8, size: 0x8, addend: 0x0, symName: __ZNK5QHashI7QStringP13KArchiveEntryE6keyEndEv, symObjAddr: 0xBAA0, symBinAddr: 0x27500, symSize: 0x40 }
  - { offset: 0xDF60E, size: 0x8, addend: 0x0, symName: __ZN5QListI7QStringEC1IN5QHashIS0_P13KArchiveEntryE12key_iteratorELb1EEET_S8_, symObjAddr: 0xBAE0, symBinAddr: 0x27540, symSize: 0x40 }
  - { offset: 0xDF665, size: 0x8, addend: 0x0, symName: __ZN5QHashI7QStringP13KArchiveEntryE12key_iteratorC1ENS3_14const_iteratorE, symObjAddr: 0xBB20, symBinAddr: 0x27580, symSize: 0x30 }
  - { offset: 0xDF69E, size: 0x8, addend: 0x0, symName: __ZN5QHashI7QStringP13KArchiveEntryE12key_iteratorC2ENS3_14const_iteratorE, symObjAddr: 0xBB50, symBinAddr: 0x275B0, symSize: 0x30 }
  - { offset: 0xDF6D7, size: 0x8, addend: 0x0, symName: __ZN5QListI7QStringEC2IN5QHashIS0_P13KArchiveEntryE12key_iteratorELb1EEET_S8_, symObjAddr: 0xBB80, symBinAddr: 0x275E0, symSize: 0x150 }
  - { offset: 0xDF744, size: 0x8, addend: 0x0, symName: __ZN17QArrayDataPointerI7QStringEC1ExxN10QArrayData16AllocationOptionE, symObjAddr: 0xBD30, symBinAddr: 0x27790, symSize: 0x50 }
  - { offset: 0xDF798, size: 0x8, addend: 0x0, symName: __ZN17QArrayDataPointerI7QStringEaSEOS1_, symObjAddr: 0xBD80, symBinAddr: 0x277E0, symSize: 0x50 }
  - { offset: 0xDF7DA, size: 0x8, addend: 0x0, symName: __ZN9QtPrivate15QCommonArrayOpsI7QStringE19appendIteratorRangeIN5QHashIS1_P13KArchiveEntryE12key_iteratorEEEvT_S9_NSt3__19enable_ifIXsr3std14is_convertibleINSA_15iterator_traitsIS9_E17iterator_categoryENSA_20forward_iterator_tagEEE5valueEbE4typeE, symObjAddr: 0xBDD0, symBinAddr: 0x27830, symSize: 0x200 }
  - { offset: 0xDF862, size: 0x8, addend: 0x0, symName: __ZNK5QHashI7QStringP13KArchiveEntryE12key_iteratorneES4_, symObjAddr: 0xC040, symBinAddr: 0x27AA0, symSize: 0x30 }
  - { offset: 0xDF897, size: 0x8, addend: 0x0, symName: __ZN5QHashI7QStringP13KArchiveEntryE12key_iteratorppEv, symObjAddr: 0xC070, symBinAddr: 0x27AD0, symSize: 0x30 }
  - { offset: 0xDF8BD, size: 0x8, addend: 0x0, symName: __ZN15QTypedArrayDataI7QStringE8allocateExN10QArrayData16AllocationOptionE, symObjAddr: 0xC0A0, symBinAddr: 0x27B00, symSize: 0x60 }
  - { offset: 0xDF90A, size: 0x8, addend: 0x0, symName: __ZN17QArrayDataPointerI7QStringEC1ENSt3__14pairIP15QTypedArrayDataIS0_EPS0_EEx, symObjAddr: 0xC100, symBinAddr: 0x27B60, symSize: 0x40 }
  - { offset: 0xDF95C, size: 0x8, addend: 0x0, symName: __ZN17QArrayDataPointerI7QStringEC2ENSt3__14pairIP15QTypedArrayDataIS0_EPS0_EEx, symObjAddr: 0xC1A0, symBinAddr: 0x27BA0, symSize: 0x40 }
  - { offset: 0xDF9A2, size: 0x8, addend: 0x0, symName: __ZN17QArrayDataPointerI7QStringEC1EOS1_, symObjAddr: 0xC1E0, symBinAddr: 0x27BE0, symSize: 0x30 }
  - { offset: 0xDF9DA, size: 0x8, addend: 0x0, symName: __ZN17QArrayDataPointerI7QStringE4swapERS1_, symObjAddr: 0xC210, symBinAddr: 0x27C10, symSize: 0x60 }
  - { offset: 0xDFA0E, size: 0x8, addend: 0x0, symName: __ZN17QArrayDataPointerI7QStringEC2EOS1_, symObjAddr: 0xC270, symBinAddr: 0x27C70, symSize: 0x90 }
  - { offset: 0xDFA45, size: 0x8, addend: 0x0, symName: __Z11qt_ptr_swapI15QTypedArrayDataI7QStringEEvRPT_S5_, symObjAddr: 0xC360, symBinAddr: 0x27D60, symSize: 0x40 }
  - { offset: 0xDFA92, size: 0x8, addend: 0x0, symName: __Z11qt_ptr_swapI7QStringEvRPT_S3_, symObjAddr: 0xC3A0, symBinAddr: 0x27DA0, symSize: 0x40 }
  - { offset: 0xDFAE0, size: 0x8, addend: 0x0, symName: __ZNK17QArrayDataPointerI7QStringE9isMutableEv, symObjAddr: 0xC3E0, symBinAddr: 0x27DE0, symSize: 0x20 }
  - { offset: 0xDFB06, size: 0x8, addend: 0x0, symName: __ZNK5QHashI7QStringP13KArchiveEntryE12key_iteratoreqES4_, symObjAddr: 0xC400, symBinAddr: 0x27E00, symSize: 0x30 }
  - { offset: 0xDFB3B, size: 0x8, addend: 0x0, symName: __ZNK17QArrayDataPointerI7QStringE8isSharedEv, symObjAddr: 0xC430, symBinAddr: 0x27E30, symSize: 0x40 }
  - { offset: 0xDFB61, size: 0x8, addend: 0x0, symName: __ZN17QArrayDataPointerI7QStringE17allocatedCapacityEv, symObjAddr: 0xC470, symBinAddr: 0x27E70, symSize: 0x40 }
  - { offset: 0xDFB87, size: 0x8, addend: 0x0, symName: __ZNK5QHashI7QStringP13KArchiveEntryE12key_iteratordeEv, symObjAddr: 0xC4B0, symBinAddr: 0x27EB0, symSize: 0x20 }
  - { offset: 0xDFBAD, size: 0x8, addend: 0x0, symName: __ZNK5QHashI7QStringP13KArchiveEntryE14const_iteratoreqERKS4_, symObjAddr: 0xC4D0, symBinAddr: 0x27ED0, symSize: 0x40 }
  - { offset: 0xDFBE2, size: 0x8, addend: 0x0, symName: __ZNK10QArrayData8isSharedEv, symObjAddr: 0xC510, symBinAddr: 0x27F10, symSize: 0x30 }
  - { offset: 0xDFC08, size: 0x8, addend: 0x0, symName: __ZN10QArrayData17allocatedCapacityEv, symObjAddr: 0xC540, symBinAddr: 0x27F40, symSize: 0x20 }
  - { offset: 0xDFC2E, size: 0x8, addend: 0x0, symName: __ZNK5QHashI7QStringP13KArchiveEntryE14const_iterator3keyEv, symObjAddr: 0xC560, symBinAddr: 0x27F60, symSize: 0x20 }
  - { offset: 0xDFC54, size: 0x8, addend: 0x0, symName: __ZN5QHashI7QStringP13KArchiveEntryE7emplaceIJRKS2_EEENS3_8iteratorEOS0_DpOT_, symObjAddr: 0xC580, symBinAddr: 0x27F80, symSize: 0x100 }
  - { offset: 0xDFCB2, size: 0x8, addend: 0x0, symName: __ZNK5QHashI7QStringP13KArchiveEntryE10isDetachedEv, symObjAddr: 0xC680, symBinAddr: 0x28080, symSize: 0x40 }
  - { offset: 0xDFCD8, size: 0x8, addend: 0x0, symName: __ZNK12QHashPrivate4DataINS_4NodeI7QStringP13KArchiveEntryEEE10shouldGrowEv, symObjAddr: 0xC6C0, symBinAddr: 0x280C0, symSize: 0x30 }
  - { offset: 0xDFCFE, size: 0x8, addend: 0x0, symName: __ZN5QHashI7QStringP13KArchiveEntryE14emplace_helperIJS2_EEENS3_8iteratorEOS0_DpOT_, symObjAddr: 0xC6F0, symBinAddr: 0x280F0, symSize: 0x90 }
  - { offset: 0xDFD5C, size: 0x8, addend: 0x0, symName: __ZN5QHashI7QStringP13KArchiveEntryE14emplace_helperIJRKS2_EEENS3_8iteratorEOS0_DpOT_, symObjAddr: 0xC780, symBinAddr: 0x28180, symSize: 0x90 }
  - { offset: 0xDFDBA, size: 0x8, addend: 0x0, symName: __ZN5QHashI7QStringP13KArchiveEntryEC1ERKS3_, symObjAddr: 0xC810, symBinAddr: 0x28210, symSize: 0x30 }
  - { offset: 0xDFDF3, size: 0x8, addend: 0x0, symName: __ZN5QHashI7QStringP13KArchiveEntryE6detachEv, symObjAddr: 0xC840, symBinAddr: 0x28240, symSize: 0x50 }
  - { offset: 0xDFE19, size: 0x8, addend: 0x0, symName: __ZNK9QtPrivate8RefCount8isSharedEv, symObjAddr: 0xC890, symBinAddr: 0x28290, symSize: 0x40 }
  - { offset: 0xDFE4D, size: 0x8, addend: 0x0, symName: __ZN12QHashPrivate4DataINS_4NodeI7QStringP13KArchiveEntryEEE12findOrInsertIS2_EENS6_15InsertionResultERKT_, symObjAddr: 0xC8D0, symBinAddr: 0x282D0, symSize: 0x190 }
  - { offset: 0xDFEA9, size: 0x8, addend: 0x0, symName: __ZN12QHashPrivate4NodeI7QStringP13KArchiveEntryE13createInPlaceIJS3_EEEvPS4_OS1_DpOT_, symObjAddr: 0xCA60, symBinAddr: 0x28460, symSize: 0x40 }
  - { offset: 0xDFEF3, size: 0x8, addend: 0x0, symName: __ZN12QHashPrivate4NodeI7QStringP13KArchiveEntryE12emplaceValueIJS3_EEEvDpOT_, symObjAddr: 0xCAA0, symBinAddr: 0x284A0, symSize: 0x20 }
  - { offset: 0xDFF32, size: 0x8, addend: 0x0, symName: __ZN5QHashI7QStringP13KArchiveEntryE8iteratorC1EN12QHashPrivate8iteratorINS5_4NodeIS0_S2_EEEE, symObjAddr: 0xCAC0, symBinAddr: 0x284C0, symSize: 0x30 }
  - { offset: 0xDFF6B, size: 0x8, addend: 0x0, symName: __ZN12QHashPrivate4DataINS_4NodeI7QStringP13KArchiveEntryEEE6BucketC1EPNS_4SpanIS5_EEm, symObjAddr: 0xCAF0, symBinAddr: 0x284F0, symSize: 0x30 }
  - { offset: 0xDFFB3, size: 0x8, addend: 0x0, symName: __ZNK12QHashPrivate4DataINS_4NodeI7QStringP13KArchiveEntryEEE6Bucket10toIteratorEPKS6_, symObjAddr: 0xCB20, symBinAddr: 0x28520, symSize: 0x40 }
  - { offset: 0xDFFE8, size: 0x8, addend: 0x0, symName: __ZN12QHashPrivate4DataINS_4NodeI7QStringP13KArchiveEntryEEE6rehashEm, symObjAddr: 0xCB60, symBinAddr: 0x28560, symSize: 0x200 }
  - { offset: 0xE00F5, size: 0x8, addend: 0x0, symName: __ZNK12QHashPrivate4DataINS_4NodeI7QStringP13KArchiveEntryEEE6Bucket6insertEv, symObjAddr: 0xCD60, symBinAddr: 0x28760, symSize: 0x30 }
  - { offset: 0xE011B, size: 0x8, addend: 0x0, symName: __ZN12QHashPrivate4DataINS_4NodeI7QStringP13KArchiveEntryEEE6BucketC2EPNS_4SpanIS5_EEm, symObjAddr: 0xCD90, symBinAddr: 0x28790, symSize: 0x30 }
  - { offset: 0xE0163, size: 0x8, addend: 0x0, symName: __ZNK12QHashPrivate4DataINS_4NodeI7QStringP13KArchiveEntryEEE6Bucket13toBucketIndexEPKS6_, symObjAddr: 0xCDC0, symBinAddr: 0x287C0, symSize: 0x40 }
  - { offset: 0xE0198, size: 0x8, addend: 0x0, symName: __ZN12QHashPrivate4DataINS_4NodeI7QStringP13KArchiveEntryEEE13allocateSpansEm, symObjAddr: 0xCE70, symBinAddr: 0x28870, symSize: 0x100 }
  - { offset: 0xE01EF, size: 0x8, addend: 0x0, symName: __ZN12QHashPrivate4NodeI7QStringP13KArchiveEntryEC1EOS4_, symObjAddr: 0xCF70, symBinAddr: 0x28970, symSize: 0x30 }
  - { offset: 0xE0223, size: 0x8, addend: 0x0, symName: __Z21qCountLeadingZeroBitsm, symObjAddr: 0xCFA0, symBinAddr: 0x289A0, symSize: 0x20 }
  - { offset: 0xE0250, size: 0x8, addend: 0x0, symName: __ZNSt3__114numeric_limitsImE3maxB9nqe210106Ev, symObjAddr: 0xCFC0, symBinAddr: 0x289C0, symSize: 0x10 }
  - { offset: 0xE0268, size: 0x8, addend: 0x0, symName: __ZN3q2011countl_zeroImEENSt3__19enable_ifIXsr3stdE13is_unsigned_vIT_EEiE4typeES3_, symObjAddr: 0xCFD0, symBinAddr: 0x289D0, symSize: 0x30 }
  - { offset: 0xE029F, size: 0x8, addend: 0x0, symName: __ZNSt3__123__libcpp_numeric_limitsImLb1EE3maxB9nqe210106Ev, symObjAddr: 0xD000, symBinAddr: 0x28A00, symSize: 0x10 }
  - { offset: 0xE02B3, size: 0x8, addend: 0x0, symName: __ZN12QHashPrivate4SpanINS_4NodeI7QStringP13KArchiveEntryEEEC1Ev, symObjAddr: 0xD010, symBinAddr: 0x28A10, symSize: 0x20 }
  - { offset: 0xE02DD, size: 0x8, addend: 0x0, symName: __ZN12QHashPrivate4SpanINS_4NodeI7QStringP13KArchiveEntryEEEC2Ev, symObjAddr: 0xD030, symBinAddr: 0x28A30, symSize: 0x40 }
  - { offset: 0xE0307, size: 0x8, addend: 0x0, symName: __ZN12QHashPrivate4NodeI7QStringP13KArchiveEntryEC2EOS4_, symObjAddr: 0xD070, symBinAddr: 0x28A70, symSize: 0x40 }
  - { offset: 0xE033C, size: 0x8, addend: 0x0, symName: __ZN12QHashPrivate4SpanINS_4NodeI7QStringP13KArchiveEntryEEE6insertEm, symObjAddr: 0xD0B0, symBinAddr: 0x28AB0, symSize: 0x110 }
  - { offset: 0xE0380, size: 0x8, addend: 0x0, symName: __ZN12QHashPrivate4SpanINS_4NodeI7QStringP13KArchiveEntryEEE10addStorageEv, symObjAddr: 0xD1C0, symBinAddr: 0x28BC0, symSize: 0x1A0 }
  - { offset: 0xE03E2, size: 0x8, addend: 0x0, symName: __ZN12QHashPrivate4SpanINS_4NodeI7QStringP13KArchiveEntryEEE5Entry8nextFreeEv, symObjAddr: 0xD360, symBinAddr: 0x28D60, symSize: 0x10 }
  - { offset: 0xE0408, size: 0x8, addend: 0x0, symName: __ZN5QHashI7QStringP13KArchiveEntryE8iteratorC2EN12QHashPrivate8iteratorINS5_4NodeIS0_S2_EEEE, symObjAddr: 0xD370, symBinAddr: 0x28D70, symSize: 0x30 }
  - { offset: 0xE0441, size: 0x8, addend: 0x0, symName: __ZN12QHashPrivate4NodeI7QStringP13KArchiveEntryE13createInPlaceIJRKS3_EEEvPS4_OS1_DpOT_, symObjAddr: 0xD3A0, symBinAddr: 0x28DA0, symSize: 0x40 }
  - { offset: 0xE048B, size: 0x8, addend: 0x0, symName: __ZN12QHashPrivate4NodeI7QStringP13KArchiveEntryE12emplaceValueIJRKS3_EEEvDpOT_, symObjAddr: 0xD3E0, symBinAddr: 0x28DE0, symSize: 0x20 }
  - { offset: 0xE04CA, size: 0x8, addend: 0x0, symName: __ZN5QHashI7QStringP13KArchiveEntryEC2ERKS3_, symObjAddr: 0xD400, symBinAddr: 0x28E00, symSize: 0x40 }
  - { offset: 0xE0503, size: 0x8, addend: 0x0, symName: __ZN9QtPrivate8RefCount3refEv, symObjAddr: 0xD440, symBinAddr: 0x28E40, symSize: 0x40 }
  - { offset: 0xE0537, size: 0x8, addend: 0x0, symName: __ZN19QBasicAtomicIntegerIiE3refEv, symObjAddr: 0xD480, symBinAddr: 0x28E80, symSize: 0x30 }
  - { offset: 0xE055D, size: 0x8, addend: 0x0, symName: __ZN10QAtomicOpsIiE3refIiEEbRNSt3__16atomicIT_EE, symObjAddr: 0xD4B0, symBinAddr: 0x28EB0, symSize: 0x30 }
  - { offset: 0xE0589, size: 0x8, addend: 0x0, symName: __ZN12QHashPrivate4DataINS_4NodeI7QStringP13KArchiveEntryEEE8detachedEPS6_, symObjAddr: 0xD4E0, symBinAddr: 0x28EE0, symSize: 0xE0 }
  - { offset: 0xE05BC, size: 0x8, addend: 0x0, symName: __ZN12QHashPrivate4DataINS_4NodeI7QStringP13KArchiveEntryEEEC1Em, symObjAddr: 0xD5C0, symBinAddr: 0x28FC0, symSize: 0x30 }
  - { offset: 0xE05F5, size: 0x8, addend: 0x0, symName: __ZN12QHashPrivate4DataINS_4NodeI7QStringP13KArchiveEntryEEEC1ERKS6_, symObjAddr: 0xD5F0, symBinAddr: 0x28FF0, symSize: 0x30 }
  - { offset: 0xE062E, size: 0x8, addend: 0x0, symName: __ZN12QHashPrivate4DataINS_4NodeI7QStringP13KArchiveEntryEEEC2Em, symObjAddr: 0xD620, symBinAddr: 0x29020, symSize: 0xA0 }
  - { offset: 0xE0667, size: 0x8, addend: 0x0, symName: __ZN19QBasicAtomicIntegerIiEC1Ei, symObjAddr: 0xD6C0, symBinAddr: 0x290C0, symSize: 0x30 }
  - { offset: 0xE0718, size: 0x8, addend: 0x0, symName: __ZNK9QHashSeedcvmEv, symObjAddr: 0xD6F0, symBinAddr: 0x290F0, symSize: 0x20 }
  - { offset: 0xE07D5, size: 0x8, addend: 0x0, symName: __ZN12QHashPrivate4DataINS_4NodeI7QStringP13KArchiveEntryEEEC2ERKS6_, symObjAddr: 0xD880, symBinAddr: 0x29110, symSize: 0x190 }
  - { offset: 0xE08DB, size: 0x8, addend: 0x0, symName: __ZNK12QHashPrivate4SpanINS_4NodeI7QStringP13KArchiveEntryEEE2atEm, symObjAddr: 0xDA10, symBinAddr: 0x292A0, symSize: 0x90 }
  - { offset: 0xE0910, size: 0x8, addend: 0x0, symName: __ZN12QHashPrivate4NodeI7QStringP13KArchiveEntryEC1ERKS4_, symObjAddr: 0xDAA0, symBinAddr: 0x29330, symSize: 0x30 }
  - { offset: 0xE0945, size: 0x8, addend: 0x0, symName: __ZN12QHashPrivate4NodeI7QStringP13KArchiveEntryEC2ERKS4_, symObjAddr: 0xDAD0, symBinAddr: 0x29360, symSize: 0x40 }
  - { offset: 0xE097A, size: 0x8, addend: 0x0, symName: __ZN5QHashI7QStringP13KArchiveEntryE8findImplIS0_EENS3_8iteratorERKT_, symObjAddr: 0xDB10, symBinAddr: 0x293A0, symSize: 0xF0 }
  - { offset: 0xE09D6, size: 0x8, addend: 0x0, symName: __ZNK5QHashI7QStringP13KArchiveEntryE7isEmptyEv, symObjAddr: 0xDC00, symBinAddr: 0x29490, symSize: 0x40 }
  - { offset: 0xE09FC, size: 0x8, addend: 0x0, symName: __ZN5QHashI7QStringP13KArchiveEntryE8iteratorC1Ev, symObjAddr: 0xDC40, symBinAddr: 0x294D0, symSize: 0x20 }
  - { offset: 0xE0A26, size: 0x8, addend: 0x0, symName: __ZN5QHashI7QStringP13KArchiveEntryE8iteratorC2Ev, symObjAddr: 0xDC60, symBinAddr: 0x294F0, symSize: 0x20 }
  - { offset: 0xE0A50, size: 0x8, addend: 0x0, symName: __ZNK5QHashI7QStringP13KArchiveEntryE8constEndEv, symObjAddr: 0xDC80, symBinAddr: 0x29510, symSize: 0x30 }
  - { offset: 0xE0A76, size: 0x8, addend: 0x0, symName: __ZNK12QHashPrivate4DataINS_4NodeI7QStringP13KArchiveEntryEEE16detachedIteratorENS_8iteratorIS5_EE, symObjAddr: 0xDCB0, symBinAddr: 0x29540, symSize: 0x30 }
  - { offset: 0xE0AAB, size: 0x8, addend: 0x0, symName: __ZN12QHashPrivate4DataINS_4NodeI7QStringP13KArchiveEntryEEE6BucketC1ENS_8iteratorIS5_EE, symObjAddr: 0xDCE0, symBinAddr: 0x29570, symSize: 0x30 }
  - { offset: 0xE0AE4, size: 0x8, addend: 0x0, symName: __ZN12QHashPrivate4DataINS_4NodeI7QStringP13KArchiveEntryEEE5eraseENS6_6BucketE, symObjAddr: 0xDD10, symBinAddr: 0x295A0, symSize: 0x1F0 }
  - { offset: 0xE0B65, size: 0x8, addend: 0x0, symName: __ZN5QHashI7QStringP13KArchiveEntryE8iteratorppEv, symObjAddr: 0xDF00, symBinAddr: 0x29790, symSize: 0x30 }
  - { offset: 0xE0B8B, size: 0x8, addend: 0x0, symName: __ZN12QHashPrivate4SpanINS_4NodeI7QStringP13KArchiveEntryEEE5eraseEm, symObjAddr: 0xDF30, symBinAddr: 0x297C0, symSize: 0xE0 }
  - { offset: 0xE0BCF, size: 0x8, addend: 0x0, symName: __ZN12QHashPrivate4SpanINS_4NodeI7QStringP13KArchiveEntryEEE9moveLocalEmm, symObjAddr: 0xE050, symBinAddr: 0x298E0, symSize: 0xA0 }
  - { offset: 0xE0C13, size: 0x8, addend: 0x0, symName: __ZN12QHashPrivate4SpanINS_4NodeI7QStringP13KArchiveEntryEEE12moveFromSpanERS6_mm, symObjAddr: 0xE0F0, symBinAddr: 0x29980, symSize: 0x1F0 }
  - { offset: 0xE0C93, size: 0x8, addend: 0x0, symName: __ZN5QHashI7QStringP13KArchiveEntryE14const_iteratorC2ERKNS3_8iteratorE, symObjAddr: 0xE2E0, symBinAddr: 0x29B70, symSize: 0x30 }
  - { offset: 0xE0CCC, size: 0x8, addend: 0x0, symName: __ZN5QListIPK17KArchiveDirectoryE6appendES2_, symObjAddr: 0xE310, symBinAddr: 0x29BA0, symSize: 0x30 }
  - { offset: 0xE0D01, size: 0x8, addend: 0x0, symName: __ZN5QListIPK17KArchiveDirectoryE11emplaceBackIJRS2_EEES5_DpOT_, symObjAddr: 0xE340, symBinAddr: 0x29BD0, symSize: 0x70 }
  - { offset: 0xE0D41, size: 0x8, addend: 0x0, symName: __ZN9QtPrivate12QPodArrayOpsIPK17KArchiveDirectoryE7emplaceIJRS3_EEEvxDpOT_, symObjAddr: 0xE3B0, symBinAddr: 0x29C40, symSize: 0x140 }
  - { offset: 0xE0DC6, size: 0x8, addend: 0x0, symName: __ZN5QListIPK17KArchiveDirectoryE3endEv, symObjAddr: 0xE4F0, symBinAddr: 0x29D80, symSize: 0x40 }
  - { offset: 0xE0DEC, size: 0x8, addend: 0x0, symName: __ZNK5QListIPK17KArchiveDirectoryE8iteratormiEx, symObjAddr: 0xE530, symBinAddr: 0x29DC0, symSize: 0x40 }
  - { offset: 0xE0E20, size: 0x8, addend: 0x0, symName: __ZNK5QListIPK17KArchiveDirectoryE8iteratordeEv, symObjAddr: 0xE570, symBinAddr: 0x29E00, symSize: 0x20 }
  - { offset: 0xE0E46, size: 0x8, addend: 0x0, symName: __ZNK17QArrayDataPointerIPK17KArchiveDirectoryE11needsDetachEv, symObjAddr: 0xE590, symBinAddr: 0x29E20, symSize: 0x40 }
  - { offset: 0xE0E6C, size: 0x8, addend: 0x0, symName: __ZNK17QArrayDataPointerIPK17KArchiveDirectoryE14freeSpaceAtEndEv, symObjAddr: 0xE5D0, symBinAddr: 0x29E60, symSize: 0x60 }
  - { offset: 0xE0E92, size: 0x8, addend: 0x0, symName: __ZN17QArrayDataPointerIPK17KArchiveDirectoryE3endEv, symObjAddr: 0xE630, symBinAddr: 0x29EC0, symSize: 0x30 }
  - { offset: 0xE0EB8, size: 0x8, addend: 0x0, symName: __ZNK17QArrayDataPointerIPK17KArchiveDirectoryE16freeSpaceAtBeginEv, symObjAddr: 0xE660, symBinAddr: 0x29EF0, symSize: 0x60 }
  - { offset: 0xE0EDE, size: 0x8, addend: 0x0, symName: __ZN17QArrayDataPointerIPK17KArchiveDirectoryE5beginEv, symObjAddr: 0xE6C0, symBinAddr: 0x29F50, symSize: 0x20 }
  - { offset: 0xE0F04, size: 0x8, addend: 0x0, symName: __ZN17QArrayDataPointerIPK17KArchiveDirectoryE13detachAndGrowEN10QArrayData14GrowthPositionExPPKS2_PS3_, symObjAddr: 0xE6E0, symBinAddr: 0x29F70, symSize: 0x100 }
  - { offset: 0xE0F7E, size: 0x8, addend: 0x0, symName: __ZN9QtPrivate12QPodArrayOpsIPK17KArchiveDirectoryE10createHoleEN10QArrayData14GrowthPositionExx, symObjAddr: 0xE7E0, symBinAddr: 0x2A070, symSize: 0x150 }
  - { offset: 0xE0FDC, size: 0x8, addend: 0x0, symName: __ZNK10QArrayData22constAllocatedCapacityEv, symObjAddr: 0xE930, symBinAddr: 0x2A1C0, symSize: 0x20 }
  - { offset: 0xE1002, size: 0x8, addend: 0x0, symName: __ZN17QArrayDataPointerIPK17KArchiveDirectoryE4dataEv, symObjAddr: 0xE950, symBinAddr: 0x2A1E0, symSize: 0x20 }
  - { offset: 0xE1028, size: 0x8, addend: 0x0, symName: __ZN15QTypedArrayDataIPK17KArchiveDirectoryE9dataStartEP10QArrayDatax, symObjAddr: 0xE970, symBinAddr: 0x2A200, symSize: 0x80 }
  - { offset: 0xE1067, size: 0x8, addend: 0x0, symName: __ZN17QArrayDataPointerIPK17KArchiveDirectoryE20tryReadjustFreeSpaceEN10QArrayData14GrowthPositionExPPKS2_, symObjAddr: 0xE9F0, symBinAddr: 0x2A280, symSize: 0x1E0 }
  - { offset: 0xE10F7, size: 0x8, addend: 0x0, symName: __ZN17QArrayDataPointerIPK17KArchiveDirectoryE17reallocateAndGrowEN10QArrayData14GrowthPositionExPS3_, symObjAddr: 0xEBD0, symBinAddr: 0x2A460, symSize: 0x260 }
  - { offset: 0xE1173, size: 0x8, addend: 0x0, symName: __ZNK17QArrayDataPointerIPK17KArchiveDirectoryE22constAllocatedCapacityEv, symObjAddr: 0xEE30, symBinAddr: 0x2A6C0, symSize: 0x40 }
  - { offset: 0xE1198, size: 0x8, addend: 0x0, symName: __Z4qMaxIixEN11QTypeTraits6detail8PromotedIT_T0_NSt3__19enable_ifIXaaaaaaaaaaaaaasr3stdE15is_arithmetic_vIS3_Esr3stdE15is_arithmetic_vIS4_Eeqsr3stdE19is_floating_point_vIS3_Esr3stdE19is_floating_point_vIS4_Eeqsr3stdE11is_signed_vIS3_Esr3stdE11is_signed_vIS4_Entsr3stdE9is_same_vIS3_bEntsr3stdE9is_same_vIS4_bEntsr3stdE9is_same_vIS3_cEntsr3stdE9is_same_vIS4_cEEvE4typeEE4typeERKS3_RKS4_, symObjAddr: 0xEE70, symBinAddr: 0x2A700, symSize: 0x50 }
  - { offset: 0xE120C, size: 0x8, addend: 0x0, symName: __ZN17QArrayDataPointerIPK17KArchiveDirectoryE8relocateExPPKS2_, symObjAddr: 0xEEC0, symBinAddr: 0x2A750, symSize: 0x80 }
  - { offset: 0xE126F, size: 0x8, addend: 0x0, symName: __ZNKSt3__14lessIvEclB9nqe210106IRPKPK17KArchiveDirectoryS8_EEDTltclsr3stdE7forwardIT_Efp_Eclsr3stdE7forwardIT0_Efp0_EEOS9_OSA_, symObjAddr: 0xF110, symBinAddr: 0x2A9A0, symSize: 0x30 }
  - { offset: 0xE12C5, size: 0x8, addend: 0x0, symName: __ZNK17QArrayDataPointerIPK17KArchiveDirectoryE4dataEv, symObjAddr: 0xF140, symBinAddr: 0x2A9D0, symSize: 0x20 }
  - { offset: 0xE12EB, size: 0x8, addend: 0x0, symName: __ZNK17QArrayDataPointerIPK17KArchiveDirectoryE5beginEv, symObjAddr: 0xF180, symBinAddr: 0x2AA10, symSize: 0x20 }
  - { offset: 0xE1311, size: 0x8, addend: 0x0, symName: __ZNK17QArrayDataPointerIPK17KArchiveDirectoryE3endEv, symObjAddr: 0xF1A0, symBinAddr: 0x2AA30, symSize: 0x30 }
  - { offset: 0xE1337, size: 0x8, addend: 0x0, symName: __ZN9QtPrivate12QPodArrayOpsIPK17KArchiveDirectoryE10reallocateExN10QArrayData16AllocationOptionE, symObjAddr: 0xF1D0, symBinAddr: 0x2AA60, symSize: 0x80 }
  - { offset: 0xE138A, size: 0x8, addend: 0x0, symName: __ZN17QArrayDataPointerIPK17KArchiveDirectoryE12allocateGrowERKS3_xN10QArrayData14GrowthPositionE, symObjAddr: 0xF250, symBinAddr: 0x2AAE0, symSize: 0x230 }
  - { offset: 0xE1425, size: 0x8, addend: 0x0, symName: __ZN9QtPrivate12QPodArrayOpsIPK17KArchiveDirectoryE10copyAppendEPKS3_S6_, symObjAddr: 0xF480, symBinAddr: 0x2AD10, symSize: 0x140 }
  - { offset: 0xE1467, size: 0x8, addend: 0x0, symName: __ZN9QtPrivate12QPodArrayOpsIPK17KArchiveDirectoryE10moveAppendEPS3_S5_, symObjAddr: 0xF5C0, symBinAddr: 0x2AE50, symSize: 0x30 }
  - { offset: 0xE14A9, size: 0x8, addend: 0x0, symName: __ZN17QArrayDataPointerIPK17KArchiveDirectoryE4swapERS3_, symObjAddr: 0xF5F0, symBinAddr: 0x2AE80, symSize: 0x60 }
  - { offset: 0xE14DD, size: 0x8, addend: 0x0, symName: __ZN15QTypedArrayDataIPK17KArchiveDirectoryE19reallocateUnalignedEPS3_PS2_xN10QArrayData16AllocationOptionE, symObjAddr: 0xF650, symBinAddr: 0x2AEE0, symSize: 0x70 }
  - { offset: 0xE1544, size: 0x8, addend: 0x0, symName: __ZNSt3__14pairIP15QTypedArrayDataIPK17KArchiveDirectoryEPS4_EC1B9nqe210106IS6_S7_Li0EEEOT_OT0_, symObjAddr: 0xF6C0, symBinAddr: 0x2AF50, symSize: 0x30 }
  - { offset: 0xE15A2, size: 0x8, addend: 0x0, symName: __ZNSt3__14pairIP15QTypedArrayDataIPK17KArchiveDirectoryEPS4_EC2B9nqe210106IS6_S7_Li0EEEOT_OT0_, symObjAddr: 0xF6F0, symBinAddr: 0x2AF80, symSize: 0x30 }
  - { offset: 0xE1600, size: 0x8, addend: 0x0, symName: __ZNK17QArrayDataPointerIPK17KArchiveDirectoryE14detachCapacityEx, symObjAddr: 0xF720, symBinAddr: 0x2AFB0, symSize: 0x50 }
  - { offset: 0xE1635, size: 0x8, addend: 0x0, symName: __ZN15QTypedArrayDataIPK17KArchiveDirectoryE8allocateExN10QArrayData16AllocationOptionE, symObjAddr: 0xF770, symBinAddr: 0x2B000, symSize: 0x60 }
  - { offset: 0xE1682, size: 0x8, addend: 0x0, symName: __ZN17QArrayDataPointerIPK17KArchiveDirectoryEC1EP15QTypedArrayDataIS2_EPS2_x, symObjAddr: 0xF810, symBinAddr: 0x2B0A0, symSize: 0x40 }
  - { offset: 0xE16D6, size: 0x8, addend: 0x0, symName: __ZNK17QArrayDataPointerIPK17KArchiveDirectoryE5flagsEv, symObjAddr: 0xF850, symBinAddr: 0x2B0E0, symSize: 0x40 }
  - { offset: 0xE16FC, size: 0x8, addend: 0x0, symName: __ZNK10QArrayData14detachCapacityEx, symObjAddr: 0xF890, symBinAddr: 0x2B120, symSize: 0x90 }
  - { offset: 0xE1730, size: 0x8, addend: 0x0, symName: __ZNK6QFlagsIN10QArrayData11ArrayOptionEEanES1_, symObjAddr: 0xF920, symBinAddr: 0x2B1B0, symSize: 0x40 }
  - { offset: 0xE1764, size: 0x8, addend: 0x0, symName: __ZNK6QFlagsIN10QArrayData11ArrayOptionEEcvjEv, symObjAddr: 0xF960, symBinAddr: 0x2B1F0, symSize: 0x10 }
  - { offset: 0xE178A, size: 0x8, addend: 0x0, symName: __ZNSt3__110__get_pairILm0EE3getB9nqe210106IP15QTypedArrayDataIPK17KArchiveDirectoryEPS6_EEOT_ONS_4pairISA_T0_EE, symObjAddr: 0xFA20, symBinAddr: 0x2B200, symSize: 0x10 }
  - { offset: 0xE17C0, size: 0x8, addend: 0x0, symName: __ZNSt3__110__get_pairILm1EE3getB9nqe210106IP15QTypedArrayDataIPK17KArchiveDirectoryEPS6_EEOT0_ONS_4pairIT_SA_EE, symObjAddr: 0xFA30, symBinAddr: 0x2B210, symSize: 0x20 }
  - { offset: 0xE17F6, size: 0x8, addend: 0x0, symName: __ZN17QArrayDataPointerIPK17KArchiveDirectoryEC2EP15QTypedArrayDataIS2_EPS2_x, symObjAddr: 0xFA50, symBinAddr: 0x2B230, symSize: 0x40 }
  - { offset: 0xE184A, size: 0x8, addend: 0x0, symName: __ZNK17QArrayDataPointerIPK17KArchiveDirectoryE9isMutableEv, symObjAddr: 0xFAF0, symBinAddr: 0x2B270, symSize: 0x20 }
  - { offset: 0xE1870, size: 0x8, addend: 0x0, symName: __ZNK17QArrayDataPointerIPK17KArchiveDirectoryE8isSharedEv, symObjAddr: 0xFB10, symBinAddr: 0x2B290, symSize: 0x40 }
  - { offset: 0xE1895, size: 0x8, addend: 0x0, symName: __Z11qt_ptr_swapI15QTypedArrayDataIPK17KArchiveDirectoryEEvRPT_S7_, symObjAddr: 0xFB50, symBinAddr: 0x2B2D0, symSize: 0x40 }
  - { offset: 0xE18E2, size: 0x8, addend: 0x0, symName: __Z11qt_ptr_swapIPK17KArchiveDirectoryEvRPT_S5_, symObjAddr: 0xFB90, symBinAddr: 0x2B310, symSize: 0x40 }
  - { offset: 0xE1930, size: 0x8, addend: 0x0, symName: __ZN5QListIPK17KArchiveDirectoryE6detachEv, symObjAddr: 0xFBD0, symBinAddr: 0x2B350, symSize: 0x20 }
  - { offset: 0xE1956, size: 0x8, addend: 0x0, symName: __ZN5QListIPK17KArchiveDirectoryE8iteratorC1EPS2_, symObjAddr: 0xFBF0, symBinAddr: 0x2B370, symSize: 0x30 }
  - { offset: 0xE198E, size: 0x8, addend: 0x0, symName: __ZN17QArrayDataPointerIPK17KArchiveDirectoryE6detachEPS3_, symObjAddr: 0xFC20, symBinAddr: 0x2B3A0, symSize: 0x40 }
  - { offset: 0xE19C2, size: 0x8, addend: 0x0, symName: __ZN5QListIPK17KArchiveDirectoryE8iteratorC2EPS2_, symObjAddr: 0xFC60, symBinAddr: 0x2B3E0, symSize: 0x20 }
  - { offset: 0xE19FA, size: 0x8, addend: 0x0, symName: __ZN5QListI7QStringE6appendERKS0_, symObjAddr: 0xFC80, symBinAddr: 0x2B400, symSize: 0x30 }
  - { offset: 0xE1A2F, size: 0x8, addend: 0x0, symName: __ZN5QListI7QStringE11emplaceBackIJRKS0_EEERS0_DpOT_, symObjAddr: 0xFCB0, symBinAddr: 0x2B430, symSize: 0x70 }
  - { offset: 0xE1A6F, size: 0x8, addend: 0x0, symName: __ZN9QtPrivate16QMovableArrayOpsI7QStringE7emplaceIJRKS1_EEEvxDpOT_, symObjAddr: 0xFD20, symBinAddr: 0x2B4A0, symSize: 0x210 }
  - { offset: 0xE1AFA, size: 0x8, addend: 0x0, symName: __ZN5QListI7QStringE3endEv, symObjAddr: 0xFF30, symBinAddr: 0x2B6B0, symSize: 0x40 }
  - { offset: 0xE1B20, size: 0x8, addend: 0x0, symName: __ZNK5QListI7QStringE8iteratormiEx, symObjAddr: 0xFF70, symBinAddr: 0x2B6F0, symSize: 0x40 }
  - { offset: 0xE1B54, size: 0x8, addend: 0x0, symName: __ZNK5QListI7QStringE8iteratordeEv, symObjAddr: 0xFFB0, symBinAddr: 0x2B730, symSize: 0x20 }
  - { offset: 0xE1B7A, size: 0x8, addend: 0x0, symName: __ZNK17QArrayDataPointerI7QStringE11needsDetachEv, symObjAddr: 0xFFD0, symBinAddr: 0x2B750, symSize: 0x40 }
  - { offset: 0xE1BA0, size: 0x8, addend: 0x0, symName: __ZNK17QArrayDataPointerI7QStringE14freeSpaceAtEndEv, symObjAddr: 0x10010, symBinAddr: 0x2B790, symSize: 0x60 }
  - { offset: 0xE1BC6, size: 0x8, addend: 0x0, symName: __ZNK17QArrayDataPointerI7QStringE16freeSpaceAtBeginEv, symObjAddr: 0x10070, symBinAddr: 0x2B7F0, symSize: 0x60 }
  - { offset: 0xE1BEC, size: 0x8, addend: 0x0, symName: __ZN17QArrayDataPointerI7QStringE13detachAndGrowEN10QArrayData14GrowthPositionExPPKS0_PS1_, symObjAddr: 0x100D0, symBinAddr: 0x2B850, symSize: 0x100 }
  - { offset: 0xE1C8B, size: 0x8, addend: 0x0, symName: __ZN9QtPrivate16QMovableArrayOpsI7QStringE8Inserter9insertOneEOS1_, symObjAddr: 0x10210, symBinAddr: 0x2B950, symSize: 0x40 }
  - { offset: 0xE1CC0, size: 0x8, addend: 0x0, symName: __ZN15QTypedArrayDataI7QStringE9dataStartEP10QArrayDatax, symObjAddr: 0x10270, symBinAddr: 0x2B990, symSize: 0x80 }
  - { offset: 0xE1CFF, size: 0x8, addend: 0x0, symName: __ZN17QArrayDataPointerI7QStringE20tryReadjustFreeSpaceEN10QArrayData14GrowthPositionExPPKS0_, symObjAddr: 0x102F0, symBinAddr: 0x2BA10, symSize: 0x1E0 }
  - { offset: 0xE1D8F, size: 0x8, addend: 0x0, symName: __ZN17QArrayDataPointerI7QStringE17reallocateAndGrowEN10QArrayData14GrowthPositionExPS1_, symObjAddr: 0x104D0, symBinAddr: 0x2BBF0, symSize: 0x260 }
  - { offset: 0xE1E0B, size: 0x8, addend: 0x0, symName: __ZNK17QArrayDataPointerI7QStringE22constAllocatedCapacityEv, symObjAddr: 0x10730, symBinAddr: 0x2BE50, symSize: 0x40 }
  - { offset: 0xE1E31, size: 0x8, addend: 0x0, symName: __ZN17QArrayDataPointerI7QStringE8relocateExPPKS0_, symObjAddr: 0x10770, symBinAddr: 0x2BE90, symSize: 0x80 }
  - { offset: 0xE1E8A, size: 0x8, addend: 0x0, symName: __ZNK17QArrayDataPointerI7QStringE5beginEv, symObjAddr: 0x10A20, symBinAddr: 0x2C050, symSize: 0x20 }
  - { offset: 0xE1EB0, size: 0x8, addend: 0x0, symName: __ZNK17QArrayDataPointerI7QStringE3endEv, symObjAddr: 0x10A40, symBinAddr: 0x2C070, symSize: 0x30 }
  - { offset: 0xE1ED6, size: 0x8, addend: 0x0, symName: __ZN9QtPrivate16QMovableArrayOpsI7QStringE10reallocateExN10QArrayData16AllocationOptionE, symObjAddr: 0x10A70, symBinAddr: 0x2C0A0, symSize: 0x80 }
  - { offset: 0xE1F29, size: 0x8, addend: 0x0, symName: __ZN17QArrayDataPointerI7QStringE12allocateGrowERKS1_xN10QArrayData14GrowthPositionE, symObjAddr: 0x10AF0, symBinAddr: 0x2C120, symSize: 0x230 }
  - { offset: 0xE1FC4, size: 0x8, addend: 0x0, symName: __ZN9QtPrivate16QGenericArrayOpsI7QStringE10copyAppendEPKS1_S4_, symObjAddr: 0x10D20, symBinAddr: 0x2C350, symSize: 0x150 }
  - { offset: 0xE2017, size: 0x8, addend: 0x0, symName: __ZN9QtPrivate16QGenericArrayOpsI7QStringE10moveAppendEPS1_S3_, symObjAddr: 0x10E70, symBinAddr: 0x2C4A0, symSize: 0x150 }
  - { offset: 0xE206A, size: 0x8, addend: 0x0, symName: __ZN15QTypedArrayDataI7QStringE19reallocateUnalignedEPS1_PS0_xN10QArrayData16AllocationOptionE, symObjAddr: 0x10FC0, symBinAddr: 0x2C5F0, symSize: 0x70 }
  - { offset: 0xE20C5, size: 0x8, addend: 0x0, symName: __ZNK17QArrayDataPointerI7QStringE14detachCapacityEx, symObjAddr: 0x11030, symBinAddr: 0x2C660, symSize: 0x50 }
  - { offset: 0xE20FA, size: 0x8, addend: 0x0, symName: __ZNK17QArrayDataPointerI7QStringE5flagsEv, symObjAddr: 0x11100, symBinAddr: 0x2C6B0, symSize: 0x40 }
  - { offset: 0xE2120, size: 0x8, addend: 0x0, symName: __ZN9QtPrivate16QMovableArrayOpsI7QStringE8Inserter10verifyPostEv, symObjAddr: 0x11230, symBinAddr: 0x2C6F0, symSize: 0x40 }
  - { offset: 0xE2146, size: 0x8, addend: 0x0, symName: __ZN5QListI7QStringE6detachEv, symObjAddr: 0x112A0, symBinAddr: 0x2C730, symSize: 0x20 }
  - { offset: 0xE216C, size: 0x8, addend: 0x0, symName: __ZN17QArrayDataPointerI7QStringE6detachEPS1_, symObjAddr: 0x112F0, symBinAddr: 0x2C750, symSize: 0x40 }
  - { offset: 0xE21A0, size: 0x8, addend: 0x0, symName: __ZN5QListIPK17KArchiveDirectoryE8takeLastEv, symObjAddr: 0x11350, symBinAddr: 0x2C790, symSize: 0x70 }
  - { offset: 0xE21D5, size: 0x8, addend: 0x0, symName: __ZN5QListIPK17KArchiveDirectoryE4lastEv, symObjAddr: 0x113C0, symBinAddr: 0x2C800, symSize: 0x70 }
  - { offset: 0xE21FB, size: 0x8, addend: 0x0, symName: __ZN9QtPrivate12QPodArrayOpsIPK17KArchiveDirectoryE9eraseLastEv, symObjAddr: 0x11430, symBinAddr: 0x2C870, symSize: 0x80 }
  - { offset: 0xE2221, size: 0x8, addend: 0x0, symName: __ZN5QListI7QStringE8takeLastEv, symObjAddr: 0x114B0, symBinAddr: 0x2C8F0, symSize: 0x90 }
  - { offset: 0xE2257, size: 0x8, addend: 0x0, symName: __ZNK5QListI7QStringE7isEmptyEv, symObjAddr: 0x11540, symBinAddr: 0x2C980, symSize: 0x30 }
  - { offset: 0xE227D, size: 0x8, addend: 0x0, symName: __ZN5QListI7QStringE4lastEv, symObjAddr: 0x11570, symBinAddr: 0x2C9B0, symSize: 0x70 }
  - { offset: 0xE22A3, size: 0x8, addend: 0x0, symName: __ZN9QtPrivate16QGenericArrayOpsI7QStringE9eraseLastEv, symObjAddr: 0x115E0, symBinAddr: 0x2CA20, symSize: 0x90 }
  - { offset: 0xE22C9, size: 0x8, addend: 0x0, symName: __ZNK5QListI7QStringE4sizeEv, symObjAddr: 0x11670, symBinAddr: 0x2CAB0, symSize: 0x50 }
  - { offset: 0xE2332, size: 0x8, addend: 0x0, symName: __ZZNK5QListI7QStringE4sizeEvENKUlvE_clEv, symObjAddr: 0x116C0, symBinAddr: 0x2CB00, symSize: 0x50 }
  - { offset: 0xE235C, size: 0x8, addend: 0x0, symName: __ZN5QListIPK12KArchiveFileE11emplaceBackIJRS2_EEES5_DpOT_, symObjAddr: 0x11710, symBinAddr: 0x2CB50, symSize: 0x70 }
  - { offset: 0xE239C, size: 0x8, addend: 0x0, symName: __ZN9QtPrivate12QPodArrayOpsIPK12KArchiveFileE7emplaceIJRS3_EEEvxDpOT_, symObjAddr: 0x11780, symBinAddr: 0x2CBC0, symSize: 0x140 }
  - { offset: 0xE2421, size: 0x8, addend: 0x0, symName: __ZNK5QListIPK12KArchiveFileE8iteratormiEx, symObjAddr: 0x118C0, symBinAddr: 0x2CD00, symSize: 0x40 }
  - { offset: 0xE2455, size: 0x8, addend: 0x0, symName: __ZNK5QListIPK12KArchiveFileE8iteratordeEv, symObjAddr: 0x11900, symBinAddr: 0x2CD40, symSize: 0x20 }
  - { offset: 0xE247B, size: 0x8, addend: 0x0, symName: __ZNK17QArrayDataPointerIPK12KArchiveFileE11needsDetachEv, symObjAddr: 0x11920, symBinAddr: 0x2CD60, symSize: 0x40 }
  - { offset: 0xE24A1, size: 0x8, addend: 0x0, symName: __ZNK17QArrayDataPointerIPK12KArchiveFileE14freeSpaceAtEndEv, symObjAddr: 0x11960, symBinAddr: 0x2CDA0, symSize: 0x60 }
  - { offset: 0xE24C7, size: 0x8, addend: 0x0, symName: __ZN17QArrayDataPointerIPK12KArchiveFileE3endEv, symObjAddr: 0x119C0, symBinAddr: 0x2CE00, symSize: 0x30 }
  - { offset: 0xE24ED, size: 0x8, addend: 0x0, symName: __ZNK17QArrayDataPointerIPK12KArchiveFileE16freeSpaceAtBeginEv, symObjAddr: 0x119F0, symBinAddr: 0x2CE30, symSize: 0x60 }
  - { offset: 0xE2513, size: 0x8, addend: 0x0, symName: __ZN17QArrayDataPointerIPK12KArchiveFileE5beginEv, symObjAddr: 0x11A50, symBinAddr: 0x2CE90, symSize: 0x20 }
  - { offset: 0xE2539, size: 0x8, addend: 0x0, symName: __ZN17QArrayDataPointerIPK12KArchiveFileE13detachAndGrowEN10QArrayData14GrowthPositionExPPKS2_PS3_, symObjAddr: 0x11A70, symBinAddr: 0x2CEB0, symSize: 0x100 }
  - { offset: 0xE25B3, size: 0x8, addend: 0x0, symName: __ZN9QtPrivate12QPodArrayOpsIPK12KArchiveFileE10createHoleEN10QArrayData14GrowthPositionExx, symObjAddr: 0x11B70, symBinAddr: 0x2CFB0, symSize: 0x150 }
  - { offset: 0xE2611, size: 0x8, addend: 0x0, symName: __ZN17QArrayDataPointerIPK12KArchiveFileE4dataEv, symObjAddr: 0x11CC0, symBinAddr: 0x2D100, symSize: 0x20 }
  - { offset: 0xE2637, size: 0x8, addend: 0x0, symName: __ZN15QTypedArrayDataIPK12KArchiveFileE9dataStartEP10QArrayDatax, symObjAddr: 0x11CE0, symBinAddr: 0x2D120, symSize: 0x80 }
  - { offset: 0xE2676, size: 0x8, addend: 0x0, symName: __ZN17QArrayDataPointerIPK12KArchiveFileE20tryReadjustFreeSpaceEN10QArrayData14GrowthPositionExPPKS2_, symObjAddr: 0x11D60, symBinAddr: 0x2D1A0, symSize: 0x1E0 }
  - { offset: 0xE2706, size: 0x8, addend: 0x0, symName: __ZN17QArrayDataPointerIPK12KArchiveFileE17reallocateAndGrowEN10QArrayData14GrowthPositionExPS3_, symObjAddr: 0x11F40, symBinAddr: 0x2D380, symSize: 0x260 }
  - { offset: 0xE2782, size: 0x8, addend: 0x0, symName: __ZNK17QArrayDataPointerIPK12KArchiveFileE22constAllocatedCapacityEv, symObjAddr: 0x121A0, symBinAddr: 0x2D5E0, symSize: 0x40 }
  - { offset: 0xE27A8, size: 0x8, addend: 0x0, symName: __ZN17QArrayDataPointerIPK12KArchiveFileE8relocateExPPKS2_, symObjAddr: 0x121E0, symBinAddr: 0x2D620, symSize: 0x80 }
  - { offset: 0xE2801, size: 0x8, addend: 0x0, symName: __ZNKSt3__14lessIvEclB9nqe210106IRPKPK12KArchiveFileS8_EEDTltclsr3stdE7forwardIT_Efp_Eclsr3stdE7forwardIT0_Efp0_EEOS9_OSA_, symObjAddr: 0x12430, symBinAddr: 0x2D870, symSize: 0x30 }
  - { offset: 0xE2857, size: 0x8, addend: 0x0, symName: __ZNK17QArrayDataPointerIPK12KArchiveFileE4dataEv, symObjAddr: 0x12460, symBinAddr: 0x2D8A0, symSize: 0x20 }
  - { offset: 0xE287D, size: 0x8, addend: 0x0, symName: __ZNK17QArrayDataPointerIPK12KArchiveFileE5beginEv, symObjAddr: 0x124A0, symBinAddr: 0x2D8E0, symSize: 0x20 }
  - { offset: 0xE28A3, size: 0x8, addend: 0x0, symName: __ZNK17QArrayDataPointerIPK12KArchiveFileE3endEv, symObjAddr: 0x124C0, symBinAddr: 0x2D900, symSize: 0x30 }
  - { offset: 0xE28C9, size: 0x8, addend: 0x0, symName: __ZN9QtPrivate12QPodArrayOpsIPK12KArchiveFileE10reallocateExN10QArrayData16AllocationOptionE, symObjAddr: 0x124F0, symBinAddr: 0x2D930, symSize: 0x80 }
  - { offset: 0xE291C, size: 0x8, addend: 0x0, symName: __ZN17QArrayDataPointerIPK12KArchiveFileE12allocateGrowERKS3_xN10QArrayData14GrowthPositionE, symObjAddr: 0x12570, symBinAddr: 0x2D9B0, symSize: 0x230 }
  - { offset: 0xE29B7, size: 0x8, addend: 0x0, symName: __ZN9QtPrivate12QPodArrayOpsIPK12KArchiveFileE10copyAppendEPKS3_S6_, symObjAddr: 0x127A0, symBinAddr: 0x2DBE0, symSize: 0x140 }
  - { offset: 0xE29F9, size: 0x8, addend: 0x0, symName: __ZN9QtPrivate12QPodArrayOpsIPK12KArchiveFileE10moveAppendEPS3_S5_, symObjAddr: 0x128E0, symBinAddr: 0x2DD20, symSize: 0x30 }
  - { offset: 0xE2A3B, size: 0x8, addend: 0x0, symName: __ZN17QArrayDataPointerIPK12KArchiveFileE4swapERS3_, symObjAddr: 0x12910, symBinAddr: 0x2DD50, symSize: 0x60 }
  - { offset: 0xE2A6F, size: 0x8, addend: 0x0, symName: __ZN15QTypedArrayDataIPK12KArchiveFileE19reallocateUnalignedEPS3_PS2_xN10QArrayData16AllocationOptionE, symObjAddr: 0x12970, symBinAddr: 0x2DDB0, symSize: 0x70 }
  - { offset: 0xE2AD6, size: 0x8, addend: 0x0, symName: __ZNSt3__14pairIP15QTypedArrayDataIPK12KArchiveFileEPS4_EC1B9nqe210106IS6_S7_Li0EEEOT_OT0_, symObjAddr: 0x129E0, symBinAddr: 0x2DE20, symSize: 0x30 }
  - { offset: 0xE2B34, size: 0x8, addend: 0x0, symName: __ZNSt3__14pairIP15QTypedArrayDataIPK12KArchiveFileEPS4_EC2B9nqe210106IS6_S7_Li0EEEOT_OT0_, symObjAddr: 0x12A10, symBinAddr: 0x2DE50, symSize: 0x30 }
  - { offset: 0xE2B92, size: 0x8, addend: 0x0, symName: __ZNK17QArrayDataPointerIPK12KArchiveFileE14detachCapacityEx, symObjAddr: 0x12A40, symBinAddr: 0x2DE80, symSize: 0x50 }
  - { offset: 0xE2BC7, size: 0x8, addend: 0x0, symName: __ZN15QTypedArrayDataIPK12KArchiveFileE8allocateExN10QArrayData16AllocationOptionE, symObjAddr: 0x12A90, symBinAddr: 0x2DED0, symSize: 0x60 }
  - { offset: 0xE2C14, size: 0x8, addend: 0x0, symName: __ZN17QArrayDataPointerIPK12KArchiveFileEC1EP15QTypedArrayDataIS2_EPS2_x, symObjAddr: 0x12B30, symBinAddr: 0x2DF70, symSize: 0x40 }
  - { offset: 0xE2C68, size: 0x8, addend: 0x0, symName: __ZNK17QArrayDataPointerIPK12KArchiveFileE5flagsEv, symObjAddr: 0x12B70, symBinAddr: 0x2DFB0, symSize: 0x40 }
  - { offset: 0xE2C8E, size: 0x8, addend: 0x0, symName: __ZNSt3__110__get_pairILm0EE3getB9nqe210106IP15QTypedArrayDataIPK12KArchiveFileEPS6_EEOT_ONS_4pairISA_T0_EE, symObjAddr: 0x12BB0, symBinAddr: 0x2DFF0, symSize: 0x10 }
  - { offset: 0xE2CC4, size: 0x8, addend: 0x0, symName: __ZNSt3__110__get_pairILm1EE3getB9nqe210106IP15QTypedArrayDataIPK12KArchiveFileEPS6_EEOT0_ONS_4pairIT_SA_EE, symObjAddr: 0x12BC0, symBinAddr: 0x2E000, symSize: 0x20 }
  - { offset: 0xE2CFA, size: 0x8, addend: 0x0, symName: __ZN17QArrayDataPointerIPK12KArchiveFileEC2EP15QTypedArrayDataIS2_EPS2_x, symObjAddr: 0x12BE0, symBinAddr: 0x2E020, symSize: 0x40 }
  - { offset: 0xE2D4E, size: 0x8, addend: 0x0, symName: __ZNK17QArrayDataPointerIPK12KArchiveFileE9isMutableEv, symObjAddr: 0x12C20, symBinAddr: 0x2E060, symSize: 0x20 }
  - { offset: 0xE2D74, size: 0x8, addend: 0x0, symName: __ZNK17QArrayDataPointerIPK12KArchiveFileE8isSharedEv, symObjAddr: 0x12C40, symBinAddr: 0x2E080, symSize: 0x40 }
  - { offset: 0xE2D99, size: 0x8, addend: 0x0, symName: __Z11qt_ptr_swapI15QTypedArrayDataIPK12KArchiveFileEEvRPT_S7_, symObjAddr: 0x12C80, symBinAddr: 0x2E0C0, symSize: 0x40 }
  - { offset: 0xE2DE6, size: 0x8, addend: 0x0, symName: __Z11qt_ptr_swapIPK12KArchiveFileEvRPT_S5_, symObjAddr: 0x12CC0, symBinAddr: 0x2E100, symSize: 0x40 }
  - { offset: 0xE2E34, size: 0x8, addend: 0x0, symName: __ZN5QListIPK12KArchiveFileE8iteratorC1EPS2_, symObjAddr: 0x12D00, symBinAddr: 0x2E140, symSize: 0x30 }
  - { offset: 0xE2E6C, size: 0x8, addend: 0x0, symName: __ZN5QListIPK12KArchiveFileE8iteratorC2EPS2_, symObjAddr: 0x12D30, symBinAddr: 0x2E170, symSize: 0x20 }
  - { offset: 0xE2EA4, size: 0x8, addend: 0x0, symName: __ZN4QMapIx7QStringE28referenceHoldingDetachExceptERKx, symObjAddr: 0x12D50, symBinAddr: 0x2E190, symSize: 0x170 }
  - { offset: 0xE2EFF, size: 0x8, addend: 0x0, symName: __ZN9QtPrivate30QExplicitlySharedDataPointerV2I8QMapDataINSt3__13mapIx7QStringNS2_4lessIxEENS2_9allocatorINS2_4pairIKxS4_EEEEEEEEptEv, symObjAddr: 0x12EC0, symBinAddr: 0x2E300, symSize: 0x20 }
  - { offset: 0xE2F25, size: 0x8, addend: 0x0, symName: __ZNSt3__13mapIx7QStringNS_4lessIxEENS_9allocatorINS_4pairIKxS1_EEEEE16insert_or_assignB9nqe210106IRKS1_EENS5_INS_14__map_iteratorINS_15__tree_iteratorINS_12__value_typeIxS1_EEPNS_11__tree_nodeISG_PvEElEEEEbEERS6_OT_, symObjAddr: 0x12EE0, symBinAddr: 0x2E320, symSize: 0x170 }
  - { offset: 0xE2F81, size: 0x8, addend: 0x0, symName: __ZN4QMapIx7QStringE8iteratorC1ENSt3__114__map_iteratorINS3_15__tree_iteratorINS3_12__value_typeIxS0_EEPNS3_11__tree_nodeIS7_PvEElEEEE, symObjAddr: 0x13050, symBinAddr: 0x2E490, symSize: 0x30 }
  - { offset: 0xE2FBA, size: 0x8, addend: 0x0, symName: __ZNK9QtPrivate30QExplicitlySharedDataPointerV2I8QMapDataINSt3__13mapIx7QStringNS2_4lessIxEENS2_9allocatorINS2_4pairIKxS4_EEEEEEEEcvbEv, symObjAddr: 0x13080, symBinAddr: 0x2E4C0, symSize: 0x30 }
  - { offset: 0xE2FE0, size: 0x8, addend: 0x0, symName: __ZN9QtPrivate30QExplicitlySharedDataPointerV2I8QMapDataINSt3__13mapIx7QStringNS2_4lessIxEENS2_9allocatorINS2_4pairIKxS4_EEEEEEEE5resetEPSD_, symObjAddr: 0x130B0, symBinAddr: 0x2E4F0, symSize: 0xA0 }
  - { offset: 0xE3014, size: 0x8, addend: 0x0, symName: __ZN8QMapDataINSt3__13mapIx7QStringNS0_4lessIxEENS0_9allocatorINS0_4pairIKxS2_EEEEEEEC1Ev, symObjAddr: 0x13150, symBinAddr: 0x2E590, symSize: 0x20 }
  - { offset: 0xE303E, size: 0x8, addend: 0x0, symName: __ZNK9QtPrivate30QExplicitlySharedDataPointerV2I8QMapDataINSt3__13mapIx7QStringNS2_4lessIxEENS2_9allocatorINS2_4pairIKxS4_EEEEEEEE8isSharedEv, symObjAddr: 0x13170, symBinAddr: 0x2E5B0, symSize: 0x50 }
  - { offset: 0xE3064, size: 0x8, addend: 0x0, symName: __ZN4QMapIx7QStringEC1ERKS1_, symObjAddr: 0x131C0, symBinAddr: 0x2E600, symSize: 0x30 }
  - { offset: 0xE3099, size: 0x8, addend: 0x0, symName: __ZN9QtPrivate30QExplicitlySharedDataPointerV2I8QMapDataINSt3__13mapIx7QStringNS2_4lessIxEENS2_9allocatorINS2_4pairIKxS4_EEEEEEEEC1EPSD_, symObjAddr: 0x131F0, symBinAddr: 0x2E630, symSize: 0x30 }
  - { offset: 0xE30D1, size: 0x8, addend: 0x0, symName: __ZN8QMapDataINSt3__13mapIx7QStringNS0_4lessIxEENS0_9allocatorINS0_4pairIKxS2_EEEEEEE21copyIfNotEquivalentToERKSA_RS7_, symObjAddr: 0x13220, symBinAddr: 0x2E660, symSize: 0x1B0 }
  - { offset: 0xE3189, size: 0x8, addend: 0x0, symName: __ZN9QtPrivate30QExplicitlySharedDataPointerV2I8QMapDataINSt3__13mapIx7QStringNS2_4lessIxEENS2_9allocatorINS2_4pairIKxS4_EEEEEEEE4swapERSE_, symObjAddr: 0x133D0, symBinAddr: 0x2E810, symSize: 0x30 }
  - { offset: 0xE31BD, size: 0x8, addend: 0x0, symName: __ZN2Qt23totally_ordered_wrapperIP8QMapDataINSt3__13mapIx7QStringNS2_4lessIxEENS2_9allocatorINS2_4pairIKxS4_EEEEEEEE5resetESE_, symObjAddr: 0x13400, symBinAddr: 0x2E840, symSize: 0x20 }
  - { offset: 0xE31F2, size: 0x8, addend: 0x0, symName: __ZN8QMapDataINSt3__13mapIx7QStringNS0_4lessIxEENS0_9allocatorINS0_4pairIKxS2_EEEEEEEC2Ev, symObjAddr: 0x13420, symBinAddr: 0x2E860, symSize: 0x30 }
  - { offset: 0xE321C, size: 0x8, addend: 0x0, symName: __ZNSt3__13mapIx7QStringNS_4lessIxEENS_9allocatorINS_4pairIKxS1_EEEEEC1B9nqe210106Ev, symObjAddr: 0x13470, symBinAddr: 0x2E890, symSize: 0x20 }
  - { offset: 0xE3246, size: 0x8, addend: 0x0, symName: __ZNSt3__13mapIx7QStringNS_4lessIxEENS_9allocatorINS_4pairIKxS1_EEEEEC2B9nqe210106Ev, symObjAddr: 0x13520, symBinAddr: 0x2E8B0, symSize: 0x30 }
  - { offset: 0xE3270, size: 0x8, addend: 0x0, symName: __ZNSt3__119__map_value_compareIxNS_4pairIKx7QStringEENS_4lessIxEELb1EEC1B9nqe210106ES6_, symObjAddr: 0x13550, symBinAddr: 0x2E8E0, symSize: 0x20 }
  - { offset: 0xE32A9, size: 0x8, addend: 0x0, symName: __ZNSt3__16__treeINS_12__value_typeIx7QStringEENS_19__map_value_compareIxNS_4pairIKxS2_EENS_4lessIxEELb1EEENS_9allocatorIS7_EEEC1ERKSA_, symObjAddr: 0x13570, symBinAddr: 0x2E900, symSize: 0x30 }
  - { offset: 0xE32E4, size: 0x8, addend: 0x0, symName: __ZNSt3__119__map_value_compareIxNS_4pairIKx7QStringEENS_4lessIxEELb1EEC2B9nqe210106ES6_, symObjAddr: 0x135A0, symBinAddr: 0x2E930, symSize: 0x10 }
  - { offset: 0xE331D, size: 0x8, addend: 0x0, symName: __ZNSt3__16__treeINS_12__value_typeIx7QStringEENS_19__map_value_compareIxNS_4pairIKxS2_EENS_4lessIxEELb1EEENS_9allocatorIS7_EEEC2ERKSA_, symObjAddr: 0x135B0, symBinAddr: 0x2E940, symSize: 0x60 }
  - { offset: 0xE3358, size: 0x8, addend: 0x0, symName: __ZNSt3__19allocatorINS_11__tree_nodeINS_12__value_typeIx7QStringEEPvEEEC1B9nqe210106Ev, symObjAddr: 0x13630, symBinAddr: 0x2E9A0, symSize: 0x20 }
  - { offset: 0xE3382, size: 0x8, addend: 0x0, symName: __ZNSt3__16__treeINS_12__value_typeIx7QStringEENS_19__map_value_compareIxNS_4pairIKxS2_EENS_4lessIxEELb1EEENS_9allocatorIS7_EEE10__end_nodeB9nqe210106Ev, symObjAddr: 0x13650, symBinAddr: 0x2E9C0, symSize: 0x20 }
  - { offset: 0xE33A8, size: 0x8, addend: 0x0, symName: __ZNSt3__16__treeINS_12__value_typeIx7QStringEENS_19__map_value_compareIxNS_4pairIKxS2_EENS_4lessIxEELb1EEENS_9allocatorIS7_EEE12__begin_nodeB9nqe210106Ev, symObjAddr: 0x13670, symBinAddr: 0x2E9E0, symSize: 0x10 }
  - { offset: 0xE33CE, size: 0x8, addend: 0x0, symName: __ZNSt3__19allocatorINS_11__tree_nodeINS_12__value_typeIx7QStringEEPvEEEC2B9nqe210106Ev, symObjAddr: 0x136A0, symBinAddr: 0x2E9F0, symSize: 0x20 }
  - { offset: 0xE33F8, size: 0x8, addend: 0x0, symName: __ZNSt3__116__non_trivial_ifILb1ENS_9allocatorINS_11__tree_nodeINS_12__value_typeIx7QStringEEPvEEEEEC2B9nqe210106Ev, symObjAddr: 0x136C0, symBinAddr: 0x2EA10, symSize: 0x10 }
  - { offset: 0xE3422, size: 0x8, addend: 0x0, symName: __ZN4QMapIx7QStringEC2ERKS1_, symObjAddr: 0x136D0, symBinAddr: 0x2EA20, symSize: 0x30 }
  - { offset: 0xE3457, size: 0x8, addend: 0x0, symName: __ZN9QtPrivate30QExplicitlySharedDataPointerV2I8QMapDataINSt3__13mapIx7QStringNS2_4lessIxEENS2_9allocatorINS2_4pairIKxS4_EEEEEEEEC1ERKSE_, symObjAddr: 0x13700, symBinAddr: 0x2EA50, symSize: 0x30 }
  - { offset: 0xE348F, size: 0x8, addend: 0x0, symName: __ZN9QtPrivate30QExplicitlySharedDataPointerV2I8QMapDataINSt3__13mapIx7QStringNS2_4lessIxEENS2_9allocatorINS2_4pairIKxS4_EEEEEEEEC2ERKSE_, symObjAddr: 0x13730, symBinAddr: 0x2EA80, symSize: 0x50 }
  - { offset: 0xE34C7, size: 0x8, addend: 0x0, symName: __ZN9QtPrivate30QExplicitlySharedDataPointerV2I8QMapDataINSt3__13mapIx7QStringNS2_4lessIxEENS2_9allocatorINS2_4pairIKxS4_EEEEEEEEC2EPSD_, symObjAddr: 0x13780, symBinAddr: 0x2EAD0, symSize: 0x50 }
  - { offset: 0xE34FF, size: 0x8, addend: 0x0, symName: __ZNKSt3__13mapIx7QStringNS_4lessIxEENS_9allocatorINS_4pairIKxS1_EEEEE5emptyB9nqe210106Ev, symObjAddr: 0x137D0, symBinAddr: 0x2EB20, symSize: 0x30 }
  - { offset: 0xE3525, size: 0x8, addend: 0x0, symName: __ZNKSt3__13mapIx7QStringNS_4lessIxEENS_9allocatorINS_4pairIKxS1_EEEEE6cbeginB9nqe210106Ev, symObjAddr: 0x13800, symBinAddr: 0x2EB50, symSize: 0x30 }
  - { offset: 0xE354B, size: 0x8, addend: 0x0, symName: __ZNKSt3__13mapIx7QStringNS_4lessIxEENS_9allocatorINS_4pairIKxS1_EEEEE4cendB9nqe210106Ev, symObjAddr: 0x13830, symBinAddr: 0x2EB80, symSize: 0x30 }
  - { offset: 0xE3571, size: 0x8, addend: 0x0, symName: __ZNKSt3__13mapIx7QStringNS_4lessIxEENS_9allocatorINS_4pairIKxS1_EEEEE8key_compB9nqe210106Ev, symObjAddr: 0x13860, symBinAddr: 0x2EBB0, symSize: 0x30 }
  - { offset: 0xE3597, size: 0x8, addend: 0x0, symName: __ZNKSt3__14lessIxEclB9nqe210106ERKxS3_, symObjAddr: 0x138C0, symBinAddr: 0x2EC10, symSize: 0x30 }
  - { offset: 0xE35DB, size: 0x8, addend: 0x0, symName: __ZNKSt3__120__map_const_iteratorINS_21__tree_const_iteratorINS_12__value_typeIx7QStringEEPNS_11__tree_nodeIS4_PvEElEEEptB9nqe210106Ev, symObjAddr: 0x138F0, symBinAddr: 0x2EC40, symSize: 0x30 }
  - { offset: 0xE360B, size: 0x8, addend: 0x0, symName: __ZZN8QMapDataINSt3__13mapIx7QStringNS0_4lessIxEENS0_9allocatorINS0_4pairIKxS2_EEEEEEE21copyIfNotEquivalentToERKSA_RS7_ENKUlT_E_clINS0_20__map_const_iteratorINS0_21__tree_const_iteratorINS0_12__value_typeIxS2_EEPNS0_11__tree_nodeISL_PvEElEEEEEEDaSF_, symObjAddr: 0x13920, symBinAddr: 0x2EC70, symSize: 0x60 }
  - { offset: 0xE364C, size: 0x8, addend: 0x0, symName: __ZNSt3__120__map_const_iteratorINS_21__tree_const_iteratorINS_12__value_typeIx7QStringEEPNS_11__tree_nodeIS4_PvEElEEEppB9nqe210106Ev, symObjAddr: 0x13980, symBinAddr: 0x2ECD0, symSize: 0x30 }
  - { offset: 0xE3672, size: 0x8, addend: 0x0, symName: __ZNKSt3__16__treeINS_12__value_typeIx7QStringEENS_19__map_value_compareIxNS_4pairIKxS2_EENS_4lessIxEELb1EEENS_9allocatorIS7_EEE4sizeB9nqe210106Ev, symObjAddr: 0x139B0, symBinAddr: 0x2ED00, symSize: 0x20 }
  - { offset: 0xE3698, size: 0x8, addend: 0x0, symName: __ZNKSt3__13mapIx7QStringNS_4lessIxEENS_9allocatorINS_4pairIKxS1_EEEEE5beginB9nqe210106Ev, symObjAddr: 0x139D0, symBinAddr: 0x2ED20, symSize: 0x30 }
  - { offset: 0xE36BE, size: 0x8, addend: 0x0, symName: __ZNKSt3__16__treeINS_12__value_typeIx7QStringEENS_19__map_value_compareIxNS_4pairIKxS2_EENS_4lessIxEELb1EEENS_9allocatorIS7_EEE5beginB9nqe210106Ev, symObjAddr: 0x13A00, symBinAddr: 0x2ED50, symSize: 0x30 }
  - { offset: 0xE36E4, size: 0x8, addend: 0x0, symName: __ZNSt3__120__map_const_iteratorINS_21__tree_const_iteratorINS_12__value_typeIx7QStringEEPNS_11__tree_nodeIS4_PvEElEEEC1B9nqe210106ES9_, symObjAddr: 0x13A30, symBinAddr: 0x2ED80, symSize: 0x30 }
  - { offset: 0xE371D, size: 0x8, addend: 0x0, symName: __ZNKSt3__16__treeINS_12__value_typeIx7QStringEENS_19__map_value_compareIxNS_4pairIKxS2_EENS_4lessIxEELb1EEENS_9allocatorIS7_EEE12__begin_nodeB9nqe210106Ev, symObjAddr: 0x13A60, symBinAddr: 0x2EDB0, symSize: 0x10 }
  - { offset: 0xE3743, size: 0x8, addend: 0x0, symName: __ZNSt3__121__tree_const_iteratorINS_12__value_typeIx7QStringEEPNS_11__tree_nodeIS3_PvEElEC1B9nqe210106EPNS_15__tree_end_nodeIPNS_16__tree_node_baseIS5_EEEE, symObjAddr: 0x13A70, symBinAddr: 0x2EDC0, symSize: 0x30 }
  - { offset: 0xE377C, size: 0x8, addend: 0x0, symName: __ZNSt3__121__tree_const_iteratorINS_12__value_typeIx7QStringEEPNS_11__tree_nodeIS3_PvEElEC2B9nqe210106EPNS_15__tree_end_nodeIPNS_16__tree_node_baseIS5_EEEE, symObjAddr: 0x13AA0, symBinAddr: 0x2EDF0, symSize: 0x20 }
  - { offset: 0xE37B5, size: 0x8, addend: 0x0, symName: __ZNSt3__120__map_const_iteratorINS_21__tree_const_iteratorINS_12__value_typeIx7QStringEEPNS_11__tree_nodeIS4_PvEElEEEC2B9nqe210106ES9_, symObjAddr: 0x13AC0, symBinAddr: 0x2EE10, symSize: 0x20 }
  - { offset: 0xE37EE, size: 0x8, addend: 0x0, symName: __ZNKSt3__13mapIx7QStringNS_4lessIxEENS_9allocatorINS_4pairIKxS1_EEEEE3endB9nqe210106Ev, symObjAddr: 0x13AE0, symBinAddr: 0x2EE30, symSize: 0x30 }
  - { offset: 0xE3814, size: 0x8, addend: 0x0, symName: __ZNKSt3__16__treeINS_12__value_typeIx7QStringEENS_19__map_value_compareIxNS_4pairIKxS2_EENS_4lessIxEELb1EEENS_9allocatorIS7_EEE3endB9nqe210106Ev, symObjAddr: 0x13B10, symBinAddr: 0x2EE60, symSize: 0x30 }
  - { offset: 0xE383A, size: 0x8, addend: 0x0, symName: __ZNKSt3__16__treeINS_12__value_typeIx7QStringEENS_19__map_value_compareIxNS_4pairIKxS2_EENS_4lessIxEELb1EEENS_9allocatorIS7_EEE10value_compB9nqe210106Ev, symObjAddr: 0x13B40, symBinAddr: 0x2EE90, symSize: 0x20 }
  - { offset: 0xE3860, size: 0x8, addend: 0x0, symName: __ZNKSt3__119__map_value_compareIxNS_4pairIKx7QStringEENS_4lessIxEELb1EE8key_compB9nqe210106Ev, symObjAddr: 0x13B60, symBinAddr: 0x2EEB0, symSize: 0x10 }
  - { offset: 0xE3886, size: 0x8, addend: 0x0, symName: __ZNSt3__114pointer_traitsIPKNS_4pairIKx7QStringEEE10pointer_toB9nqe210106ERS5_, symObjAddr: 0x13BD0, symBinAddr: 0x2EF20, symSize: 0x10 }
  - { offset: 0xE38A9, size: 0x8, addend: 0x0, symName: __ZNKSt3__121__tree_const_iteratorINS_12__value_typeIx7QStringEEPNS_11__tree_nodeIS3_PvEElEdeB9nqe210106Ev, symObjAddr: 0x13BE0, symBinAddr: 0x2EF30, symSize: 0x20 }
  - { offset: 0xE38CF, size: 0x8, addend: 0x0, symName: __ZNKSt3__121__tree_const_iteratorINS_12__value_typeIx7QStringEEPNS_11__tree_nodeIS3_PvEElE8__get_npB9nqe210106Ev, symObjAddr: 0x13C00, symBinAddr: 0x2EF50, symSize: 0x20 }
  - { offset: 0xE38F5, size: 0x8, addend: 0x0, symName: __ZNSt3__13mapIx7QStringNS_4lessIxEENS_9allocatorINS_4pairIKxS1_EEEEE6insertB9nqe210106ENS_20__map_const_iteratorINS_21__tree_const_iteratorINS_12__value_typeIxS1_EEPNS_11__tree_nodeISD_PvEElEEEERKS7_, symObjAddr: 0x13C20, symBinAddr: 0x2EF70, symSize: 0x50 }
  - { offset: 0xE3939, size: 0x8, addend: 0x0, symName: __ZNKSt3__120__map_const_iteratorINS_21__tree_const_iteratorINS_12__value_typeIx7QStringEEPNS_11__tree_nodeIS4_PvEElEEEdeB9nqe210106Ev, symObjAddr: 0x13C70, symBinAddr: 0x2EFC0, symSize: 0x20 }
  - { offset: 0xE395F, size: 0x8, addend: 0x0, symName: __ZNSt3__16__treeINS_12__value_typeIx7QStringEENS_19__map_value_compareIxNS_4pairIKxS2_EENS_4lessIxEELb1EEENS_9allocatorIS7_EEE21__emplace_hint_uniqueB9nqe210106IRKS7_EENS_15__tree_iteratorIS3_PNS_11__tree_nodeIS3_PvEElEENS_21__tree_const_iteratorIS3_SL_lEEOT_, symObjAddr: 0x13C90, symBinAddr: 0x2EFE0, symSize: 0x40 }
  - { offset: 0xE39AC, size: 0x8, addend: 0x0, symName: __ZNSt3__114__map_iteratorINS_15__tree_iteratorINS_12__value_typeIx7QStringEEPNS_11__tree_nodeIS4_PvEElEEEC1B9nqe210106ES9_, symObjAddr: 0x13CD0, symBinAddr: 0x2F020, symSize: 0x30 }
  - { offset: 0xE39E5, size: 0x8, addend: 0x0, symName: __ZNSt3__16__treeINS_12__value_typeIx7QStringEENS_19__map_value_compareIxNS_4pairIKxS2_EENS_4lessIxEELb1EEENS_9allocatorIS7_EEE33__emplace_hint_unique_extract_keyB9nqe210106IRKS7_EENS_15__tree_iteratorIS3_PNS_11__tree_nodeIS3_PvEElEENS_21__tree_const_iteratorIS3_SL_lEEOT_NS_23__extract_key_first_tagE, symObjAddr: 0x13D00, symBinAddr: 0x2F050, symSize: 0x60 }
  - { offset: 0xE3A3E, size: 0x8, addend: 0x0, symName: __ZNSt3__16__treeINS_12__value_typeIx7QStringEENS_19__map_value_compareIxNS_4pairIKxS2_EENS_4lessIxEELb1EEENS_9allocatorIS7_EEE30__emplace_hint_unique_key_argsIxJRKS7_EEENS5_INS_15__tree_iteratorIS3_PNS_11__tree_nodeIS3_PvEElEEbEENS_21__tree_const_iteratorIS3_SL_lEERKT_DpOT0_, symObjAddr: 0x13D60, symBinAddr: 0x2F0B0, symSize: 0x110 }
  - { offset: 0xE3B12, size: 0x8, addend: 0x0, symName: __ZNSt3__16__treeINS_12__value_typeIx7QStringEENS_19__map_value_compareIxNS_4pairIKxS2_EENS_4lessIxEELb1EEENS_9allocatorIS7_EEE12__find_equalIxEERPNS_16__tree_node_baseIPvEENS_21__tree_const_iteratorIS3_PNS_11__tree_nodeIS3_SG_EElEERPNS_15__tree_end_nodeISI_EESJ_RKT_, symObjAddr: 0x13E70, symBinAddr: 0x2F1C0, symSize: 0x2F0 }
  - { offset: 0xE3BBB, size: 0x8, addend: 0x0, symName: __ZNSt3__16__treeINS_12__value_typeIx7QStringEENS_19__map_value_compareIxNS_4pairIKxS2_EENS_4lessIxEELb1EEENS_9allocatorIS7_EEE16__construct_nodeIJRKS7_EEENS_10unique_ptrINS_11__tree_nodeIS3_PvEENS_22__tree_node_destructorINSB_ISK_EEEEEEDpOT_, symObjAddr: 0x14160, symBinAddr: 0x2F4B0, symSize: 0xE0 }
  - { offset: 0xE3C1A, size: 0x8, addend: 0x0, symName: __ZNSt3__16__treeINS_12__value_typeIx7QStringEENS_19__map_value_compareIxNS_4pairIKxS2_EENS_4lessIxEELb1EEENS_9allocatorIS7_EEE16__insert_node_atEPNS_15__tree_end_nodeIPNS_16__tree_node_baseIPvEEEERSI_SI_, symObjAddr: 0x14240, symBinAddr: 0x2F590, symSize: 0xB0 }
  - { offset: 0xE3C6F, size: 0x8, addend: 0x0, symName: __ZNKSt3__110unique_ptrINS_11__tree_nodeINS_12__value_typeIx7QStringEEPvEENS_22__tree_node_destructorINS_9allocatorIS6_EEEEE3getB9nqe210106Ev, symObjAddr: 0x142F0, symBinAddr: 0x2F640, symSize: 0x20 }
  - { offset: 0xE3C95, size: 0x8, addend: 0x0, symName: __ZNSt3__110unique_ptrINS_11__tree_nodeINS_12__value_typeIx7QStringEEPvEENS_22__tree_node_destructorINS_9allocatorIS6_EEEEE7releaseB9nqe210106Ev, symObjAddr: 0x14310, symBinAddr: 0x2F660, symSize: 0x20 }
  - { offset: 0xE3CCA, size: 0x8, addend: 0x0, symName: __ZNSt3__110unique_ptrINS_11__tree_nodeINS_12__value_typeIx7QStringEEPvEENS_22__tree_node_destructorINS_9allocatorIS6_EEEEED1B9nqe210106Ev, symObjAddr: 0x14330, symBinAddr: 0x2F680, symSize: 0x20 }
  - { offset: 0xE3CF4, size: 0x8, addend: 0x0, symName: __ZNSt3__115__tree_iteratorINS_12__value_typeIx7QStringEEPNS_11__tree_nodeIS3_PvEElEC1B9nqe210106ES7_, symObjAddr: 0x14350, symBinAddr: 0x2F6A0, symSize: 0x30 }
  - { offset: 0xE3D33, size: 0x8, addend: 0x0, symName: __ZNSt3__14pairINS_15__tree_iteratorINS_12__value_typeIx7QStringEEPNS_11__tree_nodeIS4_PvEElEEbEC1B9nqe210106IS9_RbLi0EEEOT_OT0_, symObjAddr: 0x14380, symBinAddr: 0x2F6D0, symSize: 0x30 }
  - { offset: 0xE3D91, size: 0x8, addend: 0x0, symName: __ZNSt3__16__treeINS_12__value_typeIx7QStringEENS_19__map_value_compareIxNS_4pairIKxS2_EENS_4lessIxEELb1EEENS_9allocatorIS7_EEE3endB9nqe210106Ev, symObjAddr: 0x143B0, symBinAddr: 0x2F700, symSize: 0x30 }
  - { offset: 0xE3DB7, size: 0x8, addend: 0x0, symName: __ZNSt3__121__tree_const_iteratorINS_12__value_typeIx7QStringEEPNS_11__tree_nodeIS3_PvEElEC1B9nqe210106ENS_15__tree_iteratorIS3_S7_lEE, symObjAddr: 0x143E0, symBinAddr: 0x2F730, symSize: 0x30 }
  - { offset: 0xE3DF0, size: 0x8, addend: 0x0, symName: __ZNSt3__16__treeINS_12__value_typeIx7QStringEENS_19__map_value_compareIxNS_4pairIKxS2_EENS_4lessIxEELb1EEENS_9allocatorIS7_EEE10value_compB9nqe210106Ev, symObjAddr: 0x14410, symBinAddr: 0x2F760, symSize: 0x20 }
  - { offset: 0xE3E16, size: 0x8, addend: 0x0, symName: __ZNKSt3__119__map_value_compareIxNS_4pairIKx7QStringEENS_4lessIxEELb1EEclB9nqe210106ERS2_RKS4_, symObjAddr: 0x14430, symBinAddr: 0x2F780, symSize: 0x30 }
  - { offset: 0xE3E5A, size: 0x8, addend: 0x0, symName: __ZNSt3__16__treeINS_12__value_typeIx7QStringEENS_19__map_value_compareIxNS_4pairIKxS2_EENS_4lessIxEELb1EEENS_9allocatorIS7_EEE5beginB9nqe210106Ev, symObjAddr: 0x14460, symBinAddr: 0x2F7B0, symSize: 0x30 }
  - { offset: 0xE3E80, size: 0x8, addend: 0x0, symName: __ZNKSt3__119__map_value_compareIxNS_4pairIKx7QStringEENS_4lessIxEELb1EEclB9nqe210106ERKS4_RS2_, symObjAddr: 0x14490, symBinAddr: 0x2F7E0, symSize: 0x30 }
  - { offset: 0xE3EC4, size: 0x8, addend: 0x0, symName: __ZNSt3__121__tree_const_iteratorINS_12__value_typeIx7QStringEEPNS_11__tree_nodeIS3_PvEElEmmB9nqe210106Ev, symObjAddr: 0x144C0, symBinAddr: 0x2F810, symSize: 0x30 }
  - { offset: 0xE3EEA, size: 0x8, addend: 0x0, symName: __ZNSt3__16__treeINS_12__value_typeIx7QStringEENS_19__map_value_compareIxNS_4pairIKxS2_EENS_4lessIxEELb1EEENS_9allocatorIS7_EEE12__find_equalIxEERPNS_16__tree_node_baseIPvEERPNS_15__tree_end_nodeISI_EERKT_, symObjAddr: 0x144F0, symBinAddr: 0x2F840, symSize: 0x150 }
  - { offset: 0xE3F55, size: 0x8, addend: 0x0, symName: __ZNSt3__115__tree_iteratorINS_12__value_typeIx7QStringEEPNS_11__tree_nodeIS3_PvEElEC1B9nqe210106EPNS_15__tree_end_nodeIPNS_16__tree_node_baseIS5_EEEE, symObjAddr: 0x14670, symBinAddr: 0x2F9C0, symSize: 0x30 }
  - { offset: 0xE3F8E, size: 0x8, addend: 0x0, symName: __ZNSt3__115__tree_iteratorINS_12__value_typeIx7QStringEEPNS_11__tree_nodeIS3_PvEElEC2B9nqe210106EPNS_15__tree_end_nodeIPNS_16__tree_node_baseIS5_EEEE, symObjAddr: 0x146A0, symBinAddr: 0x2F9F0, symSize: 0x20 }
  - { offset: 0xE3FC7, size: 0x8, addend: 0x0, symName: __ZNSt3__121__tree_const_iteratorINS_12__value_typeIx7QStringEEPNS_11__tree_nodeIS3_PvEElEC2B9nqe210106ENS_15__tree_iteratorIS3_S7_lEE, symObjAddr: 0x146C0, symBinAddr: 0x2FA10, symSize: 0x20 }
  - { offset: 0xE4000, size: 0x8, addend: 0x0, symName: __ZNKSt3__16__treeINS_12__value_typeIx7QStringEENS_19__map_value_compareIxNS_4pairIKxS2_EENS_4lessIxEELb1EEENS_9allocatorIS7_EEE10__root_ptrB9nqe210106Ev, symObjAddr: 0x147E0, symBinAddr: 0x2FA30, symSize: 0x20 }
  - { offset: 0xE4026, size: 0x8, addend: 0x0, symName: __ZNSt3__121__tree_const_iteratorINS_12__value_typeIx7QStringEEPNS_11__tree_nodeIS3_PvEElEppB9nqe210106Ev, symObjAddr: 0x148B0, symBinAddr: 0x2FAF0, symSize: 0x30 }
  - { offset: 0xE404C, size: 0x8, addend: 0x0, symName: __ZNSt3__116allocator_traitsINS_9allocatorINS_11__tree_nodeINS_12__value_typeIx7QStringEEPvEEEEE8allocateB9nqe210106ERS8_m, symObjAddr: 0x14980, symBinAddr: 0x2FB20, symSize: 0x30 }
  - { offset: 0xE407F, size: 0x8, addend: 0x0, symName: __ZNSt3__122__tree_node_destructorINS_9allocatorINS_11__tree_nodeINS_12__value_typeIx7QStringEEPvEEEEEC1B9nqe210106ERS8_b, symObjAddr: 0x149B0, symBinAddr: 0x2FB50, symSize: 0x40 }
  - { offset: 0xE40CD, size: 0x8, addend: 0x0, symName: __ZNSt3__110unique_ptrINS_11__tree_nodeINS_12__value_typeIx7QStringEEPvEENS_22__tree_node_destructorINS_9allocatorIS6_EEEEEC1B9nqe210106ILb1EvEEPS6_NS_16__dependent_typeINS_27__unique_ptr_deleter_sfinaeISA_EEXT_EE20__good_rval_ref_typeE, symObjAddr: 0x149F0, symBinAddr: 0x2FB90, symSize: 0x30 }
  - { offset: 0xE411F, size: 0x8, addend: 0x0, symName: __ZNSt3__116allocator_traitsINS_9allocatorINS_11__tree_nodeINS_12__value_typeIx7QStringEEPvEEEEE9constructB9nqe210106INS_4pairIKxS4_EEJRKSD_ELi0EEEvRS8_PT_DpOT0_, symObjAddr: 0x14A20, symBinAddr: 0x2FBC0, symSize: 0x30 }
  - { offset: 0xE417B, size: 0x8, addend: 0x0, symName: __ZNKSt3__110unique_ptrINS_11__tree_nodeINS_12__value_typeIx7QStringEEPvEENS_22__tree_node_destructorINS_9allocatorIS6_EEEEEptB9nqe210106Ev, symObjAddr: 0x14A50, symBinAddr: 0x2FBF0, symSize: 0x20 }
  - { offset: 0xE41A1, size: 0x8, addend: 0x0, symName: __ZNSt3__110unique_ptrINS_11__tree_nodeINS_12__value_typeIx7QStringEEPvEENS_22__tree_node_destructorINS_9allocatorIS6_EEEEE11get_deleterB9nqe210106Ev, symObjAddr: 0x14A70, symBinAddr: 0x2FC10, symSize: 0x20 }
  - { offset: 0xE41C7, size: 0x8, addend: 0x0, symName: __ZNSt3__19allocatorINS_11__tree_nodeINS_12__value_typeIx7QStringEEPvEEE8allocateB9nqe210106Em, symObjAddr: 0x14A90, symBinAddr: 0x2FC30, symSize: 0x50 }
  - { offset: 0xE4206, size: 0x8, addend: 0x0, symName: __ZNSt3__116allocator_traitsINS_9allocatorINS_11__tree_nodeINS_12__value_typeIx7QStringEEPvEEEEE8max_sizeB9nqe210106IS8_Li0EEEmRKS8_, symObjAddr: 0x14AE0, symBinAddr: 0x2FC80, symSize: 0x20 }
  - { offset: 0xE4239, size: 0x8, addend: 0x0, symName: __ZNKSt3__19allocatorINS_11__tree_nodeINS_12__value_typeIx7QStringEEPvEEE8max_sizeB9nqe210106Ev, symObjAddr: 0x14BA0, symBinAddr: 0x2FD00, symSize: 0x20 }
  - { offset: 0xE425F, size: 0x8, addend: 0x0, symName: __ZNSt3__122__tree_node_destructorINS_9allocatorINS_11__tree_nodeINS_12__value_typeIx7QStringEEPvEEEEEC2B9nqe210106ERS8_b, symObjAddr: 0x14BC0, symBinAddr: 0x2FD20, symSize: 0x30 }
  - { offset: 0xE42A7, size: 0x8, addend: 0x0, symName: __ZNSt3__110unique_ptrINS_11__tree_nodeINS_12__value_typeIx7QStringEEPvEENS_22__tree_node_destructorINS_9allocatorIS6_EEEEEC2B9nqe210106ILb1EvEEPS6_NS_16__dependent_typeINS_27__unique_ptr_deleter_sfinaeISA_EEXT_EE20__good_rval_ref_typeE, symObjAddr: 0x14BF0, symBinAddr: 0x2FD50, symSize: 0x50 }
  - { offset: 0xE42FE, size: 0x8, addend: 0x0, symName: __ZNSt3__125__compressed_pair_paddingINS_22__tree_node_destructorINS_9allocatorINS_11__tree_nodeINS_12__value_typeIx7QStringEEPvEEEEEELb0EEC1Ev, symObjAddr: 0x14C40, symBinAddr: 0x2FDA0, symSize: 0x20 }
  - { offset: 0xE432A, size: 0x8, addend: 0x0, symName: __ZNSt3__125__compressed_pair_paddingINS_22__tree_node_destructorINS_9allocatorINS_11__tree_nodeINS_12__value_typeIx7QStringEEPvEEEEEELb0EEC2Ev, symObjAddr: 0x14C60, symBinAddr: 0x2FDC0, symSize: 0x40 }
  - { offset: 0xE4356, size: 0x8, addend: 0x0, symName: __ZNSt3__19allocatorINS_11__tree_nodeINS_12__value_typeIx7QStringEEPvEEE9constructB9nqe210106INS_4pairIKxS3_EEJRKSB_EEEvPT_DpOT0_, symObjAddr: 0x14CA0, symBinAddr: 0x2FE00, symSize: 0x30 }
  - { offset: 0xE43AC, size: 0x8, addend: 0x0, symName: __ZNSt3__14pairIKx7QStringEC1B9nqe210106ERKS3_, symObjAddr: 0x14CD0, symBinAddr: 0x2FE30, symSize: 0x30 }
  - { offset: 0xE43E1, size: 0x8, addend: 0x0, symName: __ZNSt3__14pairIKx7QStringEC2B9nqe210106ERKS3_, symObjAddr: 0x14D00, symBinAddr: 0x2FE60, symSize: 0x40 }
  - { offset: 0xE4416, size: 0x8, addend: 0x0, symName: __ZNSt3__16__treeINS_12__value_typeIx7QStringEENS_19__map_value_compareIxNS_4pairIKxS2_EENS_4lessIxEELb1EEENS_9allocatorIS7_EEE4sizeB9nqe210106Ev, symObjAddr: 0x14F50, symBinAddr: 0x2FEA0, symSize: 0x20 }
  - { offset: 0xE443C, size: 0x8, addend: 0x0, symName: __ZNSt3__110unique_ptrINS_11__tree_nodeINS_12__value_typeIx7QStringEEPvEENS_22__tree_node_destructorINS_9allocatorIS6_EEEEED2B9nqe210106Ev, symObjAddr: 0x15100, symBinAddr: 0x2FEC0, symSize: 0x20 }
  - { offset: 0xE4466, size: 0x8, addend: 0x0, symName: __ZNSt3__110unique_ptrINS_11__tree_nodeINS_12__value_typeIx7QStringEEPvEENS_22__tree_node_destructorINS_9allocatorIS6_EEEEE5resetB9nqe210106EPS6_, symObjAddr: 0x15120, symBinAddr: 0x2FEE0, symSize: 0x50 }
  - { offset: 0xE44AA, size: 0x8, addend: 0x0, symName: __ZNSt3__122__tree_node_destructorINS_9allocatorINS_11__tree_nodeINS_12__value_typeIx7QStringEEPvEEEEEclB9nqe210106EPS7_, symObjAddr: 0x15170, symBinAddr: 0x2FF30, symSize: 0x60 }
  - { offset: 0xE44DF, size: 0x8, addend: 0x0, symName: __ZNSt3__115__tree_iteratorINS_12__value_typeIx7QStringEEPNS_11__tree_nodeIS3_PvEElEC2B9nqe210106ES7_, symObjAddr: 0x151D0, symBinAddr: 0x2FF90, symSize: 0x20 }
  - { offset: 0xE4518, size: 0x8, addend: 0x0, symName: __ZNSt3__14pairINS_15__tree_iteratorINS_12__value_typeIx7QStringEEPNS_11__tree_nodeIS4_PvEElEEbEC2B9nqe210106IS9_RbLi0EEEOT_OT0_, symObjAddr: 0x151F0, symBinAddr: 0x2FFB0, symSize: 0x30 }
  - { offset: 0xE4576, size: 0x8, addend: 0x0, symName: __ZNSt3__114__map_iteratorINS_15__tree_iteratorINS_12__value_typeIx7QStringEEPNS_11__tree_nodeIS4_PvEElEEEC2B9nqe210106ES9_, symObjAddr: 0x15220, symBinAddr: 0x2FFE0, symSize: 0x20 }
  - { offset: 0xE45AE, size: 0x8, addend: 0x0, symName: __Z11qt_ptr_swapI8QMapDataINSt3__13mapIx7QStringNS1_4lessIxEENS1_9allocatorINS1_4pairIKxS3_EEEEEEEEvRPT_SF_, symObjAddr: 0x15270, symBinAddr: 0x30030, symSize: 0x40 }
  - { offset: 0xE45FC, size: 0x8, addend: 0x0, symName: __ZNSt3__13mapIx7QStringNS_4lessIxEENS_9allocatorINS_4pairIKxS1_EEEEE11lower_boundB9nqe210106ERS6_, symObjAddr: 0x152B0, symBinAddr: 0x30070, symSize: 0x40 }
  - { offset: 0xE4631, size: 0x8, addend: 0x0, symName: __ZNSt3__13mapIx7QStringNS_4lessIxEENS_9allocatorINS_4pairIKxS1_EEEEE3endB9nqe210106Ev, symObjAddr: 0x15320, symBinAddr: 0x300E0, symSize: 0x30 }
  - { offset: 0xE4657, size: 0x8, addend: 0x0, symName: __ZNKSt3__114__map_iteratorINS_15__tree_iteratorINS_12__value_typeIx7QStringEEPNS_11__tree_nodeIS4_PvEElEEEptB9nqe210106Ev, symObjAddr: 0x15350, symBinAddr: 0x30110, symSize: 0x30 }
  - { offset: 0xE467D, size: 0x8, addend: 0x0, symName: __ZNSt3__13mapIx7QStringNS_4lessIxEENS_9allocatorINS_4pairIKxS1_EEEEE12emplace_hintB9nqe210106IJRS6_RKS1_EEENS_14__map_iteratorINS_15__tree_iteratorINS_12__value_typeIxS1_EEPNS_11__tree_nodeISH_PvEElEEEENS_20__map_const_iteratorINS_21__tree_const_iteratorISH_SL_lEEEEDpOT_, symObjAddr: 0x153E0, symBinAddr: 0x301A0, symSize: 0x50 }
  - { offset: 0xE46E0, size: 0x8, addend: 0x0, symName: __ZNSt3__120__map_const_iteratorINS_21__tree_const_iteratorINS_12__value_typeIx7QStringEEPNS_11__tree_nodeIS4_PvEElEEEC1B9nqe210106ENS_14__map_iteratorINS_15__tree_iteratorIS4_S8_lEEEE, symObjAddr: 0x15430, symBinAddr: 0x301F0, symSize: 0x30 }
  - { offset: 0xE4719, size: 0x8, addend: 0x0, symName: __ZNSt3__16__treeINS_12__value_typeIx7QStringEENS_19__map_value_compareIxNS_4pairIKxS2_EENS_4lessIxEELb1EEENS_9allocatorIS7_EEE11lower_boundB9nqe210106IxEENS_15__tree_iteratorIS3_PNS_11__tree_nodeIS3_PvEElEERKT_, symObjAddr: 0x15460, symBinAddr: 0x30220, symSize: 0x60 }
  - { offset: 0xE4757, size: 0x8, addend: 0x0, symName: __ZNSt3__16__treeINS_12__value_typeIx7QStringEENS_19__map_value_compareIxNS_4pairIKxS2_EENS_4lessIxEELb1EEENS_9allocatorIS7_EEE13__lower_boundIxEENS_15__tree_iteratorIS3_PNS_11__tree_nodeIS3_PvEElEERKT_SJ_PNS_15__tree_end_nodeIPNS_16__tree_node_baseISH_EEEE, symObjAddr: 0x154C0, symBinAddr: 0x30280, symSize: 0x90 }
  - { offset: 0xE47B3, size: 0x8, addend: 0x0, symName: __ZNSt3__114pointer_traitsIPNS_4pairIKx7QStringEEE10pointer_toB9nqe210106ERS4_, symObjAddr: 0x155B0, symBinAddr: 0x30370, symSize: 0x10 }
  - { offset: 0xE47D6, size: 0x8, addend: 0x0, symName: __ZNKSt3__115__tree_iteratorINS_12__value_typeIx7QStringEEPNS_11__tree_nodeIS3_PvEElEdeB9nqe210106Ev, symObjAddr: 0x155C0, symBinAddr: 0x30380, symSize: 0x20 }
  - { offset: 0xE47FC, size: 0x8, addend: 0x0, symName: __ZNKSt3__115__tree_iteratorINS_12__value_typeIx7QStringEEPNS_11__tree_nodeIS3_PvEElE8__get_npB9nqe210106Ev, symObjAddr: 0x155E0, symBinAddr: 0x303A0, symSize: 0x20 }
  - { offset: 0xE4828, size: 0x8, addend: 0x0, symName: __ZNSt3__14pairINS_14__map_iteratorINS_15__tree_iteratorINS_12__value_typeIx7QStringEEPNS_11__tree_nodeIS5_PvEElEEEEbEC1B9nqe210106IRSB_bLi0EEEOT_OT0_, symObjAddr: 0x15600, symBinAddr: 0x303C0, symSize: 0x30 }
  - { offset: 0xE4886, size: 0x8, addend: 0x0, symName: __ZNSt3__14pairINS_14__map_iteratorINS_15__tree_iteratorINS_12__value_typeIx7QStringEEPNS_11__tree_nodeIS5_PvEElEEEEbEC2B9nqe210106IRSB_bLi0EEEOT_OT0_, symObjAddr: 0x15630, symBinAddr: 0x303F0, symSize: 0x30 }
  - { offset: 0xE48EA, size: 0x8, addend: 0x0, symName: __ZNSt3__14pairINS_14__map_iteratorINS_15__tree_iteratorINS_12__value_typeIx7QStringEEPNS_11__tree_nodeIS5_PvEElEEEEbEC1B9nqe210106ISB_bLi0EEEOT_OT0_, symObjAddr: 0x15660, symBinAddr: 0x30420, symSize: 0x30 }
  - { offset: 0xE4948, size: 0x8, addend: 0x0, symName: __ZNSt3__14pairINS_14__map_iteratorINS_15__tree_iteratorINS_12__value_typeIx7QStringEEPNS_11__tree_nodeIS5_PvEElEEEEbEC2B9nqe210106ISB_bLi0EEEOT_OT0_, symObjAddr: 0x15690, symBinAddr: 0x30450, symSize: 0x30 }
  - { offset: 0xE49A6, size: 0x8, addend: 0x0, symName: __ZNSt3__16__treeINS_12__value_typeIx7QStringEENS_19__map_value_compareIxNS_4pairIKxS2_EENS_4lessIxEELb1EEENS_9allocatorIS7_EEE21__emplace_hint_uniqueB9nqe210106IRS6_RKS2_Li0EEENS_15__tree_iteratorIS3_PNS_11__tree_nodeIS3_PvEElEENS_21__tree_const_iteratorIS3_SM_lEEOT_OT0_, symObjAddr: 0x156C0, symBinAddr: 0x30480, symSize: 0x60 }
  - { offset: 0xE4A11, size: 0x8, addend: 0x0, symName: __ZNSt3__16__treeINS_12__value_typeIx7QStringEENS_19__map_value_compareIxNS_4pairIKxS2_EENS_4lessIxEELb1EEENS_9allocatorIS7_EEE30__emplace_hint_unique_key_argsIxJRS6_RKS2_EEENS5_INS_15__tree_iteratorIS3_PNS_11__tree_nodeIS3_PvEElEEbEENS_21__tree_const_iteratorIS3_SM_lEERKT_DpOT0_, symObjAddr: 0x15720, symBinAddr: 0x304E0, symSize: 0x110 }
  - { offset: 0xE4AFA, size: 0x8, addend: 0x0, symName: __ZNSt3__16__treeINS_12__value_typeIx7QStringEENS_19__map_value_compareIxNS_4pairIKxS2_EENS_4lessIxEELb1EEENS_9allocatorIS7_EEE16__construct_nodeIJRS6_RKS2_EEENS_10unique_ptrINS_11__tree_nodeIS3_PvEENS_22__tree_node_destructorINSB_ISL_EEEEEEDpOT_, symObjAddr: 0x15830, symBinAddr: 0x305F0, symSize: 0xF0 }
  - { offset: 0xE4B6D, size: 0x8, addend: 0x0, symName: __ZNSt3__116allocator_traitsINS_9allocatorINS_11__tree_nodeINS_12__value_typeIx7QStringEEPvEEEEE9constructB9nqe210106INS_4pairIKxS4_EEJRSC_RKS4_ELi0EEEvRS8_PT_DpOT0_, symObjAddr: 0x15920, symBinAddr: 0x306E0, symSize: 0x40 }
  - { offset: 0xE4BDD, size: 0x8, addend: 0x0, symName: __ZNSt3__19allocatorINS_11__tree_nodeINS_12__value_typeIx7QStringEEPvEEE9constructB9nqe210106INS_4pairIKxS3_EEJRSA_RKS3_EEEvPT_DpOT0_, symObjAddr: 0x15960, symBinAddr: 0x30720, symSize: 0x30 }
  - { offset: 0xE4C46, size: 0x8, addend: 0x0, symName: __ZNSt3__14pairIKx7QStringEC1B9nqe210106INS_25__check_pair_constructionIS1_S2_EELi0EEERS1_RKS2_, symObjAddr: 0x15990, symBinAddr: 0x30750, symSize: 0x30 }
  - { offset: 0xE4C9B, size: 0x8, addend: 0x0, symName: __ZNSt3__14pairIKx7QStringEC2B9nqe210106INS_25__check_pair_constructionIS1_S2_EELi0EEERS1_RKS2_, symObjAddr: 0x159C0, symBinAddr: 0x30780, symSize: 0x40 }
  - { offset: 0xE4CF0, size: 0x8, addend: 0x0, symName: __ZNSt3__120__map_const_iteratorINS_21__tree_const_iteratorINS_12__value_typeIx7QStringEEPNS_11__tree_nodeIS4_PvEElEEEC2B9nqe210106ENS_14__map_iteratorINS_15__tree_iteratorIS4_S8_lEEEE, symObjAddr: 0x15A00, symBinAddr: 0x307C0, symSize: 0x30 }
  - { offset: 0xE4D29, size: 0x8, addend: 0x0, symName: __ZN4QMapIx7QStringE8iteratorC2ENSt3__114__map_iteratorINS3_15__tree_iteratorINS3_12__value_typeIxS0_EEPNS3_11__tree_nodeIS7_PvEElEEEE, symObjAddr: 0x15A30, symBinAddr: 0x307F0, symSize: 0x20 }
  - { offset: 0xE4D62, size: 0x8, addend: 0x0, symName: __ZN5QListI7QStringE6appendEOS0_, symObjAddr: 0x15A50, symBinAddr: 0x30810, symSize: 0x30 }
  - { offset: 0xE4D97, size: 0x8, addend: 0x0, symName: __ZN5QListI7QStringE11emplaceBackIJS0_EEERS0_DpOT_, symObjAddr: 0x15A80, symBinAddr: 0x30840, symSize: 0x70 }
  - { offset: 0xE4DD7, size: 0x8, addend: 0x0, symName: __ZN9QtPrivate16QMovableArrayOpsI7QStringE7emplaceIJS1_EEEvxDpOT_, symObjAddr: 0x15AF0, symBinAddr: 0x308B0, symSize: 0x210 }
  - { offset: 0xE4E62, size: 0x8, addend: 0x0, symName: __ZN5QListIPK12KArchiveFileE6detachEv, symObjAddr: 0x15D00, symBinAddr: 0x30AC0, symSize: 0x20 }
  - { offset: 0xE4E88, size: 0x8, addend: 0x0, symName: __ZN17QArrayDataPointerIPK12KArchiveFileE6detachEPS3_, symObjAddr: 0x15D20, symBinAddr: 0x30AE0, symSize: 0x40 }
  - { offset: 0xE4EBC, size: 0x8, addend: 0x0, symName: __ZNK5QListIPK12KArchiveFileE8iteratoreqES4_, symObjAddr: 0x15F00, symBinAddr: 0x30CC0, symSize: 0x20 }
  - { offset: 0xE4EF0, size: 0x8, addend: 0x0, symName: __ZNK5QListIPK12KArchiveFileE8iteratormiES4_, symObjAddr: 0x15F60, symBinAddr: 0x30D20, symSize: 0x20 }
  - { offset: 0xE4F24, size: 0x8, addend: 0x0, symName: __ZN5QListIPK12KArchiveFileE8iteratormmEv, symObjAddr: 0x16770, symBinAddr: 0x31530, symSize: 0x20 }
  - { offset: 0xE4F4A, size: 0x8, addend: 0x0, symName: __ZNSt3__18_IterOpsINS_17_ClassicAlgPolicyEE9iter_swapB9nqe210106IRN5QListIPK12KArchiveFileE8iteratorESA_EEvOT_OT0_, symObjAddr: 0x16790, symBinAddr: 0x31550, symSize: 0x40 }
  - { offset: 0xE4F8D, size: 0x8, addend: 0x0, symName: __ZNK5QListIPK12KArchiveFileE8iteratorplEx, symObjAddr: 0x16980, symBinAddr: 0x31740, symSize: 0x40 }
  - { offset: 0xE4FC7, size: 0x8, addend: 0x0, symName: __ZNSt3__18_IterOpsINS_17_ClassicAlgPolicyEE9iter_swapB9nqe210106IRN5QListIPK12KArchiveFileE8iteratorES9_EEvOT_OT0_, symObjAddr: 0x17090, symBinAddr: 0x31E50, symSize: 0x40 }
  - { offset: 0xE500A, size: 0x8, addend: 0x0, symName: __ZN5QListIPK12KArchiveFileE8iteratorppEv, symObjAddr: 0x17F10, symBinAddr: 0x32CD0, symSize: 0x20 }
  - { offset: 0xE5030, size: 0x8, addend: 0x0, symName: __ZNK5QListIPK12KArchiveFileE8iteratorneES4_, symObjAddr: 0x17FB0, symBinAddr: 0x32D70, symSize: 0x20 }
  - { offset: 0xE506A, size: 0x8, addend: 0x0, symName: __ZNSt3__18_IterOpsINS_17_ClassicAlgPolicyEE11__iter_moveB9nqe210106IRN5QListIPK12KArchiveFileE8iteratorELi0EEEDTclsr3stdE4movedeclsr3stdE7declvalIRT_EEEEOSB_, symObjAddr: 0x17FD0, symBinAddr: 0x32D90, symSize: 0x20 }
  - { offset: 0xE509C, size: 0x8, addend: 0x0, symName: __ZNSt3__18_IterOpsINS_17_ClassicAlgPolicyEE25__validate_iter_referenceB9nqe210106IRN5QListIPK12KArchiveFileE8iteratorEEEvv, symObjAddr: 0x17FF0, symBinAddr: 0x32DB0, symSize: 0x10 }
  - { offset: 0xE50BA, size: 0x8, addend: 0x0, symName: __ZNSt3__18_IterOpsINS_17_ClassicAlgPolicyEE4nextB9nqe210106IN5QListIPK12KArchiveFileE8iteratorEEET_SA_SA_, symObjAddr: 0x18000, symBinAddr: 0x32DC0, symSize: 0x20 }
  - { offset: 0xE50F1, size: 0x8, addend: 0x0, symName: __ZN5QListIPK12KArchiveFileE8iteratorpLEx, symObjAddr: 0x18950, symBinAddr: 0x33710, symSize: 0x20 }
  - { offset: 0xE5125, size: 0x8, addend: 0x0, symName: __ZNK5QListIPK12KArchiveFileE8iteratorltES4_, symObjAddr: 0x18970, symBinAddr: 0x33730, symSize: 0x20 }
  - { offset: 0xE5159, size: 0x8, addend: 0x0, symName: __ZNK5QListIPK12KArchiveFileE8iteratorgeES4_, symObjAddr: 0x18990, symBinAddr: 0x33750, symSize: 0x20 }
  - { offset: 0xE518D, size: 0x8, addend: 0x0, symName: __ZN5QListIPK12KArchiveFileE8iteratormIEx, symObjAddr: 0x18BA0, symBinAddr: 0x33960, symSize: 0x30 }
  - { offset: 0xE51C1, size: 0x8, addend: 0x0, symName: __ZNSt3__18_IterOpsINS_17_ClassicAlgPolicyEE9iter_swapB9nqe210106IN5QListIPK12KArchiveFileE8iteratorES9_EEvOT_OT0_, symObjAddr: 0x19030, symBinAddr: 0x33DF0, symSize: 0x40 }
  - { offset: 0xE5220, size: 0x8, addend: 0x0, symName: __ZNSt3__14pairIN5QListIPK12KArchiveFileE8iteratorEbEC1B9nqe210106IRS6_RbLi0EEEOT_OT0_, symObjAddr: 0x19070, symBinAddr: 0x33E30, symSize: 0x30 }
  - { offset: 0xE527E, size: 0x8, addend: 0x0, symName: __ZNSt3__14pairIN5QListIPK12KArchiveFileE8iteratorEbEC2B9nqe210106IRS6_RbLi0EEEOT_OT0_, symObjAddr: 0x190A0, symBinAddr: 0x33E60, symSize: 0x30 }
  - { offset: 0xE52DC, size: 0x8, addend: 0x0, symName: __ZNSt3__118__unwrap_iter_implIN5QListIPK12KArchiveFileE8iteratorELb0EE8__unwrapB9nqe210106ES6_, symObjAddr: 0x190D0, symBinAddr: 0x33E90, symSize: 0x20 }
  - { offset: 0xE52FF, size: 0x8, addend: 0x0, symName: __ZNK17QArrayDataPointerIPK12KArchiveFileEptEv, symObjAddr: 0x190F0, symBinAddr: 0x33EB0, symSize: 0x10 }
  - { offset: 0xE5325, size: 0x8, addend: 0x0, symName: __ZNK17QArrayDataPointerIPK12KArchiveFileE10constBeginEv, symObjAddr: 0x19100, symBinAddr: 0x33EC0, symSize: 0x20 }
  - { offset: 0xE534B, size: 0x8, addend: 0x0, symName: __ZN5QListIPK12KArchiveFileE14const_iteratorC1EPKS2_, symObjAddr: 0x19120, symBinAddr: 0x33EE0, symSize: 0x30 }
  - { offset: 0xE5383, size: 0x8, addend: 0x0, symName: __ZN5QListIPK12KArchiveFileE14const_iteratorC2EPKS2_, symObjAddr: 0x19150, symBinAddr: 0x33F10, symSize: 0x20 }
  - { offset: 0xE53BB, size: 0x8, addend: 0x0, symName: __ZNK17QArrayDataPointerIPK12KArchiveFileE8constEndEv, symObjAddr: 0x19170, symBinAddr: 0x33F30, symSize: 0x30 }
  - { offset: 0xE53E1, size: 0x8, addend: 0x0, symName: __ZN4QMapIx7QStringE22referenceHoldingDetachEv, symObjAddr: 0x191A0, symBinAddr: 0x33F60, symSize: 0xE0 }
  - { offset: 0xE541E, size: 0x8, addend: 0x0, symName: __ZNSt3__13mapIx7QStringNS_4lessIxEENS_9allocatorINS_4pairIKxS1_EEEEE4findB9nqe210106ERS6_, symObjAddr: 0x19280, symBinAddr: 0x34040, symSize: 0x40 }
  - { offset: 0xE5453, size: 0x8, addend: 0x0, symName: __ZNSt3__13mapIx7QStringNS_4lessIxEENS_9allocatorINS_4pairIKxS1_EEEEE6insertB9nqe210106EOS7_, symObjAddr: 0x192F0, symBinAddr: 0x340B0, symSize: 0x50 }
  - { offset: 0xE5488, size: 0x8, addend: 0x0, symName: __ZNSt3__14pairIKx7QStringEC1B9nqe210106IRS1_S2_Li0EEEOT_OT0_, symObjAddr: 0x19340, symBinAddr: 0x34100, symSize: 0x30 }
  - { offset: 0xE54E6, size: 0x8, addend: 0x0, symName: __ZN9QtPrivate30QExplicitlySharedDataPointerV2I8QMapDataINSt3__13mapIx7QStringNS2_4lessIxEENS2_9allocatorINS2_4pairIKxS4_EEEEEEEE6detachEv, symObjAddr: 0x19370, symBinAddr: 0x34130, symSize: 0xE0 }
  - { offset: 0xE5521, size: 0x8, addend: 0x0, symName: __ZNK2Qt23totally_ordered_wrapperIP8QMapDataINSt3__13mapIx7QStringNS2_4lessIxEENS2_9allocatorINS2_4pairIKxS4_EEEEEEEEdeISD_Lb1EEERT_v, symObjAddr: 0x19450, symBinAddr: 0x34210, symSize: 0x20 }
  - { offset: 0xE5556, size: 0x8, addend: 0x0, symName: __ZN8QMapDataINSt3__13mapIx7QStringNS0_4lessIxEENS0_9allocatorINS0_4pairIKxS2_EEEEEEEC1ERKSB_, symObjAddr: 0x19470, symBinAddr: 0x34230, symSize: 0x30 }
  - { offset: 0xE558B, size: 0x8, addend: 0x0, symName: __ZN8QMapDataINSt3__13mapIx7QStringNS0_4lessIxEENS0_9allocatorINS0_4pairIKxS2_EEEEEEEC2ERKSB_, symObjAddr: 0x194A0, symBinAddr: 0x34260, symSize: 0x40 }
  - { offset: 0xE55C0, size: 0x8, addend: 0x0, symName: __ZNSt3__13mapIx7QStringNS_4lessIxEENS_9allocatorINS_4pairIKxS1_EEEEEC1B9nqe210106ERKS9_, symObjAddr: 0x19510, symBinAddr: 0x342A0, symSize: 0x30 }
  - { offset: 0xE55F9, size: 0x8, addend: 0x0, symName: __ZNSt3__13mapIx7QStringNS_4lessIxEENS_9allocatorINS_4pairIKxS1_EEEEEC2B9nqe210106ERKS9_, symObjAddr: 0x19540, symBinAddr: 0x342D0, symSize: 0x80 }
  - { offset: 0xE5632, size: 0x8, addend: 0x0, symName: __ZNSt3__16__treeINS_12__value_typeIx7QStringEENS_19__map_value_compareIxNS_4pairIKxS2_EENS_4lessIxEELb1EEENS_9allocatorIS7_EEEC1ERKSD_, symObjAddr: 0x195C0, symBinAddr: 0x34350, symSize: 0x30 }
  - { offset: 0xE566D, size: 0x8, addend: 0x0, symName: __ZNSt3__13mapIx7QStringNS_4lessIxEENS_9allocatorINS_4pairIKxS1_EEEEE6insertB9nqe210106INS_20__map_const_iteratorINS_21__tree_const_iteratorINS_12__value_typeIxS1_EEPNS_11__tree_nodeISE_PvEElEEEEEEvT_SL_, symObjAddr: 0x195F0, symBinAddr: 0x34380, symSize: 0x80 }
  - { offset: 0xE56D8, size: 0x8, addend: 0x0, symName: __ZNSt3__16__treeINS_12__value_typeIx7QStringEENS_19__map_value_compareIxNS_4pairIKxS2_EENS_4lessIxEELb1EEENS_9allocatorIS7_EEEC2ERKSD_, symObjAddr: 0x19670, symBinAddr: 0x34400, symSize: 0x80 }
  - { offset: 0xE5713, size: 0x8, addend: 0x0, symName: __ZNSt3__116allocator_traitsINS_9allocatorINS_11__tree_nodeINS_12__value_typeIx7QStringEEPvEEEEE37select_on_container_copy_constructionB9nqe210106IS8_Li0EEES8_RKS8_, symObjAddr: 0x196F0, symBinAddr: 0x34480, symSize: 0x10 }
  - { offset: 0xE5746, size: 0x8, addend: 0x0, symName: __ZNKSt3__16__treeINS_12__value_typeIx7QStringEENS_19__map_value_compareIxNS_4pairIKxS2_EENS_4lessIxEELb1EEENS_9allocatorIS7_EEE12__node_allocB9nqe210106Ev, symObjAddr: 0x19700, symBinAddr: 0x34490, symSize: 0x20 }
  - { offset: 0xE576C, size: 0x8, addend: 0x0, symName: __ZNSt3__16__treeINS_12__value_typeIx7QStringEENS_19__map_value_compareIxNS_4pairIKxS2_EENS_4lessIxEELb1EEENS_9allocatorIS7_EEE4findIxEENS_15__tree_iteratorIS3_PNS_11__tree_nodeIS3_PvEElEERKT_, symObjAddr: 0x19720, symBinAddr: 0x344B0, symSize: 0xD0 }
  - { offset: 0xE57B9, size: 0x8, addend: 0x0, symName: __ZNSt3__16__treeINS_12__value_typeIx7QStringEENS_19__map_value_compareIxNS_4pairIKxS2_EENS_4lessIxEELb1EEENS_9allocatorIS7_EEE16__emplace_uniqueB9nqe210106IS7_EENS5_INS_15__tree_iteratorIS3_PNS_11__tree_nodeIS3_PvEElEEbEEOT_, symObjAddr: 0x197F0, symBinAddr: 0x34580, symSize: 0x40 }
  - { offset: 0xE57F7, size: 0x8, addend: 0x0, symName: __ZNSt3__14pairINS_14__map_iteratorINS_15__tree_iteratorINS_12__value_typeIx7QStringEEPNS_11__tree_nodeIS5_PvEElEEEEbEC1B9nqe210106ISA_bLi0EEEONS0_IT_T0_EE, symObjAddr: 0x19830, symBinAddr: 0x345C0, symSize: 0x30 }
  - { offset: 0xE5847, size: 0x8, addend: 0x0, symName: __ZNSt3__16__treeINS_12__value_typeIx7QStringEENS_19__map_value_compareIxNS_4pairIKxS2_EENS_4lessIxEELb1EEENS_9allocatorIS7_EEE28__emplace_unique_extract_keyB9nqe210106IS7_EENS5_INS_15__tree_iteratorIS3_PNS_11__tree_nodeIS3_PvEElEEbEEOT_NS_23__extract_key_first_tagE, symObjAddr: 0x19860, symBinAddr: 0x345F0, symSize: 0x50 }
  - { offset: 0xE5891, size: 0x8, addend: 0x0, symName: __ZNSt3__16__treeINS_12__value_typeIx7QStringEENS_19__map_value_compareIxNS_4pairIKxS2_EENS_4lessIxEELb1EEENS_9allocatorIS7_EEE25__emplace_unique_key_argsIxJS7_EEENS5_INS_15__tree_iteratorIS3_PNS_11__tree_nodeIS3_PvEElEEbEERKT_DpOT0_, symObjAddr: 0x198B0, symBinAddr: 0x34640, symSize: 0xE0 }
  - { offset: 0xE5945, size: 0x8, addend: 0x0, symName: __ZNSt3__16__treeINS_12__value_typeIx7QStringEENS_19__map_value_compareIxNS_4pairIKxS2_EENS_4lessIxEELb1EEENS_9allocatorIS7_EEE16__construct_nodeIJS7_EEENS_10unique_ptrINS_11__tree_nodeIS3_PvEENS_22__tree_node_destructorINSB_ISI_EEEEEEDpOT_, symObjAddr: 0x19990, symBinAddr: 0x34720, symSize: 0xE0 }
  - { offset: 0xE59A4, size: 0x8, addend: 0x0, symName: __ZNSt3__116allocator_traitsINS_9allocatorINS_11__tree_nodeINS_12__value_typeIx7QStringEEPvEEEEE9constructB9nqe210106INS_4pairIKxS4_EEJSD_ELi0EEEvRS8_PT_DpOT0_, symObjAddr: 0x19A70, symBinAddr: 0x34800, symSize: 0x30 }
  - { offset: 0xE5A00, size: 0x8, addend: 0x0, symName: __ZNSt3__19allocatorINS_11__tree_nodeINS_12__value_typeIx7QStringEEPvEEE9constructB9nqe210106INS_4pairIKxS3_EEJSB_EEEvPT_DpOT0_, symObjAddr: 0x19AA0, symBinAddr: 0x34830, symSize: 0x30 }
  - { offset: 0xE5A56, size: 0x8, addend: 0x0, symName: __ZNSt3__14pairIKx7QStringEC1B9nqe210106EOS3_, symObjAddr: 0x19AD0, symBinAddr: 0x34860, symSize: 0x30 }
  - { offset: 0xE5A8B, size: 0x8, addend: 0x0, symName: __ZNSt3__14pairIKx7QStringEC2B9nqe210106EOS3_, symObjAddr: 0x19B00, symBinAddr: 0x34890, symSize: 0x40 }
  - { offset: 0xE5AC0, size: 0x8, addend: 0x0, symName: __ZNSt3__14pairINS_14__map_iteratorINS_15__tree_iteratorINS_12__value_typeIx7QStringEEPNS_11__tree_nodeIS5_PvEElEEEEbEC2B9nqe210106ISA_bLi0EEEONS0_IT_T0_EE, symObjAddr: 0x19B40, symBinAddr: 0x348D0, symSize: 0x50 }
  - { offset: 0xE5B10, size: 0x8, addend: 0x0, symName: __ZNSt3__14pairIKx7QStringEC2B9nqe210106IRS1_S2_Li0EEEOT_OT0_, symObjAddr: 0x19B90, symBinAddr: 0x34920, symSize: 0x35 }
  - { offset: 0xE7EB1, size: 0x8, addend: 0x0, symName: __ZN9QtPrivate19qobject_cast_helperIP11QFileDevice7QObjectEET_PT0_, symObjAddr: 0x1C80, symBinAddr: 0x35CD0, symSize: 0x30 }
  - { offset: 0xEC5B0, size: 0x8, addend: 0x0, symName: __ZN25KCompressionDevicePrivate18propagateErrorCodeEv, symObjAddr: 0x0, symBinAddr: 0x34960, symSize: 0xB0 }
  - { offset: 0xEC5F9, size: 0x8, addend: 0x0, symName: __Z12qobject_castIP11QFileDeviceET_P7QObject, symObjAddr: 0xB0, symBinAddr: 0x34A10, symSize: 0x20 }
  - { offset: 0xEC631, size: 0x8, addend: 0x0, symName: __ZN18KCompressionDevice24filterForCompressionTypeENS_15CompressionTypeE, symObjAddr: 0xF0, symBinAddr: 0x34A30, symSize: 0xF0 }
  - { offset: 0xEC656, size: 0x8, addend: 0x0, symName: __ZN18KCompressionDeviceC2EP9QIODevicebNS_15CompressionTypeE, symObjAddr: 0x1E0, symBinAddr: 0x34B20, symSize: 0x130 }
  - { offset: 0xEC6AC, size: 0x8, addend: 0x0, symName: __ZN25KCompressionDevicePrivateC1EP18KCompressionDevice, symObjAddr: 0x310, symBinAddr: 0x34C50, symSize: 0x30 }
  - { offset: 0xEC6E4, size: 0x8, addend: 0x0, symName: __ZN18KCompressionDeviceC1EP9QIODevicebNS_15CompressionTypeE, symObjAddr: 0x340, symBinAddr: 0x34C80, symSize: 0x40 }
  - { offset: 0xEC73A, size: 0x8, addend: 0x0, symName: __ZN18KCompressionDeviceC2ERK7QStringNS_15CompressionTypeE, symObjAddr: 0x380, symBinAddr: 0x34CC0, symSize: 0x150 }
  - { offset: 0xEC797, size: 0x8, addend: 0x0, symName: __ZN18KCompressionDeviceC1ERK7QStringNS_15CompressionTypeE, symObjAddr: 0x4D0, symBinAddr: 0x34E10, symSize: 0x30 }
  - { offset: 0xEC7DF, size: 0x8, addend: 0x0, symName: __ZN18KCompressionDeviceD2Ev, symObjAddr: 0x500, symBinAddr: 0x34E40, symSize: 0xB0 }
  - { offset: 0xEC80B, size: 0x8, addend: 0x0, symName: __ZN25KCompressionDevicePrivateD1Ev, symObjAddr: 0x5C0, symBinAddr: 0x34EF0, symSize: 0x20 }
  - { offset: 0xEC837, size: 0x8, addend: 0x0, symName: __ZN18KCompressionDeviceD1Ev, symObjAddr: 0x5E0, symBinAddr: 0x34F10, symSize: 0x20 }
  - { offset: 0xEC863, size: 0x8, addend: 0x0, symName: __ZN18KCompressionDeviceD0Ev, symObjAddr: 0x600, symBinAddr: 0x34F30, symSize: 0x30 }
  - { offset: 0xEC88F, size: 0x8, addend: 0x0, symName: __ZNK18KCompressionDevice15compressionTypeEv, symObjAddr: 0x630, symBinAddr: 0x34F60, symSize: 0x20 }
  - { offset: 0xEC8B7, size: 0x8, addend: 0x0, symName: __ZN18KCompressionDevice4openE6QFlagsIN13QIODeviceBase12OpenModeFlagEE, symObjAddr: 0x650, symBinAddr: 0x34F80, symSize: 0x1E0 }
  - { offset: 0xEC8ED, size: 0x8, addend: 0x0, symName: __ZN18KCompressionDevice5closeEv, symObjAddr: 0x930, symBinAddr: 0x35160, symSize: 0xE0 }
  - { offset: 0xEC932, size: 0x8, addend: 0x0, symName: __ZNK18KCompressionDevice5errorEv, symObjAddr: 0xA40, symBinAddr: 0x35240, symSize: 0x20 }
  - { offset: 0xEC95A, size: 0x8, addend: 0x0, symName: __ZN18KCompressionDevice4seekEx, symObjAddr: 0xA60, symBinAddr: 0x35260, symSize: 0x280 }
  - { offset: 0xEC9D1, size: 0x8, addend: 0x0, symName: __ZNK18KCompressionDevice5atEndEv, symObjAddr: 0xD40, symBinAddr: 0x354E0, symSize: 0x80 }
  - { offset: 0xEC9F9, size: 0x8, addend: 0x0, symName: __ZN18KCompressionDevice8readDataEPcx, symObjAddr: 0xDC0, symBinAddr: 0x35560, symSize: 0x2B0 }
  - { offset: 0xECAA9, size: 0x8, addend: 0x0, symName: __ZN18KCompressionDevice9writeDataEPKcx, symObjAddr: 0x1070, symBinAddr: 0x35810, symSize: 0x370 }
  - { offset: 0xECB76, size: 0x8, addend: 0x0, symName: __ZN18KCompressionDevice2trEPKcS1_i, symObjAddr: 0x13E0, symBinAddr: 0x35B80, symSize: 0x40 }
  - { offset: 0xECBB5, size: 0x8, addend: 0x0, symName: __ZN18KCompressionDevice15setOrigFileNameERK10QByteArray, symObjAddr: 0x1420, symBinAddr: 0x35BC0, symSize: 0x30 }
  - { offset: 0xECBED, size: 0x8, addend: 0x0, symName: __ZN18KCompressionDevice14setSkipHeadersEv, symObjAddr: 0x1450, symBinAddr: 0x35BF0, symSize: 0x20 }
  - { offset: 0xECC16, size: 0x8, addend: 0x0, symName: __ZN18KCompressionDevice10filterBaseEv, symObjAddr: 0x1470, symBinAddr: 0x35C10, symSize: 0x20 }
  - { offset: 0xECC3F, size: 0x8, addend: 0x0, symName: __ZN25KCompressionDevicePrivateC2EP18KCompressionDevice, symObjAddr: 0x1820, symBinAddr: 0x35C30, symSize: 0x70 }
  - { offset: 0xECC77, size: 0x8, addend: 0x0, symName: __ZN25KCompressionDevicePrivateD2Ev, symObjAddr: 0x1920, symBinAddr: 0x35CA0, symSize: 0x30 }
  - { offset: 0xECCA3, size: 0x8, addend: 0x0, symName: __ZNK11QMetaObject4castEP7QObject, symObjAddr: 0x1CB0, symBinAddr: 0x35D00, symSize: 0x23 }
  - { offset: 0xEE9F9, size: 0x8, addend: 0x0, symName: __ZN11KFilterBaseC2Ev, symObjAddr: 0x0, symBinAddr: 0x35D30, symSize: 0x70 }
  - { offset: 0xEEA22, size: 0x8, addend: 0x0, symName: __ZTV11KFilterBase, symObjAddr: 0x2A0, symBinAddr: 0x4BD98, symSize: 0x0 }
  - { offset: 0xEFB5D, size: 0x8, addend: 0x0, symName: __ZN11KFilterBaseC2Ev, symObjAddr: 0x0, symBinAddr: 0x35D30, symSize: 0x70 }
  - { offset: 0xEFB89, size: 0x8, addend: 0x0, symName: __ZN18KFilterBasePrivateC1Ev, symObjAddr: 0x70, symBinAddr: 0x35DA0, symSize: 0x20 }
  - { offset: 0xEFBB3, size: 0x8, addend: 0x0, symName: __ZN11KFilterBaseD2Ev, symObjAddr: 0x90, symBinAddr: 0x35DC0, symSize: 0x70 }
  - { offset: 0xEFBDF, size: 0x8, addend: 0x0, symName: __ZN11KFilterBaseD1Ev, symObjAddr: 0x100, symBinAddr: 0x35E30, symSize: 0x10 }
  - { offset: 0xEFC0B, size: 0x8, addend: 0x0, symName: __ZN11KFilterBaseD0Ev, symObjAddr: 0x110, symBinAddr: 0x35E40, symSize: 0x10 }
  - { offset: 0xEFC37, size: 0x8, addend: 0x0, symName: __ZN11KFilterBase9setDeviceEP9QIODeviceb, symObjAddr: 0x120, symBinAddr: 0x35E50, symSize: 0x40 }
  - { offset: 0xEFC7A, size: 0x8, addend: 0x0, symName: __ZN11KFilterBase6deviceEv, symObjAddr: 0x160, symBinAddr: 0x35E90, symSize: 0x20 }
  - { offset: 0xEFCA2, size: 0x8, addend: 0x0, symName: __ZNK11KFilterBase13inBufferEmptyEv, symObjAddr: 0x180, symBinAddr: 0x35EB0, symSize: 0x30 }
  - { offset: 0xEFCCA, size: 0x8, addend: 0x0, symName: __ZNK11KFilterBase13outBufferFullEv, symObjAddr: 0x1B0, symBinAddr: 0x35EE0, symSize: 0x30 }
  - { offset: 0xEFCF2, size: 0x8, addend: 0x0, symName: __ZN11KFilterBase9terminateEv, symObjAddr: 0x1E0, symBinAddr: 0x35F10, symSize: 0x10 }
  - { offset: 0xEFD1A, size: 0x8, addend: 0x0, symName: __ZN11KFilterBase5resetEv, symObjAddr: 0x1F0, symBinAddr: 0x35F20, symSize: 0x10 }
  - { offset: 0xEFD42, size: 0x8, addend: 0x0, symName: __ZN11KFilterBase14setFilterFlagsENS_11FilterFlagsE, symObjAddr: 0x200, symBinAddr: 0x35F30, symSize: 0x20 }
  - { offset: 0xEFD78, size: 0x8, addend: 0x0, symName: __ZNK11KFilterBase11filterFlagsEv, symObjAddr: 0x220, symBinAddr: 0x35F50, symSize: 0x20 }
  - { offset: 0xEFDA0, size: 0x8, addend: 0x0, symName: __ZN11KFilterBase12virtual_hookEiPv, symObjAddr: 0x240, symBinAddr: 0x35F70, symSize: 0x20 }
  - { offset: 0xEFDDE, size: 0x8, addend: 0x0, symName: __ZN18KFilterBasePrivateC2Ev, symObjAddr: 0x260, symBinAddr: 0x35F90, symSize: 0x20 }
  - { offset: 0xF1D04, size: 0x8, addend: 0x0, symName: __ZTV11KGzipFilter, symObjAddr: 0xF98, symBinAddr: 0x4BE40, symSize: 0x0 }
  - { offset: 0xF306B, size: 0x8, addend: 0x0, symName: __ZN11KGzipFilterC2Ev, symObjAddr: 0x0, symBinAddr: 0x35FB0, symSize: 0x90 }
  - { offset: 0xF3097, size: 0x8, addend: 0x0, symName: __ZN11KGzipFilter7PrivateC1Ev, symObjAddr: 0x90, symBinAddr: 0x36040, symSize: 0x20 }
  - { offset: 0xF30C1, size: 0x8, addend: 0x0, symName: __ZN11KGzipFilterC1Ev, symObjAddr: 0xB0, symBinAddr: 0x36060, symSize: 0x20 }
  - { offset: 0xF30ED, size: 0x8, addend: 0x0, symName: __ZN11KGzipFilterD2Ev, symObjAddr: 0xD0, symBinAddr: 0x36080, symSize: 0x50 }
  - { offset: 0xF3119, size: 0x8, addend: 0x0, symName: __ZN11KGzipFilterD1Ev, symObjAddr: 0x120, symBinAddr: 0x360D0, symSize: 0x20 }
  - { offset: 0xF3145, size: 0x8, addend: 0x0, symName: __ZN11KGzipFilterD0Ev, symObjAddr: 0x140, symBinAddr: 0x360F0, symSize: 0x30 }
  - { offset: 0xF3171, size: 0x8, addend: 0x0, symName: __ZN11KGzipFilter4initEi, symObjAddr: 0x170, symBinAddr: 0x36120, symSize: 0x90 }
  - { offset: 0xF31A7, size: 0x8, addend: 0x0, symName: __ZN11KGzipFilter4initEiNS_4FlagE, symObjAddr: 0x200, symBinAddr: 0x361B0, symSize: 0x150 }
  - { offset: 0xF3233, size: 0x8, addend: 0x0, symName: __ZNK11KGzipFilter4modeEv, symObjAddr: 0x350, symBinAddr: 0x36300, symSize: 0x20 }
  - { offset: 0xF325B, size: 0x8, addend: 0x0, symName: __ZN11KGzipFilter9terminateEv, symObjAddr: 0x370, symBinAddr: 0x36320, symSize: 0x90 }
  - { offset: 0xF32BD, size: 0x8, addend: 0x0, symName: __ZN11KGzipFilter5resetEv, symObjAddr: 0x400, symBinAddr: 0x363B0, symSize: 0x80 }
  - { offset: 0xF331F, size: 0x8, addend: 0x0, symName: __ZN11KGzipFilter10readHeaderEv, symObjAddr: 0x480, symBinAddr: 0x36430, symSize: 0xA0 }
  - { offset: 0xF3363, size: 0x8, addend: 0x0, symName: __ZN11KGzipFilter11writeHeaderERK10QByteArray, symObjAddr: 0x520, symBinAddr: 0x364D0, symSize: 0x220 }
  - { offset: 0xF33EE, size: 0x8, addend: 0x0, symName: __ZNK10QByteArray6lengthEv, symObjAddr: 0x740, symBinAddr: 0x366F0, symSize: 0x20 }
  - { offset: 0xF3442, size: 0x8, addend: 0x0, symName: __ZNK10QByteArrayixEx, symObjAddr: 0x760, symBinAddr: 0x36710, symSize: 0xF0 }
  - { offset: 0xF34A7, size: 0x8, addend: 0x0, symName: __ZN11KGzipFilter11writeFooterEv, symObjAddr: 0x850, symBinAddr: 0x36800, symSize: 0x1F0 }
  - { offset: 0xF34EB, size: 0x8, addend: 0x0, symName: __ZN11KGzipFilter12setOutBufferEPcj, symObjAddr: 0xA40, symBinAddr: 0x369F0, symSize: 0x30 }
  - { offset: 0xF352F, size: 0x8, addend: 0x0, symName: __ZN11KGzipFilter11setInBufferEPKcj, symObjAddr: 0xA70, symBinAddr: 0x36A20, symSize: 0x30 }
  - { offset: 0xF3573, size: 0x8, addend: 0x0, symName: __ZNK11KGzipFilter17inBufferAvailableEv, symObjAddr: 0xAA0, symBinAddr: 0x36A50, symSize: 0x20 }
  - { offset: 0xF359C, size: 0x8, addend: 0x0, symName: __ZNK11KGzipFilter18outBufferAvailableEv, symObjAddr: 0xAC0, symBinAddr: 0x36A70, symSize: 0x20 }
  - { offset: 0xF35C5, size: 0x8, addend: 0x0, symName: __ZN11KGzipFilter15uncompress_noopEv, symObjAddr: 0xAE0, symBinAddr: 0x36A90, symSize: 0xD0 }
  - { offset: 0xF360C, size: 0x8, addend: 0x0, symName: __ZN11KGzipFilter10uncompressEv, symObjAddr: 0xBB0, symBinAddr: 0x36B60, symSize: 0x150 }
  - { offset: 0xF3671, size: 0x8, addend: 0x0, symName: __ZN11KGzipFilter8compressEb, symObjAddr: 0xD00, symBinAddr: 0x36CB0, symSize: 0x150 }
  - { offset: 0xF36E5, size: 0x8, addend: 0x0, symName: __ZN11KGzipFilter7PrivateC2Ev, symObjAddr: 0xE50, symBinAddr: 0x36E00, symSize: 0x50 }
  - { offset: 0xF63A1, size: 0x8, addend: 0x0, symName: __ZN16KLimitedIODeviceC2EP9QIODevicexx, symObjAddr: 0x0, symBinAddr: 0x36E50, symSize: 0xA0 }
  - { offset: 0xF63F7, size: 0x8, addend: 0x0, symName: __ZN16KLimitedIODeviceC1EP9QIODevicexx, symObjAddr: 0xD0, symBinAddr: 0x36EF0, symSize: 0x40 }
  - { offset: 0xF644D, size: 0x8, addend: 0x0, symName: __ZN16KLimitedIODevice4openE6QFlagsIN13QIODeviceBase12OpenModeFlagEE, symObjAddr: 0x110, symBinAddr: 0x36F30, symSize: 0x80 }
  - { offset: 0xF6483, size: 0x8, addend: 0x0, symName: __ZNK6QFlagsIN13QIODeviceBase12OpenModeFlagEEanES1_, symObjAddr: 0x190, symBinAddr: 0x36FB0, symSize: 0x40 }
  - { offset: 0xF64B7, size: 0x8, addend: 0x0, symName: __ZN16KLimitedIODevice5closeEv, symObjAddr: 0x1E0, symBinAddr: 0x36FF0, symSize: 0x10 }
  - { offset: 0xF64DF, size: 0x8, addend: 0x0, symName: __ZNK16KLimitedIODevice4sizeEv, symObjAddr: 0x1F0, symBinAddr: 0x37000, symSize: 0x20 }
  - { offset: 0xF6507, size: 0x8, addend: 0x0, symName: __ZN16KLimitedIODevice8readDataEPcx, symObjAddr: 0x210, symBinAddr: 0x37020, symSize: 0x70 }
  - { offset: 0xF654B, size: 0x8, addend: 0x0, symName: __ZN16KLimitedIODevice4seekEx, symObjAddr: 0x2C0, symBinAddr: 0x37090, symSize: 0xA0 }
  - { offset: 0xF658F, size: 0x8, addend: 0x0, symName: __ZNK16KLimitedIODevice14bytesAvailableEv, symObjAddr: 0x360, symBinAddr: 0x37130, symSize: 0x20 }
  - { offset: 0xF65B7, size: 0x8, addend: 0x0, symName: __ZNK16KLimitedIODevice12isSequentialEv, symObjAddr: 0x380, symBinAddr: 0x37150, symSize: 0x30 }
  - { offset: 0xF8301, size: 0x8, addend: 0x0, symName: __ZN11KNoneFilterC2Ev, symObjAddr: 0x0, symBinAddr: 0x37180, symSize: 0x90 }
  - { offset: 0xF833D, size: 0x8, addend: 0x0, symName: __ZTV11KNoneFilter, symObjAddr: 0x4B8, symBinAddr: 0x4BEF0, symSize: 0x0 }
  - { offset: 0xF9345, size: 0x8, addend: 0x0, symName: __ZN11KNoneFilterC2Ev, symObjAddr: 0x0, symBinAddr: 0x37180, symSize: 0x90 }
  - { offset: 0xF9371, size: 0x8, addend: 0x0, symName: __ZN11KNoneFilter7PrivateC1Ev, symObjAddr: 0x90, symBinAddr: 0x37210, symSize: 0x20 }
  - { offset: 0xF939B, size: 0x8, addend: 0x0, symName: __ZN11KNoneFilterC1Ev, symObjAddr: 0xB0, symBinAddr: 0x37230, symSize: 0x20 }
  - { offset: 0xF93C7, size: 0x8, addend: 0x0, symName: __ZN11KNoneFilterD2Ev, symObjAddr: 0xD0, symBinAddr: 0x37250, symSize: 0x50 }
  - { offset: 0xF93F3, size: 0x8, addend: 0x0, symName: __ZN11KNoneFilterD1Ev, symObjAddr: 0x120, symBinAddr: 0x372A0, symSize: 0x20 }
  - { offset: 0xF941F, size: 0x8, addend: 0x0, symName: __ZN11KNoneFilterD0Ev, symObjAddr: 0x140, symBinAddr: 0x372C0, symSize: 0x30 }
  - { offset: 0xF944B, size: 0x8, addend: 0x0, symName: __ZN11KNoneFilter4initEi, symObjAddr: 0x170, symBinAddr: 0x372F0, symSize: 0x20 }
  - { offset: 0xF9481, size: 0x8, addend: 0x0, symName: __ZNK11KNoneFilter4modeEv, symObjAddr: 0x190, symBinAddr: 0x37310, symSize: 0x20 }
  - { offset: 0xF94A9, size: 0x8, addend: 0x0, symName: __ZN11KNoneFilter9terminateEv, symObjAddr: 0x1B0, symBinAddr: 0x37330, symSize: 0x10 }
  - { offset: 0xF94D1, size: 0x8, addend: 0x0, symName: __ZN11KNoneFilter5resetEv, symObjAddr: 0x1C0, symBinAddr: 0x37340, symSize: 0x10 }
  - { offset: 0xF94F9, size: 0x8, addend: 0x0, symName: __ZN11KNoneFilter10readHeaderEv, symObjAddr: 0x1D0, symBinAddr: 0x37350, symSize: 0x10 }
  - { offset: 0xF9521, size: 0x8, addend: 0x0, symName: __ZN11KNoneFilter11writeHeaderERK10QByteArray, symObjAddr: 0x1E0, symBinAddr: 0x37360, symSize: 0x20 }
  - { offset: 0xF9554, size: 0x8, addend: 0x0, symName: __ZN11KNoneFilter12setOutBufferEPcj, symObjAddr: 0x200, symBinAddr: 0x37380, symSize: 0x30 }
  - { offset: 0xF9598, size: 0x8, addend: 0x0, symName: __ZN11KNoneFilter11setInBufferEPKcj, symObjAddr: 0x230, symBinAddr: 0x373B0, symSize: 0x30 }
  - { offset: 0xF95DC, size: 0x8, addend: 0x0, symName: __ZNK11KNoneFilter17inBufferAvailableEv, symObjAddr: 0x260, symBinAddr: 0x373E0, symSize: 0x20 }
  - { offset: 0xF9604, size: 0x8, addend: 0x0, symName: __ZNK11KNoneFilter18outBufferAvailableEv, symObjAddr: 0x280, symBinAddr: 0x37400, symSize: 0x20 }
  - { offset: 0xF962C, size: 0x8, addend: 0x0, symName: __ZN11KNoneFilter10uncompressEv, symObjAddr: 0x2A0, symBinAddr: 0x37420, symSize: 0x40 }
  - { offset: 0xF9654, size: 0x8, addend: 0x0, symName: __ZN11KNoneFilter8copyDataEv, symObjAddr: 0x2E0, symBinAddr: 0x37460, symSize: 0xF0 }
  - { offset: 0xF9699, size: 0x8, addend: 0x0, symName: __ZN11KNoneFilter8compressEb, symObjAddr: 0x3D0, symBinAddr: 0x37550, symSize: 0x50 }
  - { offset: 0xF96CE, size: 0x8, addend: 0x0, symName: __Z4qMinIiERKT_S2_S2_, symObjAddr: 0x420, symBinAddr: 0x375A0, symSize: 0x40 }
  - { offset: 0xF9712, size: 0x8, addend: 0x0, symName: __ZN11KNoneFilter7PrivateC2Ev, symObjAddr: 0x460, symBinAddr: 0x375E0, symSize: 0x32 }
  - { offset: 0xFB89B, size: 0x8, addend: 0x0, symName: __ZN9QtPrivateL19lengthHelperPointerIcEExPKT_, symObjAddr: 0x8270, symBinAddr: 0x3DDB0, symSize: 0x50 }
  - { offset: 0xFB8DE, size: 0x8, addend: 0x0, symName: __ZN9QtPrivate20q_relocate_overlap_nIP13KZipFileEntryxEEvPT_T0_S4_, symObjAddr: 0xBC50, symBinAddr: 0x41120, symSize: 0x50 }
  - { offset: 0xFB934, size: 0x8, addend: 0x0, symName: __ZN9QtPrivateL19q_points_into_rangeI17QArrayDataPointerIP13KZipFileEntryEPKS3_EEbRKT0_RKT_, symObjAddr: 0xBCA0, symBinAddr: 0x41170, symSize: 0xA0 }
  - { offset: 0xFB980, size: 0x8, addend: 0x0, symName: __ZN9QtPrivateL19q_points_into_rangeIP13KZipFileEntryNSt3__14lessIvEEEEbPKT_S8_S8_T0_, symObjAddr: 0xBD40, symBinAddr: 0x41210, symSize: 0x50 }
  - { offset: 0xFBA2A, size: 0x8, addend: 0x0, symName: __ZTV4KZip, symObjAddr: 0xDD48, symBinAddr: 0x4BFA0, symSize: 0x0 }
  - { offset: 0x105433, size: 0x8, addend: 0x0, symName: __ZNSt3__18exchangeB9nqe210106IP15QTypedArrayDataIcEDnEET_RS4_OT0_, symObjAddr: 0xA260, symBinAddr: 0x3FA30, symSize: 0x30 }
  - { offset: 0x10548D, size: 0x8, addend: 0x0, symName: __ZNSt3__18exchangeB9nqe210106IPcDnEET_RS2_OT0_, symObjAddr: 0xA290, symBinAddr: 0x3FA60, symSize: 0x30 }
  - { offset: 0x1054E7, size: 0x8, addend: 0x0, symName: __ZNSt3__14dataB9nqe210106I17QArrayDataPointerIP13KZipFileEntryEEEDTcldtfp_4dataEERKT_, symObjAddr: 0xBD90, symBinAddr: 0x41260, symSize: 0x20 }
  - { offset: 0x10551C, size: 0x8, addend: 0x0, symName: __ZNSt3__18distanceB9nqe210106IPKP13KZipFileEntryEENS_15iterator_traitsIT_E15difference_typeES6_S6_, symObjAddr: 0xBDB0, symBinAddr: 0x41280, symSize: 0x30 }
  - { offset: 0x10555F, size: 0x8, addend: 0x0, symName: __ZNSt3__15beginB9nqe210106I17QArrayDataPointerIP13KZipFileEntryEEEDTcldtfp_5beginEERKT_, symObjAddr: 0xBDE0, symBinAddr: 0x412B0, symSize: 0x20 }
  - { offset: 0x105594, size: 0x8, addend: 0x0, symName: __ZNSt3__13endB9nqe210106I17QArrayDataPointerIP13KZipFileEntryEEEDTcldtfp_3endEERKT_, symObjAddr: 0xBE00, symBinAddr: 0x412D0, symSize: 0x20 }
  - { offset: 0x10560C, size: 0x8, addend: 0x0, symName: __ZNSt3__110__distanceB9nqe210106IPKP13KZipFileEntryEENS_15iterator_traitsIT_E15difference_typeES6_S6_NS_26random_access_iterator_tagE, symObjAddr: 0xBE70, symBinAddr: 0x41340, symSize: 0x20 }
  - { offset: 0x10565A, size: 0x8, addend: 0x0, symName: __ZNSt3__13getB9nqe210106ILm0EP15QTypedArrayDataIP13KZipFileEntryEPS3_EEONS_13tuple_elementIXT_ENS_4pairIT0_T1_EEE4typeEOSB_, symObjAddr: 0xC400, symBinAddr: 0x41890, symSize: 0x20 }
  - { offset: 0x1056A4, size: 0x8, addend: 0x0, symName: __ZNSt3__13getB9nqe210106ILm1EP15QTypedArrayDataIP13KZipFileEntryEPS3_EEONS_13tuple_elementIXT_ENS_4pairIT0_T1_EEE4typeEOSB_, symObjAddr: 0xC420, symBinAddr: 0x418B0, symSize: 0x20 }
  - { offset: 0x105768, size: 0x8, addend: 0x0, symName: __ZNSt3__18distanceB9nqe210106IN5QListIP13KZipFileEntryE14const_iteratorEEENS_15iterator_traitsIT_E15difference_typeES7_S7_, symObjAddr: 0xD230, symBinAddr: 0x42070, symSize: 0x40 }
  - { offset: 0x10580A, size: 0x8, addend: 0x0, symName: __ZNSt3__110__distanceB9nqe210106IN5QListIP13KZipFileEntryE14const_iteratorEEENS_15iterator_traitsIT_E15difference_typeES7_S7_NS_26random_access_iterator_tagE, symObjAddr: 0xD400, symBinAddr: 0x42240, symSize: 0x30 }
  - { offset: 0x1066DE, size: 0x8, addend: 0x0, symName: __ZN2Qt13DisambiguatedE, symObjAddr: 0xEDD9, symBinAddr: 0x4599A, symSize: 0x0 }
  - { offset: 0x10D1EA, size: 0x8, addend: 0x0, symName: __ZN12QHashPrivate13calculateHashI10QByteArrayEEmRKT_m, symObjAddr: 0x9460, symBinAddr: 0x3ED30, symSize: 0x30 }
  - { offset: 0x10F089, size: 0x8, addend: 0x0, symName: __ZTV13KZipFileEntry, symObjAddr: 0xDDC8, symBinAddr: 0x4C020, symSize: 0x0 }
  - { offset: 0x10FD77, size: 0x8, addend: 0x0, symName: __ZN4KZipC2ERK7QString, symObjAddr: 0x0, symBinAddr: 0x37620, symSize: 0xA0 }
  - { offset: 0x10FDB3, size: 0x8, addend: 0x0, symName: __ZN4KZip11KZipPrivateC1Ev, symObjAddr: 0xA0, symBinAddr: 0x376C0, symSize: 0x20 }
  - { offset: 0x10FDDD, size: 0x8, addend: 0x0, symName: __ZN4KZipC1ERK7QString, symObjAddr: 0xC0, symBinAddr: 0x376E0, symSize: 0x30 }
  - { offset: 0x10FE19, size: 0x8, addend: 0x0, symName: __ZN4KZipC2EP9QIODevice, symObjAddr: 0xF0, symBinAddr: 0x37710, symSize: 0xA0 }
  - { offset: 0x10FE55, size: 0x8, addend: 0x0, symName: __ZN4KZipC1EP9QIODevice, symObjAddr: 0x190, symBinAddr: 0x377B0, symSize: 0x30 }
  - { offset: 0x10FE91, size: 0x8, addend: 0x0, symName: __ZN4KZipD2Ev, symObjAddr: 0x1C0, symBinAddr: 0x377E0, symSize: 0x80 }
  - { offset: 0x10FEBE, size: 0x8, addend: 0x0, symName: __ZN4KZip11KZipPrivateD1Ev, symObjAddr: 0x250, symBinAddr: 0x37860, symSize: 0x20 }
  - { offset: 0x10FEEB, size: 0x8, addend: 0x0, symName: __ZN4KZipD1Ev, symObjAddr: 0x270, symBinAddr: 0x37880, symSize: 0x20 }
  - { offset: 0x10FF18, size: 0x8, addend: 0x0, symName: __ZN4KZipD0Ev, symObjAddr: 0x290, symBinAddr: 0x378A0, symSize: 0x30 }
  - { offset: 0x10FF45, size: 0x8, addend: 0x0, symName: __ZN4KZip11openArchiveE6QFlagsIN13QIODeviceBase12OpenModeFlagEE, symObjAddr: 0x2C0, symBinAddr: 0x378D0, symSize: 0x1DB0 }
  - { offset: 0x1102F3, size: 0x8, addend: 0x0, symName: __ZN5QListIP13KZipFileEntryE5clearEv, symObjAddr: 0x2070, symBinAddr: 0x39680, symSize: 0x90 }
  - { offset: 0x11032F, size: 0x8, addend: 0x0, symName: __ZN5QHashI10QByteArray13ParseFileInfoEC1Ev, symObjAddr: 0x2140, symBinAddr: 0x39710, symSize: 0x20 }
  - { offset: 0x110359, size: 0x8, addend: 0x0, symName: __ZN4KZip2trEPKcS1_i, symObjAddr: 0x2160, symBinAddr: 0x39730, symSize: 0x40 }
  - { offset: 0x110397, size: 0x8, addend: 0x0, symName: __ZL18transformFromMsDosPKc, symObjAddr: 0x2250, symBinAddr: 0x39770, symSize: 0x120 }
  - { offset: 0x11045E, size: 0x8, addend: 0x0, symName: __ZN13ParseFileInfoC1Ev, symObjAddr: 0x23C0, symBinAddr: 0x39890, symSize: 0x20 }
  - { offset: 0x110487, size: 0x8, addend: 0x0, symName: __ZL15parseExtraFieldPKcibR13ParseFileInfo, symObjAddr: 0x2420, symBinAddr: 0x398B0, symSize: 0x130 }
  - { offset: 0x11050B, size: 0x8, addend: 0x0, symName: __ZL21seekToNextHeaderTokenP9QIODeviceb, symObjAddr: 0x2550, symBinAddr: 0x399E0, symSize: 0x110 }
  - { offset: 0x1105A3, size: 0x8, addend: 0x0, symName: __ZL25handlePossibleHeaderBeginPKcP9QIODeviceb, symObjAddr: 0x26B0, symBinAddr: 0x39AF0, symSize: 0xF0 }
  - { offset: 0x1105F0, size: 0x8, addend: 0x0, symName: __ZN5QHashI10QByteArray13ParseFileInfoE6insertERKS0_RKS1_, symObjAddr: 0x27A0, symBinAddr: 0x39BE0, symSize: 0x40 }
  - { offset: 0x110634, size: 0x8, addend: 0x0, symName: __ZN13ParseFileInfoD1Ev, symObjAddr: 0x27E0, symBinAddr: 0x39C20, symSize: 0x20 }
  - { offset: 0x110660, size: 0x8, addend: 0x0, symName: __ZNK5QHashI10QByteArray13ParseFileInfoE5valueERKS0_RKS1_, symObjAddr: 0x2800, symBinAddr: 0x39C40, symSize: 0x70 }
  - { offset: 0x1106C2, size: 0x8, addend: 0x0, symName: __ZN5QFile10decodeNameERK10QByteArray, symObjAddr: 0x2870, symBinAddr: 0x39CB0, symSize: 0x80 }
  - { offset: 0x1106E5, size: 0x8, addend: 0x0, symName: __ZN13KZipFileEntryC1EP4KZipRK7QStringiRK9QDateTimeS4_S4_S4_S4_xxix, symObjAddr: 0x2AB0, symBinAddr: 0x39D30, symSize: 0xB0 }
  - { offset: 0x1107C9, size: 0x8, addend: 0x0, symName: __ZN13KZipFileEntry14setHeaderStartEx, symObjAddr: 0x2B60, symBinAddr: 0x39DE0, symSize: 0x20 }
  - { offset: 0x110801, size: 0x8, addend: 0x0, symName: __ZN13KZipFileEntry8setCRC32Em, symObjAddr: 0x2B80, symBinAddr: 0x39E00, symSize: 0x20 }
  - { offset: 0x110839, size: 0x8, addend: 0x0, symName: __ZN5QListIP13KZipFileEntryE6appendES1_, symObjAddr: 0x2BA0, symBinAddr: 0x39E20, symSize: 0x30 }
  - { offset: 0x1108E3, size: 0x8, addend: 0x0, symName: __ZNK7QString3argIJRS_S1_S1_EEENSt3__19enable_ifIXaagesZT_Li2Esr3stdE13conjunction_vIDpNS2_11conjunctionIJNS2_8negationIN9QtPrivate21treat_as_integral_argIu11__remove_cvIT_EEEEENS2_14is_convertibleIS8_14QAnyStringViewEEEEEEES_E4typeEDpOS8_, symObjAddr: 0x2BD0, symBinAddr: 0x39E50, symSize: 0x220 }
  - { offset: 0x1109CB, size: 0x8, addend: 0x0, symName: __ZNK7QString3argIxLb1EEES_T_ii5QChar, symObjAddr: 0x2DF0, symBinAddr: 0x3A070, symSize: 0x60 }
  - { offset: 0x110A3C, size: 0x8, addend: 0x0, symName: __ZN5QHashI10QByteArray13ParseFileInfoED1Ev, symObjAddr: 0x2E50, symBinAddr: 0x3A0D0, symSize: 0x20 }
  - { offset: 0x110A66, size: 0x8, addend: 0x0, symName: __ZN4KZip12closeArchiveEv, symObjAddr: 0x2E70, symBinAddr: 0x3A0F0, symSize: 0x1070 }
  - { offset: 0x110C1A, size: 0x8, addend: 0x0, symName: __ZNK6QFlagsIN13QIODeviceBase12OpenModeFlagEEntEv, symObjAddr: 0x3F20, symBinAddr: 0x3B160, symSize: 0x20 }
  - { offset: 0x110C40, size: 0x8, addend: 0x0, symName: __ZN20QMutableListIteratorIP13KZipFileEntryEC1ER5QListIS1_E, symObjAddr: 0x3F40, symBinAddr: 0x3B180, symSize: 0x30 }
  - { offset: 0x110C79, size: 0x8, addend: 0x0, symName: __ZNK20QMutableListIteratorIP13KZipFileEntryE7hasNextEv, symObjAddr: 0x3F70, symBinAddr: 0x3B1B0, symSize: 0x60 }
  - { offset: 0x110C9F, size: 0x8, addend: 0x0, symName: __ZN20QMutableListIteratorIP13KZipFileEntryE4nextEv, symObjAddr: 0x3FD0, symBinAddr: 0x3B210, symSize: 0x40 }
  - { offset: 0x110CC5, size: 0x8, addend: 0x0, symName: __ZN20QMutableListIteratorIP13KZipFileEntryE5valueEv, symObjAddr: 0x4010, symBinAddr: 0x3B250, symSize: 0x50 }
  - { offset: 0x110CEB, size: 0x8, addend: 0x0, symName: __ZNK13KZipFileEntry11headerStartEv, symObjAddr: 0x4060, symBinAddr: 0x3B2A0, symSize: 0x20 }
  - { offset: 0x110D14, size: 0x8, addend: 0x0, symName: __ZNK13KZipFileEntry5crc32Ev, symObjAddr: 0x40F0, symBinAddr: 0x3B2C0, symSize: 0x20 }
  - { offset: 0x110D3D, size: 0x8, addend: 0x0, symName: __ZNK13KZipFileEntry14compressedSizeEv, symObjAddr: 0x4110, symBinAddr: 0x3B2E0, symSize: 0x20 }
  - { offset: 0x110D66, size: 0x8, addend: 0x0, symName: __ZN20QMutableListIteratorIP13KZipFileEntryE7toFrontEv, symObjAddr: 0x4130, symBinAddr: 0x3B300, symSize: 0x50 }
  - { offset: 0x110D8C, size: 0x8, addend: 0x0, symName: __ZNK13KZipFileEntry4pathEv, symObjAddr: 0x41F0, symBinAddr: 0x3B350, symSize: 0x20 }
  - { offset: 0x110DB5, size: 0x8, addend: 0x0, symName: __ZNK13KZipFileEntry8encodingEv, symObjAddr: 0x4230, symBinAddr: 0x3B370, symSize: 0x20 }
  - { offset: 0x110DDD, size: 0x8, addend: 0x0, symName: __ZL16transformToMsDosRK9QDateTimePc, symObjAddr: 0x4250, symBinAddr: 0x3B390, symSize: 0x1E0 }
  - { offset: 0x110E3E, size: 0x8, addend: 0x0, symName: __ZNK5QListIP13KZipFileEntryE5countEv, symObjAddr: 0x4450, symBinAddr: 0x3B570, symSize: 0x20 }
  - { offset: 0x110E64, size: 0x8, addend: 0x0, symName: __ZN4KZip10doWriteDirERK7QStringS2_S2_tRK9QDateTimeS5_S5_, symObjAddr: 0x4470, symBinAddr: 0x3B590, symSize: 0x190 }
  - { offset: 0x110F06, size: 0x8, addend: 0x0, symName: __ZN4KZip16doPrepareWritingERK7QStringS2_S2_xtRK9QDateTimeS5_S5_, symObjAddr: 0x4650, symBinAddr: 0x3B720, symSize: 0x1080 }
  - { offset: 0x111191, size: 0x8, addend: 0x0, symName: __ZN12_GLOBAL__N_127QLoggingCategoryMacroHolderIL9QtMsgType1EEC1ERK16QLoggingCategory, symObjAddr: 0x56D0, symBinAddr: 0x3C7A0, symSize: 0x30 }
  - { offset: 0x1111C9, size: 0x8, addend: 0x0, symName: __ZNK12_GLOBAL__N_127QLoggingCategoryMacroHolderIL9QtMsgType1EEcvbEv, symObjAddr: 0x5700, symBinAddr: 0x3C7D0, symSize: 0x20 }
  - { offset: 0x1111EF, size: 0x8, addend: 0x0, symName: __ZNK12_GLOBAL__N_127QLoggingCategoryMacroHolderIL9QtMsgType1EE4nameEv, symObjAddr: 0x5720, symBinAddr: 0x3C7F0, symSize: 0x20 }
  - { offset: 0x111215, size: 0x8, addend: 0x0, symName: __ZN20QMutableListIteratorIP13KZipFileEntryE6removeEv, symObjAddr: 0x5840, symBinAddr: 0x3C810, symSize: 0xB0 }
  - { offset: 0x11123B, size: 0x8, addend: 0x0, symName: __ZN4KZip15doFinishWritingEx, symObjAddr: 0x5920, symBinAddr: 0x3C8C0, symSize: 0x200 }
  - { offset: 0x1112A0, size: 0x8, addend: 0x0, symName: __ZN13KZipFileEntry17setCompressedSizeEx, symObjAddr: 0x5B20, symBinAddr: 0x3CAC0, symSize: 0x20 }
  - { offset: 0x1112D8, size: 0x8, addend: 0x0, symName: __ZN4KZip14doWriteSymLinkERK7QStringS2_S2_S2_tRK9QDateTimeS5_S5_, symObjAddr: 0x5B40, symBinAddr: 0x3CAE0, symSize: 0x1C0 }
  - { offset: 0x111398, size: 0x8, addend: 0x0, symName: __ZNK4KZip11compressionEv, symObjAddr: 0x5D00, symBinAddr: 0x3CCA0, symSize: 0x30 }
  - { offset: 0x1113C1, size: 0x8, addend: 0x0, symName: __ZN4KZip14setCompressionENS_11CompressionE, symObjAddr: 0x5D30, symBinAddr: 0x3CCD0, symSize: 0x30 }
  - { offset: 0x1113F9, size: 0x8, addend: 0x0, symName: __ZN4KZip12virtual_hookEiPv, symObjAddr: 0x5D60, symBinAddr: 0x3CD00, symSize: 0x30 }
  - { offset: 0x111440, size: 0x8, addend: 0x0, symName: __ZN4KZip9writeDataEPKcx, symObjAddr: 0x5D90, symBinAddr: 0x3CD30, symSize: 0x270 }
  - { offset: 0x1114A7, size: 0x8, addend: 0x0, symName: __ZN4KZip13setExtraFieldENS_10ExtraFieldE, symObjAddr: 0x6000, symBinAddr: 0x3CFA0, symSize: 0x20 }
  - { offset: 0x1114DF, size: 0x8, addend: 0x0, symName: __ZNK4KZip10extraFieldEv, symObjAddr: 0x6020, symBinAddr: 0x3CFC0, symSize: 0x20 }
  - { offset: 0x111508, size: 0x8, addend: 0x0, symName: __ZN13KZipFileEntryC2EP4KZipRK7QStringiRK9QDateTimeS4_S4_S4_S4_xxix, symObjAddr: 0x6040, symBinAddr: 0x3CFE0, symSize: 0x130 }
  - { offset: 0x1115EA, size: 0x8, addend: 0x0, symName: __ZN13KZipFileEntry20KZipFileEntryPrivateC1Ev, symObjAddr: 0x6170, symBinAddr: 0x3D110, symSize: 0x20 }
  - { offset: 0x111614, size: 0x8, addend: 0x0, symName: __ZN13KZipFileEntryD2Ev, symObjAddr: 0x6190, symBinAddr: 0x3D130, symSize: 0x60 }
  - { offset: 0x111641, size: 0x8, addend: 0x0, symName: __ZN13KZipFileEntry20KZipFileEntryPrivateD1Ev, symObjAddr: 0x61F0, symBinAddr: 0x3D190, symSize: 0x20 }
  - { offset: 0x11166E, size: 0x8, addend: 0x0, symName: __ZN13KZipFileEntryD1Ev, symObjAddr: 0x6210, symBinAddr: 0x3D1B0, symSize: 0x20 }
  - { offset: 0x11169B, size: 0x8, addend: 0x0, symName: __ZN13KZipFileEntryD0Ev, symObjAddr: 0x6230, symBinAddr: 0x3D1D0, symSize: 0x30 }
  - { offset: 0x1116C8, size: 0x8, addend: 0x0, symName: __ZNK13KZipFileEntry4dataEv, symObjAddr: 0x6260, symBinAddr: 0x3D200, symSize: 0xC0 }
  - { offset: 0x111710, size: 0x8, addend: 0x0, symName: __ZNK13KZipFileEntry12createDeviceEv, symObjAddr: 0x6320, symBinAddr: 0x3D2C0, symSize: 0x300 }
  - { offset: 0x1117A3, size: 0x8, addend: 0x0, symName: __ZN12_GLOBAL__N_127QLoggingCategoryMacroHolderIL9QtMsgType2EEC1ERK16QLoggingCategory, symObjAddr: 0x6620, symBinAddr: 0x3D5C0, symSize: 0x30 }
  - { offset: 0x1117DB, size: 0x8, addend: 0x0, symName: __ZNK12_GLOBAL__N_127QLoggingCategoryMacroHolderIL9QtMsgType2EEcvbEv, symObjAddr: 0x6650, symBinAddr: 0x3D5F0, symSize: 0x20 }
  - { offset: 0x111801, size: 0x8, addend: 0x0, symName: __ZNK12_GLOBAL__N_127QLoggingCategoryMacroHolderIL9QtMsgType2EE4nameEv, symObjAddr: 0x6670, symBinAddr: 0x3D610, symSize: 0x20 }
  - { offset: 0x111827, size: 0x8, addend: 0x0, symName: __ZN6QDebuglsEi, symObjAddr: 0x6690, symBinAddr: 0x3D630, symSize: 0x40 }
  - { offset: 0x11185B, size: 0x8, addend: 0x0, symName: __ZN4KZip11KZipPrivateC2Ev, symObjAddr: 0x66D0, symBinAddr: 0x3D670, symSize: 0x60 }
  - { offset: 0x111885, size: 0x8, addend: 0x0, symName: __ZN5QListIP13KZipFileEntryEC1Ev, symObjAddr: 0x6730, symBinAddr: 0x3D6D0, symSize: 0x20 }
  - { offset: 0x1118AF, size: 0x8, addend: 0x0, symName: __ZN5QListIP13KZipFileEntryEC2Ev, symObjAddr: 0x6750, symBinAddr: 0x3D6F0, symSize: 0x20 }
  - { offset: 0x1118D9, size: 0x8, addend: 0x0, symName: __ZN17QArrayDataPointerIP13KZipFileEntryEC1Ev, symObjAddr: 0x6770, symBinAddr: 0x3D710, symSize: 0x20 }
  - { offset: 0x111903, size: 0x8, addend: 0x0, symName: __ZN17QArrayDataPointerIP13KZipFileEntryEC2Ev, symObjAddr: 0x6790, symBinAddr: 0x3D730, symSize: 0x30 }
  - { offset: 0x11192D, size: 0x8, addend: 0x0, symName: __ZN4KZip11KZipPrivateD2Ev, symObjAddr: 0x67C0, symBinAddr: 0x3D760, symSize: 0x20 }
  - { offset: 0x11195A, size: 0x8, addend: 0x0, symName: __ZN5QListIP13KZipFileEntryED1Ev, symObjAddr: 0x67E0, symBinAddr: 0x3D780, symSize: 0x20 }
  - { offset: 0x111986, size: 0x8, addend: 0x0, symName: __ZN5QListIP13KZipFileEntryED2Ev, symObjAddr: 0x6800, symBinAddr: 0x3D7A0, symSize: 0x20 }
  - { offset: 0x1119B2, size: 0x8, addend: 0x0, symName: __ZN17QArrayDataPointerIP13KZipFileEntryED1Ev, symObjAddr: 0x6820, symBinAddr: 0x3D7C0, symSize: 0x20 }
  - { offset: 0x1119DC, size: 0x8, addend: 0x0, symName: __ZN17QArrayDataPointerIP13KZipFileEntryED2Ev, symObjAddr: 0x6840, symBinAddr: 0x3D7E0, symSize: 0x40 }
  - { offset: 0x111A06, size: 0x8, addend: 0x0, symName: __ZN17QArrayDataPointerIP13KZipFileEntryE5derefEv, symObjAddr: 0x6880, symBinAddr: 0x3D820, symSize: 0x40 }
  - { offset: 0x111A2C, size: 0x8, addend: 0x0, symName: __ZN17QArrayDataPointerIP13KZipFileEntryEptEv, symObjAddr: 0x68C0, symBinAddr: 0x3D860, symSize: 0x10 }
  - { offset: 0x111A52, size: 0x8, addend: 0x0, symName: __ZN9QtPrivate12QPodArrayOpsIP13KZipFileEntryE10destroyAllEv, symObjAddr: 0x68D0, symBinAddr: 0x3D870, symSize: 0x70 }
  - { offset: 0x111A78, size: 0x8, addend: 0x0, symName: __ZN15QTypedArrayDataIP13KZipFileEntryE10deallocateEP10QArrayData, symObjAddr: 0x6940, symBinAddr: 0x3D8E0, symSize: 0x30 }
  - { offset: 0x111A9B, size: 0x8, addend: 0x0, symName: __ZN5QHashI10QByteArray13ParseFileInfoEC2Ev, symObjAddr: 0x6BB0, symBinAddr: 0x3D910, symSize: 0x20 }
  - { offset: 0x111AC5, size: 0x8, addend: 0x0, symName: __ZN13ParseFileInfoC2Ev, symObjAddr: 0x6DB0, symBinAddr: 0x3D930, symSize: 0x90 }
  - { offset: 0x111AEE, size: 0x8, addend: 0x0, symName: __ZL17parseExtTimestampPKcibR13ParseFileInfo, symObjAddr: 0x6E40, symBinAddr: 0x3D9C0, symSize: 0x190 }
  - { offset: 0x111B52, size: 0x8, addend: 0x0, symName: __ZL19parseInfoZipUnixOldPKcibR13ParseFileInfo, symObjAddr: 0x6FD0, symBinAddr: 0x3DB50, symSize: 0x130 }
  - { offset: 0x111BA9, size: 0x8, addend: 0x0, symName: __ZN13ParseFileInfoD2Ev, symObjAddr: 0x73C0, symBinAddr: 0x3DC80, symSize: 0x20 }
  - { offset: 0x111BD5, size: 0x8, addend: 0x0, symName: __ZN7QString8fromUtf8IvEES_RK10QByteArray, symObjAddr: 0x73E0, symBinAddr: 0x3DCA0, symSize: 0x50 }
  - { offset: 0x111BFB, size: 0x8, addend: 0x0, symName: __ZNK10QByteArray5beginEv, symObjAddr: 0x7480, symBinAddr: 0x3DCF0, symSize: 0x20 }
  - { offset: 0x111C21, size: 0x8, addend: 0x0, symName: __ZNK5QListIP13KZipFileEntryE4sizeEv, symObjAddr: 0x7DB0, symBinAddr: 0x3DD10, symSize: 0x50 }
  - { offset: 0x111C8A, size: 0x8, addend: 0x0, symName: __ZZNK5QListIP13KZipFileEntryE4sizeEvENKUlvE_clEv, symObjAddr: 0x7E00, symBinAddr: 0x3DD60, symSize: 0x50 }
  - { offset: 0x111CB4, size: 0x8, addend: 0x0, symName: __ZN13KZipFileEntry20KZipFileEntryPrivateC2Ev, symObjAddr: 0x8420, symBinAddr: 0x3DE00, symSize: 0x40 }
  - { offset: 0x111CDE, size: 0x8, addend: 0x0, symName: __ZN13KZipFileEntry20KZipFileEntryPrivateD2Ev, symObjAddr: 0x8460, symBinAddr: 0x3DE40, symSize: 0x20 }
  - { offset: 0x111D0B, size: 0x8, addend: 0x0, symName: __ZNK17QArrayDataPointerIP13KZipFileEntryE11needsDetachEv, symObjAddr: 0x8480, symBinAddr: 0x3DE60, symSize: 0x40 }
  - { offset: 0x111D31, size: 0x8, addend: 0x0, symName: __ZN17QArrayDataPointerIP13KZipFileEntryE17allocatedCapacityEv, symObjAddr: 0x84C0, symBinAddr: 0x3DEA0, symSize: 0x40 }
  - { offset: 0x111D57, size: 0x8, addend: 0x0, symName: __ZN17QArrayDataPointerIP13KZipFileEntryEC1ExxN10QArrayData16AllocationOptionE, symObjAddr: 0x8500, symBinAddr: 0x3DEE0, symSize: 0x50 }
  - { offset: 0x111DAB, size: 0x8, addend: 0x0, symName: __ZN17QArrayDataPointerIP13KZipFileEntryE4swapERS2_, symObjAddr: 0x8550, symBinAddr: 0x3DF30, symSize: 0x60 }
  - { offset: 0x111DDF, size: 0x8, addend: 0x0, symName: __ZN9QtPrivate12QPodArrayOpsIP13KZipFileEntryE8truncateEm, symObjAddr: 0x85B0, symBinAddr: 0x3DF90, symSize: 0xA0 }
  - { offset: 0x111E13, size: 0x8, addend: 0x0, symName: __ZN15QTypedArrayDataIP13KZipFileEntryE8allocateExN10QArrayData16AllocationOptionE, symObjAddr: 0x86A0, symBinAddr: 0x3E030, symSize: 0x60 }
  - { offset: 0x111E60, size: 0x8, addend: 0x0, symName: __ZN17QArrayDataPointerIP13KZipFileEntryEC1ENSt3__14pairIP15QTypedArrayDataIS1_EPS1_EEx, symObjAddr: 0x8700, symBinAddr: 0x3E090, symSize: 0x40 }
  - { offset: 0x111EB2, size: 0x8, addend: 0x0, symName: __ZNSt3__14pairIP15QTypedArrayDataIP13KZipFileEntryEPS3_EC1B9nqe210106IS5_S6_Li0EEEOT_OT0_, symObjAddr: 0x8740, symBinAddr: 0x3E0D0, symSize: 0x30 }
  - { offset: 0x111F10, size: 0x8, addend: 0x0, symName: __ZNSt3__14pairIP15QTypedArrayDataIP13KZipFileEntryEPS3_EC2B9nqe210106IS5_S6_Li0EEEOT_OT0_, symObjAddr: 0x8770, symBinAddr: 0x3E100, symSize: 0x30 }
  - { offset: 0x111F6E, size: 0x8, addend: 0x0, symName: __ZN17QArrayDataPointerIP13KZipFileEntryEC2ENSt3__14pairIP15QTypedArrayDataIS1_EPS1_EEx, symObjAddr: 0x87A0, symBinAddr: 0x3E130, symSize: 0x40 }
  - { offset: 0x111FB3, size: 0x8, addend: 0x0, symName: __Z11qt_ptr_swapI15QTypedArrayDataIP13KZipFileEntryEEvRPT_S6_, symObjAddr: 0x87E0, symBinAddr: 0x3E170, symSize: 0x40 }
  - { offset: 0x112000, size: 0x8, addend: 0x0, symName: __Z11qt_ptr_swapIP13KZipFileEntryEvRPT_S4_, symObjAddr: 0x8820, symBinAddr: 0x3E1B0, symSize: 0x40 }
  - { offset: 0x11204E, size: 0x8, addend: 0x0, symName: __ZNK17QArrayDataPointerIP13KZipFileEntryE9isMutableEv, symObjAddr: 0x8860, symBinAddr: 0x3E1F0, symSize: 0x20 }
  - { offset: 0x112074, size: 0x8, addend: 0x0, symName: __ZNK17QArrayDataPointerIP13KZipFileEntryE8isSharedEv, symObjAddr: 0x8880, symBinAddr: 0x3E210, symSize: 0x40 }
  - { offset: 0x11209A, size: 0x8, addend: 0x0, symName: __ZN5QHashI10QByteArray13ParseFileInfoED2Ev, symObjAddr: 0x88F0, symBinAddr: 0x3E250, symSize: 0x60 }
  - { offset: 0x1120C4, size: 0x8, addend: 0x0, symName: __ZN12QHashPrivate4DataINS_4NodeI10QByteArray13ParseFileInfoEEED1Ev, symObjAddr: 0x89A0, symBinAddr: 0x3E2B0, symSize: 0x20 }
  - { offset: 0x1120EE, size: 0x8, addend: 0x0, symName: __ZN12QHashPrivate4DataINS_4NodeI10QByteArray13ParseFileInfoEEED2Ev, symObjAddr: 0x89C0, symBinAddr: 0x3E2D0, symSize: 0x80 }
  - { offset: 0x112118, size: 0x8, addend: 0x0, symName: __ZN12QHashPrivate4SpanINS_4NodeI10QByteArray13ParseFileInfoEEED1Ev, symObjAddr: 0x8A40, symBinAddr: 0x3E350, symSize: 0x20 }
  - { offset: 0x112142, size: 0x8, addend: 0x0, symName: __ZN12QHashPrivate4SpanINS_4NodeI10QByteArray13ParseFileInfoEEED2Ev, symObjAddr: 0x8A60, symBinAddr: 0x3E370, symSize: 0x20 }
  - { offset: 0x11216C, size: 0x8, addend: 0x0, symName: __ZN12QHashPrivate4SpanINS_4NodeI10QByteArray13ParseFileInfoEEE8freeDataEv, symObjAddr: 0x8A80, symBinAddr: 0x3E390, symSize: 0xE0 }
  - { offset: 0x1121D6, size: 0x8, addend: 0x0, symName: __ZN12QHashPrivate4SpanINS_4NodeI10QByteArray13ParseFileInfoEEE5Entry4nodeEv, symObjAddr: 0x8B60, symBinAddr: 0x3E470, symSize: 0x10 }
  - { offset: 0x1121FC, size: 0x8, addend: 0x0, symName: __ZN12QHashPrivate4NodeI10QByteArray13ParseFileInfoED1Ev, symObjAddr: 0x8B70, symBinAddr: 0x3E480, symSize: 0x20 }
  - { offset: 0x112228, size: 0x8, addend: 0x0, symName: __ZN12QHashPrivate4NodeI10QByteArray13ParseFileInfoED2Ev, symObjAddr: 0x8B90, symBinAddr: 0x3E4A0, symSize: 0x30 }
  - { offset: 0x112254, size: 0x8, addend: 0x0, symName: __ZN5QHashI10QByteArray13ParseFileInfoE7emplaceIJRKS1_EEENS2_8iteratorERKS0_DpOT_, symObjAddr: 0x8BC0, symBinAddr: 0x3E4D0, symSize: 0x90 }
  - { offset: 0x1122B2, size: 0x8, addend: 0x0, symName: __ZN10QByteArrayC1ERKS_, symObjAddr: 0x8C50, symBinAddr: 0x3E560, symSize: 0x30 }
  - { offset: 0x1122ED, size: 0x8, addend: 0x0, symName: __ZN5QHashI10QByteArray13ParseFileInfoE7emplaceIJRKS1_EEENS2_8iteratorEOS0_DpOT_, symObjAddr: 0x8C80, symBinAddr: 0x3E590, symSize: 0x170 }
  - { offset: 0x11234C, size: 0x8, addend: 0x0, symName: __ZN10QByteArrayC2ERKS_, symObjAddr: 0x8DF0, symBinAddr: 0x3E700, symSize: 0x30 }
  - { offset: 0x112387, size: 0x8, addend: 0x0, symName: __ZN17QArrayDataPointerIcEC1ERKS0_, symObjAddr: 0x8E20, symBinAddr: 0x3E730, symSize: 0x30 }
  - { offset: 0x1123BF, size: 0x8, addend: 0x0, symName: __ZN17QArrayDataPointerIcEC2ERKS0_, symObjAddr: 0x8E50, symBinAddr: 0x3E760, symSize: 0x50 }
  - { offset: 0x1123F7, size: 0x8, addend: 0x0, symName: __ZN17QArrayDataPointerIcE3refEv, symObjAddr: 0x8EA0, symBinAddr: 0x3E7B0, symSize: 0x30 }
  - { offset: 0x11241D, size: 0x8, addend: 0x0, symName: __ZNK5QHashI10QByteArray13ParseFileInfoE10isDetachedEv, symObjAddr: 0x8ED0, symBinAddr: 0x3E7E0, symSize: 0x40 }
  - { offset: 0x112443, size: 0x8, addend: 0x0, symName: __ZNK12QHashPrivate4DataINS_4NodeI10QByteArray13ParseFileInfoEEE10shouldGrowEv, symObjAddr: 0x8F10, symBinAddr: 0x3E820, symSize: 0x30 }
  - { offset: 0x112469, size: 0x8, addend: 0x0, symName: __ZN5QHashI10QByteArray13ParseFileInfoE14emplace_helperIJS1_EEENS2_8iteratorEOS0_DpOT_, symObjAddr: 0x8F40, symBinAddr: 0x3E850, symSize: 0x90 }
  - { offset: 0x1124C7, size: 0x8, addend: 0x0, symName: __ZN13ParseFileInfoC1ERKS_, symObjAddr: 0x8FD0, symBinAddr: 0x3E8E0, symSize: 0x30 }
  - { offset: 0x1124FC, size: 0x8, addend: 0x0, symName: __ZN5QHashI10QByteArray13ParseFileInfoE14emplace_helperIJRKS1_EEENS2_8iteratorEOS0_DpOT_, symObjAddr: 0x9000, symBinAddr: 0x3E910, symSize: 0x90 }
  - { offset: 0x11255A, size: 0x8, addend: 0x0, symName: __ZN5QHashI10QByteArray13ParseFileInfoEC1ERKS2_, symObjAddr: 0x9090, symBinAddr: 0x3E9A0, symSize: 0x30 }
  - { offset: 0x112593, size: 0x8, addend: 0x0, symName: __ZN5QHashI10QByteArray13ParseFileInfoE6detachEv, symObjAddr: 0x90C0, symBinAddr: 0x3E9D0, symSize: 0x50 }
  - { offset: 0x1125B9, size: 0x8, addend: 0x0, symName: __ZN12QHashPrivate4DataINS_4NodeI10QByteArray13ParseFileInfoEEE12findOrInsertIS2_EENS5_15InsertionResultERKT_, symObjAddr: 0x9150, symBinAddr: 0x3EA20, symSize: 0x1A0 }
  - { offset: 0x112615, size: 0x8, addend: 0x0, symName: __ZN12QHashPrivate4NodeI10QByteArray13ParseFileInfoE13createInPlaceIJS2_EEEvPS3_OS1_DpOT_, symObjAddr: 0x92F0, symBinAddr: 0x3EBC0, symSize: 0x40 }
  - { offset: 0x11265F, size: 0x8, addend: 0x0, symName: __ZNK12QHashPrivate8iteratorINS_4NodeI10QByteArray13ParseFileInfoEEE4nodeEv, symObjAddr: 0x9330, symBinAddr: 0x3EC00, symSize: 0x80 }
  - { offset: 0x112685, size: 0x8, addend: 0x0, symName: __ZN12QHashPrivate4NodeI10QByteArray13ParseFileInfoE12emplaceValueIJS2_EEEvDpOT_, symObjAddr: 0x93B0, symBinAddr: 0x3EC80, symSize: 0x50 }
  - { offset: 0x1126C4, size: 0x8, addend: 0x0, symName: __ZN5QHashI10QByteArray13ParseFileInfoE8iteratorC1EN12QHashPrivate8iteratorINS4_4NodeIS0_S1_EEEE, symObjAddr: 0x9400, symBinAddr: 0x3ECD0, symSize: 0x30 }
  - { offset: 0x1126FD, size: 0x8, addend: 0x0, symName: __ZN12QHashPrivate4DataINS_4NodeI10QByteArray13ParseFileInfoEEE6BucketC1EPNS_4SpanIS4_EEm, symObjAddr: 0x9430, symBinAddr: 0x3ED00, symSize: 0x30 }
  - { offset: 0x112745, size: 0x8, addend: 0x0, symName: __ZNK12QHashPrivate4DataINS_4NodeI10QByteArray13ParseFileInfoEEE18findBucketWithHashIS2_EENS5_6BucketERKT_m, symObjAddr: 0x9490, symBinAddr: 0x3ED60, symSize: 0xE0 }
  - { offset: 0x1127CD, size: 0x8, addend: 0x0, symName: __ZNK12QHashPrivate4DataINS_4NodeI10QByteArray13ParseFileInfoEEE6Bucket8isUnusedEv, symObjAddr: 0x9570, symBinAddr: 0x3EE40, symSize: 0x30 }
  - { offset: 0x1127F3, size: 0x8, addend: 0x0, symName: __ZNK12QHashPrivate4DataINS_4NodeI10QByteArray13ParseFileInfoEEE6Bucket10toIteratorEPKS5_, symObjAddr: 0x95A0, symBinAddr: 0x3EE70, symSize: 0x40 }
  - { offset: 0x112828, size: 0x8, addend: 0x0, symName: __ZN12QHashPrivate4DataINS_4NodeI10QByteArray13ParseFileInfoEEE6rehashEm, symObjAddr: 0x95E0, symBinAddr: 0x3EEB0, symSize: 0x200 }
  - { offset: 0x112935, size: 0x8, addend: 0x0, symName: __ZNK12QHashPrivate4DataINS_4NodeI10QByteArray13ParseFileInfoEEE6Bucket6insertEv, symObjAddr: 0x97E0, symBinAddr: 0x3F0B0, symSize: 0x30 }
  - { offset: 0x11295B, size: 0x8, addend: 0x0, symName: __ZN12QHashPrivate4DataINS_4NodeI10QByteArray13ParseFileInfoEEE6BucketC2EPNS_4SpanIS4_EEm, symObjAddr: 0x9810, symBinAddr: 0x3F0E0, symSize: 0x30 }
  - { offset: 0x1129A2, size: 0x8, addend: 0x0, symName: __Z5qHashRK10QByteArraymN2Qt15Disambiguated_tE, symObjAddr: 0x9840, symBinAddr: 0x3F110, symSize: 0x40 }
  - { offset: 0x1129E7, size: 0x8, addend: 0x0, symName: __Z28qToByteArrayViewIgnoringNullI10QByteArrayLb1EE14QByteArrayViewRKT_, symObjAddr: 0x9880, symBinAddr: 0x3F150, symSize: 0x50 }
  - { offset: 0x112A25, size: 0x8, addend: 0x0, symName: __ZN12QHashPrivate4DataINS_4NodeI10QByteArray13ParseFileInfoEEE6BucketC1EPKS5_m, symObjAddr: 0x98F0, symBinAddr: 0x3F1A0, symSize: 0x30 }
  - { offset: 0x112A6D, size: 0x8, addend: 0x0, symName: __ZNK12QHashPrivate4DataINS_4NodeI10QByteArray13ParseFileInfoEEE6Bucket6offsetEv, symObjAddr: 0x9920, symBinAddr: 0x3F1D0, symSize: 0x30 }
  - { offset: 0x112A93, size: 0x8, addend: 0x0, symName: __ZN12QHashPrivate4DataINS_4NodeI10QByteArray13ParseFileInfoEEE6Bucket12nodeAtOffsetEm, symObjAddr: 0x9950, symBinAddr: 0x3F200, symSize: 0x30 }
  - { offset: 0x112AC7, size: 0x8, addend: 0x0, symName: __Z11qHashEqualsI10QByteArrayEbRKT_S3_, symObjAddr: 0x9980, symBinAddr: 0x3F230, symSize: 0x30 }
  - { offset: 0x112B0E, size: 0x8, addend: 0x0, symName: __ZN12QHashPrivate4DataINS_4NodeI10QByteArray13ParseFileInfoEEE6Bucket14advanceWrappedEPKS5_, symObjAddr: 0x99B0, symBinAddr: 0x3F260, symSize: 0x30 }
  - { offset: 0x112B43, size: 0x8, addend: 0x0, symName: __ZN12QHashPrivate4DataINS_4NodeI10QByteArray13ParseFileInfoEEE6BucketC2EPKS5_m, symObjAddr: 0x99E0, symBinAddr: 0x3F290, symSize: 0x40 }
  - { offset: 0x112B8B, size: 0x8, addend: 0x0, symName: __ZNK12QHashPrivate4SpanINS_4NodeI10QByteArray13ParseFileInfoEEE6offsetEm, symObjAddr: 0x9A20, symBinAddr: 0x3F2D0, symSize: 0x20 }
  - { offset: 0x112BC0, size: 0x8, addend: 0x0, symName: __ZN12QHashPrivate4SpanINS_4NodeI10QByteArray13ParseFileInfoEEE8atOffsetEm, symObjAddr: 0x9A40, symBinAddr: 0x3F2F0, symSize: 0x60 }
  - { offset: 0x112BF4, size: 0x8, addend: 0x0, symName: __ZeqRK10QByteArrayS1_, symObjAddr: 0x9AA0, symBinAddr: 0x3F350, symSize: 0x50 }
  - { offset: 0x112C46, size: 0x8, addend: 0x0, symName: __Z13comparesEqualRK10QByteArrayRK14QByteArrayView, symObjAddr: 0x9AF0, symBinAddr: 0x3F3A0, symSize: 0x40 }
  - { offset: 0x112C83, size: 0x8, addend: 0x0, symName: __ZeqRK14QByteArrayViewS1_, symObjAddr: 0x9B30, symBinAddr: 0x3F3E0, symSize: 0x30 }
  - { offset: 0x112CD5, size: 0x8, addend: 0x0, symName: __Z13comparesEqualRK14QByteArrayViewS1_, symObjAddr: 0x9B60, symBinAddr: 0x3F410, symSize: 0xB0 }
  - { offset: 0x112D13, size: 0x8, addend: 0x0, symName: __ZNK14QByteArrayView4sizeEv, symObjAddr: 0x9C10, symBinAddr: 0x3F4C0, symSize: 0x20 }
  - { offset: 0x112D39, size: 0x8, addend: 0x0, symName: __ZNK14QByteArrayView4dataEv, symObjAddr: 0x9C30, symBinAddr: 0x3F4E0, symSize: 0x20 }
  - { offset: 0x112D5F, size: 0x8, addend: 0x0, symName: __ZN12QHashPrivate4DataINS_4NodeI10QByteArray13ParseFileInfoEEE6Bucket12advance_implEPKS5_PNS_4SpanIS4_EE, symObjAddr: 0x9C50, symBinAddr: 0x3F500, symSize: 0xC0 }
  - { offset: 0x112DA3, size: 0x8, addend: 0x0, symName: __ZNK12QHashPrivate4SpanINS_4NodeI10QByteArray13ParseFileInfoEEE7hasNodeEm, symObjAddr: 0x9D10, symBinAddr: 0x3F5C0, symSize: 0x30 }
  - { offset: 0x112DD8, size: 0x8, addend: 0x0, symName: __ZNK12QHashPrivate4DataINS_4NodeI10QByteArray13ParseFileInfoEEE6Bucket13toBucketIndexEPKS5_, symObjAddr: 0x9D40, symBinAddr: 0x3F5F0, symSize: 0x40 }
  - { offset: 0x112E0D, size: 0x8, addend: 0x0, symName: __ZN12QHashPrivate4DataINS_4NodeI10QByteArray13ParseFileInfoEEE13allocateSpansEm, symObjAddr: 0x9DF0, symBinAddr: 0x3F630, symSize: 0x100 }
  - { offset: 0x112E5E, size: 0x8, addend: 0x0, symName: __ZN12QHashPrivate4SpanINS_4NodeI10QByteArray13ParseFileInfoEEE2atEm, symObjAddr: 0x9EF0, symBinAddr: 0x3F730, symSize: 0x90 }
  - { offset: 0x112E93, size: 0x8, addend: 0x0, symName: __ZNK12QHashPrivate4DataINS_4NodeI10QByteArray13ParseFileInfoEEE10findBucketIS2_EENS5_6BucketERKT_, symObjAddr: 0x9F80, symBinAddr: 0x3F7C0, symSize: 0x50 }
  - { offset: 0x112EE6, size: 0x8, addend: 0x0, symName: __ZN12QHashPrivate4NodeI10QByteArray13ParseFileInfoEC1EOS3_, symObjAddr: 0x9FD0, symBinAddr: 0x3F810, symSize: 0x30 }
  - { offset: 0x112F1B, size: 0x8, addend: 0x0, symName: __ZN12QHashPrivate4SpanINS_4NodeI10QByteArray13ParseFileInfoEEEC1Ev, symObjAddr: 0xA070, symBinAddr: 0x3F840, symSize: 0x20 }
  - { offset: 0x112F45, size: 0x8, addend: 0x0, symName: __ZN12QHashPrivate4SpanINS_4NodeI10QByteArray13ParseFileInfoEEEC2Ev, symObjAddr: 0xA090, symBinAddr: 0x3F860, symSize: 0x40 }
  - { offset: 0x112F6F, size: 0x8, addend: 0x0, symName: __ZN12QHashPrivate4NodeI10QByteArray13ParseFileInfoEC2EOS3_, symObjAddr: 0xA0D0, symBinAddr: 0x3F8A0, symSize: 0x40 }
  - { offset: 0x112FA4, size: 0x8, addend: 0x0, symName: __ZN10QByteArrayC1EOS_, symObjAddr: 0xA110, symBinAddr: 0x3F8E0, symSize: 0x30 }
  - { offset: 0x112FDC, size: 0x8, addend: 0x0, symName: __ZN13ParseFileInfoC1EOS_, symObjAddr: 0xA140, symBinAddr: 0x3F910, symSize: 0x30 }
  - { offset: 0x113011, size: 0x8, addend: 0x0, symName: __ZN10QByteArrayC2EOS_, symObjAddr: 0xA170, symBinAddr: 0x3F940, symSize: 0x30 }
  - { offset: 0x113049, size: 0x8, addend: 0x0, symName: __ZN17QArrayDataPointerIcEC1EOS0_, symObjAddr: 0xA1A0, symBinAddr: 0x3F970, symSize: 0x30 }
  - { offset: 0x113081, size: 0x8, addend: 0x0, symName: __ZN17QArrayDataPointerIcEC2EOS0_, symObjAddr: 0xA1D0, symBinAddr: 0x3F9A0, symSize: 0x90 }
  - { offset: 0x1130B9, size: 0x8, addend: 0x0, symName: __ZN13ParseFileInfoC2EOS_, symObjAddr: 0xA2F0, symBinAddr: 0x3FA90, symSize: 0x60 }
  - { offset: 0x1130EE, size: 0x8, addend: 0x0, symName: __ZN12QHashPrivate4SpanINS_4NodeI10QByteArray13ParseFileInfoEEE6insertEm, symObjAddr: 0xA350, symBinAddr: 0x3FAF0, symSize: 0x110 }
  - { offset: 0x113132, size: 0x8, addend: 0x0, symName: __ZN12QHashPrivate4SpanINS_4NodeI10QByteArray13ParseFileInfoEEE10addStorageEv, symObjAddr: 0xA460, symBinAddr: 0x3FC00, symSize: 0x1F0 }
  - { offset: 0x1131B2, size: 0x8, addend: 0x0, symName: __ZN12QHashPrivate4SpanINS_4NodeI10QByteArray13ParseFileInfoEEE5Entry8nextFreeEv, symObjAddr: 0xA650, symBinAddr: 0x3FDF0, symSize: 0x10 }
  - { offset: 0x1131D8, size: 0x8, addend: 0x0, symName: __ZNK12QHashPrivate8iteratorINS_4NodeI10QByteArray13ParseFileInfoEEE8isUnusedEv, symObjAddr: 0xA660, symBinAddr: 0x3FE00, symSize: 0x60 }
  - { offset: 0x1131FE, size: 0x8, addend: 0x0, symName: __ZNK12QHashPrivate8iteratorINS_4NodeI10QByteArray13ParseFileInfoEEE4spanEv, symObjAddr: 0xA6C0, symBinAddr: 0x3FE60, symSize: 0x20 }
  - { offset: 0x113224, size: 0x8, addend: 0x0, symName: __ZNK12QHashPrivate8iteratorINS_4NodeI10QByteArray13ParseFileInfoEEE5indexEv, symObjAddr: 0xA6E0, symBinAddr: 0x3FE80, symSize: 0x20 }
  - { offset: 0x11324A, size: 0x8, addend: 0x0, symName: __ZN13ParseFileInfoaSEOS_, symObjAddr: 0xA700, symBinAddr: 0x3FEA0, symSize: 0x60 }
  - { offset: 0x11327B, size: 0x8, addend: 0x0, symName: __ZN5QHashI10QByteArray13ParseFileInfoE8iteratorC2EN12QHashPrivate8iteratorINS4_4NodeIS0_S1_EEEE, symObjAddr: 0xA760, symBinAddr: 0x3FF00, symSize: 0x30 }
  - { offset: 0x1132B4, size: 0x8, addend: 0x0, symName: __ZN13ParseFileInfoC2ERKS_, symObjAddr: 0xA790, symBinAddr: 0x3FF30, symSize: 0x60 }
  - { offset: 0x1132E9, size: 0x8, addend: 0x0, symName: __ZN12QHashPrivate4NodeI10QByteArray13ParseFileInfoE13createInPlaceIJRKS2_EEEvPS3_OS1_DpOT_, symObjAddr: 0xA7F0, symBinAddr: 0x3FF90, symSize: 0x40 }
  - { offset: 0x113333, size: 0x8, addend: 0x0, symName: __ZN12QHashPrivate4NodeI10QByteArray13ParseFileInfoE12emplaceValueIJRKS2_EEEvDpOT_, symObjAddr: 0xA830, symBinAddr: 0x3FFD0, symSize: 0x50 }
  - { offset: 0x113372, size: 0x8, addend: 0x0, symName: __ZN5QHashI10QByteArray13ParseFileInfoEC2ERKS2_, symObjAddr: 0xA880, symBinAddr: 0x40020, symSize: 0x40 }
  - { offset: 0x1133AB, size: 0x8, addend: 0x0, symName: __ZN12QHashPrivate4DataINS_4NodeI10QByteArray13ParseFileInfoEEE8detachedEPS5_, symObjAddr: 0xA960, symBinAddr: 0x40060, symSize: 0xE0 }
  - { offset: 0x1133DE, size: 0x8, addend: 0x0, symName: __ZN12QHashPrivate4DataINS_4NodeI10QByteArray13ParseFileInfoEEEC1Em, symObjAddr: 0xAA40, symBinAddr: 0x40140, symSize: 0x30 }
  - { offset: 0x113417, size: 0x8, addend: 0x0, symName: __ZN12QHashPrivate4DataINS_4NodeI10QByteArray13ParseFileInfoEEEC1ERKS5_, symObjAddr: 0xAA70, symBinAddr: 0x40170, symSize: 0x30 }
  - { offset: 0x113450, size: 0x8, addend: 0x0, symName: __ZN12QHashPrivate4DataINS_4NodeI10QByteArray13ParseFileInfoEEEC2Em, symObjAddr: 0xAAA0, symBinAddr: 0x401A0, symSize: 0xA0 }
  - { offset: 0x113520, size: 0x8, addend: 0x0, symName: __ZN12QHashPrivate4DataINS_4NodeI10QByteArray13ParseFileInfoEEEC2ERKS5_, symObjAddr: 0xAD00, symBinAddr: 0x40240, symSize: 0x190 }
  - { offset: 0x113626, size: 0x8, addend: 0x0, symName: __ZNK12QHashPrivate4SpanINS_4NodeI10QByteArray13ParseFileInfoEEE2atEm, symObjAddr: 0xAE90, symBinAddr: 0x403D0, symSize: 0x90 }
  - { offset: 0x11365B, size: 0x8, addend: 0x0, symName: __ZN12QHashPrivate4NodeI10QByteArray13ParseFileInfoEC1ERKS3_, symObjAddr: 0xAF20, symBinAddr: 0x40460, symSize: 0x30 }
  - { offset: 0x113690, size: 0x8, addend: 0x0, symName: __ZN12QHashPrivate4NodeI10QByteArray13ParseFileInfoEC2ERKS3_, symObjAddr: 0xAF50, symBinAddr: 0x40490, symSize: 0x40 }
  - { offset: 0x1136C5, size: 0x8, addend: 0x0, symName: __ZNK5QHashI10QByteArray13ParseFileInfoE9valueImplIS0_EEPS1_RKT_, symObjAddr: 0xAF90, symBinAddr: 0x404D0, symSize: 0x60 }
  - { offset: 0x113721, size: 0x8, addend: 0x0, symName: __ZNK12QHashPrivate4DataINS_4NodeI10QByteArray13ParseFileInfoEEE8findNodeIS2_EEPS4_RKT_, symObjAddr: 0xAFF0, symBinAddr: 0x40530, symSize: 0x70 }
  - { offset: 0x11376E, size: 0x8, addend: 0x0, symName: __ZN12QHashPrivate4DataINS_4NodeI10QByteArray13ParseFileInfoEEE6Bucket4nodeEv, symObjAddr: 0xB060, symBinAddr: 0x405A0, symSize: 0x30 }
  - { offset: 0x113794, size: 0x8, addend: 0x0, symName: __ZN5QListIP13KZipFileEntryE11emplaceBackIJRS1_EEES4_DpOT_, symObjAddr: 0xB090, symBinAddr: 0x405D0, symSize: 0x70 }
  - { offset: 0x1137D4, size: 0x8, addend: 0x0, symName: __ZN9QtPrivate12QPodArrayOpsIP13KZipFileEntryE7emplaceIJRS2_EEEvxDpOT_, symObjAddr: 0xB100, symBinAddr: 0x40640, symSize: 0x140 }
  - { offset: 0x113859, size: 0x8, addend: 0x0, symName: __ZN5QListIP13KZipFileEntryE3endEv, symObjAddr: 0xB240, symBinAddr: 0x40780, symSize: 0x40 }
  - { offset: 0x11387F, size: 0x8, addend: 0x0, symName: __ZNK5QListIP13KZipFileEntryE8iteratormiEx, symObjAddr: 0xB280, symBinAddr: 0x407C0, symSize: 0x40 }
  - { offset: 0x1138B3, size: 0x8, addend: 0x0, symName: __ZNK5QListIP13KZipFileEntryE8iteratordeEv, symObjAddr: 0xB2C0, symBinAddr: 0x40800, symSize: 0x20 }
  - { offset: 0x1138D9, size: 0x8, addend: 0x0, symName: __ZNK17QArrayDataPointerIP13KZipFileEntryE14freeSpaceAtEndEv, symObjAddr: 0xB2E0, symBinAddr: 0x40820, symSize: 0x60 }
  - { offset: 0x1138FF, size: 0x8, addend: 0x0, symName: __ZN17QArrayDataPointerIP13KZipFileEntryE3endEv, symObjAddr: 0xB340, symBinAddr: 0x40880, symSize: 0x30 }
  - { offset: 0x113925, size: 0x8, addend: 0x0, symName: __ZNK17QArrayDataPointerIP13KZipFileEntryE16freeSpaceAtBeginEv, symObjAddr: 0xB370, symBinAddr: 0x408B0, symSize: 0x60 }
  - { offset: 0x11394B, size: 0x8, addend: 0x0, symName: __ZN17QArrayDataPointerIP13KZipFileEntryE5beginEv, symObjAddr: 0xB3D0, symBinAddr: 0x40910, symSize: 0x20 }
  - { offset: 0x113971, size: 0x8, addend: 0x0, symName: __ZN17QArrayDataPointerIP13KZipFileEntryE13detachAndGrowEN10QArrayData14GrowthPositionExPPKS1_PS2_, symObjAddr: 0xB3F0, symBinAddr: 0x40930, symSize: 0x100 }
  - { offset: 0x1139EB, size: 0x8, addend: 0x0, symName: __ZN9QtPrivate12QPodArrayOpsIP13KZipFileEntryE10createHoleEN10QArrayData14GrowthPositionExx, symObjAddr: 0xB4F0, symBinAddr: 0x40A30, symSize: 0x150 }
  - { offset: 0x113A49, size: 0x8, addend: 0x0, symName: __ZN17QArrayDataPointerIP13KZipFileEntryE4dataEv, symObjAddr: 0xB660, symBinAddr: 0x40B80, symSize: 0x20 }
  - { offset: 0x113A6F, size: 0x8, addend: 0x0, symName: __ZN15QTypedArrayDataIP13KZipFileEntryE9dataStartEP10QArrayDatax, symObjAddr: 0xB680, symBinAddr: 0x40BA0, symSize: 0x80 }
  - { offset: 0x113AAE, size: 0x8, addend: 0x0, symName: __ZN17QArrayDataPointerIP13KZipFileEntryE20tryReadjustFreeSpaceEN10QArrayData14GrowthPositionExPPKS1_, symObjAddr: 0xB700, symBinAddr: 0x40C20, symSize: 0x1E0 }
  - { offset: 0x113B3E, size: 0x8, addend: 0x0, symName: __ZN17QArrayDataPointerIP13KZipFileEntryE17reallocateAndGrowEN10QArrayData14GrowthPositionExPS2_, symObjAddr: 0xB8E0, symBinAddr: 0x40E00, symSize: 0x260 }
  - { offset: 0x113BBA, size: 0x8, addend: 0x0, symName: __ZNK17QArrayDataPointerIP13KZipFileEntryE22constAllocatedCapacityEv, symObjAddr: 0xBB40, symBinAddr: 0x41060, symSize: 0x40 }
  - { offset: 0x113BE0, size: 0x8, addend: 0x0, symName: __ZN17QArrayDataPointerIP13KZipFileEntryE8relocateExPPKS1_, symObjAddr: 0xBBD0, symBinAddr: 0x410A0, symSize: 0x80 }
  - { offset: 0x113C43, size: 0x8, addend: 0x0, symName: __ZNKSt3__14lessIvEclB9nqe210106IRPKP13KZipFileEntryS7_EEDTltclsr3stdE7forwardIT_Efp_Eclsr3stdE7forwardIT0_Efp0_EEOS8_OS9_, symObjAddr: 0xBE20, symBinAddr: 0x412F0, symSize: 0x30 }
  - { offset: 0x113C99, size: 0x8, addend: 0x0, symName: __ZNK17QArrayDataPointerIP13KZipFileEntryE4dataEv, symObjAddr: 0xBE50, symBinAddr: 0x41320, symSize: 0x20 }
  - { offset: 0x113CBF, size: 0x8, addend: 0x0, symName: __ZNK17QArrayDataPointerIP13KZipFileEntryE5beginEv, symObjAddr: 0xBE90, symBinAddr: 0x41360, symSize: 0x20 }
  - { offset: 0x113CE5, size: 0x8, addend: 0x0, symName: __ZNK17QArrayDataPointerIP13KZipFileEntryE3endEv, symObjAddr: 0xBEB0, symBinAddr: 0x41380, symSize: 0x30 }
  - { offset: 0x113D0B, size: 0x8, addend: 0x0, symName: __ZN9QtPrivate12QPodArrayOpsIP13KZipFileEntryE10reallocateExN10QArrayData16AllocationOptionE, symObjAddr: 0xBEE0, symBinAddr: 0x413B0, symSize: 0x80 }
  - { offset: 0x113D5E, size: 0x8, addend: 0x0, symName: __ZN17QArrayDataPointerIP13KZipFileEntryE12allocateGrowERKS2_xN10QArrayData14GrowthPositionE, symObjAddr: 0xBF60, symBinAddr: 0x41430, symSize: 0x230 }
  - { offset: 0x113DF9, size: 0x8, addend: 0x0, symName: __ZN9QtPrivate12QPodArrayOpsIP13KZipFileEntryE10copyAppendEPKS2_S5_, symObjAddr: 0xC190, symBinAddr: 0x41660, symSize: 0x140 }
  - { offset: 0x113E3B, size: 0x8, addend: 0x0, symName: __ZN9QtPrivate12QPodArrayOpsIP13KZipFileEntryE10moveAppendEPS2_S4_, symObjAddr: 0xC2D0, symBinAddr: 0x417A0, symSize: 0x30 }
  - { offset: 0x113E7D, size: 0x8, addend: 0x0, symName: __ZN15QTypedArrayDataIP13KZipFileEntryE19reallocateUnalignedEPS2_PS1_xN10QArrayData16AllocationOptionE, symObjAddr: 0xC300, symBinAddr: 0x417D0, symSize: 0x70 }
  - { offset: 0x113ED8, size: 0x8, addend: 0x0, symName: __ZNK17QArrayDataPointerIP13KZipFileEntryE14detachCapacityEx, symObjAddr: 0xC3B0, symBinAddr: 0x41840, symSize: 0x50 }
  - { offset: 0x113F0D, size: 0x8, addend: 0x0, symName: __ZN17QArrayDataPointerIP13KZipFileEntryEC1EP15QTypedArrayDataIS1_EPS1_x, symObjAddr: 0xC440, symBinAddr: 0x418D0, symSize: 0x40 }
  - { offset: 0x113F61, size: 0x8, addend: 0x0, symName: __ZNK17QArrayDataPointerIP13KZipFileEntryE5flagsEv, symObjAddr: 0xC480, symBinAddr: 0x41910, symSize: 0x40 }
  - { offset: 0x113F87, size: 0x8, addend: 0x0, symName: __ZNSt3__110__get_pairILm0EE3getB9nqe210106IP15QTypedArrayDataIP13KZipFileEntryEPS5_EEOT_ONS_4pairIS9_T0_EE, symObjAddr: 0xC650, symBinAddr: 0x41950, symSize: 0x10 }
  - { offset: 0x113FBD, size: 0x8, addend: 0x0, symName: __ZNSt3__110__get_pairILm1EE3getB9nqe210106IP15QTypedArrayDataIP13KZipFileEntryEPS5_EEOT0_ONS_4pairIT_S9_EE, symObjAddr: 0xC660, symBinAddr: 0x41960, symSize: 0x20 }
  - { offset: 0x113FF3, size: 0x8, addend: 0x0, symName: __ZN17QArrayDataPointerIP13KZipFileEntryEC2EP15QTypedArrayDataIS1_EPS1_x, symObjAddr: 0xC680, symBinAddr: 0x41980, symSize: 0x40 }
  - { offset: 0x114047, size: 0x8, addend: 0x0, symName: __ZN5QListIP13KZipFileEntryE6detachEv, symObjAddr: 0xC720, symBinAddr: 0x419C0, symSize: 0x20 }
  - { offset: 0x11406D, size: 0x8, addend: 0x0, symName: __ZN5QListIP13KZipFileEntryE8iteratorC1EPS1_, symObjAddr: 0xC740, symBinAddr: 0x419E0, symSize: 0x30 }
  - { offset: 0x1140A5, size: 0x8, addend: 0x0, symName: __ZN17QArrayDataPointerIP13KZipFileEntryE6detachEPS2_, symObjAddr: 0xC770, symBinAddr: 0x41A10, symSize: 0x40 }
  - { offset: 0x1140D9, size: 0x8, addend: 0x0, symName: __ZN5QListIP13KZipFileEntryE8iteratorC2EPS1_, symObjAddr: 0xC7B0, symBinAddr: 0x41A50, symSize: 0x20 }
  - { offset: 0x114111, size: 0x8, addend: 0x0, symName: __ZN20QMutableListIteratorIP13KZipFileEntryEC2ER5QListIS1_E, symObjAddr: 0xCB10, symBinAddr: 0x41A70, symSize: 0x80 }
  - { offset: 0x11414A, size: 0x8, addend: 0x0, symName: __ZN5QListIP13KZipFileEntryE8iteratorC1Ev, symObjAddr: 0xCB90, symBinAddr: 0x41AF0, symSize: 0x20 }
  - { offset: 0x114174, size: 0x8, addend: 0x0, symName: __ZN5QListIP13KZipFileEntryE5beginEv, symObjAddr: 0xCBB0, symBinAddr: 0x41B10, symSize: 0x40 }
  - { offset: 0x11419A, size: 0x8, addend: 0x0, symName: __ZN5QListIP13KZipFileEntryE8iteratorC2Ev, symObjAddr: 0xCBF0, symBinAddr: 0x41B50, symSize: 0x20 }
  - { offset: 0x1141C4, size: 0x8, addend: 0x0, symName: __ZNK5QListIP13KZipFileEntryE8constEndEv, symObjAddr: 0xCC10, symBinAddr: 0x41B70, symSize: 0x40 }
  - { offset: 0x1141EA, size: 0x8, addend: 0x0, symName: __ZNK5QListIP13KZipFileEntryE14const_iteratorneES3_, symObjAddr: 0xCC50, symBinAddr: 0x41BB0, symSize: 0x20 }
  - { offset: 0x11421E, size: 0x8, addend: 0x0, symName: __ZN5QListIP13KZipFileEntryE14const_iteratorC1ENS2_8iteratorE, symObjAddr: 0xCC70, symBinAddr: 0x41BD0, symSize: 0x30 }
  - { offset: 0x114256, size: 0x8, addend: 0x0, symName: __ZNK17QArrayDataPointerIP13KZipFileEntryEptEv, symObjAddr: 0xCCA0, symBinAddr: 0x41C00, symSize: 0x10 }
  - { offset: 0x11427C, size: 0x8, addend: 0x0, symName: __ZNK17QArrayDataPointerIP13KZipFileEntryE8constEndEv, symObjAddr: 0xCCB0, symBinAddr: 0x41C10, symSize: 0x30 }
  - { offset: 0x1142A2, size: 0x8, addend: 0x0, symName: __ZN5QListIP13KZipFileEntryE14const_iteratorC1EPKS1_, symObjAddr: 0xCCE0, symBinAddr: 0x41C40, symSize: 0x30 }
  - { offset: 0x1142DA, size: 0x8, addend: 0x0, symName: __ZN5QListIP13KZipFileEntryE14const_iteratorC2EPKS1_, symObjAddr: 0xCD10, symBinAddr: 0x41C70, symSize: 0x20 }
  - { offset: 0x114312, size: 0x8, addend: 0x0, symName: __ZN5QListIP13KZipFileEntryE14const_iteratorC2ENS2_8iteratorE, symObjAddr: 0xCD30, symBinAddr: 0x41C90, symSize: 0x20 }
  - { offset: 0x11434A, size: 0x8, addend: 0x0, symName: __ZN5QListIP13KZipFileEntryE8iteratorppEi, symObjAddr: 0xCD50, symBinAddr: 0x41CB0, symSize: 0x30 }
  - { offset: 0x114389, size: 0x8, addend: 0x0, symName: __ZN5QListIP13KZipFileEntryE8iteratorppEv, symObjAddr: 0xCD80, symBinAddr: 0x41CE0, symSize: 0x20 }
  - { offset: 0x1143AF, size: 0x8, addend: 0x0, symName: __ZNK20QMutableListIteratorIP13KZipFileEntryE11item_existsEv, symObjAddr: 0xCDA0, symBinAddr: 0x41D00, symSize: 0x50 }
  - { offset: 0x1143D5, size: 0x8, addend: 0x0, symName: __ZN12_GLOBAL__N_127QLoggingCategoryMacroHolderIL9QtMsgType1EEC2ERK16QLoggingCategory, symObjAddr: 0xCDF0, symBinAddr: 0x41D50, symSize: 0x30 }
  - { offset: 0x11440D, size: 0x8, addend: 0x0, symName: __ZN12_GLOBAL__N_127QLoggingCategoryMacroHolderIL9QtMsgType1EE4initERK16QLoggingCategory, symObjAddr: 0xCE20, symBinAddr: 0x41D80, symSize: 0x50 }
  - { offset: 0x114441, size: 0x8, addend: 0x0, symName: __ZN5QListIP13KZipFileEntryE5eraseENS2_14const_iteratorE, symObjAddr: 0xCF90, symBinAddr: 0x41DD0, symSize: 0x60 }
  - { offset: 0x114476, size: 0x8, addend: 0x0, symName: __ZN5QListIP13KZipFileEntryE5eraseENS2_14const_iteratorES3_, symObjAddr: 0xCFF0, symBinAddr: 0x41E30, symSize: 0x150 }
  - { offset: 0x1144DB, size: 0x8, addend: 0x0, symName: __ZNK5QListIP13KZipFileEntryE14const_iteratorplEx, symObjAddr: 0xD140, symBinAddr: 0x41F80, symSize: 0x40 }
  - { offset: 0x114510, size: 0x8, addend: 0x0, symName: __ZNK5QListIP13KZipFileEntryE15isValidIteratorENS2_14const_iteratorE, symObjAddr: 0xD180, symBinAddr: 0x41FC0, symSize: 0x90 }
  - { offset: 0x114554, size: 0x8, addend: 0x0, symName: __ZNK5QListIP13KZipFileEntryE14const_iteratorgeES3_, symObjAddr: 0xD210, symBinAddr: 0x42050, symSize: 0x20 }
  - { offset: 0x114588, size: 0x8, addend: 0x0, symName: __ZNK5QListIP13KZipFileEntryE10constBeginEv, symObjAddr: 0xD270, symBinAddr: 0x420B0, symSize: 0x40 }
  - { offset: 0x1145AE, size: 0x8, addend: 0x0, symName: __ZN5QListIP13KZipFileEntryE6removeExx, symObjAddr: 0xD2B0, symBinAddr: 0x420F0, symSize: 0xE0 }
  - { offset: 0x1145F4, size: 0x8, addend: 0x0, symName: __ZNK5QListIP13KZipFileEntryE8iteratorplEx, symObjAddr: 0xD390, symBinAddr: 0x421D0, symSize: 0x40 }
  - { offset: 0x11463D, size: 0x8, addend: 0x0, symName: __ZNKSt3__14lessIPKP13KZipFileEntryEclB9nqe210106ERKS4_S7_, symObjAddr: 0xD3D0, symBinAddr: 0x42210, symSize: 0x30 }
  - { offset: 0x114681, size: 0x8, addend: 0x0, symName: __ZNK5QListIP13KZipFileEntryE14const_iteratormiES3_, symObjAddr: 0xD430, symBinAddr: 0x42270, symSize: 0x20 }
  - { offset: 0x1146B5, size: 0x8, addend: 0x0, symName: __ZNK17QArrayDataPointerIP13KZipFileEntryE10constBeginEv, symObjAddr: 0xD450, symBinAddr: 0x42290, symSize: 0x20 }
  - { offset: 0x1146DB, size: 0x8, addend: 0x0, symName: __ZN9QtPrivate12QPodArrayOpsIP13KZipFileEntryE5eraseEPS2_x, symObjAddr: 0xD470, symBinAddr: 0x422B0, symSize: 0x1E0 }
  - { offset: 0x11472B, size: 0x8, addend: 0x0, symName: __ZN12_GLOBAL__N_127QLoggingCategoryMacroHolderIL9QtMsgType2EEC2ERK16QLoggingCategory, symObjAddr: 0xD650, symBinAddr: 0x42490, symSize: 0x30 }
  - { offset: 0x114763, size: 0x8, addend: 0x0, symName: __ZN12_GLOBAL__N_127QLoggingCategoryMacroHolderIL9QtMsgType2EE4initERK16QLoggingCategory, symObjAddr: 0xD680, symBinAddr: 0x424C0, symSize: 0x50 }
  - { offset: 0x114797, size: 0x8, addend: 0x0, symName: __ZNK16QLoggingCategory17isCriticalEnabledEv, symObjAddr: 0xD6D0, symBinAddr: 0x42510, symSize: 0x25 }
  - { offset: 0x1165CB, size: 0x8, addend: 0x0, symName: __Z11KArchiveLogv, symObjAddr: 0x0, symBinAddr: 0x42540, symSize: 0x90 }
  - { offset: 0x1165FF, size: 0x8, addend: 0x0, symName: __Z11KArchiveLogv, symObjAddr: 0x0, symBinAddr: 0x42540, symSize: 0x90 }
  - { offset: 0x116629, size: 0x8, addend: 0x0, symName: __ZZ11KArchiveLogvE8category, symObjAddr: 0x54F90, symBinAddr: 0x4D178, symSize: 0x0 }
...
