__Unwind_Resume U 0 0
__Z11qt_assert_xPKcS0_S0_i U 0 0
__Z13comparesEqualRK18QRegularExpressionS1_ U 0 0
__Z13comparesEqualRK4QUrlS1_ U 0 0
__Z15compareThreeWayRK9QDateTimeS1_ U 0 0
__Z15qt_regionToPathRK7QRegion U 0 0
__Z30qt_QMetaEnum_flagDebugOperatorR6QDebugyPK11QMetaObjectPKc U 0 0
__Z5qHash11QStringViewm U 0 0
__Z5qHash6QPointm U 0 0
__Z6qIsNaNd U 0 0
__Z9qBadAllocv U 0 0
__Z9qt_assertPKcS0_i U 0 0
__ZN10QArrayData10deallocateEPS_xx U 0 0
__ZN10QArrayData19reallocateUnalignedEPS_PvxxNS_16AllocationOptionE U 0 0
__ZN10QArrayData8allocateEPPS_xxxNS_16AllocationOptionE U 0 0
__ZN10QByteArray10fromBase64ERKS_6QFlagsINS_12Base64OptionEE U 0 0
__ZN10QByteArray11reallocDataExN10QArrayData16AllocationOptionE U 0 0
__ZN10QByteArray6_emptyE U 0 0
__ZN10QByteArray6appendEc U 0 0
__ZN10QByteArray6insertEx14QByteArrayView U 0 0
__ZN10QByteArray6resizeEx U 0 0
__ZN10QByteArrayC1EPKcx U 0 0
__ZN10QByteArrayaSERKS_ U 0 0
__ZN10QJsonArray14fromStringListERK5QListI7QStringE U 0 0
__ZN10QJsonArray6appendERK10QJsonValue U 0 0
__ZN10QJsonArrayC1Ev U 0 0
__ZN10QJsonArrayD1Ev U 0 0
__ZN10QJsonValue11fromVariantERK8QVariant U 0 0
__ZN10QJsonValueC1E13QLatin1String U 0 0
__ZN10QJsonValueC1EO10QJsonArray U 0 0
__ZN10QJsonValueC1EO11QJsonObject U 0 0
__ZN10QJsonValueC1EOS_ U 0 0
__ZN10QJsonValueC1ERK10QJsonArray U 0 0
__ZN10QJsonValueC1ERK11QJsonObject U 0 0
__ZN10QJsonValueC1ERK7QString U 0 0
__ZN10QJsonValueC1Eb U 0 0
__ZN10QJsonValueC1Ei U 0 0
__ZN10QJsonValueD1Ev U 0 0
__ZN10QTransform5resetEv U 0 0
__ZN10QTransform5scaleEdd U 0 0
__ZN10QTransform5shearEdd U 0 0
__ZN10QTransform6rotateEdN2Qt4AxisE U 0 0
__ZN10QTransform9translateEdd U 0 0
__ZN10QTransformmLERKS_ U 0 0
__ZN11QDataStreamlsEi U 0 0
__ZN11QDataStreamrsERi U 0 0
__ZN11QFileDevice5closeEv U 0 0
__ZN11QJsonObject6insertE13QLatin1StringRK10QJsonValue U 0 0
__ZN11QJsonObject6insertERK7QStringRK10QJsonValue U 0 0
__ZN11QJsonObjectC1ESt16initializer_listINSt3__14pairI7QString10QJsonValueEEE U 0 0
__ZN11QJsonObjectC1Ev U 0 0
__ZN11QJsonObjectD1Ev U 0 0
__ZN11QMetaObject10ConnectionD1Ev U 0 0
__ZN11QMetaObject14normalizedTypeEPKc U 0 0
__ZN11QMetaObject8activateEP7QObjectPKS_iPPv U 0 0
__ZN11QTextOptionC1E6QFlagsIN2Qt13AlignmentFlagEE U 0 0
__ZN11QTextOptionD1Ev U 0 0
__ZN11QTextStreamlsERK7QString U 0 0
__ZN11QTextStreamlsEc U 0 0
__ZN11QTextStreamlsEi U 0 0
__ZN11QTextStreamlsEx U 0 0
__ZN12QDirIterator4nextEv U 0 0
__ZN12QDirIteratorC1ERK7QString6QFlagsIN4QDir6FilterEES3_INS_12IteratorFlagEE U 0 0
__ZN12QDirIteratorD1Ev U 0 0
__ZN12QImageReader15allocationLimitEv U 0 0
__ZN12QImageReader18setAllocationLimitEi U 0 0
__ZN12QPaintDeviceC2Ev U 0 0
__ZN12QPainterPath10addEllipseERK6QRectF U 0 0
__ZN12QPainterPath10addPolygonERK9QPolygonF U 0 0
__ZN12QPainterPath11setFillRuleEN2Qt8FillRuleE U 0 0
__ZN12QPainterPath12closeSubpathEv U 0 0
__ZN12QPainterPath14addRoundedRectERK6QRectFddN2Qt8SizeModeE U 0 0
__ZN12QPainterPath5arcToERK6QRectFdd U 0 0
__ZN12QPainterPath6lineToERK7QPointF U 0 0
__ZN12QPainterPath6moveToERK7QPointF U 0 0
__ZN12QPainterPath7addRectERK6QRectF U 0 0
__ZN12QPainterPath9translateEdd U 0 0
__ZN12QPainterPathC1Ev U 0 0
__ZN12QPainterPathD1Ev U 0 0
__ZN12QPainterPathaNERKS_ U 0 0
__ZN13QFontMetricsFC1ERK5QFont U 0 0
__ZN13QFontMetricsFD1Ev U 0 0
__ZN13QJsonDocument8fromJsonERK10QByteArrayP15QJsonParseError U 0 0
__ZN13QJsonDocumentC1ERK10QJsonArray U 0 0
__ZN13QJsonDocumentC1ERK11QJsonObject U 0 0
__ZN13QJsonDocumentD1Ev U 0 0
__ZN13QPluginLoader15staticInstancesEv U 0 0
__ZN13QPluginLoader6unloadEv U 0 0
__ZN13QPluginLoader8instanceEv U 0 0
__ZN13QPluginLoaderC1ERK7QStringP7QObject U 0 0
__ZN16QCoreApplication18applicationDirPathEv U 0 0
__ZN16QCoreApplication18applicationVersionEv U 0 0
__ZN16QCoreApplication9translateEPKcS1_S1_i U 0 0
__ZN16QDebugStateSaverC1ER6QDebug U 0 0
__ZN16QDebugStateSaverD1Ev U 0 0
__ZN16QDesktopServices7openUrlERK4QUrl U 0 0
__ZN16QXmlStreamReader10raiseErrorERK7QString U 0 0
__ZN16QXmlStreamReader15readElementTextENS_24ReadElementTextBehaviourE U 0 0
__ZN16QXmlStreamReader18skipCurrentElementEv U 0 0
__ZN16QXmlStreamReader20readNextStartElementEv U 0 0
__ZN16QXmlStreamReader8readNextEv U 0 0
__ZN16QXmlStreamReader9setDeviceEP9QIODevice U 0 0
__ZN16QXmlStreamReaderC1EP9QIODevice U 0 0
__ZN16QXmlStreamReaderC1Ev U 0 0
__ZN16QXmlStreamReaderD1Ev U 0 0
__ZN16QXmlStreamWriter14writeAttributeE14QAnyStringViewS0_ U 0 0
__ZN16QXmlStreamWriter15writeCharactersE14QAnyStringView U 0 0
__ZN16QXmlStreamWriter15writeEndElementEv U 0 0
__ZN16QXmlStreamWriter16writeEndDocumentEv U 0 0
__ZN16QXmlStreamWriter17setAutoFormattingEb U 0 0
__ZN16QXmlStreamWriter17writeEmptyElementE14QAnyStringView U 0 0
__ZN16QXmlStreamWriter17writeStartElementE14QAnyStringView U 0 0
__ZN16QXmlStreamWriter18writeStartDocumentEv U 0 0
__ZN16QXmlStreamWriter23setAutoFormattingIndentEi U 0 0
__ZN16QXmlStreamWriter8writeDTDE14QAnyStringView U 0 0
__ZN16QXmlStreamWriterC1EP9QIODevice U 0 0
__ZN16QXmlStreamWriterD1Ev U 0 0
__ZN18QAbstractAnimation11qt_metacallEN11QMetaObject4CallEiPPv U 0 0
__ZN18QAbstractAnimation11qt_metacastEPKc U 0 0
__ZN18QAbstractAnimation12setLoopCountEi U 0 0
__ZN18QAbstractAnimation15updateDirectionENS_9DirectionE U 0 0
__ZN18QAbstractAnimation16staticMetaObjectE U 0 0
__ZN18QAbstractAnimation4stopEv U 0 0
__ZN18QAbstractAnimation5eventEP6QEvent U 0 0
__ZN18QAbstractAnimation5startENS_14DeletionPolicyE U 0 0
__ZN18QAbstractAnimationC2EP7QObject U 0 0
__ZN18QAbstractAnimationD2Ev U 0 0
__ZN18QFileSystemWatcher11fileChangedERK7QStringNS_14QPrivateSignalE U 0 0
__ZN18QFileSystemWatcher11removePathsERK5QListI7QStringE U 0 0
__ZN18QFileSystemWatcher16directoryChangedERK7QStringNS_14QPrivateSignalE U 0 0
__ZN18QFileSystemWatcher16staticMetaObjectE U 0 0
__ZN18QFileSystemWatcher7addPathERK7QString U 0 0
__ZN18QFileSystemWatcher8addPathsERK5QListI7QStringE U 0 0
__ZN18QFileSystemWatcherC1EP7QObject U 0 0
__ZN18QJsonValueConstRef14concreteStringES_RK7QString U 0 0
__ZN18QJsonValueConstRef8concreteES_ U 0 0
__ZN18QRegularExpression10setPatternERK7QString U 0 0
__ZN18QRegularExpressionC1ERKS_ U 0 0
__ZN18QRegularExpressionC1Ev U 0 0
__ZN18QRegularExpressionD1Ev U 0 0
__ZN18QRegularExpressionaSERKS_ U 0 0
__ZN23QRegularExpressionMatchD1Ev U 0 0
__ZN2Qt16staticMetaObjectE U 0 0
__ZN4QDir14isRelativePathERK7QString U 0 0
__ZN4QDir7setPathERK7QString U 0 0
__ZN4QDir9cleanPathERK7QString U 0 0
__ZN4QDirC1ERK7QString U 0 0
__ZN4QDirD1Ev U 0 0
__ZN4QDiraSERKS_ U 0 0
__ZN4QPen11setCapStyleEN2Qt11PenCapStyleE U 0 0
__ZN4QPen11setCosmeticEb U 0 0
__ZN4QPen12setJoinStyleEN2Qt12PenJoinStyleE U 0 0
__ZN4QPen13setDashOffsetEd U 0 0
__ZN4QPen14setDashPatternERK5QListIdE U 0 0
__ZN4QPen8setColorERK6QColor U 0 0
__ZN4QPen8setStyleEN2Qt8PenStyleE U 0 0
__ZN4QPen9setWidthFEd U 0 0
__ZN4QPenC1EN2Qt8PenStyleE U 0 0
__ZN4QPenC1ERK6QBrushdN2Qt8PenStyleENS3_11PenCapStyleENS3_12PenJoinStyleE U 0 0
__ZN4QPenC1ERK6QColor U 0 0
__ZN4QPenC1ERKS_ U 0 0
__ZN4QPenC1Ev U 0 0
__ZN4QPenD1Ev U 0 0
__ZN4QPenaSERKS_ U 0 0
__ZN4QUrl13fromLocalFileERK7QString U 0 0
__ZN4QUrl5clearEv U 0 0
__ZN4QUrlC1ERK7QStringNS_11ParsingModeE U 0 0
__ZN4QUrlC1ERKS_ U 0 0
__ZN4QUrlC1Ev U 0 0
__ZN4QUrlD1Ev U 0 0
__ZN4QUrlaSERKS_ U 0 0
__ZN5QChar10digitValueEDi U 0 0
__ZN5QChar14isSpace_helperEDi U 0 0
__ZN5QFile4openE6QFlagsIN13QIODeviceBase12OpenModeFlagEE U 0 0
__ZN5QFile6existsERK7QString U 0 0
__ZN5QFileC1ERK7QString U 0 0
__ZN5QFileD1Ev U 0 0
__ZN5QFont10setKerningEb U 0 0
__ZN5QFont12setPixelSizeEi U 0 0
__ZN5QFont12setStrikeOutEb U 0 0
__ZN5QFont12setUnderlineEb U 0 0
__ZN5QFont16staticMetaObjectE U 0 0
__ZN5QFont8setStyleENS_5StyleE U 0 0
__ZN5QFont9setFamilyERK7QString U 0 0
__ZN5QFont9setWeightENS_6WeightE U 0 0
__ZN5QFontC1ERK7QStringiib U 0 0
__ZN5QFontC1ERKS_ U 0 0
__ZN5QFontC1Ev U 0 0
__ZN5QFontD1Ev U 0 0
__ZN5QFontaSERKS_ U 0 0
__ZN5Tiled10FileFormat11qt_metacallEN11QMetaObject4CallEiPPv T 5e70 0
__ZN5Tiled10FileFormat11qt_metacastEPKc T 5e00 0
__ZN5Tiled10FileFormat13versionStringEv T 5980 0
__ZN5Tiled10FileFormat16staticMetaObjectE S 1622c0 0
__ZN5Tiled10FileFormat20compatibilityVersionEv T 5950 0
__ZN5Tiled10FileFormat21mCompatibilityVersionE D 165010 0
__ZN5Tiled10FileFormat23setCompatibilityVersionENS_20CompatibilityVersionE T 5960 0
__ZN5Tiled10FileFormat26classPropertyNameForObjectEv T 5c40 0
__ZN5Tiled10FileFormatC2EP7QObject T 5800 0
__ZN5Tiled10GroupLayer10adoptLayerERNS_5LayerE T 18a30 0
__ZN5Tiled10GroupLayer11insertLayerEiPNS_5LayerE T 18b00 0
__ZN5Tiled10GroupLayer11takeLayerAtEi T 18bd0 0
__ZN5Tiled10GroupLayer26replaceReferencesToTilesetEPNS_7TilesetES2_ T 18ff0 0
__ZN5Tiled10GroupLayer6setMapEPNS_3MapE T 19230 0
__ZN5Tiled10GroupLayer8addLayerENSt3__110unique_ptrINS_5LayerENS1_14default_deleteIS3_EEEE T 189c0 0
__ZN5Tiled10GroupLayerC1ERK7QStringii T 18840 0
__ZN5Tiled10GroupLayerC2ERK7QStringii T 187c0 0
__ZN5Tiled10GroupLayerD0Ev T 18990 0
__ZN5Tiled10GroupLayerD1Ev T 18970 0
__ZN5Tiled10GroupLayerD2Ev T 18870 0
__ZN5Tiled10ImageCache10loadPixmapERK7QString T 26ca0 0
__ZN5Tiled10ImageCache13sLoadedImagesE S 165fc0 0
__ZN5Tiled10ImageCache14sLoadedPixmapsE S 165fc8 0
__ZN5Tiled10ImageCache6removeERK7QString T 26600 0
__ZN5Tiled10ImageCache9loadImageERK7QString T 26140 0
__ZN5Tiled10ImageCache9renderMapERK7QString T 26640 0
__ZN5Tiled10ImageLayer10resetImageEv T 2df80 0
__ZN5Tiled10ImageLayer13loadFromImageERK4QUrl T 2e200 0
__ZN5Tiled10ImageLayer13loadFromImageERK6QImageRK7QString T 2e100 0
__ZN5Tiled10ImageLayer13loadFromImageERK7QPixmapRK4QUrl T 2dfd0 0
__ZN5Tiled10ImageLayer13loadFromImageERKNS_14ImageReferenceE T 2e2a0 0
__ZN5Tiled10ImageLayerC1ERK7QStringii T 2deb0 0
__ZN5Tiled10ImageLayerC2ERK7QStringii T 2ddb0 0
__ZN5Tiled10ImageLayerD0Ev T 2df50 0
__ZN5Tiled10ImageLayerD1Ev T 2df30 0
__ZN5Tiled10ImageLayerD2Ev T 2dee0 0
__ZN5Tiled10JumpToTileC1EPKNS_3MapE6QPointPKNS_5LayerE T 377f0 0
__ZN5Tiled10JumpToTileC2EPKNS_3MapE6QPointPKNS_5LayerE T 37710 0
__ZN5Tiled10SelectTileC1EPKNS_4TileE T 37f60 0
__ZN5Tiled10SelectTileC2EPKNS_4TileE T 37d90 0
__ZN5Tiled10decompressERK10QByteArrayiNS_17CompressionMethodE T 3f30 0
__ZN5Tiled10typeToNameEi T c1500 0
__ZN5Tiled11MapRenderer13lineToPolygonERK7QPointFS3_ T 6a240 0
__ZN5Tiled11MapRenderer6createEPKNS_3MapE T 6a790 0
__ZN5Tiled11MapRenderer7setFlagENS_10RenderFlagEb T 6a190 0
__ZN5Tiled11MapRendererD0Ev T 68700 0
__ZN5Tiled11MapRendererD1Ev T 686f0 0
__ZN5Tiled11MapRendererD2Ev T 686e0 0
__ZN5Tiled11ObjectGroup11moveObjectsEiii T a1a40 0
__ZN5Tiled11ObjectGroup12insertObjectEiPNS_9MapObjectE T a17f0 0
__ZN5Tiled11ObjectGroup12removeObjectEPNS_9MapObjectE T a1940 0
__ZN5Tiled11ObjectGroup13offsetObjectsERK7QPointFRK6QRectFbbb T a24b0 0
__ZN5Tiled11ObjectGroup14removeObjectAtEi T a19b0 0
__ZN5Tiled11ObjectGroup26replaceReferencesToTilesetEPNS_7TilesetES2_ T a23d0 0
__ZN5Tiled11ObjectGroup9addObjectENSt3__110unique_ptrINS_9MapObjectENS1_14default_deleteIS3_EEEE T a1880 0
__ZN5Tiled11ObjectGroup9addObjectEPNS_9MapObjectE T a17b0 0
__ZN5Tiled11ObjectGroupC1ERK7QString T a1660 0
__ZN5Tiled11ObjectGroupC1ERK7QStringii T a1690 0
__ZN5Tiled11ObjectGroupC2ERK7QString T a15b0 0
__ZN5Tiled11ObjectGroupC2ERK7QStringii T a15e0 0
__ZN5Tiled11ObjectGroupD0Ev T a1780 0
__ZN5Tiled11ObjectGroupD1Ev T a1760 0
__ZN5Tiled11ObjectGroupD2Ev T a16c0 0
__ZN5Tiled11SelectLayerC1EPKNS_5LayerE T 379e0 0
__ZN5Tiled11SelectLayerC2EPKNS_5LayerE T 37930 0
__ZN5Tiled11globalIndexEPKNS_5LayerE T 35f50 0
__ZN5Tiled11readTilesetERK7QStringPS0_ T 1087f0 0
__ZN5Tiled12JumpToObjectC1EPKNS_9MapObjectE T 37900 0
__ZN5Tiled12JumpToObjectC2EPKNS_9MapObjectE T 37830 0
__ZN5Tiled12PropertyType12typeToStringENS0_4TypeE T d15d0 0
__ZN5Tiled12PropertyType14createFromJsonERK11QJsonObject T d1830 0
__ZN5Tiled12PropertyType14typeFromStringERK7QString T d1d60 0
__ZN5Tiled12TmxMapFormat11qt_metacallEN11QMetaObject4CallEiPPv T 1109c0 0
__ZN5Tiled12TmxMapFormat11qt_metacastEPKc T 110930 0
__ZN5Tiled12TmxMapFormat11toByteArrayEPKNS_3MapE T 10fa20 0
__ZN5Tiled12TmxMapFormat13fromByteArrayERK10QByteArray T 10fb80 0
__ZN5Tiled12TmxMapFormat16staticMetaObjectE S 164538 0
__ZN5Tiled12TmxMapFormat4readERK7QString T 10f800 0
__ZN5Tiled12TmxMapFormat5writeEPKNS_3MapERK7QString6QFlagsINS_10FileFormat6OptionEE T 10f8f0 0
__ZN5Tiled12TmxMapFormatC1EP7QObject T 10f7d0 0
__ZN5Tiled12TmxMapFormatC2EP7QObject T 10f740 0
__ZN5Tiled12WorldPattern16staticMetaObjectE S 1646f0 0
__ZN5Tiled12pathToStringERK5QListINSt3__17variantIJ7QStringiEEEE T bdb70 0
__ZN5Tiled12userTypeNameERK8QVariant T c1bd0 0
__ZN5Tiled12valuesToJsonERK5QListI8QVariantERK7QString T c05f0 0
__ZN5Tiled13ExportContextC1ERK7QString T bfc50 0
__ZN5Tiled13ExportContextC2ERK7QString T c1d70 0
__ZN5Tiled13LayerIterator15setCurrentLayerEPNS_5LayerE T 35870 0
__ZN5Tiled13LayerIterator4nextEv T 35900 0
__ZN5Tiled13LayerIterator6toBackEv T 35e90 0
__ZN5Tiled13LayerIterator7toFrontEv T 35e70 0
__ZN5Tiled13LayerIterator8previousEv T 35c80 0
__ZN5Tiled13PluginManager10loadPluginEPNS_10PluginFileE T b6f70 0
__ZN5Tiled13PluginManager11loadPluginsEv T b7440 0
__ZN5Tiled13PluginManager11objectAddedEP7QObject T b73d0 0
__ZN5Tiled13PluginManager11qt_metacallEN11QMetaObject4CallEiPPv T b82a0 0
__ZN5Tiled13PluginManager11qt_metacastEPKc T b8230 0
__ZN5Tiled13PluginManager12removeObjectEP7QObject T b7230 0
__ZN5Tiled13PluginManager12unloadPluginEPNS_10PluginFileE T b70d0 0
__ZN5Tiled13PluginManager13objectRemovedEP7QObject T b7400 0
__ZN5Tiled13PluginManager14deleteInstanceEv T b7340 0
__ZN5Tiled13PluginManager14setPluginStateERK7QStringNS_11PluginStateE T b6b00 0
__ZN5Tiled13PluginManager16pluginByFileNameERK7QString T b6da0 0
__ZN5Tiled13PluginManager16staticMetaObjectE S 163570 0
__ZN5Tiled13PluginManager8instanceEv T b72d0 0
__ZN5Tiled13PluginManager9addObjectEP7QObject T b7160 0
__ZN5Tiled13PluginManager9mInstanceE S 165fe0 0
__ZN5Tiled13PluginManagerC1Ev T b69f0 0
__ZN5Tiled13PluginManagerC2Ev T b6930 0
__ZN5Tiled13PluginManagerD0Ev T b6ad0 0
__ZN5Tiled13PluginManagerD1Ev T b6ab0 0
__ZN5Tiled13PluginManagerD2Ev T b6a10 0
__ZN5Tiled13PropertyTypes12loadFromJsonERK10QJsonArrayRK7QString T d7f20 0
__ZN5Tiled13PropertyTypes12resolveValueEPNS_17ClassPropertyTypeER8QVariantRKNS_13ExportContextE T d8e20 0
__ZN5Tiled13PropertyTypes12resolveValueEPNS_17ClassPropertyTypeERK4QMapI7QString8QVariantERKNS_13ExportContextE T d9230 0
__ZN5Tiled13PropertyTypes16mergeObjectTypesERK5QListINS_10ObjectTypeEE T d7670 0
__ZN5Tiled13PropertyTypes18findTypeByNamePrivERK7QStringi T d7ec0 0
__ZN5Tiled13PropertyTypes19resolveMemberValuesEPNS_17ClassPropertyTypeERKNS_13ExportContextE T d8350 0
__ZN5Tiled13PropertyTypes21ensureMembersResolvedERK4QMapI7QString8QVariantERKNS_13ExportContextE T d8a50 0
__ZN5Tiled13PropertyTypes25findPropertyValueTypePrivERK7QString T d7ef0 0
__ZN5Tiled13PropertyTypes27ensureMembersResolvedHelperERK8QVariantRKNS_13ExportContextE T d8800 0
__ZN5Tiled13PropertyTypes5mergeES0_ T d6a20 0
__ZN5Tiled13PropertyTypesD1Ev T d6970 0
__ZN5Tiled13PropertyTypesD2Ev T d6930 0
__ZN5Tiled13PropertyValue16staticMetaObjectE S 1635e0 0
__ZN5Tiled13TilesetFormat11qt_metacallEN11QMetaObject4CallEiPPv T 108f10 0
__ZN5Tiled13TilesetFormat11qt_metacastEPKc T 108e80 0
__ZN5Tiled13TilesetFormat16staticMetaObjectE S 164050 0
__ZN5Tiled13WorldMapEntry16staticMetaObjectE S 164688 0
__ZN5Tiled13flipAlignmentENS_9AlignmentENS_13FlipDirectionE T e7970 0
__ZN5Tiled13toObjectTypesERKNS_13PropertyTypesE T a9970 0
__ZN5Tiled14ObjectTemplate4saveEv T a3c20 0
__ZN5Tiled14ObjectTemplate9setObjectENSt3__110unique_ptrINS_9MapObjectENS1_14default_deleteIS3_EEEE T a3af0 0
__ZN5Tiled14ObjectTemplate9setObjectEPKNS_9MapObjectE T a39e0 0
__ZN5Tiled14ObjectTemplateC1ERK7QString T a3910 0
__ZN5Tiled14ObjectTemplateC1Ev T a38b0 0
__ZN5Tiled14ObjectTemplateC2ERK7QString T a3850 0
__ZN5Tiled14ObjectTemplateC2Ev T a37f0 0
__ZN5Tiled14ObjectTemplateD1Ev T a39c0 0
__ZN5Tiled14ObjectTemplateD2Ev T a3960 0
__ZN5Tiled14TilesetManager10addTilesetEPNS_7TilesetE T 10b7e0 0
__ZN5Tiled14TilesetManager11loadTilesetERK7QStringPS1_ T 10b590 0
__ZN5Tiled14TilesetManager11qt_metacallEN11QMetaObject4CallEiPPv T 10c270 0
__ZN5Tiled14TilesetManager11qt_metacastEPKc T 10c200 0
__ZN5Tiled14TilesetManager12filesChangedERK5QListI7QStringE T 10af80 0
__ZN5Tiled14TilesetManager12reloadImagesEPNS_7TilesetE T 10ba40 0
__ZN5Tiled14TilesetManager13removeTilesetEPNS_7TilesetE T 10b8c0 0
__ZN5Tiled14TilesetManager14deleteInstanceEv T 10b550 0
__ZN5Tiled14TilesetManager14repaintTilesetEPNS_7TilesetE T 10bff0 0
__ZN5Tiled14TilesetManager15setAnimateTilesEb T 10bd10 0
__ZN5Tiled14TilesetManager16staticMetaObjectE S 1642e0 0
__ZN5Tiled14TilesetManager19resetTileAnimationsEv T 10bd60 0
__ZN5Tiled14TilesetManager20tilesetImagesChangedEPNS_7TilesetE T 10bc60 0
__ZN5Tiled14TilesetManager21advanceTileAnimationsEi T 10b1e0 0
__ZN5Tiled14TilesetManager25setReloadTilesetsOnChangeEb T 10bc90 0
__ZN5Tiled14TilesetManager25tilesetImageSourceChangedERKNS_7TilesetERK4QUrl T 10beb0 0
__ZN5Tiled14TilesetManager8instanceEv T 10b4e0 0
__ZN5Tiled14TilesetManager9mInstanceE S 165ff0 0
__ZN5Tiled14TilesetManagerC1Ev T 10b320 0
__ZN5Tiled14TilesetManagerC2Ev T 10aca0 0
__ZN5Tiled14TilesetManagerD0Ev T 10b4b0 0
__ZN5Tiled14TilesetManagerD1Ev T 10b490 0
__ZN5Tiled14TilesetManagerD2Ev T 10b340 0
__ZN5Tiled14toPropertyPathERK5QListI7QStringE T bd780 0
__ZN5Tiled14valuesFromJsonERK10QJsonArrayRK7QString T c0ab0 0
__ZN5Tiled15MiniMapRendererC1EPKNS_3MapE T 9ab30 0
__ZN5Tiled15MiniMapRendererC2EPKNS_3MapE T 9aa50 0
__ZN5Tiled15MiniMapRendererD1Ev T 9ab90 0
__ZN5Tiled15MiniMapRendererD2Ev T 9ab60 0
__ZN5Tiled15TemplateManager11qt_metacallEN11QMetaObject4CallEiPPv T e35e0 0
__ZN5Tiled15TemplateManager11qt_metacastEPKc T e3570 0
__ZN5Tiled15TemplateManager12pathsChangedERK5QListI7QStringE T e2b10 0
__ZN5Tiled15TemplateManager14deleteInstanceEv T e28c0 0
__ZN5Tiled15TemplateManager16staticMetaObjectE S 163c98 0
__ZN5Tiled15TemplateManager18loadObjectTemplateERK7QStringPS1_ T e3050 0
__ZN5Tiled15TemplateManager21objectTemplateChangedEPNS_14ObjectTemplateE T e3380 0
__ZN5Tiled15TemplateManager8instanceEv T e2820 0
__ZN5Tiled15TemplateManager9mInstanceE S 165fe8 0
__ZN5Tiled15TemplateManagerC1EP7QObject T e2890 0
__ZN5Tiled15TemplateManagerC2EP7QObject T e2900 0
__ZN5Tiled15TemplateManagerD0Ev T e3020 0
__ZN5Tiled15TemplateManagerD1Ev T e3000 0
__ZN5Tiled15TemplateManagerD2Ev T e2f60 0
__ZN5Tiled15alignmentOffsetERK6QSizeFNS_9AlignmentE T e7790 0
__ZN5Tiled15mergePropertiesER4QMapI7QString8QVariantERKS3_ T be970 0
__ZN5Tiled15toFileReferenceERK4QUrlRK7QString T e7b40 0
__ZN5Tiled16EnumPropertyType18initializeFromJsonERK11QJsonObject T d3060 0
__ZN5Tiled16EnumPropertyType19storageTypeToStringENS0_11StorageTypeE T d2f20 0
__ZN5Tiled16EnumPropertyType21storageTypeFromStringERK7QString T d35f0 0
__ZN5Tiled16LoggingInterface11qt_metacallEN11QMetaObject4CallEiPPv T 384f0 0
__ZN5Tiled16LoggingInterface11qt_metacastEPKc T 38480 0
__ZN5Tiled16LoggingInterface16staticMetaObjectE S 1628d8 0
__ZN5Tiled16LoggingInterface23removeIssuesWithContextEPKv T 38200 0
__ZN5Tiled16LoggingInterface3logENS0_10OutputTypeERK7QString T 373a0 0
__ZN5Tiled16LoggingInterface4infoERK7QString T 375f0 0
__ZN5Tiled16LoggingInterface5errorERK7QString T 37330 0
__ZN5Tiled16LoggingInterface5issueERKNS_5IssueE T 37370 0
__ZN5Tiled16LoggingInterface6reportERKNS_5IssueE T 371d0 0
__ZN5Tiled16LoggingInterface7warningERK7QString T 372c0 0
__ZN5Tiled16LoggingInterface8instanceEv T 37120 0
__ZN5Tiled16LoggingInterfaceC1EP7QObject T 370f0 0
__ZN5Tiled16LoggingInterfaceC2EP7QObject T 370b0 0
__ZN5Tiled16TsxTilesetFormat11qt_metacallEN11QMetaObject4CallEiPPv T 110b10 0
__ZN5Tiled16TsxTilesetFormat11qt_metacastEPKc T 110a80 0
__ZN5Tiled16TsxTilesetFormat16staticMetaObjectE S 164578 0
__ZN5Tiled16TsxTilesetFormat4readERK7QString T 110000 0
__ZN5Tiled16TsxTilesetFormat5writeERKNS_7TilesetERK7QString6QFlagsINS_10FileFormat6OptionEE T 110100 0
__ZN5Tiled16TsxTilesetFormatC1EP7QObject T 10ffd0 0
__ZN5Tiled16TsxTilesetFormatC2EP7QObject T 10ff40 0
__ZN5Tiled16propertiesToJsonERK4QMapI7QString8QVariantERKNS_13ExportContextE T beb80 0
__ZN5Tiled16propertiesToJsonERK4QMapI7QString8QVariantERKS1_ T bfbc0 0
__ZN5Tiled17ClassPropertyType13setUsageFlagsEib T d68e0 0
__ZN5Tiled17ClassPropertyType18initializeFromJsonERK11QJsonObject T d5b80 0
__ZN5Tiled17FileSystemWatcher10setEnabledEb T 6970 0
__ZN5Tiled17FileSystemWatcher11fileChangedERK7QString T 7860 0
__ZN5Tiled17FileSystemWatcher11qt_metacallEN11QMetaObject4CallEiPPv T 7e30 0
__ZN5Tiled17FileSystemWatcher11qt_metacastEPKc T 7dc0 0
__ZN5Tiled17FileSystemWatcher11removePathsERK5QListI7QStringE T 7390 0
__ZN5Tiled17FileSystemWatcher12pathsChangedERK5QListI7QStringE T 7ab0 0
__ZN5Tiled17FileSystemWatcher13clearInternalEv T 6b00 0
__ZN5Tiled17FileSystemWatcher13onFileChangedERK7QString T 65c0 0
__ZN5Tiled17FileSystemWatcher16directoryChangedERK7QString T 7890 0
__ZN5Tiled17FileSystemWatcher16staticMetaObjectE S 1623b8 0
__ZN5Tiled17FileSystemWatcher18onDirectoryChangedERK7QString T 6610 0
__ZN5Tiled17FileSystemWatcher19pathsChangedTimeoutEv T 6740 0
__ZN5Tiled17FileSystemWatcher5clearEv T 7770 0
__ZN5Tiled17FileSystemWatcher8addPathsERK5QListI7QStringE T 6bf0 0
__ZN5Tiled17FileSystemWatcherC1EP7QObject T 6940 0
__ZN5Tiled17FileSystemWatcherC2EP7QObject T 6200 0
__ZN5Tiled17HexagonalRenderer12RenderParamsC1EPKNS_3MapE T 1edb0 0
__ZN5Tiled17HexagonalRenderer12RenderParamsC2EPKNS_3MapE T 1ebe0 0
__ZN5Tiled17ReadableMapFormat11qt_metacallEN11QMetaObject4CallEiPPv T 43be0 0
__ZN5Tiled17ReadableMapFormat11qt_metacastEPKc T 43b50 0
__ZN5Tiled17ReadableMapFormat16staticMetaObjectE S 162b10 0
__ZN5Tiled17WritableMapFormat11qt_metacallEN11QMetaObject4CallEiPPv T 43d30 0
__ZN5Tiled17WritableMapFormat11qt_metacastEPKc T 43ca0 0
__ZN5Tiled17WritableMapFormat16staticMetaObjectE S 162b50 0
__ZN5Tiled17alignmentToStringENS_9AlignmentE T e8320 0
__ZN5Tiled17blendModeToStringENS_9BlendModeE T e8cf0 0
__ZN5Tiled17drawOrderToStringENS_11ObjectGroup9DrawOrderE T a2bd0 0
__ZN5Tiled17versionFromStringERK7QString T e8bc0 0
__ZN5Tiled18filePathRelativeToERK4QDirRK7QString T e8270 0
__ZN5Tiled18layerAtGlobalIndexEPKNS_3MapEi T 36030 0
__ZN5Tiled18propertiesFromJsonERK10QJsonArrayRK7QString T c0560 0
__ZN5Tiled18propertiesFromJsonERK10QJsonArrayRKNS_13ExportContextE T bfc90 0
__ZN5Tiled18readObjectTemplateERK7QStringPS0_ T a4610 0
__ZN5Tiled19TileAnimationDriver11qt_metacallEN11QMetaObject4CallEiPPv T e7510 0
__ZN5Tiled19TileAnimationDriver11qt_metacastEPKc T e74a0 0
__ZN5Tiled19TileAnimationDriver11updateStateEN18QAbstractAnimation5StateES2_ T e72f0 0
__ZN5Tiled19TileAnimationDriver16staticMetaObjectE S 163dc8 0
__ZN5Tiled19TileAnimationDriver17updateCurrentTimeEi T e7270 0
__ZN5Tiled19TileAnimationDriver6updateEi T e72c0 0
__ZN5Tiled19TileAnimationDriverC1EP7QObject T e7230 0
__ZN5Tiled19TileAnimationDriverC2EP7QObject T e71c0 0
__ZN5Tiled19aggregatePropertiesER4QMapI7QStringNS_22AggregatedPropertyDataEERKS0_IS1_8QVariantE T c0fd0 0
__ZN5Tiled19alignmentFromStringERK7QString T e8910 0
__ZN5Tiled19blendModeFromStringERK7QString T e8da0 0
__ZN5Tiled19compressionToStringENS_3Map15LayerDataFormatE T 3dc50 0
__ZN5Tiled19drawOrderFromStringERK7QString T a2da0 0
__ZN5Tiled19initializeMetatypesEv T c2d40 0
__ZN5Tiled19orientationToStringENS_3Map11OrientationE T 3d770 0
__ZN5Tiled19renderOrderToStringENS_3Map11RenderOrderE T 3de50 0
__ZN5Tiled19staggerAxisToStringENS_3Map11StaggerAxisE T 3d3b0 0
__ZN5Tiled19urlToLocalFileOrQrcERK4QUrl T e7f90 0
__ZN5Tiled19wangSetTypeToStringENS_7WangSet4TypeE T 12c5c0 0
__ZN5Tiled20ObjectTemplateFormat11qt_metacallEN11QMetaObject4CallEiPPv T a4c00 0
__ZN5Tiled20ObjectTemplateFormat11qt_metacastEPKc T a4b70 0
__ZN5Tiled20ObjectTemplateFormat16staticMetaObjectE S 1631b0 0
__ZN5Tiled20SelectCustomPropertyC1E7QStringS1_PKNS_6ObjectE T 37d60 0
__ZN5Tiled20SelectCustomPropertyC2E7QStringS1_PKNS_6ObjectE T 37a10 0
__ZN5Tiled20compressionSupportedENS_17CompressionMethodE T 3f00 0
__ZN5Tiled20staggerIndexToStringENS_3Map12StaggerIndexE T 3d5d0 0
__ZN5Tiled21MapToVariantConverter9toVariantERKNS_14ObjectTemplateERK4QDir T 7c530 0
__ZN5Tiled21MapToVariantConverter9toVariantERKNS_3MapERK4QDir T 72f80 0
__ZN5Tiled21MapToVariantConverter9toVariantERKNS_7TilesetERK4QDir T 7c4d0 0
__ZN5Tiled21ObjectTypesSerializer15readObjectTypesERK7QStringR5QListINS_10ObjectTypeEERKNS_13ExportContextE T a8ff0 0
__ZN5Tiled21ObjectTypesSerializer16writeObjectTypesERK7QStringRK5QListINS_10ObjectTypeEE T a7fa0 0
__ZN5Tiled21ObjectTypesSerializerC1ENS0_6FormatE T a7f70 0
__ZN5Tiled21ObjectTypesSerializerC2ENS0_6FormatE T a7f40 0
__ZN5Tiled21VariantToMapConverter11toMapObjectERK4QMapI7QString8QVariantE T 11f2e0 0
__ZN5Tiled21VariantToMapConverter11toTileLayerERK4QMapI7QString8QVariantE T 1213e0 0
__ZN5Tiled21VariantToMapConverter11toWangColorERK4QMapI7QString8QVariantE T 11eaa0 0
__ZN5Tiled21VariantToMapConverter12toGroupLayerERK4QMapI7QString8QVariantE T 124500 0
__ZN5Tiled21VariantToMapConverter12toImageLayerERK4QMapI7QString8QVariantE T 123950 0
__ZN5Tiled21VariantToMapConverter13toObjectGroupERK4QMapI7QString8QVariantE T 122db0 0
__ZN5Tiled21VariantToMapConverter16toObjectTemplateERK8QVariant T 11a3d0 0
__ZN5Tiled21VariantToMapConverter16toObjectTemplateERK8QVariantRK4QDir T 11a370 0
__ZN5Tiled21VariantToMapConverter17readTileLayerDataERNS_9TileLayerERK8QVariantNS_3Map15LayerDataFormatE5QRect T 124d50 0
__ZN5Tiled21VariantToMapConverter21readMapEditorSettingsERNS_3MapERK4QMapI7QString8QVariantE T 113c10 0
__ZN5Tiled21VariantToMapConverter25readTilesetEditorSettingsERNS_7TilesetERK4QMapI7QString8QVariantE T 11b3e0 0
__ZN5Tiled21VariantToMapConverter5toMapERK8QVariantRK4QDir T 111850 0
__ZN5Tiled21VariantToMapConverter7toLayerERK8QVariant T 118b60 0
__ZN5Tiled21VariantToMapConverter9toTilesetERK8QVariant T 114810 0
__ZN5Tiled21VariantToMapConverter9toTilesetERK8QVariantRK4QDir T 11a2b0 0
__ZN5Tiled21VariantToMapConverter9toWangSetERK4QMapI7QString8QVariantEPNS_7TilesetE T 11d190 0
__ZN5Tiled21WritableTilesetFormat11qt_metacallEN11QMetaObject4CallEiPPv T 109060 0
__ZN5Tiled21WritableTilesetFormat11qt_metacastEPKc T 108fd0 0
__ZN5Tiled21WritableTilesetFormat16staticMetaObjectE S 164090 0
__ZN5Tiled21orientationFromStringERK7QString T 3db10 0
__ZN5Tiled21renderOrderFromStringERK7QString T 3e0d0 0
__ZN5Tiled21staggerAxisFromStringERK7QString T 3d500 0
__ZN5Tiled21wangSetTypeFromStringERK7QString T 12c7a0 0
__ZN5Tiled22possiblePropertyValuesEPKNS_17ClassPropertyTypeE T c3240 0
__ZN5Tiled22setNestedPropertyValueER8QVariantiRK5QListINSt3__17variantIJ7QStringiEEEERKS0_b T bdd70 0
__ZN5Tiled22setPropertyMemberValueER4QMapI7QString8QVariantERK5QListINSt3__17variantIJS1_iEEEERKS2_ T be630 0
__ZN5Tiled22staggerIndexFromStringERK7QString T 3d720 0
__ZN5Tiled23XmlObjectTemplateFormat11qt_metacallEN11QMetaObject4CallEiPPv T 110c60 0
__ZN5Tiled23XmlObjectTemplateFormat11qt_metacastEPKc T 110bd0 0
__ZN5Tiled23XmlObjectTemplateFormat16staticMetaObjectE S 1645b8 0
__ZN5Tiled23XmlObjectTemplateFormat4readERK7QString T 1104d0 0
__ZN5Tiled23XmlObjectTemplateFormat5writeEPKNS_14ObjectTemplateERK7QString T 1105c0 0
__ZN5Tiled23XmlObjectTemplateFormatC1EP7QObject T 1104a0 0
__ZN5Tiled23XmlObjectTemplateFormatC2EP7QObject T 110410 0
__ZN5Tiled23findSupportingMapFormatERK7QString T 43630 0
__ZN5Tiled27findSupportingTilesetFormatERK7QString T 108ae0 0
__ZN5Tiled28findSupportingTemplateFormatERK7QString T a47a0 0
__ZN5Tiled28increaseImageAllocationLimitEi T e8cc0 0
__ZN5Tiled3Map10addTilesetERK14QSharedPointerINS_7TilesetEE T 3b120 0
__ZN5Tiled3Map10adoptLayerERNS_5LayerE T 3ae90 0
__ZN5Tiled3Map11addTilesetsERK4QSetI14QSharedPointerINS_7TilesetEEE T 3b220 0
__ZN5Tiled3Map11insertLayerEiPNS_5LayerE T 3afa0 0
__ZN5Tiled3Map11takeLayerAtEi T 3b0e0 0
__ZN5Tiled3Map13insertTilesetEiRK14QSharedPointerINS_7TilesetEE T 3b2a0 0
__ZN5Tiled3Map14replaceTilesetERK14QSharedPointerINS_7TilesetEES5_ T 3b4f0 0
__ZN5Tiled3Map15removeTilesetAtEi T 3b3d0 0
__ZN5Tiled3Map19initializeObjectIdsERNS_11ObjectGroupE T 3b030 0
__ZN5Tiled3Map21replaceObjectTemplateEPKNS_14ObjectTemplateES3_ T 3c820 0
__ZN5Tiled3Map37normalizeTileLayerPositionsAndMapSizeEv T 3c3e0 0
__ZN5Tiled3Map8addLayerEPNS_5LayerE T 3ae50 0
__ZN5Tiled3MapC1ENS0_11OrientationEiiii T 3a060 0
__ZN5Tiled3MapC1ERKNS0_10ParametersE T 39f60 0
__ZN5Tiled3MapC1Ev T 39f20 0
__ZN5Tiled3MapC2ENS0_11OrientationEiiii T 39ff0 0
__ZN5Tiled3MapC2ERKNS0_10ParametersE T 39e00 0
__ZN5Tiled3MapC2Ev T 39da0 0
__ZN5Tiled3MapD0Ev T 3a1a0 0
__ZN5Tiled3MapD1Ev T 3a180 0
__ZN5Tiled3MapD2Ev T 3a0d0 0
__ZN5Tiled4Cell16staticMetaObjectE S 163f90 0
__ZN5Tiled4Cell5emptyE D 165b30 0
__ZN5Tiled4Cell6rotateENS_15RotateDirectionE T e8f80 0
__ZN5Tiled4Tile12setImageRectERK5QRect T e6730 0
__ZN5Tiled4Tile14resetAnimationEv T e6980 0
__ZN5Tiled4Tile14setObjectGroupENSt3__110unique_ptrINS_11ObjectGroupENS1_14default_deleteIS3_EEEE T e67c0 0
__ZN5Tiled4Tile15swapObjectGroupERNSt3__110unique_ptrINS_11ObjectGroupENS1_14default_deleteIS3_EEEE T e68e0 0
__ZN5Tiled4Tile16advanceAnimationEi T e6a50 0
__ZN5Tiled4Tile8setImageERK7QPixmap T e6530 0
__ZN5Tiled4Tile9setFramesERK5QListINS_5FrameEE T e6940 0
__ZN5Tiled4TileC1ERK7QPixmapiPNS_7TilesetE T e5f50 0
__ZN5Tiled4TileC1EiPNS_7TilesetE T e5d80 0
__ZN5Tiled4TileC2ERK7QPixmapiPNS_7TilesetE T e5db0 0
__ZN5Tiled4TileC2EiPNS_7TilesetE T e5bd0 0
__ZN5Tiled4TileD0Ev T e6030 0
__ZN5Tiled4TileD1Ev T e6010 0
__ZN5Tiled4TileD2Ev T e5f90 0
__ZN5Tiled5Chunk25removeReferencesToTilesetEPNS_7TilesetE T e9500 0
__ZN5Tiled5Chunk26replaceReferencesToTilesetEPNS_7TilesetES2_ T e96b0 0
__ZN5Tiled5Chunk7setCellEiiRKNS_4CellE T e9230 0
__ZN5Tiled5Issue11setCallbackENSt3__18functionIFvvEEE T 36f40 0
__ZN5Tiled5Issue12mNextIssueIdE D 1651a8 0
__ZN5Tiled5Issue13addOccurrenceERKS0_ T 36fb0 0
__ZN5Tiled5IssueC1ENS0_8SeverityERK7QStringNSt3__18functionIFvvEEEPKv T 36f00 0
__ZN5Tiled5IssueC1Ev T 36e20 0
__ZN5Tiled5IssueC2ENS0_8SeverityERK7QStringNSt3__18functionIFvvEEEPKv T 36da0 0
__ZN5Tiled5IssueC2Ev T 36cc0 0
__ZN5Tiled5Layer11asTileLayerEv T 356f0 0
__ZN5Tiled5Layer12asGroupLayerEv T 35810 0
__ZN5Tiled5Layer12asImageLayerEv T 357b0 0
__ZN5Tiled5Layer13asObjectGroupEv T 35750 0
__ZN5Tiled5LayerC2ENS0_8TypeFlagERK7QStringii T 34a50 0
__ZN5Tiled5World10setMapRectEiRK5QRect T 13b640 0
__ZN5Tiled5World11displayNameERK7QString T 13d440 0
__ZN5Tiled5World11setGridSizeE5QSize T 13b700 0
__ZN5Tiled5World4loadERK7QStringPS1_ T 13d4b0 0
__ZN5Tiled5World4saveERS0_P7QString T 13f740 0
__ZN5Tiled5World6addMapERK7QStringRK5QRect T 13b780 0
__ZN5Tiled5World9removeMapEi T 13b720 0
__ZN5Tiled5toUrlERK7QStringS2_ T e7ca0 0
__ZN5Tiled6Object11setPropertyERK5QListINSt3__17variantIJ7QStringiEEEERK8QVariant T a1050 0
__ZN5Tiled6Object13propertyTypesEv T a0a80 0
__ZN5Tiled6Object14mPropertyTypesE S 165fd0 0
__ZN5Tiled6Object16setPropertyTypesERK14QSharedPointerINS_13PropertyTypesEE T a1090 0
__ZN5Tiled6ObjectD0Ev T a0980 0
__ZN5Tiled6ObjectD1Ev T a0960 0
__ZN5Tiled6ObjectD2Ev T a08b0 0
__ZN5Tiled6Plugin11qt_metacallEN11QMetaObject4CallEiPPv T b44b0 0
__ZN5Tiled6Plugin11qt_metacastEPKc T b4440 0
__ZN5Tiled6Plugin12removeObjectEP7QObject T b4350 0
__ZN5Tiled6Plugin16staticMetaObjectE S 163488 0
__ZN5Tiled6Plugin9addObjectEP7QObject T b42e0 0
__ZN5Tiled6PluginD0Ev T b42d0 0
__ZN5Tiled6PluginD1Ev T b42c0 0
__ZN5Tiled6PluginD2Ev T b41e0 0
__ZN5Tiled6WangId10fromStringE11QStringViewPb T 128050 0
__ZN5Tiled6WangId11indexByGridEii T 1278e0 0
__ZN5Tiled6WangId12setEdgeColorEij T 127740 0
__ZN5Tiled6WangId12setGridColorEiij T 127890 0
__ZN5Tiled6WangId13setIndexColorEij T 1277a0 0
__ZN5Tiled6WangId14flipVerticallyEv T 127f20 0
__ZN5Tiled6WangId14setCornerColorEij T 127830 0
__ZN5Tiled6WangId16flipHorizontallyEv T 127e30 0
__ZN5Tiled6WangId16updateToAdjacentES0_i T 127960 0
__ZN5Tiled6WangId6rotateEi T 127d50 0
__ZN5Tiled6WangId8fromUintEj T 127f80 0
__ZN5Tiled6toJsonERK5QListINS_10ObjectTypeEERKNS_13ExportContextE T a66a0 0
__ZN5Tiled7Tileset10addWangSetENSt3__110unique_ptrINS_7WangSetENS1_14default_deleteIS3_EEEE T fbda0 0
__ZN5Tiled7Tileset10deleteTileEi T fc6d0 0
__ZN5Tiled7Tileset11removeTilesERK5QListIPNS_4TileEE T fc4c0 0
__ZN5Tiled7Tileset11setTileSizeE5QSize T fa380 0
__ZN5Tiled7Tileset12setTileImageEPNS_4TileERK7QPixmapRK4QUrl T fd070 0
__ZN5Tiled7Tileset13insertWangSetEiNSt3__110unique_ptrINS_7WangSetENS1_14default_deleteIS3_EEEE T fbe50 0
__ZN5Tiled7Tileset13loadFromImageERK6QImageRK4QUrl T faac0 0
__ZN5Tiled7Tileset13loadFromImageERK6QImageRK7QString T fb3c0 0
__ZN5Tiled7Tileset13loadFromImageERK7QString T fb480 0
__ZN5Tiled7Tileset13relocateTilesERK5QListIPNS_4TileEEi T fcaa0 0
__ZN5Tiled7Tileset13takeWangSetAtEi T fbf30 0
__ZN5Tiled7Tileset14resetTileOrderEv T fcdf0 0
__ZN5Tiled7Tileset14setImageSourceERK4QUrl T fbc50 0
__ZN5Tiled7Tileset14setImageSourceERK7QString T fbd00 0
__ZN5Tiled7Tileset14setTileSpacingEi T fa3d0 0
__ZN5Tiled7Tileset14updateTileSizeEv T fc3c0 0
__ZN5Tiled7Tileset15originalTilesetEv T fd330 0
__ZN5Tiled7Tileset16fillModeToStringENS0_8FillModeE T fe8d0 0
__ZN5Tiled7Tileset16findOrCreateTileEi T fa4f0 0
__ZN5Tiled7Tileset16setTileImageRectEPNS_4TileERK5QRect T fd240 0
__ZN5Tiled7Tileset17setImageReferenceERKNS_14ImageReferenceE T fa8c0 0
__ZN5Tiled7Tileset18fillModeFromStringERK7QString T fea20 0
__ZN5Tiled7Tileset18setOriginalTilesetERK14QSharedPointerIS0_E T fd300 0
__ZN5Tiled7Tileset19maybeUpdateTileSizeE5QSizeS1_ T fd160 0
__ZN5Tiled7Tileset19orientationToStringENS0_11OrientationE T fe590 0
__ZN5Tiled7Tileset19setTransparentColorERK6QColor T fa880 0
__ZN5Tiled7Tileset21orientationFromStringERK7QString T fe6e0 0
__ZN5Tiled7Tileset22initializeTilesetTilesEv T fac20 0
__ZN5Tiled7Tileset22tileRenderSizeToStringENS0_14TileRenderSizeE T fe730 0
__ZN5Tiled7Tileset24tileRenderSizeFromStringERK7QString T fe880 0
__ZN5Tiled7Tileset4swapERS0_ T fd3e0 0
__ZN5Tiled7Tileset7addTileERK7QPixmapRK4QUrlRK5QRect T fbfd0 0
__ZN5Tiled7Tileset8addTilesERK5QListIPNS_4TileEE T fc220 0
__ZN5Tiled7Tileset9loadImageEv T fb560 0
__ZN5Tiled7Tileset9setFormatERK7QString T fa310 0
__ZN5Tiled7Tileset9setMarginEi T fa420 0
__ZN5Tiled7TilesetC1E7QStringiiii T fa0d0 0
__ZN5Tiled7TilesetC2E7QStringiiii T f9c40 0
__ZN5Tiled7TilesetD0Ev T fa2e0 0
__ZN5Tiled7TilesetD1Ev T fa2c0 0
__ZN5Tiled7TilesetD2Ev T fa110 0
__ZN5Tiled7WangSet12addWangColorERK14QSharedPointerINS_9WangColorEE T 129360 0
__ZN5Tiled7WangSet12removeTileIdEi T 129750 0
__ZN5Tiled7WangSet13setColorCountEi T 128d80 0
__ZN5Tiled7WangSet13wangIdIsValidENS_6WangIdEi T 12b670 0
__ZN5Tiled7WangSet15insertWangColorERK14QSharedPointerINS_9WangColorEE T 1291f0 0
__ZN5Tiled7WangSet15takeWangColorAtEi T 1293c0 0
__ZN5Tiled7WangSet16recalculateCellsEv T 1298c0 0
__ZN5Tiled7WangSet25recalculateColorDistancesEv T 12a700 0
__ZN5Tiled7WangSet7setTypeENS0_4TypeE T 1289f0 0
__ZN5Tiled7WangSet9setWangIdEiNS_6WangIdE T 1295a0 0
__ZN5Tiled7WangSetC1EPNS_7TilesetERK7QStringNS0_4TypeEi T 128b10 0
__ZN5Tiled7WangSetC2EPNS_7TilesetERK7QStringNS0_4TypeEi T 128810 0
__ZN5Tiled7WangSetD0Ev T 128d50 0
__ZN5Tiled7WangSetD1Ev T 128d30 0
__ZN5Tiled7WangSetD2Ev T 128b50 0
__ZN5Tiled7readMapERK7QStringPS0_ T 433a0 0
__ZN5Tiled8FilePath10fromStringERK7QString T bd700 0
__ZN5Tiled8FilePath16staticMetaObjectE S 163630 0
__ZN5Tiled8FilePath8toStringERKS0_ T bd680 0
__ZN5Tiled8OpenFileC1ERK7QString T 376e0 0
__ZN5Tiled8OpenFileC2ERK7QString T 37690 0
__ZN5Tiled8SaveFile17safeSavingEnabledEv T e1ec0 0
__ZN5Tiled8SaveFile18mSafeSavingEnabledE D 1659d8 0
__ZN5Tiled8SaveFile20setSafeSavingEnabledEb T e1ed0 0
__ZN5Tiled8SaveFile6commitEv T e1e30 0
__ZN5Tiled8SaveFileC1ERK7QString T e1e00 0
__ZN5Tiled8SaveFileC2ERK7QString T e1b70 0
__ZN5Tiled8TextDataC1Ev T 46090 0
__ZN5Tiled8TextDataC2Ev T 45f20 0
__ZN5Tiled8compressERK10QByteArrayNS_17CompressionMethodEi T 4840 0
__ZN5Tiled8fromJsonERK10QJsonArrayR5QListINS_10ObjectTypeEERKNS_13ExportContextE T a7410 0
__ZN5Tiled8typeNameERK8QVariant T c1a50 0
__ZN5Tiled9GidMapperC1ERK5QListI14QSharedPointerINS_7TilesetEEE T 12960 0
__ZN5Tiled9GidMapperC1Ev T 126e0 0
__ZN5Tiled9GidMapperC2ERK5QListI14QSharedPointerINS_7TilesetEEE T 12700 0
__ZN5Tiled9GidMapperC2Ev T 12690 0
__ZN5Tiled9MapFormat11qt_metacallEN11QMetaObject4CallEiPPv T 43a90 0
__ZN5Tiled9MapFormat11qt_metacastEPKc T 43a00 0
__ZN5Tiled9MapFormat16staticMetaObjectE S 162ad0 0
__ZN5Tiled9MapObject11setTextDataERKNS_8TextDataE T 46590 0
__ZN5Tiled9MapObject16syncWithTemplateEv T 48c90 0
__ZN5Tiled9MapObject18copyPropertiesFromEPKS0_ T 48ad0 0
__ZN5Tiled9MapObject18detachFromTemplateEv T 48e40 0
__ZN5Tiled9MapObject20setMapObjectPropertyENS0_8PropertyERK8QVariant T 47760 0
__ZN5Tiled9MapObject22flipInPixelCoordinatesENS_13FlipDirectionERK7QPointF T 48510 0
__ZN5Tiled9MapObject23flipInScreenCoordinatesENS_13FlipDirectionERK7QPointF T 47e70 0
__ZN5Tiled9MapObject4flipENS_13FlipDirectionERK7QPointF T 47d60 0
__ZN5Tiled9MapObjectC1ERK7QStringS3_RK7QPointFRK6QSizeF T 463c0 0
__ZN5Tiled9MapObjectC2ERK7QStringS3_RK7QPointFRK6QSizeF T 46270 0
__ZN5Tiled9MapReader11readTilesetEP9QIODeviceRK7QString T 5cc30 0
__ZN5Tiled9MapReader11readTilesetERK7QString T 5ccd0 0
__ZN5Tiled9MapReader16resolveReferenceERK7QStringRK4QDir T 53d50 0
__ZN5Tiled9MapReader18readObjectTemplateEP9QIODeviceRK7QString T 5ce00 0
__ZN5Tiled9MapReader18readObjectTemplateERK7QString T 5ce40 0
__ZN5Tiled9MapReader19readExternalTilesetERK7QStringPS1_ T 5d090 0
__ZN5Tiled9MapReader7readMapEP9QIODeviceRK7QString T 5cac0 0
__ZN5Tiled9MapReader7readMapERK7QString T 5cb00 0
__ZN5Tiled9MapReaderC1Ev T 5c9e0 0
__ZN5Tiled9MapReaderC2Ev T 5c930 0
__ZN5Tiled9MapReaderD0Ev T 5ca90 0
__ZN5Tiled9MapReaderD1Ev T 5ca70 0
__ZN5Tiled9MapReaderD2Ev T 5ca00 0
__ZN5Tiled9MapWriter12writeTilesetERKNS_7TilesetEP9QIODeviceRK7QString T 99fc0 0
__ZN5Tiled9MapWriter12writeTilesetERKNS_7TilesetERK7QString T 9a000 0
__ZN5Tiled9MapWriter13setDtdEnabledEb T 9a4c0 0
__ZN5Tiled9MapWriter17setMinimizeOutputEb T 9a520 0
__ZN5Tiled9MapWriter19writeObjectTemplateEPKNS_14ObjectTemplateEP9QIODeviceRK7QString T 9a220 0
__ZN5Tiled9MapWriter19writeObjectTemplateEPKNS_14ObjectTemplateERK7QString T 9a260 0
__ZN5Tiled9MapWriter8writeMapEPKNS_3MapEP9QIODeviceRK7QString T 99c90 0
__ZN5Tiled9MapWriter8writeMapEPKNS_3MapERK7QString T 99cf0 0
__ZN5Tiled9MapWriterC1Ev T 99c10 0
__ZN5Tiled9MapWriterC2Ev T 99b60 0
__ZN5Tiled9MapWriterD1Ev T 99c70 0
__ZN5Tiled9MapWriterD2Ev T 99c30 0
__ZN5Tiled9ObjectRef16staticMetaObjectE S 163678 0
__ZN5Tiled9TileLayer11offsetTilesE6QPoint T ed9c0 0
__ZN5Tiled9TileLayer11offsetTilesE6QPoint5QRectbb T ed600 0
__ZN5Tiled9TileLayer13flipHexagonalENS_13FlipDirectionE T eb3d0 0
__ZN5Tiled9TileLayer15rotateHexagonalENS_15RotateDirectionEPNS_3MapE T ebdb0 0
__ZN5Tiled9TileLayer25removeReferencesToTilesetEPNS_7TilesetE T ed010 0
__ZN5Tiled9TileLayer26replaceReferencesToTilesetEPNS_7TilesetES2_ T ed270 0
__ZN5Tiled9TileLayer4flipENS_13FlipDirectionE T eaeb0 0
__ZN5Tiled9TileLayer5clearEv T eadd0 0
__ZN5Tiled9TileLayer5eraseERK7QRegion T eaca0 0
__ZN5Tiled9TileLayer5mergeE6QPointPKS0_ T ea7c0 0
__ZN5Tiled9TileLayer6resizeE5QSize6QPoint T ec670 0
__ZN5Tiled9TileLayer6rotateENS_15RotateDirectionE T eb8b0 0
__ZN5Tiled9TileLayer7setCellEiiRKNS_4CellE T ea170 0
__ZN5Tiled9TileLayer8setCellsEiiPKS0_RK7QRegion T ea930 0
__ZN5Tiled9TileLayer8setTilesERK7QRegionPNS_4TileE T eaa40 0
__ZN5Tiled9TileLayerC1ERK7QString6QPoint5QSize T e99c0 0
__ZN5Tiled9TileLayerC1ERK7QStringiiii T e9900 0
__ZN5Tiled9TileLayerC2ERK7QString6QPoint5QSize T e9940 0
__ZN5Tiled9TileLayerC2ERK7QStringiiii T e9840 0
__ZN5Tiled9WangColorC1EiRK7QStringRK6QColorid T 1287c0 0
__ZN5Tiled9WangColorC1Ev T 128730 0
__ZN5Tiled9WangColorC2EiRK7QStringRK6QColorid T 128650 0
__ZN5Tiled9WangColorC2Ev T 1285c0 0
__ZN5TiledlsE6QDebugNS_6WangIdE T 1282f0 0
__ZN5TiledlsE6QDebugRKNS_8WangTileE T 128460 0
__ZN6QBrushC1EN2Qt10BrushStyleE U 0 0
__ZN6QBrushC1EN2Qt11GlobalColorENS0_10BrushStyleE U 0 0
__ZN6QBrushC1ERK6QColorN2Qt10BrushStyleE U 0 0
__ZN6QBrushC1ERK7QPixmap U 0 0
__ZN6QBrushD1Ev U 0 0
__ZN6QColor10fromStringE14QAnyStringView U 0 0
__ZN6QColor12isValidColorERK7QString U 0 0
__ZN6QColor13setNamedColorERK7QString U 0 0
__ZN6QColor8fromRgbFEffff U 0 0
__ZN6QColor8setAlphaEi U 0 0
__ZN6QColorC1EN2Qt11GlobalColorE U 0 0
__ZN6QColorC1Ej U 0 0
__ZN6QColoraSEN2Qt11GlobalColorE U 0 0
__ZN6QDebug9putStringEPK5QCharm U 0 0
__ZN6QDebugD1Ev U 0 0
__ZN6QImage4fillEN2Qt11GlobalColorE U 0 0
__ZN6QImage4fillERK6QColor U 0 0
__ZN6QImage8fromDataE14QByteArrayViewPKc U 0 0
__ZN6QImage9convertToENS_6FormatE6QFlagsIN2Qt19ImageConversionFlagEE U 0 0
__ZN6QImageC1ERK5QSizeNS_6FormatE U 0 0
__ZN6QImageC1ERK7QStringPKc U 0 0
__ZN6QImageC1ERKS_ U 0 0
__ZN6QImageC1Ev U 0 0
__ZN6QImageD1Ev U 0 0
__ZN6QTimer11setIntervalEi U 0 0
__ZN6QTimer13setSingleShotEb U 0 0
__ZN6QTimer16staticMetaObjectE U 0 0
__ZN6QTimer4stopEv U 0 0
__ZN6QTimer5startEv U 0 0
__ZN6QTimer7timeoutENS_14QPrivateSignalE U 0 0
__ZN6QTimerC1EP7QObject U 0 0
__ZN6QTimerD1Ev U 0 0
__ZN7QBitmapD1Ev U 0 0
__ZN7QBuffer4openE6QFlagsIN13QIODeviceBase12OpenModeFlagEE U 0 0
__ZN7QBuffer7setDataERK10QByteArray U 0 0
__ZN7QBufferC1EP7QObject U 0 0
__ZN7QBufferD1Ev U 0 0
__ZN7QObject10childEventEP11QChildEvent U 0 0
__ZN7QObject10timerEventEP11QTimerEvent U 0 0
__ZN7QObject11connectImplEPKS_PPvS1_S3_PN9QtPrivate15QSlotObjectBaseEN2Qt14ConnectionTypeEPKiPK11QMetaObject U 0 0
__ZN7QObject11customEventEP6QEvent U 0 0
__ZN7QObject11eventFilterEPS_P6QEvent U 0 0
__ZN7QObject11qt_metacallEN11QMetaObject4CallEiPPv U 0 0
__ZN7QObject11qt_metacastEPKc U 0 0
__ZN7QObject13connectNotifyERK11QMetaMethod U 0 0
__ZN7QObject16disconnectNotifyERK11QMetaMethod U 0 0
__ZN7QObject16staticMetaObjectE U 0 0
__ZN7QObject5eventEP6QEvent U 0 0
__ZN7QObjectC2EPS_ U 0 0
__ZN7QObjectD2Ev U 0 0
__ZN7QPixmap16fromImageInPlaceER6QImage6QFlagsIN2Qt19ImageConversionFlagEE U 0 0
__ZN7QPixmap4fillERK6QColor U 0 0
__ZN7QPixmap7setMaskERK7QBitmap U 0 0
__ZN7QPixmap9fromImageERK6QImage6QFlagsIN2Qt19ImageConversionFlagEE U 0 0
__ZN7QPixmapC1ERK7QStringPKc6QFlagsIN2Qt19ImageConversionFlagEE U 0 0
__ZN7QPixmapC1ERKS_ U 0 0
__ZN7QPixmapC1Eii U 0 0
__ZN7QPixmapC1Ev U 0 0
__ZN7QPixmapD1Ev U 0 0
__ZN7QPixmapaSERKS_ U 0 0
__ZN7QRegionC1ERK7QBitmap U 0 0
__ZN7QRegionC1EiiiiNS_10RegionTypeE U 0 0
__ZN7QRegionC1Ev U 0 0
__ZN7QRegionD1Ev U 0 0
__ZN7QRegionoRERKS_ U 0 0
__ZN7QRegionpLERK5QRect U 0 0
__ZN7QRegionpLERKS_ U 0 0
__ZN7QString10fromLatin1E14QByteArrayView U 0 0
__ZN7QString15toLatin1_helperERKS_ U 0 0
__ZN7QString17toIntegral_helperE11QStringViewPbi U 0 0
__ZN7QString17toIntegral_helperE11QStringViewPbj U 0 0
__ZN7QString23toLatin1_helper_inplaceERS_ U 0 0
__ZN7QString4chopEx U 0 0
__ZN7QString6_emptyE U 0 0
__ZN7QString6appendE5QChar U 0 0
__ZN7QString6appendERKS_ U 0 0
__ZN7QString6insertEx5QChar U 0 0
__ZN7QString6numberEdci U 0 0
__ZN7QString6numberEii U 0 0
__ZN7QString6numberEji U 0 0
__ZN7QString8fromUtf8E14QByteArrayView U 0 0
__ZN7QStringC1E5QChar U 0 0
__ZN7QStringC1EPK5QCharx U 0 0
__ZN7QStringaSERKS_ U 0 0
__ZN8QLibrary9isLibraryERK7QString U 0 0
__ZN8QPainter10doSetBrushERK6QBrushPS0_ U 0 0
__ZN8QPainter10drawPixmapERK6QRectFRK7QPixmapS2_ U 0 0
__ZN8QPainter10drawPointsEPK7QPointFi U 0 0
__ZN8QPainter10setOpacityEd U 0 0
__ZN8QPainter10strokePathERK12QPainterPathRK4QPen U 0 0
__ZN8QPainter11drawEllipseERK6QRectF U 0 0
__ZN8QPainter11drawPolygonEPK7QPointFiN2Qt8FillRuleE U 0 0
__ZN8QPainter12drawPolylineEPK7QPointFi U 0 0
__ZN8QPainter12setTransformERK10QTransformb U 0 0
__ZN8QPainter13setRenderHintENS_10RenderHintEb U 0 0
__ZN8QPainter14setRenderHintsE6QFlagsINS_10RenderHintEEb U 0 0
__ZN8QPainter15drawRoundedRectERK6QRectFddN2Qt8SizeModeE U 0 0
__ZN8QPainter18setCompositionModeENS_15CompositionModeE U 0 0
__ZN8QPainter19drawPixmapFragmentsEPKNS_14PixmapFragmentEiRK7QPixmap6QFlagsINS_18PixmapFragmentHintEE U 0 0
__ZN8QPainter3endEv U 0 0
__ZN8QPainter4saveEv U 0 0
__ZN8QPainter5scaleEdd U 0 0
__ZN8QPainter6rotateEd U 0 0
__ZN8QPainter6setPenEN2Qt8PenStyleE U 0 0
__ZN8QPainter6setPenERK6QColor U 0 0
__ZN8QPainter7restoreEv U 0 0
__ZN8QPainter7setFontERK5QFont U 0 0
__ZN8QPainter8doSetPenERK4QPenPS0_ U 0 0
__ZN8QPainter8drawPathERK12QPainterPath U 0 0
__ZN8QPainter8drawTextERK6QRectFRK7QStringRK11QTextOption U 0 0
__ZN8QPainter8fillRectERK5QRectRK6QColor U 0 0
__ZN8QPainter8fillRectERK6QRectFRK6QColor U 0 0
__ZN8QPainter8setBrushE6QColor U 0 0
__ZN8QPainter8setBrushEN2Qt10BrushStyleE U 0 0
__ZN8QPainter9drawLinesEPK5QLinei U 0 0
__ZN8QPainter9drawLinesEPK6QLineFi U 0 0
__ZN8QPainter9drawRectsEPK6QRectFi U 0 0
__ZN8QPainter9translateERK7QPointF U 0 0
__ZN8QPainterC1EP12QPaintDevice U 0 0
__ZN8QPainterD1Ev U 0 0
__ZN8QVariant13moveConstructE9QMetaTypePv U 0 0
__ZN8QVariant7convertE9QMetaType U 0 0
__ZN8QVariantC1E13QLatin1String U 0 0
__ZN8QVariantC1E6QSizeF U 0 0
__ZN8QVariantC1E7QPointF U 0 0
__ZN8QVariantC1E9QMetaTypePKv U 0 0
__ZN8QVariantC1ERK10QByteArray U 0 0
__ZN8QVariantC1ERK4QMapI7QStringS_E U 0 0
__ZN8QVariantC1ERK5QListIS_E U 0 0
__ZN8QVariantC1ERK7QString U 0 0
__ZN8QVariantC1ERKS_ U 0 0
__ZN8QVariantC1Eb U 0 0
__ZN8QVariantC1Ed U 0 0
__ZN8QVariantC1Ei U 0 0
__ZN8QVariantC1Ej U 0 0
__ZN8QVariantD1Ev U 0 0
__ZN8QVariantaSERKS_ U 0 0
__ZN9QDateTimeC1EOS_ U 0 0
__ZN9QDateTimeC1ERKS_ U 0 0
__ZN9QDateTimeC1Ev U 0 0
__ZN9QDateTimeD1Ev U 0 0
__ZN9QFileInfoC1ERK7QString U 0 0
__ZN9QFileInfoD1Ev U 0 0
__ZN9QHashSeed10globalSeedEv U 0 0
__ZN9QIODevice5writeERK10QByteArray U 0 0
__ZN9QIODevice7readAllEv U 0 0
__ZN9QMetaType14registerHelperEPKN9QtPrivate18QMetaTypeInterfaceE U 0 0
__ZN9QMetaType25registerConverterFunctionERKNSt3__18functionIFbPKvPvEEES_S_ U 0 0
__ZN9QMetaType25registerNormalizedTypedefERK10QByteArrayS_ U 0 0
__ZN9QMetaType27unregisterConverterFunctionES_S_ U 0 0
__ZN9QMetaType7convertES_PKvS_Pv U 0 0
__ZN9QMetaType8fromNameE14QByteArrayView U 0 0
__ZN9QMetaTypeC1Ei U 0 0
__ZN9QPolygonFC1ERK6QRectF U 0 0
__ZN9QSaveFile16staticMetaObjectE U 0 0
__ZN9QSaveFile6commitEv U 0 0
__ZN9QSaveFileC1ERK7QStringP7QObject U 0 0
__ZN9QtPrivate12argToQStringE14QAnyStringViewmPPKNS_7ArgBaseE U 0 0
__ZN9QtPrivate12equalStringsE11QStringView13QLatin1String U 0 0
__ZN9QtPrivate12equalStringsE11QStringViewS0_ U 0 0
__ZN9QtPrivate12equalStringsE13QLatin1String11QStringView U 0 0
__ZN9QtPrivate12qustrcasechrE11QStringViewDs U 0 0
__ZN9QtPrivate14compareStringsE11QStringViewS0_N2Qt15CaseSensitivityE U 0 0
__ZN9QtPrivate15convertToLatin1E11QStringView U 0 0
__ZN9QtPrivate17expectedAllocSizeEmm U 0 0
__ZN9QtPrivate19QStringList_indexOfERK5QListI7QStringE11QStringViewxN2Qt15CaseSensitivityE U 0 0
__ZN9QtPrivate20QStringList_containsEPK5QListI7QStringE11QStringViewN2Qt15CaseSensitivityE U 0 0
__ZN9QtPrivate25QMetaTypeInterfaceWrapperI18QRegularExpressionE8metaTypeE U 0 0
__ZN9QtPrivate25QMetaTypeInterfaceWrapperI4QUrlE8metaTypeE U 0 0
__ZN9QtPrivate25QMetaTypeInterfaceWrapperI5QListI7QStringEE8metaTypeE U 0 0
__ZN9QtPrivate25QMetaTypeInterfaceWrapperI5QListI8QVariantEE8metaTypeE U 0 0
__ZN9QtPrivate25QMetaTypeInterfaceWrapperI5QRectE8metaTypeE U 0 0
__ZN9QtPrivate25QMetaTypeInterfaceWrapperI5QSizeE8metaTypeE U 0 0
__ZN9QtPrivate25QMetaTypeInterfaceWrapperI6QPointE8metaTypeE U 0 0
__ZN9QtPrivate25QMetaTypeInterfaceWrapperI7QStringE8metaTypeE U 0 0
__ZN9QtPrivate25QMetaTypeInterfaceWrapperI8QVariantE8metaTypeE U 0 0
__ZN9QtPrivate25QMetaTypeInterfaceWrapperIP7QObjectE8metaTypeE U 0 0
__ZN9QtPrivate25QMetaTypeInterfaceWrapperIbE8metaTypeE U 0 0
__ZN9QtPrivate25QMetaTypeInterfaceWrapperIiE8metaTypeE U 0 0
__ZN9QtPrivate8qustrchrE11QStringViewDs U 0 0
__ZN9QtPrivate9sizedFreeEPvm U 0 0
__ZNK10QByteArray8toBase64E6QFlagsINS_12Base64OptionEE U 0 0
__ZNK10QJsonArray4sizeEv U 0 0
__ZNK10QJsonArray7isEmptyEv U 0 0
__ZNK10QJsonArray8containsERK10QJsonValue U 0 0
__ZNK10QJsonValue4typeEv U 0 0
__ZNK10QJsonValue5toIntEi U 0 0
__ZNK10QJsonValue6toBoolEb U 0 0
__ZNK10QJsonValue7toArrayEv U 0 0
__ZNK10QJsonValue8toDoubleEd U 0 0
__ZNK10QJsonValue8toObjectEv U 0 0
__ZNK10QJsonValue8toStringEv U 0 0
__ZNK10QJsonValue9toVariantEv U 0 0
__ZNK10QTransform3mapERK12QPainterPath U 0 0
__ZNK10QTransform3mapERK7QPointF U 0 0
__ZNK10QTransform3mapERK9QPolygonF U 0 0
__ZNK10QTransform8invertedEPb U 0 0
__ZNK10QTransformmlERKS_ U 0 0
__ZNK11QFileDevice5errorEv U 0 0
__ZNK11QJsonObject12toVariantMapEv U 0 0
__ZNK11QJsonObject5valueE13QLatin1String U 0 0
__ZNK11QJsonObject5valueERK7QString U 0 0
__ZNK11QJsonObject8containsERK7QString U 0 0
__ZNK11QMetaObject2trEPKcS1_i U 0 0
__ZNK11QMetaObject4castEPK7QObject U 0 0
__ZNK11QMetaObject9classNameEv U 0 0
__ZNK11QObjectData17dynamicMetaObjectEv U 0 0
__ZNK11QStringView5splitE5QChar6QFlagsIN2Qt18SplitBehaviorFlagsEENS2_15CaseSensitivityE U 0 0
__ZNK11QStringView8toDoubleEPb U 0 0
__ZNK12QDirIterator7hasNextEv U 0 0
__ZNK12QPaintDevice16devicePixelRatioEv U 0 0
__ZNK12QPainterPath10simplifiedEv U 0 0
__ZNK12QPainterPath10subtractedERKS_ U 0 0
__ZNK12QPainterPath10translatedEdd U 0 0
__ZNK12QPainterPath12boundingRectEv U 0 0
__ZNK13QFontMetricsF4sizeEiRK7QStringiPi U 0 0
__ZNK13QJsonDocument5arrayEv U 0 0
__ZNK13QJsonDocument6isNullEv U 0 0
__ZNK13QJsonDocument6objectEv U 0 0
__ZNK13QJsonDocument6toJsonENS_10JsonFormatE U 0 0
__ZNK13QPluginLoader11errorStringEv U 0 0
__ZNK13QPluginLoader8fileNameEv U 0 0
__ZNK13QPluginLoader8metaDataEv U 0 0
__ZNK14QMessageLogger5debugEv U 0 0
__ZNK14QMessageLogger7warningEv U 0 0
__ZNK15QJsonParseError11errorStringEv U 0 0
__ZNK16QXmlStreamReader10attributesEv U 0 0
__ZNK16QXmlStreamReader10lineNumberEv U 0 0
__ZNK16QXmlStreamReader11errorStringEv U 0 0
__ZNK16QXmlStreamReader12columnNumberEv U 0 0
__ZNK16QXmlStreamReader12isWhitespaceEv U 0 0
__ZNK16QXmlStreamReader4nameEv U 0 0
__ZNK16QXmlStreamReader4textEv U 0 0
__ZNK16QXmlStreamReader5errorEv U 0 0
__ZNK16QXmlStreamReader9tokenTypeEv U 0 0
__ZNK18QAbstractAnimation5stateEv U 0 0
__ZNK18QFileSystemWatcher11directoriesEv U 0 0
__ZNK18QFileSystemWatcher5filesEv U 0 0
__ZNK18QJsonValueConstRef8toObjectEv U 0 0
__ZNK18QRegularExpression12captureCountEv U 0 0
__ZNK18QRegularExpression5matchERK7QStringxNS_9MatchTypeE6QFlagsINS_11MatchOptionEE U 0 0
__ZNK18QRegularExpression7patternEv U 0 0
__ZNK20QXmlStreamAttributes5valueE14QAnyStringView U 0 0
__ZNK23QRegularExpressionMatch12capturedViewEi U 0 0
__ZNK23QRegularExpressionMatch8hasMatchEv U 0 0
__ZNK4QDir16absoluteFilePathERK7QString U 0 0
__ZNK4QDir16relativeFilePathERK7QString U 0 0
__ZNK4QDir4pathEv U 0 0
__ZNK4QDir8filePathERK7QString U 0 0
__ZNK4QDir9entryListE6QFlagsINS_6FilterEES0_INS_8SortFlagEE U 0 0
__ZNK4QPen5colorEv U 0 0
__ZNK4QPen6widthFEv U 0 0
__ZNK4QUrl10isRelativeEv U 0 0
__ZNK4QUrl11isLocalFileEv U 0 0
__ZNK4QUrl11toLocalFileEv U 0 0
__ZNK4QUrl4pathE6QFlagsINS_25ComponentFormattingOptionEE U 0 0
__ZNK4QUrl6schemeEv U 0 0
__ZNK4QUrl7isEmptyEv U 0 0
__ZNK4QUrl8toStringE12QUrlTwoFlagsINS_19UrlFormattingOptionENS_25ComponentFormattingOptionEE U 0 0
__ZNK4QUrl9authorityE6QFlagsINS_25ComponentFormattingOptionEE U 0 0
__ZNK5QFile6existsEv U 0 0
__ZNK5QFont5styleEv U 0 0
__ZNK5QFont6familyEv U 0 0
__ZNK5QFont6weightEv U 0 0
__ZNK5QFont7kerningEv U 0 0
__ZNK5QFont9pixelSizeEv U 0 0
__ZNK5QFont9strikeOutEv U 0 0
__ZNK5QFont9underlineEv U 0 0
__ZNK5QFontcv8QVariantEv U 0 0
__ZNK5QFonteqERKS_ U 0 0
__ZNK5QFontltERKS_ U 0 0
__ZNK5QRect10intersectsERKS_ U 0 0
__ZNK5QRect8containsERK6QPointb U 0 0
__ZNK5QRectanERKS_ U 0 0
__ZNK5QRectorERKS_ U 0 0
__ZNK5Tiled10FileFormat10metaObjectEv T 5d80 0
__ZNK5Tiled10FileFormat12capabilitiesEv T 5840 0
__ZNK5Tiled10FileFormat15hasCapabilitiesE6QFlagsINS0_10CapabilityEE T 58a0 0
__ZNK5Tiled10GroupLayer10mergedWithEPKNS_5LayerE T 190b0 0
__ZNK5Tiled10GroupLayer12canMergeWithEPKNS_5LayerE T 19090 0
__ZNK5Tiled10GroupLayer12usedTilesetsEv T 18cd0 0
__ZNK5Tiled10GroupLayer15initializeCloneEPS0_ T 19140 0
__ZNK5Tiled10GroupLayer17referencesTilesetEPKNS_7TilesetE T 18f50 0
__ZNK5Tiled10GroupLayer5cloneEv T 190c0 0
__ZNK5Tiled10GroupLayer7isEmptyEv T 18c70 0
__ZNK5Tiled10ImageLayer15initializeCloneEPS0_ T 2e410 0
__ZNK5Tiled10ImageLayer5cloneEv T 2e390 0
__ZNK5Tiled10ImageLayer7isEmptyEv T 2e360 0
__ZNK5Tiled10PluginFile11errorStringEv T b68e0 0
__ZNK5Tiled10PluginFile8fileNameEv T b67c0 0
__ZNK5Tiled10PluginFile8hasErrorEv T b6880 0
__ZNK5Tiled11MapRenderer10pointShapeERK7QPointF T 68920 0
__ZNK5Tiled11MapRenderer10snapToGridERK7QPointFi T 69a40 0
__ZNK5Tiled11MapRenderer12boundingRectEPKNS_10ImageLayerE T 68760 0
__ZNK5Tiled11MapRenderer13drawTileLayerEP8QPainterPKNS_9TileLayerERK6QRectF T 69c50 0
__ZNK5Tiled11MapRenderer13setupGridPensEPK12QPaintDevice6QColorR4QPenS6_i5QSize T 6acc0 0
__ZNK5Tiled11MapRenderer14drawImageLayerEP8QPainterPKNS_10ImageLayerERK6QRectF T 68cf0 0
__ZNK5Tiled11MapRenderer15drawPointObjectEP8QPainterRK6QColor T 693a0 0
__ZNK5Tiled11MapRenderer15mapBoundingRectEv T 68710 0
__ZNK5Tiled11MapRenderer21pointInteractionShapeEPKNS_9MapObjectE T 698b0 0
__ZNK5Tiled11ObjectGroup10mergedWithEPKNS_5LayerE T a2900 0
__ZNK5Tiled11ObjectGroup12canMergeWithEPKNS_5LayerE T a28d0 0
__ZNK5Tiled11ObjectGroup12usedTilesetsEv T a2140 0
__ZNK5Tiled11ObjectGroup15highestObjectIdEv T a2b30 0
__ZNK5Tiled11ObjectGroup15initializeCloneEPS0_ T a2a60 0
__ZNK5Tiled11ObjectGroup17referencesTilesetEPKNS_7TilesetE T a2330 0
__ZNK5Tiled11ObjectGroup19objectsBoundingRectEv T a2000 0
__ZNK5Tiled11ObjectGroup5cloneEv T a29e0 0
__ZNK5Tiled11ObjectGroup7isEmptyEv T a2110 0
__ZNK5Tiled12PropertyType13toExportValueERK8QVariantRKNS_13ExportContextE T d1020 0
__ZNK5Tiled12PropertyType15toPropertyValueERK8QVariantRKNS_13ExportContextE T d1090 0
__ZNK5Tiled12PropertyType4wrapERK8QVariant T d0ee0 0
__ZNK5Tiled12PropertyType6toJsonERKNS_13ExportContextE T d10d0 0
__ZNK5Tiled12TmxMapFormat10metaObjectEv T 1108d0 0
__ZNK5Tiled12TmxMapFormat12supportsFileERK7QString T 10fd20 0
__ZNK5Tiled13ExportContext13toExportValueERK8QVariant T bf0e0 0
__ZNK5Tiled13ExportContext15toPropertyValueERK8QVarianti T c2370 0
__ZNK5Tiled13ExportContext15toPropertyValueERKNS_11ExportValueE T c0230 0
__ZNK5Tiled13LayerIteratoreqERKS0_ T 35ee0 0
__ZNK5Tiled13PluginManager10metaObjectEv T b81d0 0
__ZNK5Tiled13PropertyTypes12findClassForERK7QStringRKNS_6ObjectE T d7d80 0
__ZNK5Tiled13PropertyTypes12findTypeByIdEi T d40c0 0
__ZNK5Tiled13PropertyTypes14findTypeByNameERK7QStringi T d7c40 0
__ZNK5Tiled13PropertyTypes15findIndexByNameERK7QString T d7a90 0
__ZNK5Tiled13PropertyTypes21findPropertyValueTypeERK7QString T d75e0 0
__ZNK5Tiled13PropertyTypes5countENS_12PropertyType4TypeE T d6990 0
__ZNK5Tiled13PropertyTypes6toJsonERK7QString T d9bc0 0
__ZNK5Tiled13PropertyValue4typeEv T c1d40 0
__ZNK5Tiled13PropertyValue8typeNameEv T c1ce0 0
__ZNK5Tiled13TilesetFormat10metaObjectEv T 108e20 0
__ZNK5Tiled14TilesetManager10metaObjectEv T 10c1a0 0
__ZNK5Tiled14TilesetManager11findTilesetERK7QString T 10b640 0
__ZNK5Tiled14TilesetManager12animateTilesEv T 10be80 0
__ZNK5Tiled14TilesetManager22reloadTilesetsOnChangeEv T 10bcc0 0
__ZNK5Tiled15MiniMapRenderer13renderToImageER6QImage6QFlagsINS0_10RenderFlagEE T 9acb0 0
__ZNK5Tiled15MiniMapRenderer6renderE5QSize6QFlagsINS0_10RenderFlagEE T 9ac10 0
__ZNK5Tiled15MiniMapRenderer7mapSizeEv T 9abb0 0
__ZNK5Tiled15ObliqueRenderer12boundingRectEPKNS_9MapObjectE T adb90 0
__ZNK5Tiled15ObliqueRenderer12boundingRectERK5QRect T ad850 0
__ZNK5Tiled15ObliqueRenderer13drawMapObjectEP8QPainterPKNS_9MapObjectERKNS_15MapObjectColorsE T afb20 0
__ZNK5Tiled15ObliqueRenderer13drawTileLayerERKNSt3__18functionIFv6QPointRK7QPointFEEERK6QRectF T af5b0 0
__ZNK5Tiled15ObliqueRenderer16interactionShapeEPKNS_9MapObjectE T aea30 0
__ZNK5Tiled15ObliqueRenderer17drawTileSelectionEP8QPainterRK7QRegionRK6QColorRK6QRectF T af8e0 0
__ZNK5Tiled15ObliqueRenderer17screenToPixelRectERK6QRectF T af290 0
__ZNK5Tiled15ObliqueRenderer18screenToTileCoordsEdd T b0f30 0
__ZNK5Tiled15ObliqueRenderer18tileToScreenCoordsEdd T af550 0
__ZNK5Tiled15ObliqueRenderer19pixelToScreenCoordsEdd T b1030 0
__ZNK5Tiled15ObliqueRenderer19screenToPixelCoordsEdd T b0f90 0
__ZNK5Tiled15ObliqueRenderer23tileRectToScreenPolygonERK5QRect T ad8d0 0
__ZNK5Tiled15ObliqueRenderer5shapeEPKNS_9MapObjectE T ae1f0 0
__ZNK5Tiled15ObliqueRenderer8drawGridEP8QPainterRK6QRectF6QColor5QSize T aed30 0
__ZNK5Tiled15ObliqueRenderer9transformEv T ae860 0
__ZNK5Tiled15TemplateManager10metaObjectEv T e3510 0
__ZNK5Tiled16EnumPropertyType12defaultValueEv T d2a70 0
__ZNK5Tiled16EnumPropertyType13toExportValueERK8QVariantRKNS_13ExportContextE T d2020 0
__ZNK5Tiled16EnumPropertyType15toPropertyValueERK8QVariantRKNS_13ExportContextE T d2460 0
__ZNK5Tiled16EnumPropertyType6toJsonERKNS_13ExportContextE T d2aa0 0
__ZNK5Tiled16LoggingInterface10metaObjectEv T 38420 0
__ZNK5Tiled16TsxTilesetFormat10metaObjectEv T 110a20 0
__ZNK5Tiled16TsxTilesetFormat12supportsFileERK7QString T 1101f0 0
__ZNK5Tiled17ClassPropertyType10isClassForERKNS_6ObjectE T d68a0 0
__ZNK5Tiled17ClassPropertyType12canAddMemberERK8QVariantRKNS_13PropertyTypesE T d65b0 0
__ZNK5Tiled17ClassPropertyType12defaultValueEv T d41d0 0
__ZNK5Tiled17ClassPropertyType13toExportValueERK8QVariantRKNS_13ExportContextE T d3690 0
__ZNK5Tiled17ClassPropertyType15toPropertyValueERK8QVariantRKNS_13ExportContextE T d3a40 0
__ZNK5Tiled17ClassPropertyType18canAddMemberOfTypeEPKNS_12PropertyTypeE T d64a0 0
__ZNK5Tiled17ClassPropertyType18canAddMemberOfTypeEPKNS_12PropertyTypeERKNS_13PropertyTypesE T d64e0 0
__ZNK5Tiled17ClassPropertyType6toJsonERKNS_13ExportContextE T d4c80 0
__ZNK5Tiled17FileSystemWatcher10metaObjectEv T 7d60 0
__ZNK5Tiled17HexagonalRenderer10bottomLeftEii T 23020 0
__ZNK5Tiled17HexagonalRenderer10snapToGridERK7QPointFi T 20f50 0
__ZNK5Tiled17HexagonalRenderer11bottomRightEii T 23100 0
__ZNK5Tiled17HexagonalRenderer12boundingRectERK5QRect T 1ede0 0
__ZNK5Tiled17HexagonalRenderer13drawTileLayerERKNSt3__18functionIFv6QPointRK7QPointFEEERK6QRectF T 21660 0
__ZNK5Tiled17HexagonalRenderer17drawTileSelectionEP8QPainterRK7QRegionRK6QColorRK6QRectF T 21d10 0
__ZNK5Tiled17HexagonalRenderer17pixelToTileCoordsEdd T 226d0 0
__ZNK5Tiled17HexagonalRenderer17tileToPixelCoordsEdd T 225a0 0
__ZNK5Tiled17HexagonalRenderer18screenToTileCoordsEdd T 22720 0
__ZNK5Tiled17HexagonalRenderer18tileToScreenCoordsEdd T 225f0 0
__ZNK5Tiled17HexagonalRenderer19tileToScreenPolygonEii T 21fd0 0
__ZNK5Tiled17HexagonalRenderer7topLeftEii T 22e60 0
__ZNK5Tiled17HexagonalRenderer8drawGridEP8QPainterRK6QRectF6QColor5QSize T 1f200 0
__ZNK5Tiled17HexagonalRenderer8topRightEii T 22f40 0
__ZNK5Tiled17IsometricRenderer12boundingRectEPKNS_9MapObjectE T 2ebd0 0
__ZNK5Tiled17IsometricRenderer12boundingRectERK5QRect T 2ea20 0
__ZNK5Tiled17IsometricRenderer13drawMapObjectEP8QPainterPKNS_9MapObjectERKNS_15MapObjectColorsE T 31e00 0
__ZNK5Tiled17IsometricRenderer13drawTileLayerERKNSt3__18functionIFv6QPointRK7QPointFEEERK6QRectF T 31300 0
__ZNK5Tiled17IsometricRenderer16interactionShapeEPKNS_9MapObjectE T 30500 0
__ZNK5Tiled17IsometricRenderer17drawTileSelectionEP8QPainterRK7QRegionRK6QColorRK6QRectF T 31850 0
__ZNK5Tiled17IsometricRenderer17pixelToTileCoordsEdd T 332a0 0
__ZNK5Tiled17IsometricRenderer17tileToPixelCoordsEdd T 33300 0
__ZNK5Tiled17IsometricRenderer18screenToTileCoordsEdd T 31780 0
__ZNK5Tiled17IsometricRenderer18tileToScreenCoordsEdd T 31200 0
__ZNK5Tiled17IsometricRenderer19pixelToScreenCoordsEdd T 33440 0
__ZNK5Tiled17IsometricRenderer19screenToPixelCoordsEdd T 33360 0
__ZNK5Tiled17IsometricRenderer23tileRectToScreenPolygonERK5QRect T 31a90 0
__ZNK5Tiled17IsometricRenderer24pixelRectToScreenPolygonERK6QRectF T 300a0 0
__ZNK5Tiled17IsometricRenderer5shapeEPKNS_9MapObjectE T 2f5b0 0
__ZNK5Tiled17IsometricRenderer8drawGridEP8QPainterRK6QRectF6QColor5QSize T 30a40 0
__ZNK5Tiled17IsometricRenderer9transformEv T 30320 0
__ZNK5Tiled17ReadableMapFormat10metaObjectEv T 43af0 0
__ZNK5Tiled17StaggeredRenderer18screenToTileCoordsEdd T e2210 0
__ZNK5Tiled17WritableMapFormat10metaObjectEv T 43c40 0
__ZNK5Tiled18OrthogonalRenderer12boundingRectEPKNS_9MapObjectE T b1370 0
__ZNK5Tiled18OrthogonalRenderer12boundingRectERK5QRect T b12c0 0
__ZNK5Tiled18OrthogonalRenderer13drawMapObjectEP8QPainterPKNS_9MapObjectERKNS_15MapObjectColorsE T b2d10 0
__ZNK5Tiled18OrthogonalRenderer13drawTileLayerERKNSt3__18functionIFv6QPointRK7QPointFEEERK6QRectF T b28c0 0
__ZNK5Tiled18OrthogonalRenderer16interactionShapeEPKNS_9MapObjectE T b2130 0
__ZNK5Tiled18OrthogonalRenderer17drawTileSelectionEP8QPainterRK7QRegionRK6QColorRK6QRectF T b2ac0 0
__ZNK5Tiled18OrthogonalRenderer17pixelToTileCoordsEdd T b3d10 0
__ZNK5Tiled18OrthogonalRenderer17tileToPixelCoordsEdd T b3da0 0
__ZNK5Tiled18OrthogonalRenderer18screenToTileCoordsEdd T b3e30 0
__ZNK5Tiled18OrthogonalRenderer18tileToScreenCoordsEdd T b3ec0 0
__ZNK5Tiled18OrthogonalRenderer19pixelToScreenCoordsEdd T b3f90 0
__ZNK5Tiled18OrthogonalRenderer19screenToPixelCoordsEdd T b3f50 0
__ZNK5Tiled18OrthogonalRenderer5shapeEPKNS_9MapObjectE T b1a80 0
__ZNK5Tiled18OrthogonalRenderer8drawGridEP8QPainterRK6QRectF6QColor5QSize T b2400 0
__ZNK5Tiled19TileAnimationDriver10metaObjectEv T e7440 0
__ZNK5Tiled19TileAnimationDriver8durationEv T e7260 0
__ZNK5Tiled20ObjectTemplateFormat10metaObjectEv T a4b10 0
__ZNK5Tiled21MapToVariantConverter13addPropertiesER4QMapI7QString8QVariantERKS4_ T 76010 0
__ZNK5Tiled21MapToVariantConverter16addTileLayerDataER4QMapI7QString8QVariantERKNS_9TileLayerENS_3Map15LayerDataFormatEiRK5QRect T 84970 0
__ZNK5Tiled21MapToVariantConverter18addLayerAttributesER4QMapI7QString8QVariantERKNS_5LayerE T 83690 0
__ZNK5Tiled21MapToVariantConverter22propertyTypesToVariantERK4QMapI7QString8QVariantE T 7ef00 0
__ZNK5Tiled21MapToVariantConverter9toVariantERK4QMapI7QString8QVariantE T 7ec60 0
__ZNK5Tiled21MapToVariantConverter9toVariantERK5QListIPNS_5LayerEENS_3Map15LayerDataFormatEi5QSize T 7c0f0 0
__ZNK5Tiled21MapToVariantConverter9toVariantERKNS_10GroupLayerENS_3Map15LayerDataFormatEi5QSize T 832f0 0
__ZNK5Tiled21MapToVariantConverter9toVariantERKNS_10ImageLayerE T 828b0 0
__ZNK5Tiled21MapToVariantConverter9toVariantERKNS_11ObjectGroupE T 7f250 0
__ZNK5Tiled21MapToVariantConverter9toVariantERKNS_7TilesetEi T 76e60 0
__ZNK5Tiled21MapToVariantConverter9toVariantERKNS_7WangSetE T 7fb20 0
__ZNK5Tiled21MapToVariantConverter9toVariantERKNS_8TextDataE T 84f10 0
__ZNK5Tiled21MapToVariantConverter9toVariantERKNS_9MapObjectE T 7cad0 0
__ZNK5Tiled21MapToVariantConverter9toVariantERKNS_9TileLayerENS_3Map15LayerDataFormatEi5QSize T 81460 0
__ZNK5Tiled21MapToVariantConverter9toVariantERKNS_9WangColorE T 80af0 0
__ZNK5Tiled21VariantToMapConverter10toTextDataERK4QMapI7QString8QVariantE T 125a00 0
__ZNK5Tiled21VariantToMapConverter12toPropertiesERK8QVariantS3_ T 11a810 0
__ZNK5Tiled21VariantToMapConverter17extractPropertiesERK4QMapI7QString8QVariantE T 114580 0
__ZNK5Tiled21VariantToMapConverter9toPolygonERK8QVariant T 1255a0 0
__ZNK5Tiled21WritableTilesetFormat10metaObjectEv T 108f70 0
__ZNK5Tiled23XmlObjectTemplateFormat10metaObjectEv T 110b70 0
__ZNK5Tiled23XmlObjectTemplateFormat12supportsFileERK7QString T 110690 0
__ZNK5Tiled3Map10copyLayersERK5QListIPNS_5LayerEERK7QRegionRS0_ T 3bd70 0
__ZNK5Tiled3Map10layerCountENS_5Layer8TypeFlagE T 3ae00 0
__ZNK5Tiled3Map11drawMarginsEv T 3a1d0 0
__ZNK5Tiled3Map12usedTilesetsEv T 3b790 0
__ZNK5Tiled3Map13findLayerByIdEi T 3cda0 0
__ZNK5Tiled3Map13isTilesetUsedEPKNS_7TilesetE T 3b8c0 0
__ZNK5Tiled3Map14findObjectByIdEi T 3ce60 0
__ZNK5Tiled3Map14indexOfTilesetERK14QSharedPointerINS_7TilesetEE T 3b360 0
__ZNK5Tiled3Map16tileBoundingRectEv T 3cfa0 0
__ZNK5Tiled3Map18modifiedTileRegionEv T 3d1f0 0
__ZNK5Tiled3Map20recomputeDrawMarginsEv T 3a220 0
__ZNK5Tiled3Map42adjustBoundingRectForOffsetsAndImageLayersER5QRect T 3a4a0 0
__ZNK5Tiled3Map5cloneEv T 3b960 0
__ZNK5Tiled3Map9findLayerERK7QStringi T 3af10 0
__ZNK5Tiled4Tile10imageShapeEv T e60f0 0
__ZNK5Tiled4Tile13sharedTilesetEv T e6060 0
__ZNK5Tiled4Tile16currentFrameTileEv T e6650 0
__ZNK5Tiled4Tile5cloneEPNS_7TilesetE T e6b60 0
__ZNK5Tiled4Tile5imageEv T e60a0 0
__ZNK5Tiled4Tile6offsetEv T e6790 0
__ZNK5Tiled5Chunk6regionENSt3__18functionIFbRKNS_4CellEEEE T e9060 0
__ZNK5Tiled5Chunk7hasCellENSt3__18functionIFbRKNS_4CellEEEE T e9380 0
__ZNK5Tiled5Chunk7isEmptyEv T e9300 0
__ZNK5Tiled5Layer10isUnlockedEv T 34f50 0
__ZNK5Tiled5Layer11totalOffsetEv T 35290 0
__ZNK5Tiled5Layer12canMergeDownEv T 35450 0
__ZNK5Tiled5Layer12siblingIndexEv T 35090 0
__ZNK5Tiled5Layer14isParentOrSelfEPKS0_ T 34fd0 0
__ZNK5Tiled5Layer15initializeCloneEPS0_ T 35540 0
__ZNK5Tiled5Layer16effectiveOpacityEv T 34bd0 0
__ZNK5Tiled5Layer18effectiveTintColorEv T 34c70 0
__ZNK5Tiled5Layer23effectiveParallaxFactorEv T 35360 0
__ZNK5Tiled5Layer5depthEv T 35040 0
__ZNK5Tiled5Layer8isHiddenEv T 34ed0 0
__ZNK5Tiled5Layer8siblingsEv T 351c0 0
__ZNK5Tiled5World10mapsInRectERK5QRect T 13c740 0
__ZNK5Tiled5World11containsMapERK7QString T 13b960 0
__ZNK5Tiled5World11contextMapsERK7QString T 13cb70 0
__ZNK5Tiled5World11displayNameEv T 13d410 0
__ZNK5Tiled5World13canBeModifiedEv T 13d3e0 0
__ZNK5Tiled5World22clearErrorsAndWarningsEv T 13d3b0 0
__ZNK5Tiled5World5errorERK7QString T 13d010 0
__ZNK5Tiled5World7allMapsEv T 13c190 0
__ZNK5Tiled5World7mapRectERK7QString T 13be80 0
__ZNK5Tiled5World7warningERK7QString T 13d150 0
__ZNK5Tiled5World8firstMapEv T 13cc00 0
__ZNK5Tiled5World8mapIndexERK7QString T 13b880 0
__ZNK5Tiled6Object16resolvedPropertyERK7QString T a0b10 0
__ZNK5Tiled6Object18resolvedPropertiesEv T a0e50 0
__ZNK5Tiled6Object19inheritedPropertiesEv T a0ee0 0
__ZNK5Tiled6Object9classTypeEv T a09b0 0
__ZNK5Tiled6Plugin10metaObjectEv T b43e0 0
__ZNK5Tiled6WangId10indexColorEi T 127680 0
__ZNK5Tiled6WangId11cornerColorEi T 1276e0 0
__ZNK5Tiled6WangId12hasWildCardsEv T 127a70 0
__ZNK5Tiled6WangId16hasEdgeWildCardsEv T 127b30 0
__ZNK5Tiled6WangId16hasEdgeWithColorEi T 127cf0 0
__ZNK5Tiled6WangId17flippedVerticallyEv T 127f50 0
__ZNK5Tiled6WangId18hasCornerWildCardsEv T 127ad0 0
__ZNK5Tiled6WangId18hasCornerWithColorEi T 127c90 0
__ZNK5Tiled6WangId19flippedHorizontallyEv T 127e70 0
__ZNK5Tiled6WangId4maskEi T 127c10 0
__ZNK5Tiled6WangId4maskEv T 127b90 0
__ZNK5Tiled6WangId6toUintEv T 127ff0 0
__ZNK5Tiled6WangId7rotatedEi T 127d90 0
__ZNK5Tiled6WangId8toStringEv T 1281b0 0
__ZNK5Tiled6WangId9edgeColorEi T 127620 0
__ZNK5Tiled7Tileset16findTileLocationEPNS_4TileE T fa470 0
__ZNK5Tiled7Tileset17anyTileOutOfOrderEv T fcd50 0
__ZNK5Tiled7Tileset17rowCountForHeightEi T fa830 0
__ZNK5Tiled7Tileset18findSimilarTilesetERK5QListI14QSharedPointerIS0_EE T fb8a0 0
__ZNK5Tiled7Tileset19columnCountForWidthEi T faa40 0
__ZNK5Tiled7Tileset5cloneEv T fddb0 0
__ZNK5Tiled7Tileset6formatEv T fa340 0
__ZNK5Tiled7Tileset8rowCountEv T fa7d0 0
__ZNK5Tiled7WangSet10isCompleteEv T 12b9a0 0
__ZNK5Tiled7WangSet12wangIdIsUsedENS_6WangIdES1_ T 12b6c0 0
__ZNK5Tiled7WangSet12wangIdOfCellERKNS_4CellE T 12b4e0 0
__ZNK5Tiled7WangSet12wangIdOfTileEPKNS_4TileE T 12b460 0
__ZNK5Tiled7WangSet13wangIdIsValidENS_6WangIdE T 129690 0
__ZNK5Tiled7WangSet15completeSetSizeEv T 12b9f0 0
__ZNK5Tiled7WangSet15sortedWangTilesEv T 12aef0 0
__ZNK5Tiled7WangSet15wangIdsAndCellsEv T 129820 0
__ZNK5Tiled7WangSet16templateWangIdAtEj T 12bc20 0
__ZNK5Tiled7WangSet17transitionPenaltyEii T 12b8b0 0
__ZNK5Tiled7WangSet17wangIdProbabilityENS_6WangIdE T 12b5e0 0
__ZNK5Tiled7WangSet20maximumColorDistanceEv T 12b960 0
__ZNK5Tiled7WangSet21effectiveTypeForColorEi T 12ba80 0
__ZNK5Tiled7WangSet5cloneEPNS_7TilesetE T 12bde0 0
__ZNK5Tiled8TextData10textOptionEv T 46110 0
__ZNK5Tiled8TextData5flagsEv T 460b0 0
__ZNK5Tiled8TextData8textSizeEv T 461e0 0
__ZNK5Tiled9GidMapper15decodeLayerDataERNS_9TileLayerERK10QByteArrayNS_3Map15LayerDataFormatE5QRect T 13a10 0
__ZNK5Tiled9GidMapper15encodeLayerDataERKNS_9TileLayerENS_3Map15LayerDataFormatE5QRecti T 13330 0
__ZNK5Tiled9GidMapper9cellToGidERKNS_4CellE T 12ff0 0
__ZNK5Tiled9GidMapper9gidToCellEjRb T 12a70 0
__ZNK5Tiled9MapFormat10metaObjectEv T 439a0 0
__ZNK5Tiled9MapObject12screenBoundsERKNS_11MapRendererE T 467b0 0
__ZNK5Tiled9MapObject13boundsUseTileEv T 46620 0
__ZNK5Tiled9MapObject14templateObjectEv T 46540 0
__ZNK5Tiled9MapObject15effectiveColorsEv T 47290 0
__ZNK5Tiled9MapObject15tileObjectShapeEPKNS_3MapE T 46d40 0
__ZNK5Tiled9MapObject17mapObjectPropertyENS0_8PropertyE T 473f0 0
__ZNK5Tiled9MapObject18effectiveClassNameEv T 464b0 0
__ZNK5Tiled9MapObject3mapEv T 47220 0
__ZNK5Tiled9MapObject5cloneEv T 488d0 0
__ZNK5Tiled9MapObject5indexEv T 46400 0
__ZNK5Tiled9MapObject9alignmentEPKNS_3MapE T 466e0 0
__ZNK5Tiled9MapReader11errorStringEv T 5d060 0
__ZNK5Tiled9MapWriter11errorStringEv T 9a480 0
__ZNK5Tiled9MapWriter12isDtdEnabledEv T 9a500 0
__ZNK5Tiled9MapWriter14minimizeOutputEv T 9a560 0
__ZNK5Tiled9TileLayer10mergedWithEPKNS_5LayerE T edde0 0
__ZNK5Tiled9TileLayer11drawMarginsEv T e9a40 0
__ZNK5Tiled9TileLayer12canMergeWithEPKNS_5LayerE T eddb0 0
__ZNK5Tiled9TileLayer12usedTilesetsEv T eca00 0
__ZNK5Tiled9TileLayer15initializeCloneEPS0_ T ef050 0
__ZNK5Tiled9TileLayer17computeDiffRegionERKS0_ T ee120 0
__ZNK5Tiled9TileLayer17referencesTilesetEPKNS_7TilesetE T ecf30 0
__ZNK5Tiled9TileLayer19sortedChunksToWriteE5QSize T ee590 0
__ZNK5Tiled9TileLayer4copyERK7QRegion T ea430 0
__ZNK5Tiled9TileLayer5cloneEv T eefd0 0
__ZNK5Tiled9TileLayer6regionENSt3__18functionIFbRKNS_4CellEEEE T e9cc0 0
__ZNK5Tiled9TileLayer7hasCellENSt3__18functionIFbRKNS_4CellEEEE T ecdb0 0
__ZNK5Tiled9TileLayer7isEmptyEv T ee500 0
__ZNK6QColor3rgbEv U 0 0
__ZNK6QColor4nameENS_10NameFormatE U 0 0
__ZNK6QColor4redFEv U 0 0
__ZNK6QColor4rgbaEv U 0 0
__ZNK6QColor5alphaEv U 0 0
__ZNK6QColor5blueFEv U 0 0
__ZNK6QColor6alphaFEv U 0 0
__ZNK6QColor6greenFEv U 0 0
__ZNK6QColorcv8QVariantEv U 0 0
__ZNK6QColoreqERKS_ U 0 0
__ZNK6QColorneERKS_ U 0 0
__ZNK6QImage5widthEv U 0 0
__ZNK6QImage6heightEv U 0 0
__ZNK6QImage6isNullEv U 0 0
__ZNK6QRectF10intersectsERKS_ U 0 0
__ZNK6QRectF13toAlignedRectEv U 0 0
__ZNK6QRectF8containsERK7QPointF U 0 0
__ZNK6QRectFanERKS_ U 0 0
__ZNK6QRectForERKS_ U 0 0
__ZNK7QBuffer4dataEv U 0 0
__ZNK7QPixmap15hasAlphaChannelEv U 0 0
__ZNK7QPixmap19createMaskFromColorERK6QColorN2Qt8MaskModeE U 0 0
__ZNK7QPixmap4copyERK5QRect U 0 0
__ZNK7QPixmap4maskEv U 0 0
__ZNK7QPixmap4rectEv U 0 0
__ZNK7QPixmap4saveEP9QIODevicePKci U 0 0
__ZNK7QPixmap4sizeEv U 0 0
__ZNK7QPixmap5depthEv U 0 0
__ZNK7QPixmap5widthEv U 0 0
__ZNK7QPixmap6heightEv U 0 0
__ZNK7QPixmap6isNullEv U 0 0
__ZNK7QPixmap7toImageEv U 0 0
__ZNK7QPixmap8cacheKeyEv U 0 0
__ZNK7QRegion10subtractedERKS_ U 0 0
__ZNK7QRegion10translatedEii U 0 0
__ZNK7QRegion11intersectedERK5QRect U 0 0
__ZNK7QRegion12boundingRectEv U 0 0
__ZNK7QRegion3endEv U 0 0
__ZNK7QRegion5beginEv U 0 0
__ZNK7QRegion7isEmptyEv U 0 0
__ZNK7QString10startsWithE13QLatin1StringN2Qt15CaseSensitivityE U 0 0
__ZNK7QString10startsWithE5QCharN2Qt15CaseSensitivityE U 0 0
__ZNK7QString5splitE5QChar6QFlagsIN2Qt18SplitBehaviorFlagsEENS2_15CaseSensitivityE U 0 0
__ZNK7QString7compareE13QLatin1StringN2Qt15CaseSensitivityE U 0 0
__ZNK7QString8arg_implE14QAnyStringViewi5QChar U 0 0
__ZNK7QString8arg_implExii5QChar U 0 0
__ZNK7QString8arg_implEyii5QChar U 0 0
__ZNK7QString8endsWithE13QLatin1StringN2Qt15CaseSensitivityE U 0 0
__ZNK7QString8endsWithE5QCharN2Qt15CaseSensitivityE U 0 0
__ZNK8QPainter11paintEngineEv U 0 0
__ZNK8QPainter6deviceEv U 0 0
__ZNK8QPainter9transformEv U 0 0
__ZNK8QVariant11toByteArrayEv U 0 0
__ZNK8QVariant5toIntEPb U 0 0
__ZNK8QVariant5toMapEv U 0 0
__ZNK8QVariant6equalsERKS_ U 0 0
__ZNK8QVariant6isNullEv U 0 0
__ZNK8QVariant6toBoolEv U 0 0
__ZNK8QVariant6toListEv U 0 0
__ZNK8QVariant6toRealEPb U 0 0
__ZNK8QVariant6toUIntEPb U 0 0
__ZNK8QVariant7toSizeFEv U 0 0
__ZNK8QVariant8toDoubleEPb U 0 0
__ZNK8QVariant8toPointFEv U 0 0
__ZNK8QVariant8toStringEv U 0 0
__ZNK9QDateTime6equalsERKS_ U 0 0
__ZNK9QFileInfo12absolutePathEv U 0 0
__ZNK9QFileInfo16completeBaseNameEv U 0 0
__ZNK9QFileInfo3dirEv U 0 0
__ZNK9QFileInfo4pathEv U 0 0
__ZNK9QFileInfo8fileNameEv U 0 0
__ZNK9QFileInfo8fileTimeEN11QFileDevice8FileTimeE U 0 0
__ZNK9QIODevice11errorStringEv U 0 0
__ZNK9QPolygonF10translatedERK7QPointF U 0 0
__ZNK9QPolygonF12boundingRectEv U 0 0
__ZNKSt9exception4whatEv U 0 0
__ZNO7QString3midExx U 0 0
__ZNSt20bad_array_new_lengthC1Ev U 0 0
__ZNSt20bad_array_new_lengthD1Ev U 0 0
__ZNSt9exceptionD2Ev U 0 0
__ZSt7nothrow U 0 0
__ZSt9terminatev U 0 0
__ZTI18QAbstractAnimation U 0 0
__ZTI7QObject U 0 0
__ZTIN5Tiled10FileFormatE S 1622f8 0
__ZTIN5Tiled10GroupLayerE S 162468 0
__ZTIN5Tiled10ImageLayerE S 162748 0
__ZTIN5Tiled11MapRendererE S 162f20 0
__ZTIN5Tiled11ObjectGroupE S 1630a8 0
__ZTIN5Tiled12PropertyTypeE S 163a90 0
__ZTIN5Tiled12TmxMapFormatE S 1645f0 0
__ZTIN5Tiled13PluginManagerE S 1635a8 0
__ZTIN5Tiled13TilesetFormatE S 164170 0
__ZTIN5Tiled14TilesetManagerE S 164318 0
__ZTIN5Tiled15ObliqueRendererE S 163340 0
__ZTIN5Tiled15TemplateManagerE S 163cd0 0
__ZTIN5Tiled16EnumPropertyTypeE S 163ae8 0
__ZTIN5Tiled16LoggingInterfaceE S 162910 0
__ZTIN5Tiled16TsxTilesetFormatE S 164608 0
__ZTIN5Tiled17ClassPropertyTypeE S 163b48 0
__ZTIN5Tiled17FileSystemWatcherE S 1623f0 0
__ZTIN5Tiled17HexagonalRendererE S 162590 0
__ZTIN5Tiled17IsometricRendererE S 1627f8 0
__ZTIN5Tiled17ReadableMapFormatE S 162d00 0
__ZTIN5Tiled17StaggeredRendererE S 163bf8 0
__ZTIN5Tiled17WritableMapFormatE S 162dc8 0
__ZTIN5Tiled18OrthogonalRendererE S 1633f0 0
__ZTIN5Tiled19TileAnimationDriverE S 163e00 0
__ZTIN5Tiled20ObjectTemplateFormatE S 163290 0
__ZTIN5Tiled21WritableTilesetFormatE S 164230 0
__ZTIN5Tiled23XmlObjectTemplateFormatE S 164620 0
__ZTIN5Tiled3MapE S 162948 0
__ZTIN5Tiled4TileE S 163d08 0
__ZTIN5Tiled5LayerE S 162480 0
__ZTIN5Tiled5WorldE S 164748 0
__ZTIN5Tiled6ObjectE S 163038 0
__ZTIN5Tiled6PluginE S 1634c0 0
__ZTIN5Tiled7TilesetE S 164000 0
__ZTIN5Tiled7WangSetE S 164658 0
__ZTIN5Tiled8OpenFileE S 1626c0 0
__ZTIN5Tiled9MapFormatE S 162c38 0
__ZTIN5Tiled9MapObjectE S 162e00 0
__ZTIN5Tiled9MapReaderE S 162e40 0
__ZTIN5Tiled9TileLayerE S 163fc8 0
__ZTIN5Tiled9WangColorE S 162e70 0
__ZTINSt3__110__function6__baseIFbPKvPvEEE S 163770 0
__ZTINSt3__110__function6__baseIFbPN5Tiled20ObjectTemplateFormatEEEE S 163130 0
__ZTINSt3__110__function6__baseIFbRKN5Tiled4CellEEEE S 1629d0 0
__ZTINSt3__110__function6__baseIFvvEEE S 162658 0
__ZTINSt3__110__function6__funcIN5Tiled8OpenFileEFvvEEE S 162640 0
__ZTINSt3__117bad_function_callE S 1625a8 0
__ZTISt18bad_variant_access U 0 0
__ZTISt20bad_array_new_length U 0 0
__ZTISt9exception U 0 0
__ZTSN5Tiled10FileFormatE S 15a120 0
__ZTSN5Tiled10GroupLayerE S 15a30d 0
__ZTSN5Tiled10ImageLayerE S 15a48b 0
__ZTSN5Tiled11MapRendererE S 15abc8 0
__ZTSN5Tiled11ObjectGroupE S 15ad6c 0
__ZTSN5Tiled12PropertyTypeE S 15b727 0
__ZTSN5Tiled12TmxMapFormatE S 15bf70 0
__ZTSN5Tiled13PluginManagerE S 15b154 0
__ZTSN5Tiled13TilesetFormatE S 15bce0 0
__ZTSN5Tiled14TilesetManagerE S 15bf10 0
__ZTSN5Tiled15ObliqueRendererE S 15af70 0
__ZTSN5Tiled15TemplateManagerE S 15b8c8 0
__ZTSN5Tiled16EnumPropertyTypeE S 15b73e 0
__ZTSN5Tiled16LoggingInterfaceE S 15a720 0
__ZTSN5Tiled16TsxTilesetFormatE S 15bf87 0
__ZTSN5Tiled17ClassPropertyTypeE S 15b759 0
__ZTSN5Tiled17FileSystemWatcherE S 15a2d0 0
__ZTSN5Tiled17HexagonalRendererE S 15a3e0 0
__ZTSN5Tiled17IsometricRendererE S 15a4e0 0
__ZTSN5Tiled17ReadableMapFormatE S 15a893 0
__ZTSN5Tiled17StaggeredRendererE S 15b788 0
__ZTSN5Tiled17WritableMapFormatE S 15a8af 0
__ZTSN5Tiled18OrthogonalRendererE S 15afd8 0
__ZTSN5Tiled19TileAnimationDriverE S 15b9dc 0
__ZTSN5Tiled20ObjectTemplateFormatE S 15aed0 0
__ZTSN5Tiled21WritableTilesetFormatE S 15bcf8 0
__ZTSN5Tiled23XmlObjectTemplateFormatE S 15bfa2 0
__ZTSN5Tiled3MapE S 15a77c 0
__ZTSN5Tiled4TileE S 15b91c 0
__ZTSN5Tiled5LayerE S 15a322 0
__ZTSN5Tiled5WorldE S 15c456 0
__ZTSN5Tiled6ObjectE S 15ad5b 0
__ZTSN5Tiled6PluginE S 15aff8 0
__ZTSN5Tiled7TilesetE S 15bca0 0
__ZTSN5Tiled7WangSetE S 15c164 0
__ZTSN5Tiled8OpenFileE S 15a454 0
__ZTSN5Tiled9MapFormatE S 15a880 0
__ZTSN5Tiled9MapObjectE S 15aa30 0
__ZTSN5Tiled9MapReaderE S 15aaf0 0
__ZTSN5Tiled9TileLayerE S 15bbe8 0
__ZTSN5Tiled9WangColorE S 15ab0b 0
__ZTSNSt3__110__function6__baseIFbPKvPvEEE S 15b458 0
__ZTSNSt3__110__function6__baseIFbPN5Tiled20ObjectTemplateFormatEEEE S 15ae1b 0
__ZTSNSt3__110__function6__baseIFbRKN5Tiled4CellEEEE S 15a78b 0
__ZTSNSt3__110__function6__baseIFvvEEE S 15a432 0
__ZTSNSt3__110__function6__funcIN5Tiled8OpenFileEFvvEEE S 15a3ff 0
__ZTSNSt3__117bad_function_callE S 15a548 0
__ZTV6QImage U 0 0
__ZTV7QPixmap U 0 0
__ZTVN10__cxxabiv117__class_type_infoE U 0 0
__ZTVN10__cxxabiv120__si_class_type_infoE U 0 0
__ZTVN10__cxxabiv121__vmi_class_type_infoE U 0 0
__ZTVN5Tiled10FileFormatE S 162220 0
__ZTVN5Tiled10GroupLayerE S 162408 0
__ZTVN5Tiled10ImageLayerE S 1626e8 0
__ZTVN5Tiled11MapRendererE S 162e88 0
__ZTVN5Tiled11ObjectGroupE S 163048 0
__ZTVN5Tiled12PropertyTypeE S 163a48 0
__ZTVN5Tiled12TmxMapFormatE S 164330 0
__ZTVN5Tiled13PluginManagerE S 1634d8 0
__ZTVN5Tiled13TilesetFormatE S 1640c8 0
__ZTVN5Tiled14TilesetManagerE S 164248 0
__ZTVN5Tiled15ObliqueRendererE S 1632a8 0
__ZTVN5Tiled15TemplateManagerE S 163c10 0
__ZTVN5Tiled16EnumPropertyTypeE S 163aa0 0
__ZTVN5Tiled16LoggingInterfaceE S 162810 0
__ZTVN5Tiled16TsxTilesetFormatE S 1643e0 0
__ZTVN5Tiled17ClassPropertyTypeE S 163b00 0
__ZTVN5Tiled17FileSystemWatcherE S 162310 0
__ZTVN5Tiled17HexagonalRendererE S 1624f8 0
__ZTVN5Tiled17IsometricRendererE S 162760 0
__ZTVN5Tiled17ReadableMapFormatE S 162c50 0
__ZTVN5Tiled17StaggeredRendererE S 163b60 0
__ZTVN5Tiled17WritableMapFormatE S 162d18 0
__ZTVN5Tiled18OrthogonalRendererE S 163358 0
__ZTVN5Tiled19TileAnimationDriverE S 163d20 0
__ZTVN5Tiled20ObjectTemplateFormatE S 1631e8 0
__ZTVN5Tiled21WritableTilesetFormatE S 164188 0
__ZTVN5Tiled23XmlObjectTemplateFormatE S 164488 0
__ZTVN5Tiled3MapE S 162928 0
__ZTVN5Tiled4TileE S 163ce8 0
__ZTVN5Tiled6ObjectE S 163018 0
__ZTVN5Tiled6PluginE S 163408 0
__ZTVN5Tiled7TilesetE S 163fe0 0
__ZTVN5Tiled7WangSetE S 164638 0
__ZTVN5Tiled9MapFormatE S 162b88 0
__ZTVN5Tiled9MapReaderE S 162e18 0
__ZTVN5Tiled9TileLayerE S 163ef0 0
__ZTVSt18bad_variant_access U 0 0
__ZTVSt9exception U 0 0
__ZdaPv U 0 0
__ZdlPv U 0 0
__ZdlPvSt11align_val_t U 0 0
__Zls6QDebugRK5QFont U 0 0
__Zls6QDebugRK6QColor U 0 0
__ZlsR11QDataStreamRK5QFont U 0 0
__ZlsR11QDataStreamRK6QColor U 0 0
__Znam U 0 0
__Znwm U 0 0
__ZnwmRKSt9nothrow_t U 0 0
__ZnwmSt11align_val_t U 0 0
__ZrsR11QDataStreamR5QFont U 0 0
__ZrsR11QDataStreamR6QColor U 0 0
____chkstk_darwin U 0 0
___cxa_allocate_exception U 0 0
___cxa_atexit U 0 0
___cxa_begin_catch U 0 0
___cxa_guard_abort U 0 0
___cxa_guard_acquire U 0 0
___cxa_guard_release U 0 0
___cxa_pure_virtual U 0 0
___cxa_throw U 0 0
___dynamic_cast U 0 0
___gxx_personality_v0 U 0 0
___sincos_stret U 0 0
___stack_chk_fail U 0 0
___stack_chk_guard U 0 0
_deflate U 0 0
_deflateEnd U 0 0
_deflateInit2_ U 0 0
_fmod U 0 0
_free U 0 0
_hypotf U 0 0
_inflate U 0 0
_inflateEnd U 0 0
_inflateInit2_ U 0 0
_malloc U 0 0
_memchr U 0 0
_memcmp U 0 0
_memcpy U 0 0
_memmove U 0 0
_memset U 0 0
_pow U 0 0
_qt_version_tag_6_11 U 0 0
_rand U 0 0
_strcmp U 0 0
_strlen U 0 0
===
__ZN5Tiled10FileFormat11qt_metacallEN11QMetaObject4CallEiPPv T 5e70 0
__ZN5Tiled10FileFormat11qt_metacastEPKc T 5e00 0
__ZN5Tiled10FileFormat13versionStringEv T 5980 0
__ZN5Tiled10FileFormat16staticMetaObjectE S 1622c0 0
__ZN5Tiled10FileFormat20compatibilityVersionEv T 5950 0
__ZN5Tiled10FileFormat21mCompatibilityVersionE D 165010 0
__ZN5Tiled10FileFormat23setCompatibilityVersionENS_20CompatibilityVersionE T 5960 0
__ZN5Tiled10FileFormat26classPropertyNameForObjectEv T 5c40 0
__ZN5Tiled10FileFormatC2EP7QObject T 5800 0
__ZN5Tiled10GroupLayer10adoptLayerERNS_5LayerE T 18a30 0
__ZN5Tiled10GroupLayer11insertLayerEiPNS_5LayerE T 18b00 0
__ZN5Tiled10GroupLayer11takeLayerAtEi T 18bd0 0
__ZN5Tiled10GroupLayer26replaceReferencesToTilesetEPNS_7TilesetES2_ T 18ff0 0
__ZN5Tiled10GroupLayer6setMapEPNS_3MapE T 19230 0
__ZN5Tiled10GroupLayer8addLayerENSt3__110unique_ptrINS_5LayerENS1_14default_deleteIS3_EEEE T 189c0 0
__ZN5Tiled10GroupLayerC1ERK7QStringii T 18840 0
__ZN5Tiled10GroupLayerC2ERK7QStringii T 187c0 0
__ZN5Tiled10GroupLayerD0Ev T 18990 0
__ZN5Tiled10GroupLayerD1Ev T 18970 0
__ZN5Tiled10GroupLayerD2Ev T 18870 0
__ZN5Tiled10ImageCache10loadPixmapERK7QString T 26ca0 0
__ZN5Tiled10ImageCache13sLoadedImagesE S 165fc0 0
__ZN5Tiled10ImageCache14sLoadedPixmapsE S 165fc8 0
__ZN5Tiled10ImageCache6removeERK7QString T 26600 0
__ZN5Tiled10ImageCache9loadImageERK7QString T 26140 0
__ZN5Tiled10ImageCache9renderMapERK7QString T 26640 0
__ZN5Tiled10ImageLayer10resetImageEv T 2df80 0
__ZN5Tiled10ImageLayer13loadFromImageERK4QUrl T 2e200 0
__ZN5Tiled10ImageLayer13loadFromImageERK6QImageRK7QString T 2e100 0
__ZN5Tiled10ImageLayer13loadFromImageERK7QPixmapRK4QUrl T 2dfd0 0
__ZN5Tiled10ImageLayer13loadFromImageERKNS_14ImageReferenceE T 2e2a0 0
__ZN5Tiled10ImageLayerC1ERK7QStringii T 2deb0 0
__ZN5Tiled10ImageLayerC2ERK7QStringii T 2ddb0 0
__ZN5Tiled10ImageLayerD0Ev T 2df50 0
__ZN5Tiled10ImageLayerD1Ev T 2df30 0
__ZN5Tiled10ImageLayerD2Ev T 2dee0 0
__ZN5Tiled10JumpToTileC1EPKNS_3MapE6QPointPKNS_5LayerE T 377f0 0
__ZN5Tiled10JumpToTileC2EPKNS_3MapE6QPointPKNS_5LayerE T 37710 0
__ZN5Tiled10SelectTileC1EPKNS_4TileE T 37f60 0
__ZN5Tiled10SelectTileC2EPKNS_4TileE T 37d90 0
__ZN5Tiled10decompressERK10QByteArrayiNS_17CompressionMethodE T 3f30 0
__ZN5Tiled10typeToNameEi T c1500 0
__ZN5Tiled11MapRenderer13lineToPolygonERK7QPointFS3_ T 6a240 0
__ZN5Tiled11MapRenderer6createEPKNS_3MapE T 6a790 0
__ZN5Tiled11MapRenderer7setFlagENS_10RenderFlagEb T 6a190 0
__ZN5Tiled11MapRendererD0Ev T 68700 0
__ZN5Tiled11MapRendererD1Ev T 686f0 0
__ZN5Tiled11MapRendererD2Ev T 686e0 0
__ZN5Tiled11ObjectGroup11moveObjectsEiii T a1a40 0
__ZN5Tiled11ObjectGroup12insertObjectEiPNS_9MapObjectE T a17f0 0
__ZN5Tiled11ObjectGroup12removeObjectEPNS_9MapObjectE T a1940 0
__ZN5Tiled11ObjectGroup13offsetObjectsERK7QPointFRK6QRectFbbb T a24b0 0
__ZN5Tiled11ObjectGroup14removeObjectAtEi T a19b0 0
__ZN5Tiled11ObjectGroup26replaceReferencesToTilesetEPNS_7TilesetES2_ T a23d0 0
__ZN5Tiled11ObjectGroup9addObjectENSt3__110unique_ptrINS_9MapObjectENS1_14default_deleteIS3_EEEE T a1880 0
__ZN5Tiled11ObjectGroup9addObjectEPNS_9MapObjectE T a17b0 0
__ZN5Tiled11ObjectGroupC1ERK7QString T a1660 0
__ZN5Tiled11ObjectGroupC1ERK7QStringii T a1690 0
__ZN5Tiled11ObjectGroupC2ERK7QString T a15b0 0
__ZN5Tiled11ObjectGroupC2ERK7QStringii T a15e0 0
__ZN5Tiled11ObjectGroupD0Ev T a1780 0
__ZN5Tiled11ObjectGroupD1Ev T a1760 0
__ZN5Tiled11ObjectGroupD2Ev T a16c0 0
__ZN5Tiled11SelectLayerC1EPKNS_5LayerE T 379e0 0
__ZN5Tiled11SelectLayerC2EPKNS_5LayerE T 37930 0
__ZN5Tiled11globalIndexEPKNS_5LayerE T 35f50 0
__ZN5Tiled11readTilesetERK7QStringPS0_ T 1087f0 0
__ZN5Tiled12JumpToObjectC1EPKNS_9MapObjectE T 37900 0
__ZN5Tiled12JumpToObjectC2EPKNS_9MapObjectE T 37830 0
__ZN5Tiled12PropertyType12typeToStringENS0_4TypeE T d15d0 0
__ZN5Tiled12PropertyType14createFromJsonERK11QJsonObject T d1830 0
__ZN5Tiled12PropertyType14typeFromStringERK7QString T d1d60 0
__ZN5Tiled12TmxMapFormat11qt_metacallEN11QMetaObject4CallEiPPv T 1109c0 0
__ZN5Tiled12TmxMapFormat11qt_metacastEPKc T 110930 0
__ZN5Tiled12TmxMapFormat11toByteArrayEPKNS_3MapE T 10fa20 0
__ZN5Tiled12TmxMapFormat13fromByteArrayERK10QByteArray T 10fb80 0
__ZN5Tiled12TmxMapFormat16staticMetaObjectE S 164538 0
__ZN5Tiled12TmxMapFormat4readERK7QString T 10f800 0
__ZN5Tiled12TmxMapFormat5writeEPKNS_3MapERK7QString6QFlagsINS_10FileFormat6OptionEE T 10f8f0 0
__ZN5Tiled12TmxMapFormatC1EP7QObject T 10f7d0 0
__ZN5Tiled12TmxMapFormatC2EP7QObject T 10f740 0
__ZN5Tiled12WorldPattern16staticMetaObjectE S 1646f0 0
__ZN5Tiled12pathToStringERK5QListINSt3__17variantIJ7QStringiEEEE T bdb70 0
__ZN5Tiled12userTypeNameERK8QVariant T c1bd0 0
__ZN5Tiled12valuesToJsonERK5QListI8QVariantERK7QString T c05f0 0
__ZN5Tiled13ExportContextC1ERK7QString T bfc50 0
__ZN5Tiled13ExportContextC2ERK7QString T c1d70 0
__ZN5Tiled13LayerIterator15setCurrentLayerEPNS_5LayerE T 35870 0
__ZN5Tiled13LayerIterator4nextEv T 35900 0
__ZN5Tiled13LayerIterator6toBackEv T 35e90 0
__ZN5Tiled13LayerIterator7toFrontEv T 35e70 0
__ZN5Tiled13LayerIterator8previousEv T 35c80 0
__ZN5Tiled13PluginManager10loadPluginEPNS_10PluginFileE T b6f70 0
__ZN5Tiled13PluginManager11loadPluginsEv T b7440 0
__ZN5Tiled13PluginManager11objectAddedEP7QObject T b73d0 0
__ZN5Tiled13PluginManager11qt_metacallEN11QMetaObject4CallEiPPv T b82a0 0
__ZN5Tiled13PluginManager11qt_metacastEPKc T b8230 0
__ZN5Tiled13PluginManager12removeObjectEP7QObject T b7230 0
__ZN5Tiled13PluginManager12unloadPluginEPNS_10PluginFileE T b70d0 0
__ZN5Tiled13PluginManager13objectRemovedEP7QObject T b7400 0
__ZN5Tiled13PluginManager14deleteInstanceEv T b7340 0
__ZN5Tiled13PluginManager14setPluginStateERK7QStringNS_11PluginStateE T b6b00 0
__ZN5Tiled13PluginManager16pluginByFileNameERK7QString T b6da0 0
__ZN5Tiled13PluginManager16staticMetaObjectE S 163570 0
__ZN5Tiled13PluginManager8instanceEv T b72d0 0
__ZN5Tiled13PluginManager9addObjectEP7QObject T b7160 0
__ZN5Tiled13PluginManager9mInstanceE S 165fe0 0
__ZN5Tiled13PluginManagerC1Ev T b69f0 0
__ZN5Tiled13PluginManagerC2Ev T b6930 0
__ZN5Tiled13PluginManagerD0Ev T b6ad0 0
__ZN5Tiled13PluginManagerD1Ev T b6ab0 0
__ZN5Tiled13PluginManagerD2Ev T b6a10 0
__ZN5Tiled13PropertyTypes12loadFromJsonERK10QJsonArrayRK7QString T d7f20 0
__ZN5Tiled13PropertyTypes12resolveValueEPNS_17ClassPropertyTypeER8QVariantRKNS_13ExportContextE T d8e20 0
__ZN5Tiled13PropertyTypes12resolveValueEPNS_17ClassPropertyTypeERK4QMapI7QString8QVariantERKNS_13ExportContextE T d9230 0
__ZN5Tiled13PropertyTypes16mergeObjectTypesERK5QListINS_10ObjectTypeEE T d7670 0
__ZN5Tiled13PropertyTypes18findTypeByNamePrivERK7QStringi T d7ec0 0
__ZN5Tiled13PropertyTypes19resolveMemberValuesEPNS_17ClassPropertyTypeERKNS_13ExportContextE T d8350 0
__ZN5Tiled13PropertyTypes21ensureMembersResolvedERK4QMapI7QString8QVariantERKNS_13ExportContextE T d8a50 0
__ZN5Tiled13PropertyTypes25findPropertyValueTypePrivERK7QString T d7ef0 0
__ZN5Tiled13PropertyTypes27ensureMembersResolvedHelperERK8QVariantRKNS_13ExportContextE T d8800 0
__ZN5Tiled13PropertyTypes5mergeES0_ T d6a20 0
__ZN5Tiled13PropertyTypesD1Ev T d6970 0
__ZN5Tiled13PropertyTypesD2Ev T d6930 0
__ZN5Tiled13PropertyValue16staticMetaObjectE S 1635e0 0
__ZN5Tiled13TilesetFormat11qt_metacallEN11QMetaObject4CallEiPPv T 108f10 0
__ZN5Tiled13TilesetFormat11qt_metacastEPKc T 108e80 0
__ZN5Tiled13TilesetFormat16staticMetaObjectE S 164050 0
__ZN5Tiled13WorldMapEntry16staticMetaObjectE S 164688 0
__ZN5Tiled13flipAlignmentENS_9AlignmentENS_13FlipDirectionE T e7970 0
__ZN5Tiled13toObjectTypesERKNS_13PropertyTypesE T a9970 0
__ZN5Tiled14ObjectTemplate4saveEv T a3c20 0
__ZN5Tiled14ObjectTemplate9setObjectENSt3__110unique_ptrINS_9MapObjectENS1_14default_deleteIS3_EEEE T a3af0 0
__ZN5Tiled14ObjectTemplate9setObjectEPKNS_9MapObjectE T a39e0 0
__ZN5Tiled14ObjectTemplateC1ERK7QString T a3910 0
__ZN5Tiled14ObjectTemplateC1Ev T a38b0 0
__ZN5Tiled14ObjectTemplateC2ERK7QString T a3850 0
__ZN5Tiled14ObjectTemplateC2Ev T a37f0 0
__ZN5Tiled14ObjectTemplateD1Ev T a39c0 0
__ZN5Tiled14ObjectTemplateD2Ev T a3960 0
__ZN5Tiled14TilesetManager10addTilesetEPNS_7TilesetE T 10b7e0 0
__ZN5Tiled14TilesetManager11loadTilesetERK7QStringPS1_ T 10b590 0
__ZN5Tiled14TilesetManager11qt_metacallEN11QMetaObject4CallEiPPv T 10c270 0
__ZN5Tiled14TilesetManager11qt_metacastEPKc T 10c200 0
__ZN5Tiled14TilesetManager12filesChangedERK5QListI7QStringE T 10af80 0
__ZN5Tiled14TilesetManager12reloadImagesEPNS_7TilesetE T 10ba40 0
__ZN5Tiled14TilesetManager13removeTilesetEPNS_7TilesetE T 10b8c0 0
__ZN5Tiled14TilesetManager14deleteInstanceEv T 10b550 0
__ZN5Tiled14TilesetManager14repaintTilesetEPNS_7TilesetE T 10bff0 0
__ZN5Tiled14TilesetManager15setAnimateTilesEb T 10bd10 0
__ZN5Tiled14TilesetManager16staticMetaObjectE S 1642e0 0
__ZN5Tiled14TilesetManager19resetTileAnimationsEv T 10bd60 0
__ZN5Tiled14TilesetManager20tilesetImagesChangedEPNS_7TilesetE T 10bc60 0
__ZN5Tiled14TilesetManager21advanceTileAnimationsEi T 10b1e0 0
__ZN5Tiled14TilesetManager25setReloadTilesetsOnChangeEb T 10bc90 0
__ZN5Tiled14TilesetManager25tilesetImageSourceChangedERKNS_7TilesetERK4QUrl T 10beb0 0
__ZN5Tiled14TilesetManager8instanceEv T 10b4e0 0
__ZN5Tiled14TilesetManager9mInstanceE S 165ff0 0
__ZN5Tiled14TilesetManagerC1Ev T 10b320 0
__ZN5Tiled14TilesetManagerC2Ev T 10aca0 0
__ZN5Tiled14TilesetManagerD0Ev T 10b4b0 0
__ZN5Tiled14TilesetManagerD1Ev T 10b490 0
__ZN5Tiled14TilesetManagerD2Ev T 10b340 0
__ZN5Tiled14toPropertyPathERK5QListI7QStringE T bd780 0
__ZN5Tiled14valuesFromJsonERK10QJsonArrayRK7QString T c0ab0 0
__ZN5Tiled15MiniMapRendererC1EPKNS_3MapE T 9ab30 0
__ZN5Tiled15MiniMapRendererC2EPKNS_3MapE T 9aa50 0
__ZN5Tiled15MiniMapRendererD1Ev T 9ab90 0
__ZN5Tiled15MiniMapRendererD2Ev T 9ab60 0
__ZN5Tiled15TemplateManager11qt_metacallEN11QMetaObject4CallEiPPv T e35e0 0
__ZN5Tiled15TemplateManager11qt_metacastEPKc T e3570 0
__ZN5Tiled15TemplateManager12pathsChangedERK5QListI7QStringE T e2b10 0
__ZN5Tiled15TemplateManager14deleteInstanceEv T e28c0 0
__ZN5Tiled15TemplateManager16staticMetaObjectE S 163c98 0
__ZN5Tiled15TemplateManager18loadObjectTemplateERK7QStringPS1_ T e3050 0
__ZN5Tiled15TemplateManager21objectTemplateChangedEPNS_14ObjectTemplateE T e3380 0
__ZN5Tiled15TemplateManager8instanceEv T e2820 0
__ZN5Tiled15TemplateManager9mInstanceE S 165fe8 0
__ZN5Tiled15TemplateManagerC1EP7QObject T e2890 0
__ZN5Tiled15TemplateManagerC2EP7QObject T e2900 0
__ZN5Tiled15TemplateManagerD0Ev T e3020 0
__ZN5Tiled15TemplateManagerD1Ev T e3000 0
__ZN5Tiled15TemplateManagerD2Ev T e2f60 0
__ZN5Tiled15alignmentOffsetERK6QSizeFNS_9AlignmentE T e7790 0
__ZN5Tiled15mergePropertiesER4QMapI7QString8QVariantERKS3_ T be970 0
__ZN5Tiled15toFileReferenceERK4QUrlRK7QString T e7b40 0
__ZN5Tiled16EnumPropertyType18initializeFromJsonERK11QJsonObject T d3060 0
__ZN5Tiled16EnumPropertyType19storageTypeToStringENS0_11StorageTypeE T d2f20 0
__ZN5Tiled16EnumPropertyType21storageTypeFromStringERK7QString T d35f0 0
__ZN5Tiled16LoggingInterface11qt_metacallEN11QMetaObject4CallEiPPv T 384f0 0
__ZN5Tiled16LoggingInterface11qt_metacastEPKc T 38480 0
__ZN5Tiled16LoggingInterface16staticMetaObjectE S 1628d8 0
__ZN5Tiled16LoggingInterface23removeIssuesWithContextEPKv T 38200 0
__ZN5Tiled16LoggingInterface3logENS0_10OutputTypeERK7QString T 373a0 0
__ZN5Tiled16LoggingInterface4infoERK7QString T 375f0 0
__ZN5Tiled16LoggingInterface5errorERK7QString T 37330 0
__ZN5Tiled16LoggingInterface5issueERKNS_5IssueE T 37370 0
__ZN5Tiled16LoggingInterface6reportERKNS_5IssueE T 371d0 0
__ZN5Tiled16LoggingInterface7warningERK7QString T 372c0 0
__ZN5Tiled16LoggingInterface8instanceEv T 37120 0
__ZN5Tiled16LoggingInterfaceC1EP7QObject T 370f0 0
__ZN5Tiled16LoggingInterfaceC2EP7QObject T 370b0 0
__ZN5Tiled16TsxTilesetFormat11qt_metacallEN11QMetaObject4CallEiPPv T 110b10 0
__ZN5Tiled16TsxTilesetFormat11qt_metacastEPKc T 110a80 0
__ZN5Tiled16TsxTilesetFormat16staticMetaObjectE S 164578 0
__ZN5Tiled16TsxTilesetFormat4readERK7QString T 110000 0
__ZN5Tiled16TsxTilesetFormat5writeERKNS_7TilesetERK7QString6QFlagsINS_10FileFormat6OptionEE T 110100 0
__ZN5Tiled16TsxTilesetFormatC1EP7QObject T 10ffd0 0
__ZN5Tiled16TsxTilesetFormatC2EP7QObject T 10ff40 0
__ZN5Tiled16propertiesToJsonERK4QMapI7QString8QVariantERKNS_13ExportContextE T beb80 0
__ZN5Tiled16propertiesToJsonERK4QMapI7QString8QVariantERKS1_ T bfbc0 0
__ZN5Tiled17ClassPropertyType13setUsageFlagsEib T d68e0 0
__ZN5Tiled17ClassPropertyType18initializeFromJsonERK11QJsonObject T d5b80 0
__ZN5Tiled17FileSystemWatcher10setEnabledEb T 6970 0
__ZN5Tiled17FileSystemWatcher11fileChangedERK7QString T 7860 0
__ZN5Tiled17FileSystemWatcher11qt_metacallEN11QMetaObject4CallEiPPv T 7e30 0
__ZN5Tiled17FileSystemWatcher11qt_metacastEPKc T 7dc0 0
__ZN5Tiled17FileSystemWatcher11removePathsERK5QListI7QStringE T 7390 0
__ZN5Tiled17FileSystemWatcher12pathsChangedERK5QListI7QStringE T 7ab0 0
__ZN5Tiled17FileSystemWatcher13clearInternalEv T 6b00 0
__ZN5Tiled17FileSystemWatcher13onFileChangedERK7QString T 65c0 0
__ZN5Tiled17FileSystemWatcher16directoryChangedERK7QString T 7890 0
__ZN5Tiled17FileSystemWatcher16staticMetaObjectE S 1623b8 0
__ZN5Tiled17FileSystemWatcher18onDirectoryChangedERK7QString T 6610 0
__ZN5Tiled17FileSystemWatcher19pathsChangedTimeoutEv T 6740 0
__ZN5Tiled17FileSystemWatcher5clearEv T 7770 0
__ZN5Tiled17FileSystemWatcher8addPathsERK5QListI7QStringE T 6bf0 0
__ZN5Tiled17FileSystemWatcherC1EP7QObject T 6940 0
__ZN5Tiled17FileSystemWatcherC2EP7QObject T 6200 0
__ZN5Tiled17HexagonalRenderer12RenderParamsC1EPKNS_3MapE T 1edb0 0
__ZN5Tiled17HexagonalRenderer12RenderParamsC2EPKNS_3MapE T 1ebe0 0
__ZN5Tiled17ReadableMapFormat11qt_metacallEN11QMetaObject4CallEiPPv T 43be0 0
__ZN5Tiled17ReadableMapFormat11qt_metacastEPKc T 43b50 0
__ZN5Tiled17ReadableMapFormat16staticMetaObjectE S 162b10 0
__ZN5Tiled17WritableMapFormat11qt_metacallEN11QMetaObject4CallEiPPv T 43d30 0
__ZN5Tiled17WritableMapFormat11qt_metacastEPKc T 43ca0 0
__ZN5Tiled17WritableMapFormat16staticMetaObjectE S 162b50 0
__ZN5Tiled17alignmentToStringENS_9AlignmentE T e8320 0
__ZN5Tiled17blendModeToStringENS_9BlendModeE T e8cf0 0
__ZN5Tiled17drawOrderToStringENS_11ObjectGroup9DrawOrderE T a2bd0 0
__ZN5Tiled17versionFromStringERK7QString T e8bc0 0
__ZN5Tiled18filePathRelativeToERK4QDirRK7QString T e8270 0
__ZN5Tiled18layerAtGlobalIndexEPKNS_3MapEi T 36030 0
__ZN5Tiled18propertiesFromJsonERK10QJsonArrayRK7QString T c0560 0
__ZN5Tiled18propertiesFromJsonERK10QJsonArrayRKNS_13ExportContextE T bfc90 0
__ZN5Tiled18readObjectTemplateERK7QStringPS0_ T a4610 0
__ZN5Tiled19TileAnimationDriver11qt_metacallEN11QMetaObject4CallEiPPv T e7510 0
__ZN5Tiled19TileAnimationDriver11qt_metacastEPKc T e74a0 0
__ZN5Tiled19TileAnimationDriver11updateStateEN18QAbstractAnimation5StateES2_ T e72f0 0
__ZN5Tiled19TileAnimationDriver16staticMetaObjectE S 163dc8 0
__ZN5Tiled19TileAnimationDriver17updateCurrentTimeEi T e7270 0
__ZN5Tiled19TileAnimationDriver6updateEi T e72c0 0
__ZN5Tiled19TileAnimationDriverC1EP7QObject T e7230 0
__ZN5Tiled19TileAnimationDriverC2EP7QObject T e71c0 0
__ZN5Tiled19aggregatePropertiesER4QMapI7QStringNS_22AggregatedPropertyDataEERKS0_IS1_8QVariantE T c0fd0 0
__ZN5Tiled19alignmentFromStringERK7QString T e8910 0
__ZN5Tiled19blendModeFromStringERK7QString T e8da0 0
__ZN5Tiled19compressionToStringENS_3Map15LayerDataFormatE T 3dc50 0
__ZN5Tiled19drawOrderFromStringERK7QString T a2da0 0
__ZN5Tiled19initializeMetatypesEv T c2d40 0
__ZN5Tiled19orientationToStringENS_3Map11OrientationE T 3d770 0
__ZN5Tiled19renderOrderToStringENS_3Map11RenderOrderE T 3de50 0
__ZN5Tiled19staggerAxisToStringENS_3Map11StaggerAxisE T 3d3b0 0
__ZN5Tiled19urlToLocalFileOrQrcERK4QUrl T e7f90 0
__ZN5Tiled19wangSetTypeToStringENS_7WangSet4TypeE T 12c5c0 0
__ZN5Tiled20ObjectTemplateFormat11qt_metacallEN11QMetaObject4CallEiPPv T a4c00 0
__ZN5Tiled20ObjectTemplateFormat11qt_metacastEPKc T a4b70 0
__ZN5Tiled20ObjectTemplateFormat16staticMetaObjectE S 1631b0 0
__ZN5Tiled20SelectCustomPropertyC1E7QStringS1_PKNS_6ObjectE T 37d60 0
__ZN5Tiled20SelectCustomPropertyC2E7QStringS1_PKNS_6ObjectE T 37a10 0
__ZN5Tiled20compressionSupportedENS_17CompressionMethodE T 3f00 0
__ZN5Tiled20staggerIndexToStringENS_3Map12StaggerIndexE T 3d5d0 0
__ZN5Tiled21MapToVariantConverter9toVariantERKNS_14ObjectTemplateERK4QDir T 7c530 0
__ZN5Tiled21MapToVariantConverter9toVariantERKNS_3MapERK4QDir T 72f80 0
__ZN5Tiled21MapToVariantConverter9toVariantERKNS_7TilesetERK4QDir T 7c4d0 0
__ZN5Tiled21ObjectTypesSerializer15readObjectTypesERK7QStringR5QListINS_10ObjectTypeEERKNS_13ExportContextE T a8ff0 0
__ZN5Tiled21ObjectTypesSerializer16writeObjectTypesERK7QStringRK5QListINS_10ObjectTypeEE T a7fa0 0
__ZN5Tiled21ObjectTypesSerializerC1ENS0_6FormatE T a7f70 0
__ZN5Tiled21ObjectTypesSerializerC2ENS0_6FormatE T a7f40 0
__ZN5Tiled21VariantToMapConverter11toMapObjectERK4QMapI7QString8QVariantE T 11f2e0 0
__ZN5Tiled21VariantToMapConverter11toTileLayerERK4QMapI7QString8QVariantE T 1213e0 0
__ZN5Tiled21VariantToMapConverter11toWangColorERK4QMapI7QString8QVariantE T 11eaa0 0
__ZN5Tiled21VariantToMapConverter12toGroupLayerERK4QMapI7QString8QVariantE T 124500 0
__ZN5Tiled21VariantToMapConverter12toImageLayerERK4QMapI7QString8QVariantE T 123950 0
__ZN5Tiled21VariantToMapConverter13toObjectGroupERK4QMapI7QString8QVariantE T 122db0 0
__ZN5Tiled21VariantToMapConverter16toObjectTemplateERK8QVariant T 11a3d0 0
__ZN5Tiled21VariantToMapConverter16toObjectTemplateERK8QVariantRK4QDir T 11a370 0
__ZN5Tiled21VariantToMapConverter17readTileLayerDataERNS_9TileLayerERK8QVariantNS_3Map15LayerDataFormatE5QRect T 124d50 0
__ZN5Tiled21VariantToMapConverter21readMapEditorSettingsERNS_3MapERK4QMapI7QString8QVariantE T 113c10 0
__ZN5Tiled21VariantToMapConverter25readTilesetEditorSettingsERNS_7TilesetERK4QMapI7QString8QVariantE T 11b3e0 0
__ZN5Tiled21VariantToMapConverter5toMapERK8QVariantRK4QDir T 111850 0
__ZN5Tiled21VariantToMapConverter7toLayerERK8QVariant T 118b60 0
__ZN5Tiled21VariantToMapConverter9toTilesetERK8QVariant T 114810 0
__ZN5Tiled21VariantToMapConverter9toTilesetERK8QVariantRK4QDir T 11a2b0 0
__ZN5Tiled21VariantToMapConverter9toWangSetERK4QMapI7QString8QVariantEPNS_7TilesetE T 11d190 0
__ZN5Tiled21WritableTilesetFormat11qt_metacallEN11QMetaObject4CallEiPPv T 109060 0
__ZN5Tiled21WritableTilesetFormat11qt_metacastEPKc T 108fd0 0
__ZN5Tiled21WritableTilesetFormat16staticMetaObjectE S 164090 0
__ZN5Tiled21orientationFromStringERK7QString T 3db10 0
__ZN5Tiled21renderOrderFromStringERK7QString T 3e0d0 0
__ZN5Tiled21staggerAxisFromStringERK7QString T 3d500 0
__ZN5Tiled21wangSetTypeFromStringERK7QString T 12c7a0 0
__ZN5Tiled22possiblePropertyValuesEPKNS_17ClassPropertyTypeE T c3240 0
__ZN5Tiled22setNestedPropertyValueER8QVariantiRK5QListINSt3__17variantIJ7QStringiEEEERKS0_b T bdd70 0
__ZN5Tiled22setPropertyMemberValueER4QMapI7QString8QVariantERK5QListINSt3__17variantIJS1_iEEEERKS2_ T be630 0
__ZN5Tiled22staggerIndexFromStringERK7QString T 3d720 0
__ZN5Tiled23XmlObjectTemplateFormat11qt_metacallEN11QMetaObject4CallEiPPv T 110c60 0
__ZN5Tiled23XmlObjectTemplateFormat11qt_metacastEPKc T 110bd0 0
__ZN5Tiled23XmlObjectTemplateFormat16staticMetaObjectE S 1645b8 0
__ZN5Tiled23XmlObjectTemplateFormat4readERK7QString T 1104d0 0
__ZN5Tiled23XmlObjectTemplateFormat5writeEPKNS_14ObjectTemplateERK7QString T 1105c0 0
__ZN5Tiled23XmlObjectTemplateFormatC1EP7QObject T 1104a0 0
__ZN5Tiled23XmlObjectTemplateFormatC2EP7QObject T 110410 0
__ZN5Tiled23findSupportingMapFormatERK7QString T 43630 0
__ZN5Tiled27findSupportingTilesetFormatERK7QString T 108ae0 0
__ZN5Tiled28findSupportingTemplateFormatERK7QString T a47a0 0
__ZN5Tiled28increaseImageAllocationLimitEi T e8cc0 0
__ZN5Tiled3Map10addTilesetERK14QSharedPointerINS_7TilesetEE T 3b120 0
__ZN5Tiled3Map10adoptLayerERNS_5LayerE T 3ae90 0
__ZN5Tiled3Map11addTilesetsERK4QSetI14QSharedPointerINS_7TilesetEEE T 3b220 0
__ZN5Tiled3Map11insertLayerEiPNS_5LayerE T 3afa0 0
__ZN5Tiled3Map11takeLayerAtEi T 3b0e0 0
__ZN5Tiled3Map13insertTilesetEiRK14QSharedPointerINS_7TilesetEE T 3b2a0 0
__ZN5Tiled3Map14replaceTilesetERK14QSharedPointerINS_7TilesetEES5_ T 3b4f0 0
__ZN5Tiled3Map15removeTilesetAtEi T 3b3d0 0
__ZN5Tiled3Map19initializeObjectIdsERNS_11ObjectGroupE T 3b030 0
__ZN5Tiled3Map21replaceObjectTemplateEPKNS_14ObjectTemplateES3_ T 3c820 0
__ZN5Tiled3Map37normalizeTileLayerPositionsAndMapSizeEv T 3c3e0 0
__ZN5Tiled3Map8addLayerEPNS_5LayerE T 3ae50 0
__ZN5Tiled3MapC1ENS0_11OrientationEiiii T 3a060 0
__ZN5Tiled3MapC1ERKNS0_10ParametersE T 39f60 0
__ZN5Tiled3MapC1Ev T 39f20 0
__ZN5Tiled3MapC2ENS0_11OrientationEiiii T 39ff0 0
__ZN5Tiled3MapC2ERKNS0_10ParametersE T 39e00 0
__ZN5Tiled3MapC2Ev T 39da0 0
__ZN5Tiled3MapD0Ev T 3a1a0 0
__ZN5Tiled3MapD1Ev T 3a180 0
__ZN5Tiled3MapD2Ev T 3a0d0 0
__ZN5Tiled4Cell16staticMetaObjectE S 163f90 0
__ZN5Tiled4Cell5emptyE D 165b30 0
__ZN5Tiled4Cell6rotateENS_15RotateDirectionE T e8f80 0
__ZN5Tiled4Tile12setImageRectERK5QRect T e6730 0
__ZN5Tiled4Tile14resetAnimationEv T e6980 0
__ZN5Tiled4Tile14setObjectGroupENSt3__110unique_ptrINS_11ObjectGroupENS1_14default_deleteIS3_EEEE T e67c0 0
__ZN5Tiled4Tile15swapObjectGroupERNSt3__110unique_ptrINS_11ObjectGroupENS1_14default_deleteIS3_EEEE T e68e0 0
__ZN5Tiled4Tile16advanceAnimationEi T e6a50 0
__ZN5Tiled4Tile8setImageERK7QPixmap T e6530 0
__ZN5Tiled4Tile9setFramesERK5QListINS_5FrameEE T e6940 0
__ZN5Tiled4TileC1ERK7QPixmapiPNS_7TilesetE T e5f50 0
__ZN5Tiled4TileC1EiPNS_7TilesetE T e5d80 0
__ZN5Tiled4TileC2ERK7QPixmapiPNS_7TilesetE T e5db0 0
__ZN5Tiled4TileC2EiPNS_7TilesetE T e5bd0 0
__ZN5Tiled4TileD0Ev T e6030 0
__ZN5Tiled4TileD1Ev T e6010 0
__ZN5Tiled4TileD2Ev T e5f90 0
__ZN5Tiled5Chunk25removeReferencesToTilesetEPNS_7TilesetE T e9500 0
__ZN5Tiled5Chunk26replaceReferencesToTilesetEPNS_7TilesetES2_ T e96b0 0
__ZN5Tiled5Chunk7setCellEiiRKNS_4CellE T e9230 0
__ZN5Tiled5Issue11setCallbackENSt3__18functionIFvvEEE T 36f40 0
__ZN5Tiled5Issue12mNextIssueIdE D 1651a8 0
__ZN5Tiled5Issue13addOccurrenceERKS0_ T 36fb0 0
__ZN5Tiled5IssueC1ENS0_8SeverityERK7QStringNSt3__18functionIFvvEEEPKv T 36f00 0
__ZN5Tiled5IssueC1Ev T 36e20 0
__ZN5Tiled5IssueC2ENS0_8SeverityERK7QStringNSt3__18functionIFvvEEEPKv T 36da0 0
__ZN5Tiled5IssueC2Ev T 36cc0 0
__ZN5Tiled5Layer11asTileLayerEv T 356f0 0
__ZN5Tiled5Layer12asGroupLayerEv T 35810 0
__ZN5Tiled5Layer12asImageLayerEv T 357b0 0
__ZN5Tiled5Layer13asObjectGroupEv T 35750 0
__ZN5Tiled5LayerC2ENS0_8TypeFlagERK7QStringii T 34a50 0
__ZN5Tiled5World10setMapRectEiRK5QRect T 13b640 0
__ZN5Tiled5World11displayNameERK7QString T 13d440 0
__ZN5Tiled5World11setGridSizeE5QSize T 13b700 0
__ZN5Tiled5World4loadERK7QStringPS1_ T 13d4b0 0
__ZN5Tiled5World4saveERS0_P7QString T 13f740 0
__ZN5Tiled5World6addMapERK7QStringRK5QRect T 13b780 0
__ZN5Tiled5World9removeMapEi T 13b720 0
__ZN5Tiled5toUrlERK7QStringS2_ T e7ca0 0
__ZN5Tiled6Object11setPropertyERK5QListINSt3__17variantIJ7QStringiEEEERK8QVariant T a1050 0
__ZN5Tiled6Object13propertyTypesEv T a0a80 0
__ZN5Tiled6Object14mPropertyTypesE S 165fd0 0
__ZN5Tiled6Object16setPropertyTypesERK14QSharedPointerINS_13PropertyTypesEE T a1090 0
__ZN5Tiled6ObjectD0Ev T a0980 0
__ZN5Tiled6ObjectD1Ev T a0960 0
__ZN5Tiled6ObjectD2Ev T a08b0 0
__ZN5Tiled6Plugin11qt_metacallEN11QMetaObject4CallEiPPv T b44b0 0
__ZN5Tiled6Plugin11qt_metacastEPKc T b4440 0
__ZN5Tiled6Plugin12removeObjectEP7QObject T b4350 0
__ZN5Tiled6Plugin16staticMetaObjectE S 163488 0
__ZN5Tiled6Plugin9addObjectEP7QObject T b42e0 0
__ZN5Tiled6PluginD0Ev T b42d0 0
__ZN5Tiled6PluginD1Ev T b42c0 0
__ZN5Tiled6PluginD2Ev T b41e0 0
__ZN5Tiled6WangId10fromStringE11QStringViewPb T 128050 0
__ZN5Tiled6WangId11indexByGridEii T 1278e0 0
__ZN5Tiled6WangId12setEdgeColorEij T 127740 0
__ZN5Tiled6WangId12setGridColorEiij T 127890 0
__ZN5Tiled6WangId13setIndexColorEij T 1277a0 0
__ZN5Tiled6WangId14flipVerticallyEv T 127f20 0
__ZN5Tiled6WangId14setCornerColorEij T 127830 0
__ZN5Tiled6WangId16flipHorizontallyEv T 127e30 0
__ZN5Tiled6WangId16updateToAdjacentES0_i T 127960 0
__ZN5Tiled6WangId6rotateEi T 127d50 0
__ZN5Tiled6WangId8fromUintEj T 127f80 0
__ZN5Tiled6toJsonERK5QListINS_10ObjectTypeEERKNS_13ExportContextE T a66a0 0
__ZN5Tiled7Tileset10addWangSetENSt3__110unique_ptrINS_7WangSetENS1_14default_deleteIS3_EEEE T fbda0 0
__ZN5Tiled7Tileset10deleteTileEi T fc6d0 0
__ZN5Tiled7Tileset11removeTilesERK5QListIPNS_4TileEE T fc4c0 0
__ZN5Tiled7Tileset11setTileSizeE5QSize T fa380 0
__ZN5Tiled7Tileset12setTileImageEPNS_4TileERK7QPixmapRK4QUrl T fd070 0
__ZN5Tiled7Tileset13insertWangSetEiNSt3__110unique_ptrINS_7WangSetENS1_14default_deleteIS3_EEEE T fbe50 0
__ZN5Tiled7Tileset13loadFromImageERK6QImageRK4QUrl T faac0 0
__ZN5Tiled7Tileset13loadFromImageERK6QImageRK7QString T fb3c0 0
__ZN5Tiled7Tileset13loadFromImageERK7QString T fb480 0
__ZN5Tiled7Tileset13relocateTilesERK5QListIPNS_4TileEEi T fcaa0 0
__ZN5Tiled7Tileset13takeWangSetAtEi T fbf30 0
__ZN5Tiled7Tileset14resetTileOrderEv T fcdf0 0
__ZN5Tiled7Tileset14setImageSourceERK4QUrl T fbc50 0
__ZN5Tiled7Tileset14setImageSourceERK7QString T fbd00 0
__ZN5Tiled7Tileset14setTileSpacingEi T fa3d0 0
__ZN5Tiled7Tileset14updateTileSizeEv T fc3c0 0
__ZN5Tiled7Tileset15originalTilesetEv T fd330 0
__ZN5Tiled7Tileset16fillModeToStringENS0_8FillModeE T fe8d0 0
__ZN5Tiled7Tileset16findOrCreateTileEi T fa4f0 0
__ZN5Tiled7Tileset16setTileImageRectEPNS_4TileERK5QRect T fd240 0
__ZN5Tiled7Tileset17setImageReferenceERKNS_14ImageReferenceE T fa8c0 0
__ZN5Tiled7Tileset18fillModeFromStringERK7QString T fea20 0
__ZN5Tiled7Tileset18setOriginalTilesetERK14QSharedPointerIS0_E T fd300 0
__ZN5Tiled7Tileset19maybeUpdateTileSizeE5QSizeS1_ T fd160 0
__ZN5Tiled7Tileset19orientationToStringENS0_11OrientationE T fe590 0
__ZN5Tiled7Tileset19setTransparentColorERK6QColor T fa880 0
__ZN5Tiled7Tileset21orientationFromStringERK7QString T fe6e0 0
__ZN5Tiled7Tileset22initializeTilesetTilesEv T fac20 0
__ZN5Tiled7Tileset22tileRenderSizeToStringENS0_14TileRenderSizeE T fe730 0
__ZN5Tiled7Tileset24tileRenderSizeFromStringERK7QString T fe880 0
__ZN5Tiled7Tileset4swapERS0_ T fd3e0 0
__ZN5Tiled7Tileset7addTileERK7QPixmapRK4QUrlRK5QRect T fbfd0 0
__ZN5Tiled7Tileset8addTilesERK5QListIPNS_4TileEE T fc220 0
__ZN5Tiled7Tileset9loadImageEv T fb560 0
__ZN5Tiled7Tileset9setFormatERK7QString T fa310 0
__ZN5Tiled7Tileset9setMarginEi T fa420 0
__ZN5Tiled7TilesetC1E7QStringiiii T fa0d0 0
__ZN5Tiled7TilesetC2E7QStringiiii T f9c40 0
__ZN5Tiled7TilesetD0Ev T fa2e0 0
__ZN5Tiled7TilesetD1Ev T fa2c0 0
__ZN5Tiled7TilesetD2Ev T fa110 0
__ZN5Tiled7WangSet12addWangColorERK14QSharedPointerINS_9WangColorEE T 129360 0
__ZN5Tiled7WangSet12removeTileIdEi T 129750 0
__ZN5Tiled7WangSet13setColorCountEi T 128d80 0
__ZN5Tiled7WangSet13wangIdIsValidENS_6WangIdEi T 12b670 0
__ZN5Tiled7WangSet15insertWangColorERK14QSharedPointerINS_9WangColorEE T 1291f0 0
__ZN5Tiled7WangSet15takeWangColorAtEi T 1293c0 0
__ZN5Tiled7WangSet16recalculateCellsEv T 1298c0 0
__ZN5Tiled7WangSet25recalculateColorDistancesEv T 12a700 0
__ZN5Tiled7WangSet7setTypeENS0_4TypeE T 1289f0 0
__ZN5Tiled7WangSet9setWangIdEiNS_6WangIdE T 1295a0 0
__ZN5Tiled7WangSetC1EPNS_7TilesetERK7QStringNS0_4TypeEi T 128b10 0
__ZN5Tiled7WangSetC2EPNS_7TilesetERK7QStringNS0_4TypeEi T 128810 0
__ZN5Tiled7WangSetD0Ev T 128d50 0
__ZN5Tiled7WangSetD1Ev T 128d30 0
__ZN5Tiled7WangSetD2Ev T 128b50 0
__ZN5Tiled7readMapERK7QStringPS0_ T 433a0 0
__ZN5Tiled8FilePath10fromStringERK7QString T bd700 0
__ZN5Tiled8FilePath16staticMetaObjectE S 163630 0
__ZN5Tiled8FilePath8toStringERKS0_ T bd680 0
__ZN5Tiled8OpenFileC1ERK7QString T 376e0 0
__ZN5Tiled8OpenFileC2ERK7QString T 37690 0
__ZN5Tiled8SaveFile17safeSavingEnabledEv T e1ec0 0
__ZN5Tiled8SaveFile18mSafeSavingEnabledE D 1659d8 0
__ZN5Tiled8SaveFile20setSafeSavingEnabledEb T e1ed0 0
__ZN5Tiled8SaveFile6commitEv T e1e30 0
__ZN5Tiled8SaveFileC1ERK7QString T e1e00 0
__ZN5Tiled8SaveFileC2ERK7QString T e1b70 0
__ZN5Tiled8TextDataC1Ev T 46090 0
__ZN5Tiled8TextDataC2Ev T 45f20 0
__ZN5Tiled8compressERK10QByteArrayNS_17CompressionMethodEi T 4840 0
__ZN5Tiled8fromJsonERK10QJsonArrayR5QListINS_10ObjectTypeEERKNS_13ExportContextE T a7410 0
__ZN5Tiled8typeNameERK8QVariant T c1a50 0
__ZN5Tiled9GidMapperC1ERK5QListI14QSharedPointerINS_7TilesetEEE T 12960 0
__ZN5Tiled9GidMapperC1Ev T 126e0 0
__ZN5Tiled9GidMapperC2ERK5QListI14QSharedPointerINS_7TilesetEEE T 12700 0
__ZN5Tiled9GidMapperC2Ev T 12690 0
__ZN5Tiled9MapFormat11qt_metacallEN11QMetaObject4CallEiPPv T 43a90 0
__ZN5Tiled9MapFormat11qt_metacastEPKc T 43a00 0
__ZN5Tiled9MapFormat16staticMetaObjectE S 162ad0 0
__ZN5Tiled9MapObject11setTextDataERKNS_8TextDataE T 46590 0
__ZN5Tiled9MapObject16syncWithTemplateEv T 48c90 0
__ZN5Tiled9MapObject18copyPropertiesFromEPKS0_ T 48ad0 0
__ZN5Tiled9MapObject18detachFromTemplateEv T 48e40 0
__ZN5Tiled9MapObject20setMapObjectPropertyENS0_8PropertyERK8QVariant T 47760 0
__ZN5Tiled9MapObject22flipInPixelCoordinatesENS_13FlipDirectionERK7QPointF T 48510 0
__ZN5Tiled9MapObject23flipInScreenCoordinatesENS_13FlipDirectionERK7QPointF T 47e70 0
__ZN5Tiled9MapObject4flipENS_13FlipDirectionERK7QPointF T 47d60 0
__ZN5Tiled9MapObjectC1ERK7QStringS3_RK7QPointFRK6QSizeF T 463c0 0
__ZN5Tiled9MapObjectC2ERK7QStringS3_RK7QPointFRK6QSizeF T 46270 0
__ZN5Tiled9MapReader11readTilesetEP9QIODeviceRK7QString T 5cc30 0
__ZN5Tiled9MapReader11readTilesetERK7QString T 5ccd0 0
__ZN5Tiled9MapReader16resolveReferenceERK7QStringRK4QDir T 53d50 0
__ZN5Tiled9MapReader18readObjectTemplateEP9QIODeviceRK7QString T 5ce00 0
__ZN5Tiled9MapReader18readObjectTemplateERK7QString T 5ce40 0
__ZN5Tiled9MapReader19readExternalTilesetERK7QStringPS1_ T 5d090 0
__ZN5Tiled9MapReader7readMapEP9QIODeviceRK7QString T 5cac0 0
__ZN5Tiled9MapReader7readMapERK7QString T 5cb00 0
__ZN5Tiled9MapReaderC1Ev T 5c9e0 0
__ZN5Tiled9MapReaderC2Ev T 5c930 0
__ZN5Tiled9MapReaderD0Ev T 5ca90 0
__ZN5Tiled9MapReaderD1Ev T 5ca70 0
__ZN5Tiled9MapReaderD2Ev T 5ca00 0
__ZN5Tiled9MapWriter12writeTilesetERKNS_7TilesetEP9QIODeviceRK7QString T 99fc0 0
__ZN5Tiled9MapWriter12writeTilesetERKNS_7TilesetERK7QString T 9a000 0
__ZN5Tiled9MapWriter13setDtdEnabledEb T 9a4c0 0
__ZN5Tiled9MapWriter17setMinimizeOutputEb T 9a520 0
__ZN5Tiled9MapWriter19writeObjectTemplateEPKNS_14ObjectTemplateEP9QIODeviceRK7QString T 9a220 0
__ZN5Tiled9MapWriter19writeObjectTemplateEPKNS_14ObjectTemplateERK7QString T 9a260 0
__ZN5Tiled9MapWriter8writeMapEPKNS_3MapEP9QIODeviceRK7QString T 99c90 0
__ZN5Tiled9MapWriter8writeMapEPKNS_3MapERK7QString T 99cf0 0
__ZN5Tiled9MapWriterC1Ev T 99c10 0
__ZN5Tiled9MapWriterC2Ev T 99b60 0
__ZN5Tiled9MapWriterD1Ev T 99c70 0
__ZN5Tiled9MapWriterD2Ev T 99c30 0
__ZN5Tiled9ObjectRef16staticMetaObjectE S 163678 0
__ZN5Tiled9TileLayer11offsetTilesE6QPoint T ed9c0 0
__ZN5Tiled9TileLayer11offsetTilesE6QPoint5QRectbb T ed600 0
__ZN5Tiled9TileLayer13flipHexagonalENS_13FlipDirectionE T eb3d0 0
__ZN5Tiled9TileLayer15rotateHexagonalENS_15RotateDirectionEPNS_3MapE T ebdb0 0
__ZN5Tiled9TileLayer25removeReferencesToTilesetEPNS_7TilesetE T ed010 0
__ZN5Tiled9TileLayer26replaceReferencesToTilesetEPNS_7TilesetES2_ T ed270 0
__ZN5Tiled9TileLayer4flipENS_13FlipDirectionE T eaeb0 0
__ZN5Tiled9TileLayer5clearEv T eadd0 0
__ZN5Tiled9TileLayer5eraseERK7QRegion T eaca0 0
__ZN5Tiled9TileLayer5mergeE6QPointPKS0_ T ea7c0 0
__ZN5Tiled9TileLayer6resizeE5QSize6QPoint T ec670 0
__ZN5Tiled9TileLayer6rotateENS_15RotateDirectionE T eb8b0 0
__ZN5Tiled9TileLayer7setCellEiiRKNS_4CellE T ea170 0
__ZN5Tiled9TileLayer8setCellsEiiPKS0_RK7QRegion T ea930 0
__ZN5Tiled9TileLayer8setTilesERK7QRegionPNS_4TileE T eaa40 0
__ZN5Tiled9TileLayerC1ERK7QString6QPoint5QSize T e99c0 0
__ZN5Tiled9TileLayerC1ERK7QStringiiii T e9900 0
__ZN5Tiled9TileLayerC2ERK7QString6QPoint5QSize T e9940 0
__ZN5Tiled9TileLayerC2ERK7QStringiiii T e9840 0
__ZN5Tiled9WangColorC1EiRK7QStringRK6QColorid T 1287c0 0
__ZN5Tiled9WangColorC1Ev T 128730 0
__ZN5Tiled9WangColorC2EiRK7QStringRK6QColorid T 128650 0
__ZN5Tiled9WangColorC2Ev T 1285c0 0
__ZN5TiledlsE6QDebugNS_6WangIdE T 1282f0 0
__ZN5TiledlsE6QDebugRKNS_8WangTileE T 128460 0
__ZNK5Tiled10FileFormat10metaObjectEv T 5d80 0
__ZNK5Tiled10FileFormat12capabilitiesEv T 5840 0
__ZNK5Tiled10FileFormat15hasCapabilitiesE6QFlagsINS0_10CapabilityEE T 58a0 0
__ZNK5Tiled10GroupLayer10mergedWithEPKNS_5LayerE T 190b0 0
__ZNK5Tiled10GroupLayer12canMergeWithEPKNS_5LayerE T 19090 0
__ZNK5Tiled10GroupLayer12usedTilesetsEv T 18cd0 0
__ZNK5Tiled10GroupLayer15initializeCloneEPS0_ T 19140 0
__ZNK5Tiled10GroupLayer17referencesTilesetEPKNS_7TilesetE T 18f50 0
__ZNK5Tiled10GroupLayer5cloneEv T 190c0 0
__ZNK5Tiled10GroupLayer7isEmptyEv T 18c70 0
__ZNK5Tiled10ImageLayer15initializeCloneEPS0_ T 2e410 0
__ZNK5Tiled10ImageLayer5cloneEv T 2e390 0
__ZNK5Tiled10ImageLayer7isEmptyEv T 2e360 0
__ZNK5Tiled10PluginFile11errorStringEv T b68e0 0
__ZNK5Tiled10PluginFile8fileNameEv T b67c0 0
__ZNK5Tiled10PluginFile8hasErrorEv T b6880 0
__ZNK5Tiled11MapRenderer10pointShapeERK7QPointF T 68920 0
__ZNK5Tiled11MapRenderer10snapToGridERK7QPointFi T 69a40 0
__ZNK5Tiled11MapRenderer12boundingRectEPKNS_10ImageLayerE T 68760 0
__ZNK5Tiled11MapRenderer13drawTileLayerEP8QPainterPKNS_9TileLayerERK6QRectF T 69c50 0
__ZNK5Tiled11MapRenderer13setupGridPensEPK12QPaintDevice6QColorR4QPenS6_i5QSize T 6acc0 0
__ZNK5Tiled11MapRenderer14drawImageLayerEP8QPainterPKNS_10ImageLayerERK6QRectF T 68cf0 0
__ZNK5Tiled11MapRenderer15drawPointObjectEP8QPainterRK6QColor T 693a0 0
__ZNK5Tiled11MapRenderer15mapBoundingRectEv T 68710 0
__ZNK5Tiled11MapRenderer21pointInteractionShapeEPKNS_9MapObjectE T 698b0 0
__ZNK5Tiled11ObjectGroup10mergedWithEPKNS_5LayerE T a2900 0
__ZNK5Tiled11ObjectGroup12canMergeWithEPKNS_5LayerE T a28d0 0
__ZNK5Tiled11ObjectGroup12usedTilesetsEv T a2140 0
__ZNK5Tiled11ObjectGroup15highestObjectIdEv T a2b30 0
__ZNK5Tiled11ObjectGroup15initializeCloneEPS0_ T a2a60 0
__ZNK5Tiled11ObjectGroup17referencesTilesetEPKNS_7TilesetE T a2330 0
__ZNK5Tiled11ObjectGroup19objectsBoundingRectEv T a2000 0
__ZNK5Tiled11ObjectGroup5cloneEv T a29e0 0
__ZNK5Tiled11ObjectGroup7isEmptyEv T a2110 0
__ZNK5Tiled12PropertyType13toExportValueERK8QVariantRKNS_13ExportContextE T d1020 0
__ZNK5Tiled12PropertyType15toPropertyValueERK8QVariantRKNS_13ExportContextE T d1090 0
__ZNK5Tiled12PropertyType4wrapERK8QVariant T d0ee0 0
__ZNK5Tiled12PropertyType6toJsonERKNS_13ExportContextE T d10d0 0
__ZNK5Tiled12TmxMapFormat10metaObjectEv T 1108d0 0
__ZNK5Tiled12TmxMapFormat12supportsFileERK7QString T 10fd20 0
__ZNK5Tiled13ExportContext13toExportValueERK8QVariant T bf0e0 0
__ZNK5Tiled13ExportContext15toPropertyValueERK8QVarianti T c2370 0
__ZNK5Tiled13ExportContext15toPropertyValueERKNS_11ExportValueE T c0230 0
__ZNK5Tiled13LayerIteratoreqERKS0_ T 35ee0 0
__ZNK5Tiled13PluginManager10metaObjectEv T b81d0 0
__ZNK5Tiled13PropertyTypes12findClassForERK7QStringRKNS_6ObjectE T d7d80 0
__ZNK5Tiled13PropertyTypes12findTypeByIdEi T d40c0 0
__ZNK5Tiled13PropertyTypes14findTypeByNameERK7QStringi T d7c40 0
__ZNK5Tiled13PropertyTypes15findIndexByNameERK7QString T d7a90 0
__ZNK5Tiled13PropertyTypes21findPropertyValueTypeERK7QString T d75e0 0
__ZNK5Tiled13PropertyTypes5countENS_12PropertyType4TypeE T d6990 0
__ZNK5Tiled13PropertyTypes6toJsonERK7QString T d9bc0 0
__ZNK5Tiled13PropertyValue4typeEv T c1d40 0
__ZNK5Tiled13PropertyValue8typeNameEv T c1ce0 0
__ZNK5Tiled13TilesetFormat10metaObjectEv T 108e20 0
__ZNK5Tiled14TilesetManager10metaObjectEv T 10c1a0 0
__ZNK5Tiled14TilesetManager11findTilesetERK7QString T 10b640 0
__ZNK5Tiled14TilesetManager12animateTilesEv T 10be80 0
__ZNK5Tiled14TilesetManager22reloadTilesetsOnChangeEv T 10bcc0 0
__ZNK5Tiled15MiniMapRenderer13renderToImageER6QImage6QFlagsINS0_10RenderFlagEE T 9acb0 0
__ZNK5Tiled15MiniMapRenderer6renderE5QSize6QFlagsINS0_10RenderFlagEE T 9ac10 0
__ZNK5Tiled15MiniMapRenderer7mapSizeEv T 9abb0 0
__ZNK5Tiled15ObliqueRenderer12boundingRectEPKNS_9MapObjectE T adb90 0
__ZNK5Tiled15ObliqueRenderer12boundingRectERK5QRect T ad850 0
__ZNK5Tiled15ObliqueRenderer13drawMapObjectEP8QPainterPKNS_9MapObjectERKNS_15MapObjectColorsE T afb20 0
__ZNK5Tiled15ObliqueRenderer13drawTileLayerERKNSt3__18functionIFv6QPointRK7QPointFEEERK6QRectF T af5b0 0
__ZNK5Tiled15ObliqueRenderer16interactionShapeEPKNS_9MapObjectE T aea30 0
__ZNK5Tiled15ObliqueRenderer17drawTileSelectionEP8QPainterRK7QRegionRK6QColorRK6QRectF T af8e0 0
__ZNK5Tiled15ObliqueRenderer17screenToPixelRectERK6QRectF T af290 0
__ZNK5Tiled15ObliqueRenderer18screenToTileCoordsEdd T b0f30 0
__ZNK5Tiled15ObliqueRenderer18tileToScreenCoordsEdd T af550 0
__ZNK5Tiled15ObliqueRenderer19pixelToScreenCoordsEdd T b1030 0
__ZNK5Tiled15ObliqueRenderer19screenToPixelCoordsEdd T b0f90 0
__ZNK5Tiled15ObliqueRenderer23tileRectToScreenPolygonERK5QRect T ad8d0 0
__ZNK5Tiled15ObliqueRenderer5shapeEPKNS_9MapObjectE T ae1f0 0
__ZNK5Tiled15ObliqueRenderer8drawGridEP8QPainterRK6QRectF6QColor5QSize T aed30 0
__ZNK5Tiled15ObliqueRenderer9transformEv T ae860 0
__ZNK5Tiled15TemplateManager10metaObjectEv T e3510 0
__ZNK5Tiled16EnumPropertyType12defaultValueEv T d2a70 0
__ZNK5Tiled16EnumPropertyType13toExportValueERK8QVariantRKNS_13ExportContextE T d2020 0
__ZNK5Tiled16EnumPropertyType15toPropertyValueERK8QVariantRKNS_13ExportContextE T d2460 0
__ZNK5Tiled16EnumPropertyType6toJsonERKNS_13ExportContextE T d2aa0 0
__ZNK5Tiled16LoggingInterface10metaObjectEv T 38420 0
__ZNK5Tiled16TsxTilesetFormat10metaObjectEv T 110a20 0
__ZNK5Tiled16TsxTilesetFormat12supportsFileERK7QString T 1101f0 0
__ZNK5Tiled17ClassPropertyType10isClassForERKNS_6ObjectE T d68a0 0
__ZNK5Tiled17ClassPropertyType12canAddMemberERK8QVariantRKNS_13PropertyTypesE T d65b0 0
__ZNK5Tiled17ClassPropertyType12defaultValueEv T d41d0 0
__ZNK5Tiled17ClassPropertyType13toExportValueERK8QVariantRKNS_13ExportContextE T d3690 0
__ZNK5Tiled17ClassPropertyType15toPropertyValueERK8QVariantRKNS_13ExportContextE T d3a40 0
__ZNK5Tiled17ClassPropertyType18canAddMemberOfTypeEPKNS_12PropertyTypeE T d64a0 0
__ZNK5Tiled17ClassPropertyType18canAddMemberOfTypeEPKNS_12PropertyTypeERKNS_13PropertyTypesE T d64e0 0
__ZNK5Tiled17ClassPropertyType6toJsonERKNS_13ExportContextE T d4c80 0
__ZNK5Tiled17FileSystemWatcher10metaObjectEv T 7d60 0
__ZNK5Tiled17HexagonalRenderer10bottomLeftEii T 23020 0
__ZNK5Tiled17HexagonalRenderer10snapToGridERK7QPointFi T 20f50 0
__ZNK5Tiled17HexagonalRenderer11bottomRightEii T 23100 0
__ZNK5Tiled17HexagonalRenderer12boundingRectERK5QRect T 1ede0 0
__ZNK5Tiled17HexagonalRenderer13drawTileLayerERKNSt3__18functionIFv6QPointRK7QPointFEEERK6QRectF T 21660 0
__ZNK5Tiled17HexagonalRenderer17drawTileSelectionEP8QPainterRK7QRegionRK6QColorRK6QRectF T 21d10 0
__ZNK5Tiled17HexagonalRenderer17pixelToTileCoordsEdd T 226d0 0
__ZNK5Tiled17HexagonalRenderer17tileToPixelCoordsEdd T 225a0 0
__ZNK5Tiled17HexagonalRenderer18screenToTileCoordsEdd T 22720 0
__ZNK5Tiled17HexagonalRenderer18tileToScreenCoordsEdd T 225f0 0
__ZNK5Tiled17HexagonalRenderer19tileToScreenPolygonEii T 21fd0 0
__ZNK5Tiled17HexagonalRenderer7topLeftEii T 22e60 0
__ZNK5Tiled17HexagonalRenderer8drawGridEP8QPainterRK6QRectF6QColor5QSize T 1f200 0
__ZNK5Tiled17HexagonalRenderer8topRightEii T 22f40 0
__ZNK5Tiled17IsometricRenderer12boundingRectEPKNS_9MapObjectE T 2ebd0 0
__ZNK5Tiled17IsometricRenderer12boundingRectERK5QRect T 2ea20 0
__ZNK5Tiled17IsometricRenderer13drawMapObjectEP8QPainterPKNS_9MapObjectERKNS_15MapObjectColorsE T 31e00 0
__ZNK5Tiled17IsometricRenderer13drawTileLayerERKNSt3__18functionIFv6QPointRK7QPointFEEERK6QRectF T 31300 0
__ZNK5Tiled17IsometricRenderer16interactionShapeEPKNS_9MapObjectE T 30500 0
__ZNK5Tiled17IsometricRenderer17drawTileSelectionEP8QPainterRK7QRegionRK6QColorRK6QRectF T 31850 0
__ZNK5Tiled17IsometricRenderer17pixelToTileCoordsEdd T 332a0 0
__ZNK5Tiled17IsometricRenderer17tileToPixelCoordsEdd T 33300 0
__ZNK5Tiled17IsometricRenderer18screenToTileCoordsEdd T 31780 0
__ZNK5Tiled17IsometricRenderer18tileToScreenCoordsEdd T 31200 0
__ZNK5Tiled17IsometricRenderer19pixelToScreenCoordsEdd T 33440 0
__ZNK5Tiled17IsometricRenderer19screenToPixelCoordsEdd T 33360 0
__ZNK5Tiled17IsometricRenderer23tileRectToScreenPolygonERK5QRect T 31a90 0
__ZNK5Tiled17IsometricRenderer24pixelRectToScreenPolygonERK6QRectF T 300a0 0
__ZNK5Tiled17IsometricRenderer5shapeEPKNS_9MapObjectE T 2f5b0 0
__ZNK5Tiled17IsometricRenderer8drawGridEP8QPainterRK6QRectF6QColor5QSize T 30a40 0
__ZNK5Tiled17IsometricRenderer9transformEv T 30320 0
__ZNK5Tiled17ReadableMapFormat10metaObjectEv T 43af0 0
__ZNK5Tiled17StaggeredRenderer18screenToTileCoordsEdd T e2210 0
__ZNK5Tiled17WritableMapFormat10metaObjectEv T 43c40 0
__ZNK5Tiled18OrthogonalRenderer12boundingRectEPKNS_9MapObjectE T b1370 0
__ZNK5Tiled18OrthogonalRenderer12boundingRectERK5QRect T b12c0 0
__ZNK5Tiled18OrthogonalRenderer13drawMapObjectEP8QPainterPKNS_9MapObjectERKNS_15MapObjectColorsE T b2d10 0
__ZNK5Tiled18OrthogonalRenderer13drawTileLayerERKNSt3__18functionIFv6QPointRK7QPointFEEERK6QRectF T b28c0 0
__ZNK5Tiled18OrthogonalRenderer16interactionShapeEPKNS_9MapObjectE T b2130 0
__ZNK5Tiled18OrthogonalRenderer17drawTileSelectionEP8QPainterRK7QRegionRK6QColorRK6QRectF T b2ac0 0
__ZNK5Tiled18OrthogonalRenderer17pixelToTileCoordsEdd T b3d10 0
__ZNK5Tiled18OrthogonalRenderer17tileToPixelCoordsEdd T b3da0 0
__ZNK5Tiled18OrthogonalRenderer18screenToTileCoordsEdd T b3e30 0
__ZNK5Tiled18OrthogonalRenderer18tileToScreenCoordsEdd T b3ec0 0
__ZNK5Tiled18OrthogonalRenderer19pixelToScreenCoordsEdd T b3f90 0
__ZNK5Tiled18OrthogonalRenderer19screenToPixelCoordsEdd T b3f50 0
__ZNK5Tiled18OrthogonalRenderer5shapeEPKNS_9MapObjectE T b1a80 0
__ZNK5Tiled18OrthogonalRenderer8drawGridEP8QPainterRK6QRectF6QColor5QSize T b2400 0
__ZNK5Tiled19TileAnimationDriver10metaObjectEv T e7440 0
__ZNK5Tiled19TileAnimationDriver8durationEv T e7260 0
__ZNK5Tiled20ObjectTemplateFormat10metaObjectEv T a4b10 0
__ZNK5Tiled21MapToVariantConverter13addPropertiesER4QMapI7QString8QVariantERKS4_ T 76010 0
__ZNK5Tiled21MapToVariantConverter16addTileLayerDataER4QMapI7QString8QVariantERKNS_9TileLayerENS_3Map15LayerDataFormatEiRK5QRect T 84970 0
__ZNK5Tiled21MapToVariantConverter18addLayerAttributesER4QMapI7QString8QVariantERKNS_5LayerE T 83690 0
__ZNK5Tiled21MapToVariantConverter22propertyTypesToVariantERK4QMapI7QString8QVariantE T 7ef00 0
__ZNK5Tiled21MapToVariantConverter9toVariantERK4QMapI7QString8QVariantE T 7ec60 0
__ZNK5Tiled21MapToVariantConverter9toVariantERK5QListIPNS_5LayerEENS_3Map15LayerDataFormatEi5QSize T 7c0f0 0
__ZNK5Tiled21MapToVariantConverter9toVariantERKNS_10GroupLayerENS_3Map15LayerDataFormatEi5QSize T 832f0 0
__ZNK5Tiled21MapToVariantConverter9toVariantERKNS_10ImageLayerE T 828b0 0
__ZNK5Tiled21MapToVariantConverter9toVariantERKNS_11ObjectGroupE T 7f250 0
__ZNK5Tiled21MapToVariantConverter9toVariantERKNS_7TilesetEi T 76e60 0
__ZNK5Tiled21MapToVariantConverter9toVariantERKNS_7WangSetE T 7fb20 0
__ZNK5Tiled21MapToVariantConverter9toVariantERKNS_8TextDataE T 84f10 0
__ZNK5Tiled21MapToVariantConverter9toVariantERKNS_9MapObjectE T 7cad0 0
__ZNK5Tiled21MapToVariantConverter9toVariantERKNS_9TileLayerENS_3Map15LayerDataFormatEi5QSize T 81460 0
__ZNK5Tiled21MapToVariantConverter9toVariantERKNS_9WangColorE T 80af0 0
__ZNK5Tiled21VariantToMapConverter10toTextDataERK4QMapI7QString8QVariantE T 125a00 0
__ZNK5Tiled21VariantToMapConverter12toPropertiesERK8QVariantS3_ T 11a810 0
__ZNK5Tiled21VariantToMapConverter17extractPropertiesERK4QMapI7QString8QVariantE T 114580 0
__ZNK5Tiled21VariantToMapConverter9toPolygonERK8QVariant T 1255a0 0
__ZNK5Tiled21WritableTilesetFormat10metaObjectEv T 108f70 0
__ZNK5Tiled23XmlObjectTemplateFormat10metaObjectEv T 110b70 0
__ZNK5Tiled23XmlObjectTemplateFormat12supportsFileERK7QString T 110690 0
__ZNK5Tiled3Map10copyLayersERK5QListIPNS_5LayerEERK7QRegionRS0_ T 3bd70 0
__ZNK5Tiled3Map10layerCountENS_5Layer8TypeFlagE T 3ae00 0
__ZNK5Tiled3Map11drawMarginsEv T 3a1d0 0
__ZNK5Tiled3Map12usedTilesetsEv T 3b790 0
__ZNK5Tiled3Map13findLayerByIdEi T 3cda0 0
__ZNK5Tiled3Map13isTilesetUsedEPKNS_7TilesetE T 3b8c0 0
__ZNK5Tiled3Map14findObjectByIdEi T 3ce60 0
__ZNK5Tiled3Map14indexOfTilesetERK14QSharedPointerINS_7TilesetEE T 3b360 0
__ZNK5Tiled3Map16tileBoundingRectEv T 3cfa0 0
__ZNK5Tiled3Map18modifiedTileRegionEv T 3d1f0 0
__ZNK5Tiled3Map20recomputeDrawMarginsEv T 3a220 0
__ZNK5Tiled3Map42adjustBoundingRectForOffsetsAndImageLayersER5QRect T 3a4a0 0
__ZNK5Tiled3Map5cloneEv T 3b960 0
__ZNK5Tiled3Map9findLayerERK7QStringi T 3af10 0
__ZNK5Tiled4Tile10imageShapeEv T e60f0 0
__ZNK5Tiled4Tile13sharedTilesetEv T e6060 0
__ZNK5Tiled4Tile16currentFrameTileEv T e6650 0
__ZNK5Tiled4Tile5cloneEPNS_7TilesetE T e6b60 0
__ZNK5Tiled4Tile5imageEv T e60a0 0
__ZNK5Tiled4Tile6offsetEv T e6790 0
__ZNK5Tiled5Chunk6regionENSt3__18functionIFbRKNS_4CellEEEE T e9060 0
__ZNK5Tiled5Chunk7hasCellENSt3__18functionIFbRKNS_4CellEEEE T e9380 0
__ZNK5Tiled5Chunk7isEmptyEv T e9300 0
__ZNK5Tiled5Layer10isUnlockedEv T 34f50 0
__ZNK5Tiled5Layer11totalOffsetEv T 35290 0
__ZNK5Tiled5Layer12canMergeDownEv T 35450 0
__ZNK5Tiled5Layer12siblingIndexEv T 35090 0
__ZNK5Tiled5Layer14isParentOrSelfEPKS0_ T 34fd0 0
__ZNK5Tiled5Layer15initializeCloneEPS0_ T 35540 0
__ZNK5Tiled5Layer16effectiveOpacityEv T 34bd0 0
__ZNK5Tiled5Layer18effectiveTintColorEv T 34c70 0
__ZNK5Tiled5Layer23effectiveParallaxFactorEv T 35360 0
__ZNK5Tiled5Layer5depthEv T 35040 0
__ZNK5Tiled5Layer8isHiddenEv T 34ed0 0
__ZNK5Tiled5Layer8siblingsEv T 351c0 0
__ZNK5Tiled5World10mapsInRectERK5QRect T 13c740 0
__ZNK5Tiled5World11containsMapERK7QString T 13b960 0
__ZNK5Tiled5World11contextMapsERK7QString T 13cb70 0
__ZNK5Tiled5World11displayNameEv T 13d410 0
__ZNK5Tiled5World13canBeModifiedEv T 13d3e0 0
__ZNK5Tiled5World22clearErrorsAndWarningsEv T 13d3b0 0
__ZNK5Tiled5World5errorERK7QString T 13d010 0
__ZNK5Tiled5World7allMapsEv T 13c190 0
__ZNK5Tiled5World7mapRectERK7QString T 13be80 0
__ZNK5Tiled5World7warningERK7QString T 13d150 0
__ZNK5Tiled5World8firstMapEv T 13cc00 0
__ZNK5Tiled5World8mapIndexERK7QString T 13b880 0
__ZNK5Tiled6Object16resolvedPropertyERK7QString T a0b10 0
__ZNK5Tiled6Object18resolvedPropertiesEv T a0e50 0
__ZNK5Tiled6Object19inheritedPropertiesEv T a0ee0 0
__ZNK5Tiled6Object9classTypeEv T a09b0 0
__ZNK5Tiled6Plugin10metaObjectEv T b43e0 0
__ZNK5Tiled6WangId10indexColorEi T 127680 0
__ZNK5Tiled6WangId11cornerColorEi T 1276e0 0
__ZNK5Tiled6WangId12hasWildCardsEv T 127a70 0
__ZNK5Tiled6WangId16hasEdgeWildCardsEv T 127b30 0
__ZNK5Tiled6WangId16hasEdgeWithColorEi T 127cf0 0
__ZNK5Tiled6WangId17flippedVerticallyEv T 127f50 0
__ZNK5Tiled6WangId18hasCornerWildCardsEv T 127ad0 0
__ZNK5Tiled6WangId18hasCornerWithColorEi T 127c90 0
__ZNK5Tiled6WangId19flippedHorizontallyEv T 127e70 0
__ZNK5Tiled6WangId4maskEi T 127c10 0
__ZNK5Tiled6WangId4maskEv T 127b90 0
__ZNK5Tiled6WangId6toUintEv T 127ff0 0
__ZNK5Tiled6WangId7rotatedEi T 127d90 0
__ZNK5Tiled6WangId8toStringEv T 1281b0 0
__ZNK5Tiled6WangId9edgeColorEi T 127620 0
__ZNK5Tiled7Tileset16findTileLocationEPNS_4TileE T fa470 0
__ZNK5Tiled7Tileset17anyTileOutOfOrderEv T fcd50 0
__ZNK5Tiled7Tileset17rowCountForHeightEi T fa830 0
__ZNK5Tiled7Tileset18findSimilarTilesetERK5QListI14QSharedPointerIS0_EE T fb8a0 0
__ZNK5Tiled7Tileset19columnCountForWidthEi T faa40 0
__ZNK5Tiled7Tileset5cloneEv T fddb0 0
__ZNK5Tiled7Tileset6formatEv T fa340 0
__ZNK5Tiled7Tileset8rowCountEv T fa7d0 0
__ZNK5Tiled7WangSet10isCompleteEv T 12b9a0 0
__ZNK5Tiled7WangSet12wangIdIsUsedENS_6WangIdES1_ T 12b6c0 0
__ZNK5Tiled7WangSet12wangIdOfCellERKNS_4CellE T 12b4e0 0
__ZNK5Tiled7WangSet12wangIdOfTileEPKNS_4TileE T 12b460 0
__ZNK5Tiled7WangSet13wangIdIsValidENS_6WangIdE T 129690 0
__ZNK5Tiled7WangSet15completeSetSizeEv T 12b9f0 0
__ZNK5Tiled7WangSet15sortedWangTilesEv T 12aef0 0
__ZNK5Tiled7WangSet15wangIdsAndCellsEv T 129820 0
__ZNK5Tiled7WangSet16templateWangIdAtEj T 12bc20 0
__ZNK5Tiled7WangSet17transitionPenaltyEii T 12b8b0 0
__ZNK5Tiled7WangSet17wangIdProbabilityENS_6WangIdE T 12b5e0 0
__ZNK5Tiled7WangSet20maximumColorDistanceEv T 12b960 0
__ZNK5Tiled7WangSet21effectiveTypeForColorEi T 12ba80 0
__ZNK5Tiled7WangSet5cloneEPNS_7TilesetE T 12bde0 0
__ZNK5Tiled8TextData10textOptionEv T 46110 0
__ZNK5Tiled8TextData5flagsEv T 460b0 0
__ZNK5Tiled8TextData8textSizeEv T 461e0 0
__ZNK5Tiled9GidMapper15decodeLayerDataERNS_9TileLayerERK10QByteArrayNS_3Map15LayerDataFormatE5QRect T 13a10 0
__ZNK5Tiled9GidMapper15encodeLayerDataERKNS_9TileLayerENS_3Map15LayerDataFormatE5QRecti T 13330 0
__ZNK5Tiled9GidMapper9cellToGidERKNS_4CellE T 12ff0 0
__ZNK5Tiled9GidMapper9gidToCellEjRb T 12a70 0
__ZNK5Tiled9MapFormat10metaObjectEv T 439a0 0
__ZNK5Tiled9MapObject12screenBoundsERKNS_11MapRendererE T 467b0 0
__ZNK5Tiled9MapObject13boundsUseTileEv T 46620 0
__ZNK5Tiled9MapObject14templateObjectEv T 46540 0
__ZNK5Tiled9MapObject15effectiveColorsEv T 47290 0
__ZNK5Tiled9MapObject15tileObjectShapeEPKNS_3MapE T 46d40 0
__ZNK5Tiled9MapObject17mapObjectPropertyENS0_8PropertyE T 473f0 0
__ZNK5Tiled9MapObject18effectiveClassNameEv T 464b0 0
__ZNK5Tiled9MapObject3mapEv T 47220 0
__ZNK5Tiled9MapObject5cloneEv T 488d0 0
__ZNK5Tiled9MapObject5indexEv T 46400 0
__ZNK5Tiled9MapObject9alignmentEPKNS_3MapE T 466e0 0
__ZNK5Tiled9MapReader11errorStringEv T 5d060 0
__ZNK5Tiled9MapWriter11errorStringEv T 9a480 0
__ZNK5Tiled9MapWriter12isDtdEnabledEv T 9a500 0
__ZNK5Tiled9MapWriter14minimizeOutputEv T 9a560 0
__ZNK5Tiled9TileLayer10mergedWithEPKNS_5LayerE T edde0 0
__ZNK5Tiled9TileLayer11drawMarginsEv T e9a40 0
__ZNK5Tiled9TileLayer12canMergeWithEPKNS_5LayerE T eddb0 0
__ZNK5Tiled9TileLayer12usedTilesetsEv T eca00 0
__ZNK5Tiled9TileLayer15initializeCloneEPS0_ T ef050 0
__ZNK5Tiled9TileLayer17computeDiffRegionERKS0_ T ee120 0
__ZNK5Tiled9TileLayer17referencesTilesetEPKNS_7TilesetE T ecf30 0
__ZNK5Tiled9TileLayer19sortedChunksToWriteE5QSize T ee590 0
__ZNK5Tiled9TileLayer4copyERK7QRegion T ea430 0
__ZNK5Tiled9TileLayer5cloneEv T eefd0 0
__ZNK5Tiled9TileLayer6regionENSt3__18functionIFbRKNS_4CellEEEE T e9cc0 0
__ZNK5Tiled9TileLayer7hasCellENSt3__18functionIFbRKNS_4CellEEEE T ecdb0 0
__ZNK5Tiled9TileLayer7isEmptyEv T ee500 0
__ZTIN5Tiled10FileFormatE S 1622f8 0
__ZTIN5Tiled10GroupLayerE S 162468 0
__ZTIN5Tiled10ImageLayerE S 162748 0
__ZTIN5Tiled11MapRendererE S 162f20 0
__ZTIN5Tiled11ObjectGroupE S 1630a8 0
__ZTIN5Tiled12PropertyTypeE S 163a90 0
__ZTIN5Tiled12TmxMapFormatE S 1645f0 0
__ZTIN5Tiled13PluginManagerE S 1635a8 0
__ZTIN5Tiled13TilesetFormatE S 164170 0
__ZTIN5Tiled14TilesetManagerE S 164318 0
__ZTIN5Tiled15ObliqueRendererE S 163340 0
__ZTIN5Tiled15TemplateManagerE S 163cd0 0
__ZTIN5Tiled16EnumPropertyTypeE S 163ae8 0
__ZTIN5Tiled16LoggingInterfaceE S 162910 0
__ZTIN5Tiled16TsxTilesetFormatE S 164608 0
__ZTIN5Tiled17ClassPropertyTypeE S 163b48 0
__ZTIN5Tiled17FileSystemWatcherE S 1623f0 0
__ZTIN5Tiled17HexagonalRendererE S 162590 0
__ZTIN5Tiled17IsometricRendererE S 1627f8 0
__ZTIN5Tiled17ReadableMapFormatE S 162d00 0
__ZTIN5Tiled17StaggeredRendererE S 163bf8 0
__ZTIN5Tiled17WritableMapFormatE S 162dc8 0
__ZTIN5Tiled18OrthogonalRendererE S 1633f0 0
__ZTIN5Tiled19TileAnimationDriverE S 163e00 0
__ZTIN5Tiled20ObjectTemplateFormatE S 163290 0
__ZTIN5Tiled21WritableTilesetFormatE S 164230 0
__ZTIN5Tiled23XmlObjectTemplateFormatE S 164620 0
__ZTIN5Tiled3MapE S 162948 0
__ZTIN5Tiled4TileE S 163d08 0
__ZTIN5Tiled5LayerE S 162480 0
__ZTIN5Tiled5WorldE S 164748 0
__ZTIN5Tiled6ObjectE S 163038 0
__ZTIN5Tiled6PluginE S 1634c0 0
__ZTIN5Tiled7TilesetE S 164000 0
__ZTIN5Tiled7WangSetE S 164658 0
__ZTIN5Tiled8OpenFileE S 1626c0 0
__ZTIN5Tiled9MapFormatE S 162c38 0
__ZTIN5Tiled9MapObjectE S 162e00 0
__ZTIN5Tiled9MapReaderE S 162e40 0
__ZTIN5Tiled9TileLayerE S 163fc8 0
__ZTIN5Tiled9WangColorE S 162e70 0
__ZTINSt3__110__function6__baseIFbPKvPvEEE S 163770 0
__ZTINSt3__110__function6__baseIFbPN5Tiled20ObjectTemplateFormatEEEE S 163130 0
__ZTINSt3__110__function6__baseIFbRKN5Tiled4CellEEEE S 1629d0 0
__ZTINSt3__110__function6__baseIFvvEEE S 162658 0
__ZTINSt3__110__function6__funcIN5Tiled8OpenFileEFvvEEE S 162640 0
__ZTINSt3__117bad_function_callE S 1625a8 0
__ZTSN5Tiled10FileFormatE S 15a120 0
__ZTSN5Tiled10GroupLayerE S 15a30d 0
__ZTSN5Tiled10ImageLayerE S 15a48b 0
__ZTSN5Tiled11MapRendererE S 15abc8 0
__ZTSN5Tiled11ObjectGroupE S 15ad6c 0
__ZTSN5Tiled12PropertyTypeE S 15b727 0
__ZTSN5Tiled12TmxMapFormatE S 15bf70 0
__ZTSN5Tiled13PluginManagerE S 15b154 0
__ZTSN5Tiled13TilesetFormatE S 15bce0 0
__ZTSN5Tiled14TilesetManagerE S 15bf10 0
__ZTSN5Tiled15ObliqueRendererE S 15af70 0
__ZTSN5Tiled15TemplateManagerE S 15b8c8 0
__ZTSN5Tiled16EnumPropertyTypeE S 15b73e 0
__ZTSN5Tiled16LoggingInterfaceE S 15a720 0
__ZTSN5Tiled16TsxTilesetFormatE S 15bf87 0
__ZTSN5Tiled17ClassPropertyTypeE S 15b759 0
__ZTSN5Tiled17FileSystemWatcherE S 15a2d0 0
__ZTSN5Tiled17HexagonalRendererE S 15a3e0 0
__ZTSN5Tiled17IsometricRendererE S 15a4e0 0
__ZTSN5Tiled17ReadableMapFormatE S 15a893 0
__ZTSN5Tiled17StaggeredRendererE S 15b788 0
__ZTSN5Tiled17WritableMapFormatE S 15a8af 0
__ZTSN5Tiled18OrthogonalRendererE S 15afd8 0
__ZTSN5Tiled19TileAnimationDriverE S 15b9dc 0
__ZTSN5Tiled20ObjectTemplateFormatE S 15aed0 0
__ZTSN5Tiled21WritableTilesetFormatE S 15bcf8 0
__ZTSN5Tiled23XmlObjectTemplateFormatE S 15bfa2 0
__ZTSN5Tiled3MapE S 15a77c 0
__ZTSN5Tiled4TileE S 15b91c 0
__ZTSN5Tiled5LayerE S 15a322 0
__ZTSN5Tiled5WorldE S 15c456 0
__ZTSN5Tiled6ObjectE S 15ad5b 0
__ZTSN5Tiled6PluginE S 15aff8 0
__ZTSN5Tiled7TilesetE S 15bca0 0
__ZTSN5Tiled7WangSetE S 15c164 0
__ZTSN5Tiled8OpenFileE S 15a454 0
__ZTSN5Tiled9MapFormatE S 15a880 0
__ZTSN5Tiled9MapObjectE S 15aa30 0
__ZTSN5Tiled9MapReaderE S 15aaf0 0
__ZTSN5Tiled9TileLayerE S 15bbe8 0
__ZTSN5Tiled9WangColorE S 15ab0b 0
__ZTSNSt3__110__function6__baseIFbPKvPvEEE S 15b458 0
__ZTSNSt3__110__function6__baseIFbPN5Tiled20ObjectTemplateFormatEEEE S 15ae1b 0
__ZTSNSt3__110__function6__baseIFbRKN5Tiled4CellEEEE S 15a78b 0
__ZTSNSt3__110__function6__baseIFvvEEE S 15a432 0
__ZTSNSt3__110__function6__funcIN5Tiled8OpenFileEFvvEEE S 15a3ff 0
__ZTSNSt3__117bad_function_callE S 15a548 0
__ZTVN5Tiled10FileFormatE S 162220 0
__ZTVN5Tiled10GroupLayerE S 162408 0
__ZTVN5Tiled10ImageLayerE S 1626e8 0
__ZTVN5Tiled11MapRendererE S 162e88 0
__ZTVN5Tiled11ObjectGroupE S 163048 0
__ZTVN5Tiled12PropertyTypeE S 163a48 0
__ZTVN5Tiled12TmxMapFormatE S 164330 0
__ZTVN5Tiled13PluginManagerE S 1634d8 0
__ZTVN5Tiled13TilesetFormatE S 1640c8 0
__ZTVN5Tiled14TilesetManagerE S 164248 0
__ZTVN5Tiled15ObliqueRendererE S 1632a8 0
__ZTVN5Tiled15TemplateManagerE S 163c10 0
__ZTVN5Tiled16EnumPropertyTypeE S 163aa0 0
__ZTVN5Tiled16LoggingInterfaceE S 162810 0
__ZTVN5Tiled16TsxTilesetFormatE S 1643e0 0
__ZTVN5Tiled17ClassPropertyTypeE S 163b00 0
__ZTVN5Tiled17FileSystemWatcherE S 162310 0
__ZTVN5Tiled17HexagonalRendererE S 1624f8 0
__ZTVN5Tiled17IsometricRendererE S 162760 0
__ZTVN5Tiled17ReadableMapFormatE S 162c50 0
__ZTVN5Tiled17StaggeredRendererE S 163b60 0
__ZTVN5Tiled17WritableMapFormatE S 162d18 0
__ZTVN5Tiled18OrthogonalRendererE S 163358 0
__ZTVN5Tiled19TileAnimationDriverE S 163d20 0
__ZTVN5Tiled20ObjectTemplateFormatE S 1631e8 0
__ZTVN5Tiled21WritableTilesetFormatE S 164188 0
__ZTVN5Tiled23XmlObjectTemplateFormatE S 164488 0
__ZTVN5Tiled3MapE S 162928 0
__ZTVN5Tiled4TileE S 163ce8 0
__ZTVN5Tiled6ObjectE S 163018 0
__ZTVN5Tiled6PluginE S 163408 0
__ZTVN5Tiled7TilesetE S 163fe0 0
__ZTVN5Tiled7WangSetE S 164638 0
__ZTVN5Tiled9MapFormatE S 162b88 0
__ZTVN5Tiled9MapReaderE S 162e18 0
__ZTVN5Tiled9TileLayerE S 163ef0 0
